ARM GAS  /tmp/ccNMIpAk.s 			page 1


   1              		.syntax unified
   2              		.cpu cortex-m4
   3              		.eabi_attribute 27, 1
   4              		.eabi_attribute 28, 1
   5              		.fpu fpv4-sp-d16
   6              		.eabi_attribute 20, 1
   7              		.eabi_attribute 21, 1
   8              		.eabi_attribute 23, 3
   9              		.eabi_attribute 24, 1
  10              		.eabi_attribute 25, 1
  11              		.eabi_attribute 26, 1
  12              		.eabi_attribute 30, 4
  13              		.eabi_attribute 34, 1
  14              		.eabi_attribute 18, 4
  15              		.thumb
  16              		.syntax unified
  17              		.file	"board.c"
  18              		.text
  19              	.Ltext0:
  20              		.cfi_sections	.debug_frame
  21              		.section	.text.gpio_init,"ax",%progbits
  22              		.align	1
  23              		.thumb
  24              		.thumb_func
  25              		.type	gpio_init, %function
  26              	gpio_init:
  27              	.LFB323:
  28              		.file 1 "../../libraries/AP_HAL_ChibiOS/hwdef/common/board.c"
  29              		.loc 1 158 0
  30              		.cfi_startproc
  31              		@ args = 0, pretend = 0, frame = 0
  32              		@ frame_needed = 0, uses_anonymous_args = 0
  33              		@ link register save eliminated.
  34              	.LVL0:
  35              		.loc 1 160 0
  36 0000 4B68     		ldr	r3, [r1, #4]
  37 0002 4360     		str	r3, [r0, #4]
  38              		.loc 1 161 0
  39 0004 8B68     		ldr	r3, [r1, #8]
  40 0006 8360     		str	r3, [r0, #8]
  41              		.loc 1 162 0
  42 0008 CB68     		ldr	r3, [r1, #12]
  43 000a C360     		str	r3, [r0, #12]
  44              		.loc 1 163 0
  45 000c 0B69     		ldr	r3, [r1, #16]
  46 000e 4361     		str	r3, [r0, #20]
  47              		.loc 1 164 0
  48 0010 4B69     		ldr	r3, [r1, #20]
  49 0012 0362     		str	r3, [r0, #32]
  50              		.loc 1 165 0
  51 0014 8B69     		ldr	r3, [r1, #24]
  52 0016 4362     		str	r3, [r0, #36]
  53              		.loc 1 166 0
  54 0018 0B68     		ldr	r3, [r1]
  55 001a 0360     		str	r3, [r0]
  56 001c 7047     		bx	lr
  57              		.cfi_endproc
ARM GAS  /tmp/ccNMIpAk.s 			page 2


  58              	.LFE323:
  59              		.size	gpio_init, .-gpio_init
  60              		.section	.text.__early_init,"ax",%progbits
  61              		.align	1
  62              		.global	__early_init
  63              		.thumb
  64              		.thumb_func
  65              		.type	__early_init, %function
  66              	__early_init:
  67              	.LFB325:
  68              		.loc 1 224 0
  69              		.cfi_startproc
  70              		@ args = 0, pretend = 0, frame = 0
  71              		@ frame_needed = 0, uses_anonymous_args = 0
  72 0000 08B5     		push	{r3, lr}
  73              		.cfi_def_cfa_offset 8
  74              		.cfi_offset 3, -8
  75              		.cfi_offset 14, -4
  76              	.LBB4:
  77              	.LBB5:
  78              		.loc 1 177 0
  79 0002 224B     		ldr	r3, .L3
  80              		.loc 1 183 0
  81 0004 2248     		ldr	r0, .L3+4
  82              		.loc 1 177 0
  83 0006 1969     		ldr	r1, [r3, #16]
  84 0008 40F2FF12 		movw	r2, #511
  85 000c 1143     		orrs	r1, r1, r2
  86 000e 1961     		str	r1, [r3, #16]
  87 0010 1969     		ldr	r1, [r3, #16]
  88 0012 21F4FF71 		bic	r1, r1, #510
  89 0016 21F00101 		bic	r1, r1, #1
  90 001a 1961     		str	r1, [r3, #16]
  91 001c 1969     		ldr	r1, [r3, #16]
  92              		.loc 1 178 0
  93 001e 196B     		ldr	r1, [r3, #48]
  94 0020 1143     		orrs	r1, r1, r2
  95 0022 1963     		str	r1, [r3, #48]
  96 0024 196D     		ldr	r1, [r3, #80]
  97 0026 0A43     		orrs	r2, r2, r1
  98 0028 1A65     		str	r2, [r3, #80]
  99              		.loc 1 183 0
 100 002a 1A4A     		ldr	r2, .L3+8
 101              		.loc 1 178 0
 102 002c 1B6D     		ldr	r3, [r3, #80]
 103              		.loc 1 183 0
 104 002e 1146     		mov	r1, r2
 105 0030 FFF7FEFF 		bl	gpio_init
 106              	.LVL1:
 107              		.loc 1 186 0
 108 0034 1848     		ldr	r0, .L3+12
 109 0036 02F11C01 		add	r1, r2, #28
 110 003a FFF7FEFF 		bl	gpio_init
 111              	.LVL2:
 112              		.loc 1 189 0
 113 003e 1748     		ldr	r0, .L3+16
 114 0040 02F13801 		add	r1, r2, #56
ARM GAS  /tmp/ccNMIpAk.s 			page 3


 115 0044 FFF7FEFF 		bl	gpio_init
 116              	.LVL3:
 117              		.loc 1 192 0
 118 0048 1548     		ldr	r0, .L3+20
 119 004a 02F15401 		add	r1, r2, #84
 120 004e FFF7FEFF 		bl	gpio_init
 121              	.LVL4:
 122              		.loc 1 195 0
 123 0052 1448     		ldr	r0, .L3+24
 124 0054 02F17001 		add	r1, r2, #112
 125 0058 FFF7FEFF 		bl	gpio_init
 126              	.LVL5:
 127              		.loc 1 198 0
 128 005c 1248     		ldr	r0, .L3+28
 129 005e 02F18C01 		add	r1, r2, #140
 130 0062 FFF7FEFF 		bl	gpio_init
 131              	.LVL6:
 132              		.loc 1 201 0
 133 0066 1148     		ldr	r0, .L3+32
 134 0068 02F1A801 		add	r1, r2, #168
 135 006c FFF7FEFF 		bl	gpio_init
 136              	.LVL7:
 137              		.loc 1 204 0
 138 0070 0F48     		ldr	r0, .L3+36
 139 0072 02F1C401 		add	r1, r2, #196
 140 0076 FFF7FEFF 		bl	gpio_init
 141              	.LVL8:
 142              		.loc 1 207 0
 143 007a 0E48     		ldr	r0, .L3+40
 144 007c 02F1E001 		add	r1, r2, #224
 145 0080 FFF7FEFF 		bl	gpio_init
 146              	.LVL9:
 147              	.LBE5:
 148              	.LBE4:
 149              		.loc 1 232 0
 150 0084 BDE80840 		pop	{r3, lr}
 151              		.cfi_restore 14
 152              		.cfi_restore 3
 153              		.cfi_def_cfa_offset 0
 154              		.loc 1 228 0
 155 0088 FFF7FEBF 		b	stm32_clock_init
 156              	.LVL10:
 157              	.L4:
 158              		.align	2
 159              	.L3:
 160 008c 00380240 		.word	1073887232
 161 0090 00000240 		.word	1073872896
 162 0094 00000000 		.word	.LANCHOR0
 163 0098 00040240 		.word	1073873920
 164 009c 00080240 		.word	1073874944
 165 00a0 000C0240 		.word	1073875968
 166 00a4 00100240 		.word	1073876992
 167 00a8 00140240 		.word	1073878016
 168 00ac 00180240 		.word	1073879040
 169 00b0 001C0240 		.word	1073880064
 170 00b4 00200240 		.word	1073881088
 171              		.cfi_endproc
ARM GAS  /tmp/ccNMIpAk.s 			page 4


 172              	.LFE325:
 173              		.size	__early_init, .-__early_init
 174              		.section	.text.__late_init,"ax",%progbits
 175              		.align	1
 176              		.global	__late_init
 177              		.thumb
 178              		.thumb_func
 179              		.type	__late_init, %function
 180              	__late_init:
 181              	.LFB326:
 182              		.loc 1 234 0
 183              		.cfi_startproc
 184              		@ args = 0, pretend = 0, frame = 0
 185              		@ frame_needed = 0, uses_anonymous_args = 0
 186 0000 08B5     		push	{r3, lr}
 187              		.cfi_def_cfa_offset 8
 188              		.cfi_offset 3, -8
 189              		.cfi_offset 14, -4
 190              		.loc 1 235 0
 191 0002 FFF7FEFF 		bl	halInit
 192              	.LVL11:
 193              		.loc 1 236 0
 194 0006 FFF7FEFF 		bl	chSysInit
 195              	.LVL12:
 196              		.loc 1 237 0
 197 000a FFF7FEFF 		bl	stm32_watchdog_save_reason
 198              	.LVL13:
 199              		.loc 1 239 0
 200 000e FFF7FEFF 		bl	stm32_watchdog_clear_reason
 201              	.LVL14:
 202              		.loc 1 242 0
 203 0012 FFF7FEFF 		bl	malloc_init
 204              	.LVL15:
 205              		.loc 1 247 0
 206 0016 BDE80840 		pop	{r3, lr}
 207              		.cfi_restore 14
 208              		.cfi_restore 3
 209              		.cfi_def_cfa_offset 0
 210              		.loc 1 245 0
 211 001a FFF7FEBF 		b	setup_usb_strings
 212              	.LVL16:
 213              		.cfi_endproc
 214              	.LFE326:
 215              		.size	__late_init, .-__late_init
 216              		.section	.text.sdc_lld_is_card_inserted,"ax",%progbits
 217              		.align	1
 218              		.global	sdc_lld_is_card_inserted
 219              		.thumb
 220              		.thumb_func
 221              		.type	sdc_lld_is_card_inserted, %function
 222              	sdc_lld_is_card_inserted:
 223              	.LFB327:
 224              		.loc 1 253 0
 225              		.cfi_startproc
 226              		@ args = 0, pretend = 0, frame = 0
 227              		@ frame_needed = 0, uses_anonymous_args = 0
 228              		@ link register save eliminated.
ARM GAS  /tmp/ccNMIpAk.s 			page 5


 229              	.LVL17:
 230              		.loc 1 256 0
 231 0000 0120     		movs	r0, #1
 232              	.LVL18:
 233 0002 7047     		bx	lr
 234              		.cfi_endproc
 235              	.LFE327:
 236              		.size	sdc_lld_is_card_inserted, .-sdc_lld_is_card_inserted
 237              		.section	.text.sdc_lld_is_write_protected,"ax",%progbits
 238              		.align	1
 239              		.global	sdc_lld_is_write_protected
 240              		.thumb
 241              		.thumb_func
 242              		.type	sdc_lld_is_write_protected, %function
 243              	sdc_lld_is_write_protected:
 244              	.LFB328:
 245              		.loc 1 261 0
 246              		.cfi_startproc
 247              		@ args = 0, pretend = 0, frame = 0
 248              		@ frame_needed = 0, uses_anonymous_args = 0
 249              		@ link register save eliminated.
 250              	.LVL19:
 251              		.loc 1 265 0
 252 0000 0020     		movs	r0, #0
 253              	.LVL20:
 254 0002 7047     		bx	lr
 255              		.cfi_endproc
 256              	.LFE328:
 257              		.size	sdc_lld_is_write_protected, .-sdc_lld_is_write_protected
 258              		.section	.text.boardInit,"ax",%progbits
 259              		.align	1
 260              		.global	boardInit
 261              		.thumb
 262              		.thumb_func
 263              		.type	boardInit, %function
 264              	boardInit:
 265              	.LFB329:
 266              		.loc 1 292 0
 267              		.cfi_startproc
 268              		@ args = 0, pretend = 0, frame = 0
 269              		@ frame_needed = 0, uses_anonymous_args = 0
 270              		@ link register save eliminated.
 271 0000 7047     		bx	lr
 272              		.cfi_endproc
 273              	.LFE329:
 274              		.size	boardInit, .-boardInit
 275              		.section	.rodata.gpio_default_config,"a",%progbits
 276              		.align	2
 277              		.set	.LANCHOR0,. + 0
 278              		.type	gpio_default_config, %object
 279              		.size	gpio_default_config, 252
 280              	gpio_default_config:
 281 0000 FAAB81AA 		.word	-1434342406
 282 0004 00020000 		.word	512
 283 0008 AAAAAAAA 		.word	-1431655766
 284 000c 05000000 		.word	5
 285 0010 FFFF0000 		.word	65535
ARM GAS  /tmp/ccNMIpAk.s 			page 6


 286 0014 88005055 		.word	1431306376
 287 0018 00A00A10 		.word	269131776
 288 001c 0520AAAA 		.word	-1431691259
 289 0020 000F0000 		.word	3840
 290 0024 AAAAAAAA 		.word	-1431655766
 291 0028 00440000 		.word	17408
 292 002c FFFF0000 		.word	65535
 293 0030 00000009 		.word	150994944
 294 0034 44445955 		.word	1431913540
 295 0038 D4AFAA56 		.word	1454026708
 296 003c 00000000 		.word	0
 297 0040 AAAAAAAA 		.word	-1431655766
 298 0044 14505554 		.word	1414877204
 299 0048 FFFF0000 		.word	65535
 300 004c 00000088 		.word	-2013265920
 301 0050 CCCC0C00 		.word	838860
 302 0054 AA699A29 		.word	697985450
 303 0058 00000000 		.word	0
 304 005c AAAA8AAA 		.word	-1433752918
 305 0060 50555501 		.word	22369616
 306 0064 FFFF0000 		.word	65535
 307 0068 997C7007 		.word	124812441
 308 006c 77702002 		.word	35680375
 309 0070 6AA98A29 		.word	696953194
 310 0074 00100000 		.word	4096
 311 0078 AAAAAAAA 		.word	-1431655766
 312 007c 05411140 		.word	1074872581
 313 0080 F7FF0000 		.word	65527
 314 0084 88055085 		.word	-2058353272
 315 0088 18101001 		.word	17829912
 316 008c 00000000 		.word	0
 317 0090 00000000 		.word	0
 318 0094 AAAAAAAA 		.word	-1431655766
 319 0098 00000000 		.word	0
 320 009c FFFF0000 		.word	65535
 321 00a0 00000000 		.word	0
 322 00a4 00000000 		.word	0
 323 00a8 00000000 		.word	0
 324 00ac 00000000 		.word	0
 325 00b0 AAAAAAAA 		.word	-1431655766
 326 00b4 00000000 		.word	0
 327 00b8 FFFF0000 		.word	65535
 328 00bc 00000000 		.word	0
 329 00c0 00000000 		.word	0
 330 00c4 00000000 		.word	0
 331 00c8 00000000 		.word	0
 332 00cc 0A000000 		.word	10
 333 00d0 00000000 		.word	0
 334 00d4 03000000 		.word	3
 335 00d8 00000000 		.word	0
 336 00dc 00000000 		.word	0
 337 00e0 00000000 		.word	0
 338 00e4 00000000 		.word	0
 339 00e8 00000000 		.word	0
 340 00ec 00000000 		.word	0
 341 00f0 00000000 		.word	0
 342 00f4 00000000 		.word	0
ARM GAS  /tmp/ccNMIpAk.s 			page 7


 343 00f8 00000000 		.word	0
 344              		.text
 345              	.Letext0:
 346              		.file 2 "/usr/lib/gcc/arm-none-eabi/5.4.1/include/stddef.h"
 347              		.file 3 "/usr/include/newlib/machine/_default_types.h"
 348              		.file 4 "/usr/include/newlib/sys/_stdint.h"
 349              		.file 5 "../../modules/ChibiOS/os/common/ports/ARMCMx/compilers/GCC/chtypes.h"
 350              		.file 6 "../../modules/ChibiOS/os/rt/include/chsystypes.h"
 351              		.file 7 "../../modules/ChibiOS/os/rt/include/chschd.h"
 352              		.file 8 "../../modules/ChibiOS/os/rt/include/chtime.h"
 353              		.file 9 "../../modules/ChibiOS/os/common/ext/ST/STM32F4xx/stm32f427xx.h"
 354              		.file 10 "../../modules/ChibiOS/os/common/ports/ARMCMx/chcore.h"
 355              		.file 11 "../../modules/ChibiOS/os/common/ports/ARMCMx/chcore_v7m.h"
 356              		.file 12 "../../modules/ChibiOS/os/rt/include/chtm.h"
 357              		.file 13 "../../modules/ChibiOS/os/rt/include/chstats.h"
 358              		.file 14 "../../modules/ChibiOS/os/rt/include/chsem.h"
 359              		.file 15 "../../modules/ChibiOS/os/rt/include/chmtx.h"
 360              		.file 16 "../../modules/ChibiOS/os/hal/ports/STM32/LLD/DMAv2/stm32_dma.h"
 361              		.file 17 "../../modules/ChibiOS/os/hal/include/hal_ioblock.h"
 362              		.file 18 "../../modules/ChibiOS/os/hal/ports/STM32/LLD/GPIOv2/stm32_gpio.h"
 363              		.file 19 "../../modules/ChibiOS/os/hal/include/hal_sdc.h"
 364              		.file 20 "../../modules/ChibiOS/os/hal/ports/STM32/LLD/SDIOv1/hal_sdc_lld.h"
 365              		.file 21 "../../modules/ChibiOS/os/hal/ports/STM32/STM32F4xx/hal_lld_type1.h"
 366              		.file 22 "../../modules/ChibiOS/os/hal/include/hal.h"
 367              		.file 23 "../../modules/ChibiOS/os/rt/include/chsys.h"
 368              		.file 24 "../../libraries/AP_HAL_ChibiOS/hwdef/common/watchdog.h"
 369              		.file 25 "../../libraries/AP_HAL_ChibiOS/hwdef/common/stm32_util.h"
 370              		.file 26 "../../libraries/AP_HAL_ChibiOS/hwdef/common/usbcfg.h"
 371              		.file 27 "../../modules/ChibiOS/os/common/ext/ARM/CMSIS/Core/Include/core_cm4.h"