ARM GAS  /tmp/ccyXT0C6.s 			page 1


   1              		.syntax unified
   2              		.cpu cortex-m4
   3              		.eabi_attribute 27, 1
   4              		.eabi_attribute 28, 1
   5              		.fpu fpv4-sp-d16
   6              		.eabi_attribute 20, 1
   7              		.eabi_attribute 21, 1
   8              		.eabi_attribute 23, 3
   9              		.eabi_attribute 24, 1
  10              		.eabi_attribute 25, 1
  11              		.eabi_attribute 26, 1
  12              		.eabi_attribute 30, 6
  13              		.eabi_attribute 34, 1
  14              		.eabi_attribute 18, 4
  15              		.thumb
  16              		.syntax unified
  17              		.file	"ch.cpp"
  18              		.text
  19              	.Ltext0:
  20              		.cfi_sections	.debug_frame
  21              		.section	.text._ZL19chSysGetIdleThreadXv,"ax",%progbits
  22              		.align	2
  23              		.p2align 4,,15
  24              		.thumb
  25              		.thumb_func
  26              		.type	_ZL19chSysGetIdleThreadXv, %function
  27              	_ZL19chSysGetIdleThreadXv:
  28              		.fnstart
  29              	.LFB190:
  30              		.file 1 "../../modules/ChibiOS/os/rt/include/chsys.h"
  31              		.loc 1 461 0
  32              		.cfi_startproc
  33              		@ args = 0, pretend = 0, frame = 0
  34              		@ frame_needed = 0, uses_anonymous_args = 0
  35              		@ link register save eliminated.
  36              		.loc 1 463 0
  37 0000 014B     		ldr	r3, .L3
  38 0002 5B68     		ldr	r3, [r3, #4]
  39              		.loc 1 464 0
  40 0004 1846     		mov	r0, r3
  41 0006 7047     		bx	lr
  42              	.L4:
  43              		.align	2
  44              	.L3:
  45 0008 00000000 		.word	ch
  46              		.cfi_endproc
  47              	.LFE190:
  48              		.cantunwind
  49              		.fnend
  50              		.size	_ZL19chSysGetIdleThreadXv, .-_ZL19chSysGetIdleThreadXv
  51              		.section	.text._ZN10chibios_rt15ThreadReferenceC2EP9ch_thread,"axG",%progbits,_ZN10chibios_rt15Thr
  52              		.align	2
  53              		.p2align 4,,15
  54              		.weak	_ZN10chibios_rt15ThreadReferenceC2EP9ch_thread
  55              		.thumb
  56              		.thumb_func
  57              		.type	_ZN10chibios_rt15ThreadReferenceC2EP9ch_thread, %function
ARM GAS  /tmp/ccyXT0C6.s 			page 2


  58              	_ZN10chibios_rt15ThreadReferenceC2EP9ch_thread:
  59              		.fnstart
  60              	.LFB329:
  61              		.file 2 "../../modules/ChibiOS/os/various/cpp_wrappers/ch.hpp"
  62              		.loc 2 622 0
  63              		.cfi_startproc
  64              		@ args = 0, pretend = 0, frame = 8
  65              		@ frame_needed = 0, uses_anonymous_args = 0
  66              		@ link register save eliminated.
  67 0000 82B0     		sub	sp, sp, #8
  68              		.cfi_def_cfa_offset 8
  69 0002 0190     		str	r0, [sp, #4]
  70 0004 0091     		str	r1, [sp]
  71              	.LBB2:
  72              		.loc 2 622 0
  73 0006 019B     		ldr	r3, [sp, #4]
  74 0008 009A     		ldr	r2, [sp]
  75 000a 1A60     		str	r2, [r3]
  76              	.LBE2:
  77              		.loc 2 624 0
  78 000c 019B     		ldr	r3, [sp, #4]
  79 000e 1846     		mov	r0, r3
  80 0010 02B0     		add	sp, sp, #8
  81              		.cfi_def_cfa_offset 0
  82              		@ sp needed
  83 0012 7047     		bx	lr
  84              		.cfi_endproc
  85              	.LFE329:
  86              		.cantunwind
  87              		.fnend
  88              		.size	_ZN10chibios_rt15ThreadReferenceC2EP9ch_thread, .-_ZN10chibios_rt15ThreadReferenceC2EP9ch_th
  89              		.weak	_ZN10chibios_rt15ThreadReferenceC1EP9ch_thread
  90              		.thumb_set _ZN10chibios_rt15ThreadReferenceC1EP9ch_thread,_ZN10chibios_rt15ThreadReferenceC2EP9ch_
  91              		.section	.text._ZN10chibios_rt6System14getIdleThreadXEv,"ax",%progbits
  92              		.align	2
  93              		.p2align 4,,15
  94              		.global	_ZN10chibios_rt6System14getIdleThreadXEv
  95              		.thumb
  96              		.thumb_func
  97              		.type	_ZN10chibios_rt6System14getIdleThreadXEv, %function
  98              	_ZN10chibios_rt6System14getIdleThreadXEv:
  99              		.fnstart
 100              	.LFB486:
 101              		.file 3 "../../modules/ChibiOS/os/various/cpp_wrappers/ch.cpp"
 102              		.loc 3 29 0
 103              		.cfi_startproc
 104              		@ args = 0, pretend = 0, frame = 8
 105              		@ frame_needed = 0, uses_anonymous_args = 0
 106 0000 00B5     		push	{lr}
 107              		.cfi_def_cfa_offset 4
 108              		.cfi_offset 14, -4
 109 0002 83B0     		sub	sp, sp, #12
 110              		.cfi_def_cfa_offset 16
 111              		.loc 3 31 0
 112 0004 FFF7FEFF 		bl	_ZL19chSysGetIdleThreadXv
 113 0008 0246     		mov	r2, r0
 114 000a 01AB     		add	r3, sp, #4
ARM GAS  /tmp/ccyXT0C6.s 			page 3


 115 000c 1146     		mov	r1, r2
 116 000e 1846     		mov	r0, r3
 117 0010 FFF7FEFF 		bl	_ZN10chibios_rt15ThreadReferenceC1EP9ch_thread
 118 0014 019B     		ldr	r3, [sp, #4]
 119              		.loc 3 32 0
 120 0016 1846     		mov	r0, r3
 121 0018 03B0     		add	sp, sp, #12
 122              		.cfi_def_cfa_offset 4
 123              		@ sp needed
 124 001a 5DF804FB 		ldr	pc, [sp], #4
 125              		.cfi_endproc
 126              	.LFE486:
 127              		.cantunwind
 128              		.fnend
 129              		.size	_ZN10chibios_rt6System14getIdleThreadXEv, .-_ZN10chibios_rt6System14getIdleThreadXEv
 130 001e 00BF     		.section	.text._ZN10chibios_rt10_thd_startEPv,"ax",%progbits
 131              		.align	2
 132              		.p2align 4,,15
 133              		.global	_ZN10chibios_rt10_thd_startEPv
 134              		.thumb
 135              		.thumb_func
 136              		.type	_ZN10chibios_rt10_thd_startEPv, %function
 137              	_ZN10chibios_rt10_thd_startEPv:
 138              		.fnstart
 139              	.LFB487:
 140              		.loc 3 39 0
 141              		.cfi_startproc
 142              		@ args = 0, pretend = 0, frame = 8
 143              		@ frame_needed = 0, uses_anonymous_args = 0
 144 0000 00B5     		push	{lr}
 145              		.save {lr}
 146              		.cfi_def_cfa_offset 4
 147              		.cfi_offset 14, -4
 148              		.pad #12
 149 0002 83B0     		sub	sp, sp, #12
 150              		.cfi_def_cfa_offset 16
 151 0004 0190     		str	r0, [sp, #4]
 152              		.loc 3 41 0
 153 0006 019B     		ldr	r3, [sp, #4]
 154 0008 1B68     		ldr	r3, [r3]
 155 000a 1B68     		ldr	r3, [r3]
 156 000c 0198     		ldr	r0, [sp, #4]
 157 000e 9847     		blx	r3
 158              		.loc 3 42 0
 159 0010 00BF     		nop
 160 0012 03B0     		add	sp, sp, #12
 161              		.cfi_def_cfa_offset 4
 162              		@ sp needed
 163 0014 5DF804FB 		ldr	pc, [sp], #4
 164              		.cfi_endproc
 165              	.LFE487:
 166              		.fnend
 167              		.size	_ZN10chibios_rt10_thd_startEPv, .-_ZN10chibios_rt10_thd_startEPv
 168              		.text
 169              	.Letext0:
 170              		.file 4 "/usr/include/newlib/machine/_default_types.h"
 171              		.file 5 "/usr/include/newlib/sys/_stdint.h"
ARM GAS  /tmp/ccyXT0C6.s 			page 4


 172              		.file 6 "../../modules/ChibiOS/os/common/ports/ARMCMx/compilers/GCC/chtypes.h"
 173              		.file 7 "../../modules/ChibiOS/os/rt/include/chsystypes.h"
 174              		.file 8 "../../modules/ChibiOS/os/rt/include/chschd.h"
 175              		.file 9 "../../modules/ChibiOS/os/rt/include/chtime.h"
 176              		.file 10 "../../modules/ChibiOS/os/common/ports/ARMCMx/chcore.h"
 177              		.file 11 "../../modules/ChibiOS/os/common/ports/ARMCMx/chcore_v7m.h"
 178              		.file 12 "../../modules/ChibiOS/os/rt/include/chtm.h"
 179              		.file 13 "../../modules/ChibiOS/os/rt/include/chstats.h"
 180              		.file 14 "../../modules/ChibiOS/os/rt/include/chsem.h"
 181              		.file 15 "../../modules/ChibiOS/os/rt/include/chmtx.h"
 182              		.file 16 "../../modules/ChibiOS/os/rt/include/chevents.h"
 183              		.file 17 "../../modules/ChibiOS/os/common/ext/ARM/CMSIS/Core/Include/core_cm4.h"
 184              		.section	.debug_info,"",%progbits
 185              	.Ldebug_info0:
 186 0000 4A0F0000 		.4byte	0xf4a
 187 0004 0400     		.2byte	0x4
 188 0006 00000000 		.4byte	.Ldebug_abbrev0
 189 000a 04       		.byte	0x4
 190 000b 01       		.uleb128 0x1
 191 000c D20F0000 		.4byte	.LASF232
 192 0010 04       		.byte	0x4
 193 0011 4E040000 		.4byte	.LASF233
 194 0015 D40B0000 		.4byte	.LASF234
 195 0019 00000000 		.4byte	.Ldebug_ranges0+0
 196 001d 00000000 		.4byte	0
 197 0021 00000000 		.4byte	.Ldebug_line0
 198 0025 02       		.uleb128 0x2
 199 0026 04       		.byte	0x4
 200 0027 05       		.byte	0x5
 201 0028 696E7400 		.ascii	"int\000"
 202 002c 03       		.uleb128 0x3
 203 002d 04       		.byte	0x4
 204 002e 07       		.byte	0x7
 205 002f A70A0000 		.4byte	.LASF0
 206 0033 03       		.uleb128 0x3
 207 0034 08       		.byte	0x8
 208 0035 05       		.byte	0x5
 209 0036 C0080000 		.4byte	.LASF1
 210 003a 03       		.uleb128 0x3
 211 003b 08       		.byte	0x8
 212 003c 04       		.byte	0x4
 213 003d 4D0C0000 		.4byte	.LASF2
 214 0041 04       		.uleb128 0x4
 215 0042 39050000 		.4byte	.LASF235
 216 0046 03       		.uleb128 0x3
 217 0047 01       		.byte	0x1
 218 0048 06       		.byte	0x6
 219 0049 0B030000 		.4byte	.LASF3
 220 004d 05       		.uleb128 0x5
 221 004e 82010000 		.4byte	.LASF7
 222 0052 04       		.byte	0x4
 223 0053 1D       		.byte	0x1d
 224 0054 58000000 		.4byte	0x58
 225 0058 03       		.uleb128 0x3
 226 0059 01       		.byte	0x1
 227 005a 08       		.byte	0x8
 228 005b A5030000 		.4byte	.LASF4
ARM GAS  /tmp/ccyXT0C6.s 			page 5


 229 005f 03       		.uleb128 0x3
 230 0060 02       		.byte	0x2
 231 0061 05       		.byte	0x5
 232 0062 EB100000 		.4byte	.LASF5
 233 0066 03       		.uleb128 0x3
 234 0067 02       		.byte	0x2
 235 0068 07       		.byte	0x7
 236 0069 F9120000 		.4byte	.LASF6
 237 006d 05       		.uleb128 0x5
 238 006e 7F130000 		.4byte	.LASF8
 239 0072 04       		.byte	0x4
 240 0073 3F       		.byte	0x3f
 241 0074 78000000 		.4byte	0x78
 242 0078 03       		.uleb128 0x3
 243 0079 04       		.byte	0x4
 244 007a 05       		.byte	0x5
 245 007b B7010000 		.4byte	.LASF9
 246 007f 05       		.uleb128 0x5
 247 0080 AD080000 		.4byte	.LASF10
 248 0084 04       		.byte	0x4
 249 0085 41       		.byte	0x41
 250 0086 8A000000 		.4byte	0x8a
 251 008a 03       		.uleb128 0x3
 252 008b 04       		.byte	0x4
 253 008c 07       		.byte	0x7
 254 008d 06070000 		.4byte	.LASF11
 255 0091 05       		.uleb128 0x5
 256 0092 FB060000 		.4byte	.LASF12
 257 0096 04       		.byte	0x4
 258 0097 5B       		.byte	0x5b
 259 0098 9C000000 		.4byte	0x9c
 260 009c 03       		.uleb128 0x3
 261 009d 08       		.byte	0x8
 262 009e 07       		.byte	0x7
 263 009f 660D0000 		.4byte	.LASF13
 264 00a3 05       		.uleb128 0x5
 265 00a4 1E030000 		.4byte	.LASF14
 266 00a8 05       		.byte	0x5
 267 00a9 18       		.byte	0x18
 268 00aa 4D000000 		.4byte	0x4d
 269 00ae 05       		.uleb128 0x5
 270 00af 5C000000 		.4byte	.LASF15
 271 00b3 05       		.byte	0x5
 272 00b4 2C       		.byte	0x2c
 273 00b5 6D000000 		.4byte	0x6d
 274 00b9 05       		.uleb128 0x5
 275 00ba 76120000 		.4byte	.LASF16
 276 00be 05       		.byte	0x5
 277 00bf 30       		.byte	0x30
 278 00c0 7F000000 		.4byte	0x7f
 279 00c4 05       		.uleb128 0x5
 280 00c5 F5100000 		.4byte	.LASF17
 281 00c9 05       		.byte	0x5
 282 00ca 3C       		.byte	0x3c
 283 00cb 91000000 		.4byte	0x91
 284 00cf 05       		.uleb128 0x5
 285 00d0 B40A0000 		.4byte	.LASF18
ARM GAS  /tmp/ccyXT0C6.s 			page 6


 286 00d4 06       		.byte	0x6
 287 00d5 27       		.byte	0x27
 288 00d6 B9000000 		.4byte	0xb9
 289 00da 05       		.uleb128 0x5
 290 00db 59020000 		.4byte	.LASF19
 291 00df 06       		.byte	0x6
 292 00e0 28       		.byte	0x28
 293 00e1 C4000000 		.4byte	0xc4
 294 00e5 05       		.uleb128 0x5
 295 00e6 F8030000 		.4byte	.LASF20
 296 00ea 06       		.byte	0x6
 297 00eb 29       		.byte	0x29
 298 00ec B9000000 		.4byte	0xb9
 299 00f0 05       		.uleb128 0x5
 300 00f1 5A0F0000 		.4byte	.LASF21
 301 00f5 06       		.byte	0x6
 302 00f6 2A       		.byte	0x2a
 303 00f7 A3000000 		.4byte	0xa3
 304 00fb 05       		.uleb128 0x5
 305 00fc 50020000 		.4byte	.LASF22
 306 0100 06       		.byte	0x6
 307 0101 2B       		.byte	0x2b
 308 0102 A3000000 		.4byte	0xa3
 309 0106 05       		.uleb128 0x5
 310 0107 0E120000 		.4byte	.LASF23
 311 010b 06       		.byte	0x6
 312 010c 2C       		.byte	0x2c
 313 010d A3000000 		.4byte	0xa3
 314 0111 05       		.uleb128 0x5
 315 0112 54000000 		.4byte	.LASF24
 316 0116 06       		.byte	0x6
 317 0117 2E       		.byte	0x2e
 318 0118 B9000000 		.4byte	0xb9
 319 011c 05       		.uleb128 0x5
 320 011d AC0D0000 		.4byte	.LASF25
 321 0121 06       		.byte	0x6
 322 0122 2F       		.byte	0x2f
 323 0123 AE000000 		.4byte	0xae
 324 0127 05       		.uleb128 0x5
 325 0128 4C0E0000 		.4byte	.LASF26
 326 012c 06       		.byte	0x6
 327 012d 30       		.byte	0x30
 328 012e AE000000 		.4byte	0xae
 329 0132 05       		.uleb128 0x5
 330 0133 67030000 		.4byte	.LASF27
 331 0137 06       		.byte	0x6
 332 0138 31       		.byte	0x31
 333 0139 B9000000 		.4byte	0xb9
 334 013d 05       		.uleb128 0x5
 335 013e 16060000 		.4byte	.LASF28
 336 0142 06       		.byte	0x6
 337 0143 33       		.byte	0x33
 338 0144 AE000000 		.4byte	0xae
 339 0148 05       		.uleb128 0x5
 340 0149 51080000 		.4byte	.LASF29
 341 014d 06       		.byte	0x6
 342 014e 34       		.byte	0x34
ARM GAS  /tmp/ccyXT0C6.s 			page 7


 343 014f B9000000 		.4byte	0xb9
 344 0153 05       		.uleb128 0x5
 345 0154 440C0000 		.4byte	.LASF30
 346 0158 07       		.byte	0x7
 347 0159 34       		.byte	0x34
 348 015a 5E010000 		.4byte	0x15e
 349 015e 06       		.uleb128 0x6
 350 015f 49070000 		.4byte	.LASF57
 351 0163 60       		.byte	0x60
 352 0164 08       		.byte	0x8
 353 0165 8E       		.byte	0x8e
 354 0166 AB020000 		.4byte	0x2ab
 355 016a 07       		.uleb128 0x7
 356 016b 04       		.byte	0x4
 357 016c 08       		.byte	0x8
 358 016d C6       		.byte	0xc6
 359 016e CC010000 		.4byte	0x1cc
 360 0172 08       		.uleb128 0x8
 361 0173 F2120000 		.4byte	.LASF31
 362 0177 08       		.byte	0x8
 363 0178 CD       		.byte	0xcd
 364 0179 1C010000 		.4byte	0x11c
 365 017d 08       		.uleb128 0x8
 366 017e 51010000 		.4byte	.LASF32
 367 0182 08       		.byte	0x8
 368 0183 D4       		.byte	0xd4
 369 0184 1C010000 		.4byte	0x11c
 370 0188 08       		.uleb128 0x8
 371 0189 E8040000 		.4byte	.LASF33
 372 018d 08       		.byte	0x8
 373 018e DB       		.byte	0xdb
 374 018f 93030000 		.4byte	0x393
 375 0193 08       		.uleb128 0x8
 376 0194 9F030000 		.4byte	.LASF34
 377 0198 08       		.byte	0x8
 378 0199 E2       		.byte	0xe2
 379 019a 23070000 		.4byte	0x723
 380 019e 08       		.uleb128 0x8
 381 019f B30C0000 		.4byte	.LASF35
 382 01a3 08       		.byte	0x8
 383 01a4 E7       		.byte	0xe7
 384 01a5 1C010000 		.4byte	0x11c
 385 01a9 08       		.uleb128 0x8
 386 01aa 3D000000 		.4byte	.LASF36
 387 01ae 08       		.byte	0x8
 388 01af F0       		.byte	0xf0
 389 01b0 4E070000 		.4byte	0x74e
 390 01b4 08       		.uleb128 0x8
 391 01b5 8D060000 		.4byte	.LASF37
 392 01b9 08       		.byte	0x8
 393 01ba F9       		.byte	0xf9
 394 01bb 85070000 		.4byte	0x785
 395 01bf 09       		.uleb128 0x9
 396 01c0 17030000 		.4byte	.LASF38
 397 01c4 08       		.byte	0x8
 398 01c5 0101     		.2byte	0x101
 399 01c7 32010000 		.4byte	0x132
ARM GAS  /tmp/ccyXT0C6.s 			page 8


 400 01cb 00       		.byte	0
 401 01cc 0A       		.uleb128 0xa
 402 01cd 5B0E0000 		.4byte	.LASF39
 403 01d1 08       		.byte	0x8
 404 01d2 8F       		.byte	0x8f
 405 01d3 E0020000 		.4byte	0x2e0
 406 01d7 00       		.byte	0
 407 01d8 0A       		.uleb128 0xa
 408 01d9 4C010000 		.4byte	.LASF40
 409 01dd 08       		.byte	0x8
 410 01de 90       		.byte	0x90
 411 01df 11010000 		.4byte	0x111
 412 01e3 08       		.byte	0x8
 413 01e4 0B       		.uleb128 0xb
 414 01e5 63747800 		.ascii	"ctx\000"
 415 01e9 08       		.byte	0x8
 416 01ea 91       		.byte	0x91
 417 01eb FB040000 		.4byte	0x4fb
 418 01ef 0C       		.byte	0xc
 419 01f0 0A       		.uleb128 0xa
 420 01f1 70120000 		.4byte	.LASF41
 421 01f5 08       		.byte	0x8
 422 01f6 93       		.byte	0x93
 423 01f7 B6020000 		.4byte	0x2b6
 424 01fb 10       		.byte	0x10
 425 01fc 0A       		.uleb128 0xa
 426 01fd 42080000 		.4byte	.LASF42
 427 0201 08       		.byte	0x8
 428 0202 94       		.byte	0x94
 429 0203 B6020000 		.4byte	0x2b6
 430 0207 14       		.byte	0x14
 431 0208 0A       		.uleb128 0xa
 432 0209 CD0F0000 		.4byte	.LASF43
 433 020d 08       		.byte	0x8
 434 020e 9B       		.byte	0x9b
 435 020f 8B070000 		.4byte	0x78b
 436 0213 18       		.byte	0x18
 437 0214 0A       		.uleb128 0xa
 438 0215 190F0000 		.4byte	.LASF44
 439 0219 08       		.byte	0x8
 440 021a A4       		.byte	0xa4
 441 021b 9D070000 		.4byte	0x79d
 442 021f 1C       		.byte	0x1c
 443 0220 0A       		.uleb128 0xa
 444 0221 EA000000 		.4byte	.LASF45
 445 0225 08       		.byte	0x8
 446 0226 A9       		.byte	0xa9
 447 0227 FB000000 		.4byte	0xfb
 448 022b 20       		.byte	0x20
 449 022c 0A       		.uleb128 0xa
 450 022d 33050000 		.4byte	.LASF46
 451 0231 08       		.byte	0x8
 452 0232 AD       		.byte	0xad
 453 0233 F0000000 		.4byte	0xf0
 454 0237 21       		.byte	0x21
 455 0238 0A       		.uleb128 0xa
 456 0239 560E0000 		.4byte	.LASF47
ARM GAS  /tmp/ccyXT0C6.s 			page 9


 457 023d 08       		.byte	0x8
 458 023e B2       		.byte	0xb2
 459 023f 06010000 		.4byte	0x106
 460 0243 22       		.byte	0x22
 461 0244 0C       		.uleb128 0xc
 462 0245 7500     		.ascii	"u\000"
 463 0247 08       		.byte	0x8
 464 0248 0301     		.2byte	0x103
 465 024a 6A010000 		.4byte	0x16a
 466 024e 24       		.byte	0x24
 467 024f 0D       		.uleb128 0xd
 468 0250 F3110000 		.4byte	.LASF48
 469 0254 08       		.byte	0x8
 470 0255 0801     		.2byte	0x108
 471 0257 BC020000 		.4byte	0x2bc
 472 025b 28       		.byte	0x28
 473 025c 0D       		.uleb128 0xd
 474 025d A4110000 		.4byte	.LASF49
 475 0261 08       		.byte	0x8
 476 0262 0E01     		.2byte	0x10e
 477 0264 E0020000 		.4byte	0x2e0
 478 0268 2C       		.byte	0x2c
 479 0269 0D       		.uleb128 0xd
 480 026a 610E0000 		.4byte	.LASF50
 481 026e 08       		.byte	0x8
 482 026f 1401     		.2byte	0x114
 483 0271 32010000 		.4byte	0x132
 484 0275 34       		.byte	0x34
 485 0276 0D       		.uleb128 0xd
 486 0277 B8080000 		.4byte	.LASF51
 487 027b 08       		.byte	0x8
 488 027c 1B01     		.2byte	0x11b
 489 027e 85070000 		.4byte	0x785
 490 0282 38       		.byte	0x38
 491 0283 0D       		.uleb128 0xd
 492 0284 48080000 		.4byte	.LASF52
 493 0288 08       		.byte	0x8
 494 0289 1F01     		.2byte	0x11f
 495 028b 11010000 		.4byte	0x111
 496 028f 3C       		.byte	0x3c
 497 0290 0D       		.uleb128 0xd
 498 0291 B0050000 		.4byte	.LASF53
 499 0295 08       		.byte	0x8
 500 0296 2601     		.2byte	0x126
 501 0298 93030000 		.4byte	0x393
 502 029c 40       		.byte	0x40
 503 029d 0D       		.uleb128 0xd
 504 029e 04010000 		.4byte	.LASF54
 505 02a2 08       		.byte	0x8
 506 02a3 2C01     		.2byte	0x12c
 507 02a5 D0060000 		.4byte	0x6d0
 508 02a9 48       		.byte	0x48
 509 02aa 00       		.byte	0
 510 02ab 05       		.uleb128 0x5
 511 02ac 590C0000 		.4byte	.LASF55
 512 02b0 07       		.byte	0x7
 513 02b1 39       		.byte	0x39
ARM GAS  /tmp/ccyXT0C6.s 			page 10


 514 02b2 B6020000 		.4byte	0x2b6
 515 02b6 0E       		.uleb128 0xe
 516 02b7 04       		.byte	0x4
 517 02b8 53010000 		.4byte	0x153
 518 02bc 05       		.uleb128 0x5
 519 02bd 23120000 		.4byte	.LASF56
 520 02c1 07       		.byte	0x7
 521 02c2 3E       		.byte	0x3e
 522 02c3 C7020000 		.4byte	0x2c7
 523 02c7 06       		.uleb128 0x6
 524 02c8 6B080000 		.4byte	.LASF58
 525 02cc 04       		.byte	0x4
 526 02cd 08       		.byte	0x8
 527 02ce 7C       		.byte	0x7c
 528 02cf E0020000 		.4byte	0x2e0
 529 02d3 0A       		.uleb128 0xa
 530 02d4 C3130000 		.4byte	.LASF59
 531 02d8 08       		.byte	0x8
 532 02d9 7D       		.byte	0x7d
 533 02da B6020000 		.4byte	0x2b6
 534 02de 00       		.byte	0
 535 02df 00       		.byte	0
 536 02e0 05       		.uleb128 0x5
 537 02e1 67020000 		.4byte	.LASF60
 538 02e5 07       		.byte	0x7
 539 02e6 45       		.byte	0x45
 540 02e7 EB020000 		.4byte	0x2eb
 541 02eb 06       		.uleb128 0x6
 542 02ec C10D0000 		.4byte	.LASF61
 543 02f0 08       		.byte	0x8
 544 02f1 08       		.byte	0x8
 545 02f2 83       		.byte	0x83
 546 02f3 10030000 		.4byte	0x310
 547 02f7 0A       		.uleb128 0xa
 548 02f8 C3130000 		.4byte	.LASF59
 549 02fc 08       		.byte	0x8
 550 02fd 84       		.byte	0x84
 551 02fe B6020000 		.4byte	0x2b6
 552 0302 00       		.byte	0
 553 0303 0A       		.uleb128 0xa
 554 0304 D9130000 		.4byte	.LASF62
 555 0308 08       		.byte	0x8
 556 0309 85       		.byte	0x85
 557 030a B6020000 		.4byte	0x2b6
 558 030e 04       		.byte	0x4
 559 030f 00       		.byte	0
 560 0310 05       		.uleb128 0x5
 561 0311 35080000 		.4byte	.LASF63
 562 0315 07       		.byte	0x7
 563 0316 4C       		.byte	0x4c
 564 0317 1B030000 		.4byte	0x31b
 565 031b 0F       		.uleb128 0xf
 566 031c 94060000 		.4byte	.LASF64
 567 0320 1C       		.byte	0x1c
 568 0321 08       		.byte	0x8
 569 0322 5E01     		.2byte	0x15e
 570 0324 77030000 		.4byte	0x377
ARM GAS  /tmp/ccyXT0C6.s 			page 11


 571 0328 0D       		.uleb128 0xd
 572 0329 5B0E0000 		.4byte	.LASF39
 573 032d 08       		.byte	0x8
 574 032e 5F01     		.2byte	0x15f
 575 0330 E0020000 		.4byte	0x2e0
 576 0334 00       		.byte	0
 577 0335 0D       		.uleb128 0xd
 578 0336 4C010000 		.4byte	.LASF40
 579 033a 08       		.byte	0x8
 580 033b 6001     		.2byte	0x160
 581 033d 11010000 		.4byte	0x111
 582 0341 08       		.byte	0x8
 583 0342 0C       		.uleb128 0xc
 584 0343 63747800 		.ascii	"ctx\000"
 585 0347 08       		.byte	0x8
 586 0348 6201     		.2byte	0x162
 587 034a FB040000 		.4byte	0x4fb
 588 034e 0C       		.byte	0xc
 589 034f 0D       		.uleb128 0xd
 590 0350 70120000 		.4byte	.LASF41
 591 0354 08       		.byte	0x8
 592 0355 6501     		.2byte	0x165
 593 0357 B6020000 		.4byte	0x2b6
 594 035b 10       		.byte	0x10
 595 035c 0D       		.uleb128 0xd
 596 035d 42080000 		.4byte	.LASF42
 597 0361 08       		.byte	0x8
 598 0362 6601     		.2byte	0x166
 599 0364 B6020000 		.4byte	0x2b6
 600 0368 14       		.byte	0x14
 601 0369 0D       		.uleb128 0xd
 602 036a 490B0000 		.4byte	.LASF65
 603 036e 08       		.byte	0x8
 604 036f 6901     		.2byte	0x169
 605 0371 B6020000 		.4byte	0x2b6
 606 0375 18       		.byte	0x18
 607 0376 00       		.byte	0
 608 0377 05       		.uleb128 0x5
 609 0378 64000000 		.4byte	.LASF66
 610 037c 07       		.byte	0x7
 611 037d 51       		.byte	0x51
 612 037e 82030000 		.4byte	0x382
 613 0382 0E       		.uleb128 0xe
 614 0383 04       		.byte	0x4
 615 0384 88030000 		.4byte	0x388
 616 0388 10       		.uleb128 0x10
 617 0389 93030000 		.4byte	0x393
 618 038d 11       		.uleb128 0x11
 619 038e 93030000 		.4byte	0x393
 620 0392 00       		.byte	0
 621 0393 12       		.uleb128 0x12
 622 0394 04       		.byte	0x4
 623 0395 05       		.uleb128 0x5
 624 0396 25080000 		.4byte	.LASF67
 625 039a 07       		.byte	0x7
 626 039b 56       		.byte	0x56
 627 039c A0030000 		.4byte	0x3a0
ARM GAS  /tmp/ccyXT0C6.s 			page 12


 628 03a0 0F       		.uleb128 0xf
 629 03a1 0B0D0000 		.4byte	.LASF68
 630 03a5 14       		.byte	0x14
 631 03a6 08       		.byte	0x8
 632 03a7 3901     		.2byte	0x139
 633 03a9 EF030000 		.4byte	0x3ef
 634 03ad 0D       		.uleb128 0xd
 635 03ae C3130000 		.4byte	.LASF59
 636 03b2 08       		.byte	0x8
 637 03b3 3A01     		.2byte	0x13a
 638 03b5 A3070000 		.4byte	0x7a3
 639 03b9 00       		.byte	0
 640 03ba 0D       		.uleb128 0xd
 641 03bb D9130000 		.4byte	.LASF62
 642 03bf 08       		.byte	0x8
 643 03c0 3B01     		.2byte	0x13b
 644 03c2 A3070000 		.4byte	0x7a3
 645 03c6 04       		.byte	0x4
 646 03c7 0D       		.uleb128 0xd
 647 03c8 380E0000 		.4byte	.LASF69
 648 03cc 08       		.byte	0x8
 649 03cd 3C01     		.2byte	0x13c
 650 03cf D3040000 		.4byte	0x4d3
 651 03d3 08       		.byte	0x8
 652 03d4 0D       		.uleb128 0xd
 653 03d5 22110000 		.4byte	.LASF70
 654 03d9 08       		.byte	0x8
 655 03da 3D01     		.2byte	0x13d
 656 03dc 77030000 		.4byte	0x377
 657 03e0 0C       		.byte	0xc
 658 03e1 0C       		.uleb128 0xc
 659 03e2 70617200 		.ascii	"par\000"
 660 03e6 08       		.byte	0x8
 661 03e7 3F01     		.2byte	0x13f
 662 03e9 93030000 		.4byte	0x393
 663 03ed 10       		.byte	0x10
 664 03ee 00       		.byte	0
 665 03ef 05       		.uleb128 0x5
 666 03f0 85070000 		.4byte	.LASF71
 667 03f4 07       		.byte	0x7
 668 03f5 5B       		.byte	0x5b
 669 03f6 FA030000 		.4byte	0x3fa
 670 03fa 0F       		.uleb128 0xf
 671 03fb 6D000000 		.4byte	.LASF72
 672 03ff 10       		.byte	0x10
 673 0400 08       		.byte	0x8
 674 0401 4901     		.2byte	0x149
 675 0403 3C040000 		.4byte	0x43c
 676 0407 0D       		.uleb128 0xd
 677 0408 C3130000 		.4byte	.LASF59
 678 040c 08       		.byte	0x8
 679 040d 4A01     		.2byte	0x14a
 680 040f A3070000 		.4byte	0x7a3
 681 0413 00       		.byte	0
 682 0414 0D       		.uleb128 0xd
 683 0415 D9130000 		.4byte	.LASF62
 684 0419 08       		.byte	0x8
ARM GAS  /tmp/ccyXT0C6.s 			page 13


 685 041a 4C01     		.2byte	0x14c
 686 041c A3070000 		.4byte	0x7a3
 687 0420 04       		.byte	0x4
 688 0421 0D       		.uleb128 0xd
 689 0422 380E0000 		.4byte	.LASF69
 690 0426 08       		.byte	0x8
 691 0427 4E01     		.2byte	0x14e
 692 0429 D3040000 		.4byte	0x4d3
 693 042d 08       		.byte	0x8
 694 042e 0D       		.uleb128 0xd
 695 042f B3030000 		.4byte	.LASF73
 696 0433 08       		.byte	0x8
 697 0434 5601     		.2byte	0x156
 698 0436 C8040000 		.4byte	0x4c8
 699 043a 0C       		.byte	0xc
 700 043b 00       		.byte	0
 701 043c 05       		.uleb128 0x5
 702 043d 01040000 		.4byte	.LASF74
 703 0441 07       		.byte	0x7
 704 0442 60       		.byte	0x60
 705 0443 47040000 		.4byte	0x447
 706 0447 0F       		.uleb128 0xf
 707 0448 B3110000 		.4byte	.LASF75
 708 044c 04       		.byte	0x4
 709 044d 08       		.byte	0x8
 710 044e 7001     		.2byte	0x170
 711 0450 62040000 		.4byte	0x462
 712 0454 0D       		.uleb128 0xd
 713 0455 BC030000 		.4byte	.LASF76
 714 0459 08       		.byte	0x8
 715 045a 7801     		.2byte	0x178
 716 045c A9070000 		.4byte	0x7a9
 717 0460 00       		.byte	0
 718 0461 00       		.byte	0
 719 0462 05       		.uleb128 0x5
 720 0463 0C130000 		.4byte	.LASF77
 721 0467 07       		.byte	0x7
 722 0468 65       		.byte	0x65
 723 0469 6D040000 		.4byte	0x46d
 724 046d 0F       		.uleb128 0xf
 725 046e 3E120000 		.4byte	.LASF78
 726 0472 D0       		.byte	0xd0
 727 0473 08       		.byte	0x8
 728 0474 9001     		.2byte	0x190
 729 0476 C8040000 		.4byte	0x4c8
 730 047a 0D       		.uleb128 0xd
 731 047b 540F0000 		.4byte	.LASF79
 732 047f 08       		.byte	0x8
 733 0480 9401     		.2byte	0x194
 734 0482 10030000 		.4byte	0x310
 735 0486 00       		.byte	0
 736 0487 0D       		.uleb128 0xd
 737 0488 EC110000 		.4byte	.LASF80
 738 048c 08       		.byte	0x8
 739 048d 9801     		.2byte	0x198
 740 048f EF030000 		.4byte	0x3ef
 741 0493 1C       		.byte	0x1c
ARM GAS  /tmp/ccyXT0C6.s 			page 14


 742 0494 0C       		.uleb128 0xc
 743 0495 64626700 		.ascii	"dbg\000"
 744 0499 08       		.byte	0x8
 745 049a 9C01     		.2byte	0x19c
 746 049c 3C040000 		.4byte	0x43c
 747 04a0 2C       		.byte	0x2c
 748 04a1 0D       		.uleb128 0xd
 749 04a2 8B0E0000 		.4byte	.LASF81
 750 04a6 08       		.byte	0x8
 751 04a7 A001     		.2byte	0x1a0
 752 04a9 53010000 		.4byte	0x153
 753 04ad 30       		.byte	0x30
 754 04ae 0C       		.uleb128 0xc
 755 04af 746D00   		.ascii	"tm\000"
 756 04b2 08       		.byte	0x8
 757 04b3 A501     		.2byte	0x1a5
 758 04b5 7E060000 		.4byte	0x67e
 759 04b9 90       		.byte	0x90
 760 04ba 0D       		.uleb128 0xd
 761 04bb 2F0D0000 		.4byte	.LASF82
 762 04bf 08       		.byte	0x8
 763 04c0 AB01     		.2byte	0x1ab
 764 04c2 18070000 		.4byte	0x718
 765 04c6 98       		.byte	0x98
 766 04c7 00       		.byte	0
 767 04c8 05       		.uleb128 0x5
 768 04c9 44000000 		.4byte	.LASF83
 769 04cd 09       		.byte	0x9
 770 04ce 6D       		.byte	0x6d
 771 04cf B9000000 		.4byte	0xb9
 772 04d3 05       		.uleb128 0x5
 773 04d4 F9080000 		.4byte	.LASF84
 774 04d8 09       		.byte	0x9
 775 04d9 79       		.byte	0x79
 776 04da B9000000 		.4byte	0xb9
 777 04de 03       		.uleb128 0x3
 778 04df 04       		.byte	0x4
 779 04e0 07       		.byte	0x7
 780 04e1 34000000 		.4byte	.LASF85
 781 04e5 05       		.uleb128 0x5
 782 04e6 A5020000 		.4byte	.LASF86
 783 04ea 0A       		.byte	0xa
 784 04eb 65       		.byte	0x65
 785 04ec 93030000 		.4byte	0x393
 786 04f0 05       		.uleb128 0x5
 787 04f1 77050000 		.4byte	.LASF87
 788 04f5 0A       		.byte	0xa
 789 04f6 6D       		.byte	0x6d
 790 04f7 C4000000 		.4byte	0xc4
 791 04fb 06       		.uleb128 0x6
 792 04fc 16120000 		.4byte	.LASF88
 793 0500 04       		.byte	0x4
 794 0501 0A       		.byte	0xa
 795 0502 89       		.byte	0x89
 796 0503 13050000 		.4byte	0x513
 797 0507 0B       		.uleb128 0xb
 798 0508 737000   		.ascii	"sp\000"
ARM GAS  /tmp/ccyXT0C6.s 			page 15


 799 050b 0A       		.byte	0xa
 800 050c 8A       		.byte	0x8a
 801 050d 5F060000 		.4byte	0x65f
 802 0511 00       		.byte	0
 803 0512 00       		.byte	0
 804 0513 0F       		.uleb128 0xf
 805 0514 DF0C0000 		.4byte	.LASF89
 806 0518 64       		.byte	0x64
 807 0519 0B       		.byte	0xb
 808 051a 5901     		.2byte	0x159
 809 051c 5F060000 		.4byte	0x65f
 810 0520 0C       		.uleb128 0xc
 811 0521 73313600 		.ascii	"s16\000"
 812 0525 0B       		.byte	0xb
 813 0526 5B01     		.2byte	0x15b
 814 0528 E5040000 		.4byte	0x4e5
 815 052c 00       		.byte	0
 816 052d 0C       		.uleb128 0xc
 817 052e 73313700 		.ascii	"s17\000"
 818 0532 0B       		.byte	0xb
 819 0533 5C01     		.2byte	0x15c
 820 0535 E5040000 		.4byte	0x4e5
 821 0539 04       		.byte	0x4
 822 053a 0C       		.uleb128 0xc
 823 053b 73313800 		.ascii	"s18\000"
 824 053f 0B       		.byte	0xb
 825 0540 5D01     		.2byte	0x15d
 826 0542 E5040000 		.4byte	0x4e5
 827 0546 08       		.byte	0x8
 828 0547 0C       		.uleb128 0xc
 829 0548 73313900 		.ascii	"s19\000"
 830 054c 0B       		.byte	0xb
 831 054d 5E01     		.2byte	0x15e
 832 054f E5040000 		.4byte	0x4e5
 833 0553 0C       		.byte	0xc
 834 0554 0C       		.uleb128 0xc
 835 0555 73323000 		.ascii	"s20\000"
 836 0559 0B       		.byte	0xb
 837 055a 5F01     		.2byte	0x15f
 838 055c E5040000 		.4byte	0x4e5
 839 0560 10       		.byte	0x10
 840 0561 0C       		.uleb128 0xc
 841 0562 73323100 		.ascii	"s21\000"
 842 0566 0B       		.byte	0xb
 843 0567 6001     		.2byte	0x160
 844 0569 E5040000 		.4byte	0x4e5
 845 056d 14       		.byte	0x14
 846 056e 0C       		.uleb128 0xc
 847 056f 73323200 		.ascii	"s22\000"
 848 0573 0B       		.byte	0xb
 849 0574 6101     		.2byte	0x161
 850 0576 E5040000 		.4byte	0x4e5
 851 057a 18       		.byte	0x18
 852 057b 0C       		.uleb128 0xc
 853 057c 73323300 		.ascii	"s23\000"
 854 0580 0B       		.byte	0xb
 855 0581 6201     		.2byte	0x162
ARM GAS  /tmp/ccyXT0C6.s 			page 16


 856 0583 E5040000 		.4byte	0x4e5
 857 0587 1C       		.byte	0x1c
 858 0588 0C       		.uleb128 0xc
 859 0589 73323400 		.ascii	"s24\000"
 860 058d 0B       		.byte	0xb
 861 058e 6301     		.2byte	0x163
 862 0590 E5040000 		.4byte	0x4e5
 863 0594 20       		.byte	0x20
 864 0595 0C       		.uleb128 0xc
 865 0596 73323500 		.ascii	"s25\000"
 866 059a 0B       		.byte	0xb
 867 059b 6401     		.2byte	0x164
 868 059d E5040000 		.4byte	0x4e5
 869 05a1 24       		.byte	0x24
 870 05a2 0C       		.uleb128 0xc
 871 05a3 73323600 		.ascii	"s26\000"
 872 05a7 0B       		.byte	0xb
 873 05a8 6501     		.2byte	0x165
 874 05aa E5040000 		.4byte	0x4e5
 875 05ae 28       		.byte	0x28
 876 05af 0C       		.uleb128 0xc
 877 05b0 73323700 		.ascii	"s27\000"
 878 05b4 0B       		.byte	0xb
 879 05b5 6601     		.2byte	0x166
 880 05b7 E5040000 		.4byte	0x4e5
 881 05bb 2C       		.byte	0x2c
 882 05bc 0C       		.uleb128 0xc
 883 05bd 73323800 		.ascii	"s28\000"
 884 05c1 0B       		.byte	0xb
 885 05c2 6701     		.2byte	0x167
 886 05c4 E5040000 		.4byte	0x4e5
 887 05c8 30       		.byte	0x30
 888 05c9 0C       		.uleb128 0xc
 889 05ca 73323900 		.ascii	"s29\000"
 890 05ce 0B       		.byte	0xb
 891 05cf 6801     		.2byte	0x168
 892 05d1 E5040000 		.4byte	0x4e5
 893 05d5 34       		.byte	0x34
 894 05d6 0C       		.uleb128 0xc
 895 05d7 73333000 		.ascii	"s30\000"
 896 05db 0B       		.byte	0xb
 897 05dc 6901     		.2byte	0x169
 898 05de E5040000 		.4byte	0x4e5
 899 05e2 38       		.byte	0x38
 900 05e3 0C       		.uleb128 0xc
 901 05e4 73333100 		.ascii	"s31\000"
 902 05e8 0B       		.byte	0xb
 903 05e9 6A01     		.2byte	0x16a
 904 05eb E5040000 		.4byte	0x4e5
 905 05ef 3C       		.byte	0x3c
 906 05f0 0C       		.uleb128 0xc
 907 05f1 723400   		.ascii	"r4\000"
 908 05f4 0B       		.byte	0xb
 909 05f5 6C01     		.2byte	0x16c
 910 05f7 E5040000 		.4byte	0x4e5
 911 05fb 40       		.byte	0x40
 912 05fc 0C       		.uleb128 0xc
ARM GAS  /tmp/ccyXT0C6.s 			page 17


 913 05fd 723500   		.ascii	"r5\000"
 914 0600 0B       		.byte	0xb
 915 0601 6D01     		.2byte	0x16d
 916 0603 E5040000 		.4byte	0x4e5
 917 0607 44       		.byte	0x44
 918 0608 0C       		.uleb128 0xc
 919 0609 723600   		.ascii	"r6\000"
 920 060c 0B       		.byte	0xb
 921 060d 6E01     		.2byte	0x16e
 922 060f E5040000 		.4byte	0x4e5
 923 0613 48       		.byte	0x48
 924 0614 0C       		.uleb128 0xc
 925 0615 723700   		.ascii	"r7\000"
 926 0618 0B       		.byte	0xb
 927 0619 6F01     		.2byte	0x16f
 928 061b E5040000 		.4byte	0x4e5
 929 061f 4C       		.byte	0x4c
 930 0620 0C       		.uleb128 0xc
 931 0621 723800   		.ascii	"r8\000"
 932 0624 0B       		.byte	0xb
 933 0625 7001     		.2byte	0x170
 934 0627 E5040000 		.4byte	0x4e5
 935 062b 50       		.byte	0x50
 936 062c 0C       		.uleb128 0xc
 937 062d 723900   		.ascii	"r9\000"
 938 0630 0B       		.byte	0xb
 939 0631 7101     		.2byte	0x171
 940 0633 E5040000 		.4byte	0x4e5
 941 0637 54       		.byte	0x54
 942 0638 0C       		.uleb128 0xc
 943 0639 72313000 		.ascii	"r10\000"
 944 063d 0B       		.byte	0xb
 945 063e 7201     		.2byte	0x172
 946 0640 E5040000 		.4byte	0x4e5
 947 0644 58       		.byte	0x58
 948 0645 0C       		.uleb128 0xc
 949 0646 72313100 		.ascii	"r11\000"
 950 064a 0B       		.byte	0xb
 951 064b 7301     		.2byte	0x173
 952 064d E5040000 		.4byte	0x4e5
 953 0651 5C       		.byte	0x5c
 954 0652 0C       		.uleb128 0xc
 955 0653 6C7200   		.ascii	"lr\000"
 956 0656 0B       		.byte	0xb
 957 0657 7401     		.2byte	0x174
 958 0659 E5040000 		.4byte	0x4e5
 959 065d 60       		.byte	0x60
 960 065e 00       		.byte	0
 961 065f 0E       		.uleb128 0xe
 962 0660 04       		.byte	0x4
 963 0661 13050000 		.4byte	0x513
 964 0665 13       		.uleb128 0x13
 965 0666 04       		.byte	0x4
 966 0667 0C       		.byte	0xc
 967 0668 38       		.byte	0x38
 968 0669 1C0D0000 		.4byte	.LASF92
 969 066d 7E060000 		.4byte	0x67e
ARM GAS  /tmp/ccyXT0C6.s 			page 18


 970 0671 0A       		.uleb128 0xa
 971 0672 510B0000 		.4byte	.LASF90
 972 0676 0C       		.byte	0xc
 973 0677 3C       		.byte	0x3c
 974 0678 CF000000 		.4byte	0xcf
 975 067c 00       		.byte	0
 976 067d 00       		.byte	0
 977 067e 05       		.uleb128 0x5
 978 067f BC0F0000 		.4byte	.LASF91
 979 0683 0C       		.byte	0xc
 980 0684 3D       		.byte	0x3d
 981 0685 65060000 		.4byte	0x665
 982 0689 13       		.uleb128 0x13
 983 068a 18       		.byte	0x18
 984 068b 0C       		.byte	0xc
 985 068c 48       		.byte	0x48
 986 068d A3120000 		.4byte	.LASF93
 987 0691 D0060000 		.4byte	0x6d0
 988 0695 0A       		.uleb128 0xa
 989 0696 AD0E0000 		.4byte	.LASF94
 990 069a 0C       		.byte	0xc
 991 069b 49       		.byte	0x49
 992 069c CF000000 		.4byte	0xcf
 993 06a0 00       		.byte	0
 994 06a1 0A       		.uleb128 0xa
 995 06a2 DC050000 		.4byte	.LASF95
 996 06a6 0C       		.byte	0xc
 997 06a7 4A       		.byte	0x4a
 998 06a8 CF000000 		.4byte	0xcf
 999 06ac 04       		.byte	0x4
 1000 06ad 0A       		.uleb128 0xa
 1001 06ae DE130000 		.4byte	.LASF96
 1002 06b2 0C       		.byte	0xc
 1003 06b3 4B       		.byte	0x4b
 1004 06b4 CF000000 		.4byte	0xcf
 1005 06b8 08       		.byte	0x8
 1006 06b9 0B       		.uleb128 0xb
 1007 06ba 6E00     		.ascii	"n\000"
 1008 06bc 0C       		.byte	0xc
 1009 06bd 4C       		.byte	0x4c
 1010 06be 48010000 		.4byte	0x148
 1011 06c2 0C       		.byte	0xc
 1012 06c3 0A       		.uleb128 0xa
 1013 06c4 00030000 		.4byte	.LASF97
 1014 06c8 0C       		.byte	0xc
 1015 06c9 4D       		.byte	0x4d
 1016 06ca DA000000 		.4byte	0xda
 1017 06ce 10       		.byte	0x10
 1018 06cf 00       		.byte	0
 1019 06d0 05       		.uleb128 0x5
 1020 06d1 530A0000 		.4byte	.LASF98
 1021 06d5 0C       		.byte	0xc
 1022 06d6 4E       		.byte	0x4e
 1023 06d7 89060000 		.4byte	0x689
 1024 06db 13       		.uleb128 0x13
 1025 06dc 38       		.byte	0x38
 1026 06dd 0D       		.byte	0xd
ARM GAS  /tmp/ccyXT0C6.s 			page 19


 1027 06de 38       		.byte	0x38
 1028 06df DC0A0000 		.4byte	.LASF99
 1029 06e3 18070000 		.4byte	0x718
 1030 06e7 0A       		.uleb128 0xa
 1031 06e8 7B080000 		.4byte	.LASF100
 1032 06ec 0D       		.byte	0xd
 1033 06ed 39       		.byte	0x39
 1034 06ee 48010000 		.4byte	0x148
 1035 06f2 00       		.byte	0
 1036 06f3 0A       		.uleb128 0xa
 1037 06f4 19050000 		.4byte	.LASF101
 1038 06f8 0D       		.byte	0xd
 1039 06f9 3A       		.byte	0x3a
 1040 06fa 48010000 		.4byte	0x148
 1041 06fe 04       		.byte	0x4
 1042 06ff 0A       		.uleb128 0xa
 1043 0700 F0060000 		.4byte	.LASF102
 1044 0704 0D       		.byte	0xd
 1045 0705 3B       		.byte	0x3b
 1046 0706 D0060000 		.4byte	0x6d0
 1047 070a 08       		.byte	0x8
 1048 070b 0A       		.uleb128 0xa
 1049 070c 9C0A0000 		.4byte	.LASF103
 1050 0710 0D       		.byte	0xd
 1051 0711 3D       		.byte	0x3d
 1052 0712 D0060000 		.4byte	0x6d0
 1053 0716 20       		.byte	0x20
 1054 0717 00       		.byte	0
 1055 0718 05       		.uleb128 0x5
 1056 0719 ED0A0000 		.4byte	.LASF104
 1057 071d 0D       		.byte	0xd
 1058 071e 3F       		.byte	0x3f
 1059 071f DB060000 		.4byte	0x6db
 1060 0723 0E       		.uleb128 0xe
 1061 0724 04       		.byte	0x4
 1062 0725 AB020000 		.4byte	0x2ab
 1063 0729 06       		.uleb128 0x6
 1064 072a 3C070000 		.4byte	.LASF105
 1065 072e 0C       		.byte	0xc
 1066 072f 0E       		.byte	0xe
 1067 0730 34       		.byte	0x34
 1068 0731 4E070000 		.4byte	0x74e
 1069 0735 0A       		.uleb128 0xa
 1070 0736 5B0E0000 		.4byte	.LASF39
 1071 073a 0E       		.byte	0xe
 1072 073b 35       		.byte	0x35
 1073 073c E0020000 		.4byte	0x2e0
 1074 0740 00       		.byte	0
 1075 0741 0B       		.uleb128 0xb
 1076 0742 636E7400 		.ascii	"cnt\000"
 1077 0746 0E       		.byte	0xe
 1078 0747 37       		.byte	0x37
 1079 0748 3D010000 		.4byte	0x13d
 1080 074c 08       		.byte	0x8
 1081 074d 00       		.byte	0
 1082 074e 0E       		.uleb128 0xe
 1083 074f 04       		.byte	0x4
ARM GAS  /tmp/ccyXT0C6.s 			page 20


 1084 0750 29070000 		.4byte	0x729
 1085 0754 06       		.uleb128 0x6
 1086 0755 27110000 		.4byte	.LASF106
 1087 0759 10       		.byte	0x10
 1088 075a 0F       		.byte	0xf
 1089 075b 39       		.byte	0x39
 1090 075c 85070000 		.4byte	0x785
 1091 0760 0A       		.uleb128 0xa
 1092 0761 5B0E0000 		.4byte	.LASF39
 1093 0765 0F       		.byte	0xf
 1094 0766 3A       		.byte	0x3a
 1095 0767 E0020000 		.4byte	0x2e0
 1096 076b 00       		.byte	0
 1097 076c 0A       		.uleb128 0xa
 1098 076d 4E000000 		.4byte	.LASF107
 1099 0771 0F       		.byte	0xf
 1100 0772 3C       		.byte	0x3c
 1101 0773 B6020000 		.4byte	0x2b6
 1102 0777 08       		.byte	0x8
 1103 0778 0A       		.uleb128 0xa
 1104 0779 C3130000 		.4byte	.LASF59
 1105 077d 0F       		.byte	0xf
 1106 077e 3E       		.byte	0x3e
 1107 077f B9070000 		.4byte	0x7b9
 1108 0783 0C       		.byte	0xc
 1109 0784 00       		.byte	0
 1110 0785 0E       		.uleb128 0xe
 1111 0786 04       		.byte	0x4
 1112 0787 54070000 		.4byte	0x754
 1113 078b 0E       		.uleb128 0xe
 1114 078c 04       		.byte	0x4
 1115 078d 98070000 		.4byte	0x798
 1116 0791 03       		.uleb128 0x3
 1117 0792 01       		.byte	0x1
 1118 0793 08       		.byte	0x8
 1119 0794 83040000 		.4byte	.LASF108
 1120 0798 14       		.uleb128 0x14
 1121 0799 91070000 		.4byte	0x791
 1122 079d 0E       		.uleb128 0xe
 1123 079e 04       		.byte	0x4
 1124 079f F0040000 		.4byte	0x4f0
 1125 07a3 0E       		.uleb128 0xe
 1126 07a4 04       		.byte	0x4
 1127 07a5 95030000 		.4byte	0x395
 1128 07a9 15       		.uleb128 0x15
 1129 07aa 8B070000 		.4byte	0x78b
 1130 07ae 05       		.uleb128 0x5
 1131 07af 06120000 		.4byte	.LASF109
 1132 07b3 0F       		.byte	0xf
 1133 07b4 34       		.byte	0x34
 1134 07b5 54070000 		.4byte	0x754
 1135 07b9 0E       		.uleb128 0xe
 1136 07ba 04       		.byte	0x4
 1137 07bb AE070000 		.4byte	0x7ae
 1138 07bf 05       		.uleb128 0x5
 1139 07c0 6F0F0000 		.4byte	.LASF110
 1140 07c4 10       		.byte	0x10
ARM GAS  /tmp/ccyXT0C6.s 			page 21


 1141 07c5 53       		.byte	0x53
 1142 07c6 CA070000 		.4byte	0x7ca
 1143 07ca 0E       		.uleb128 0xe
 1144 07cb 04       		.byte	0x4
 1145 07cc D0070000 		.4byte	0x7d0
 1146 07d0 10       		.uleb128 0x10
 1147 07d1 DB070000 		.4byte	0x7db
 1148 07d5 11       		.uleb128 0x11
 1149 07d6 27010000 		.4byte	0x127
 1150 07da 00       		.byte	0
 1151 07db 03       		.uleb128 0x3
 1152 07dc 01       		.byte	0x1
 1153 07dd 02       		.byte	0x2
 1154 07de 170C0000 		.4byte	.LASF111
 1155 07e2 16       		.uleb128 0x16
 1156 07e3 BF000000 		.4byte	.LASF236
 1157 07e7 02       		.byte	0x2
 1158 07e8 21       		.byte	0x21
 1159 07e9 500E0000 		.4byte	0xe50
 1160 07ed 17       		.uleb128 0x17
 1161 07ee F1030000 		.4byte	.LASF151
 1162 07f2 01       		.byte	0x1
 1163 07f3 02       		.byte	0x2
 1164 07f4 2C       		.byte	0x2c
 1165 07f5 69090000 		.4byte	0x969
 1166 07f9 18       		.uleb128 0x18
 1167 07fa 300F0000 		.4byte	.LASF112
 1168 07fe 02       		.byte	0x2
 1169 07ff 3A       		.byte	0x3a
 1170 0800 AE020000 		.4byte	.LASF114
 1171 0804 01       		.byte	0x1
 1172 0805 19       		.uleb128 0x19
 1173 0806 960E0000 		.4byte	.LASF132
 1174 080a 02       		.byte	0x2
 1175 080b 4B       		.byte	0x4b
 1176 080c EB0C0000 		.4byte	.LASF237
 1177 0810 01       		.byte	0x1
 1178 0811 1B080000 		.4byte	0x81b
 1179 0815 11       		.uleb128 0x11
 1180 0816 8B070000 		.4byte	0x78b
 1181 081a 00       		.byte	0
 1182 081b 1A       		.uleb128 0x1a
 1183 081c 100B0000 		.4byte	.LASF136
 1184 0820 02       		.byte	0x2
 1185 0821 69       		.byte	0x69
 1186 0822 EF040000 		.4byte	.LASF238
 1187 0826 DB070000 		.4byte	0x7db
 1188 082a 01       		.byte	0x1
 1189 082b 35080000 		.4byte	0x835
 1190 082f 11       		.uleb128 0x11
 1191 0830 2C000000 		.4byte	0x2c
 1192 0834 00       		.byte	0
 1193 0835 18       		.uleb128 0x18
 1194 0836 200A0000 		.4byte	.LASF113
 1195 083a 02       		.byte	0x2
 1196 083b 76       		.byte	0x76
 1197 083c FB070000 		.4byte	.LASF115
ARM GAS  /tmp/ccyXT0C6.s 			page 22


 1198 0840 01       		.byte	0x1
 1199 0841 18       		.uleb128 0x18
 1200 0842 280A0000 		.4byte	.LASF116
 1201 0846 02       		.byte	0x2
 1202 0847 86       		.byte	0x86
 1203 0848 C8120000 		.4byte	.LASF117
 1204 084c 01       		.byte	0x1
 1205 084d 18       		.uleb128 0x18
 1206 084e 32090000 		.4byte	.LASF118
 1207 0852 02       		.byte	0x2
 1208 0853 94       		.byte	0x94
 1209 0854 240C0000 		.4byte	.LASF119
 1210 0858 01       		.byte	0x1
 1211 0859 18       		.uleb128 0x18
 1212 085a E3040000 		.4byte	.LASF120
 1213 085e 02       		.byte	0x2
 1214 085f 9E       		.byte	0x9e
 1215 0860 4D060000 		.4byte	.LASF121
 1216 0864 01       		.byte	0x1
 1217 0865 18       		.uleb128 0x18
 1218 0866 E5110000 		.4byte	.LASF122
 1219 086a 02       		.byte	0x2
 1220 086b A8       		.byte	0xa8
 1221 086c 30110000 		.4byte	.LASF123
 1222 0870 01       		.byte	0x1
 1223 0871 18       		.uleb128 0x18
 1224 0872 7D0D0000 		.4byte	.LASF124
 1225 0876 02       		.byte	0x2
 1226 0877 B9       		.byte	0xb9
 1227 0878 B6050000 		.4byte	.LASF125
 1228 087c 01       		.byte	0x1
 1229 087d 18       		.uleb128 0x18
 1230 087e 3E0E0000 		.4byte	.LASF126
 1231 0882 02       		.byte	0x2
 1232 0883 CB       		.byte	0xcb
 1233 0884 5A010000 		.4byte	.LASF127
 1234 0888 01       		.byte	0x1
 1235 0889 18       		.uleb128 0x18
 1236 088a 9B0E0000 		.4byte	.LASF128
 1237 088e 02       		.byte	0x2
 1238 088f D7       		.byte	0xd7
 1239 0890 24020000 		.4byte	.LASF129
 1240 0894 01       		.byte	0x1
 1241 0895 18       		.uleb128 0x18
 1242 0896 FC0A0000 		.4byte	.LASF130
 1243 089a 02       		.byte	0x2
 1244 089b E3       		.byte	0xe3
 1245 089c 10040000 		.4byte	.LASF131
 1246 08a0 01       		.byte	0x1
 1247 08a1 1B       		.uleb128 0x1b
 1248 08a2 39090000 		.4byte	.LASF134
 1249 08a6 02       		.byte	0x2
 1250 08a7 F5       		.byte	0xf5
 1251 08a8 73030000 		.4byte	.LASF239
 1252 08ac E5000000 		.4byte	0xe5
 1253 08b0 01       		.byte	0x1
 1254 08b1 1C       		.uleb128 0x1c
ARM GAS  /tmp/ccyXT0C6.s 			page 23


 1255 08b2 B20D0000 		.4byte	.LASF133
 1256 08b6 02       		.byte	0x2
 1257 08b7 0301     		.2byte	0x103
 1258 08b9 200B0000 		.4byte	.LASF139
 1259 08bd 01       		.byte	0x1
 1260 08be C8080000 		.4byte	0x8c8
 1261 08c2 11       		.uleb128 0x11
 1262 08c3 E5000000 		.4byte	0xe5
 1263 08c7 00       		.byte	0
 1264 08c8 1D       		.uleb128 0x1d
 1265 08c9 F0000000 		.4byte	.LASF135
 1266 08cd 02       		.byte	0x2
 1267 08ce 1301     		.2byte	0x113
 1268 08d0 77020000 		.4byte	.LASF142
 1269 08d4 CF000000 		.4byte	0xcf
 1270 08d8 01       		.byte	0x1
 1271 08d9 1E       		.uleb128 0x1e
 1272 08da 930B0000 		.4byte	.LASF137
 1273 08de 02       		.byte	0x2
 1274 08df 2A01     		.2byte	0x12a
 1275 08e1 07000000 		.4byte	.LASF147
 1276 08e5 DB070000 		.4byte	0x7db
 1277 08e9 01       		.byte	0x1
 1278 08ea FE080000 		.4byte	0x8fe
 1279 08ee 11       		.uleb128 0x11
 1280 08ef CF000000 		.4byte	0xcf
 1281 08f3 11       		.uleb128 0x11
 1282 08f4 CF000000 		.4byte	0xcf
 1283 08f8 11       		.uleb128 0x11
 1284 08f9 CF000000 		.4byte	0xcf
 1285 08fd 00       		.byte	0
 1286 08fe 1C       		.uleb128 0x1c
 1287 08ff B6130000 		.4byte	.LASF138
 1288 0903 02       		.byte	0x2
 1289 0904 3C01     		.2byte	0x13c
 1290 0906 58130000 		.4byte	.LASF140
 1291 090a 01       		.byte	0x1
 1292 090b 15090000 		.4byte	0x915
 1293 090f 11       		.uleb128 0x11
 1294 0910 CF000000 		.4byte	0xcf
 1295 0914 00       		.byte	0
 1296 0915 1D       		.uleb128 0x1d
 1297 0916 1C0C0000 		.4byte	.LASF141
 1298 091a 02       		.byte	0x2
 1299 091b 4A01     		.2byte	0x14a
 1300 091d 6A0E0000 		.4byte	.LASF143
 1301 0921 C8040000 		.4byte	0x4c8
 1302 0925 01       		.byte	0x1
 1303 0926 1D       		.uleb128 0x1d
 1304 0927 81080000 		.4byte	.LASF144
 1305 092b 02       		.byte	0x2
 1306 092c 5701     		.2byte	0x157
 1307 092e 6B060000 		.4byte	.LASF145
 1308 0932 C8040000 		.4byte	0x4c8
 1309 0936 01       		.byte	0x1
 1310 0937 1E       		.uleb128 0x1e
 1311 0938 58080000 		.4byte	.LASF146
ARM GAS  /tmp/ccyXT0C6.s 			page 24


 1312 093c 02       		.byte	0x2
 1313 093d 6901     		.2byte	0x169
 1314 093f 5E090000 		.4byte	.LASF148
 1315 0943 DB070000 		.4byte	0x7db
 1316 0947 01       		.byte	0x1
 1317 0948 57090000 		.4byte	0x957
 1318 094c 11       		.uleb128 0x11
 1319 094d C8040000 		.4byte	0x4c8
 1320 0951 11       		.uleb128 0x11
 1321 0952 C8040000 		.4byte	0x4c8
 1322 0956 00       		.byte	0
 1323 0957 1D       		.uleb128 0x1d
 1324 0958 90050000 		.4byte	.LASF149
 1325 095c 02       		.byte	0x2
 1326 095d 7B01     		.2byte	0x17b
 1327 095f AB070000 		.4byte	.LASF150
 1328 0963 69090000 		.4byte	0x969
 1329 0967 01       		.byte	0x1
 1330 0968 00       		.byte	0
 1331 0969 1F       		.uleb128 0x1f
 1332 096a 48130000 		.4byte	.LASF152
 1333 096e 04       		.byte	0x4
 1334 096f 02       		.byte	0x2
 1335 0970 5002     		.2byte	0x250
 1336 0972 370B0000 		.4byte	0xb37
 1337 0976 0D       		.uleb128 0xd
 1338 0977 9B070000 		.4byte	.LASF153
 1339 097b 02       		.byte	0x2
 1340 097c 5402     		.2byte	0x254
 1341 097e B6020000 		.4byte	0x2b6
 1342 0982 00       		.byte	0
 1343 0983 20       		.uleb128 0x20
 1344 0984 48130000 		.4byte	.LASF152
 1345 0988 02       		.byte	0x2
 1346 0989 6302     		.2byte	0x263
 1347 098b 92010000 		.4byte	.LASF154
 1348 098f 500E0000 		.4byte	0xe50
 1349 0993 01       		.byte	0x1
 1350 0994 9C090000 		.4byte	0x99c
 1351 0998 A2090000 		.4byte	0x9a2
 1352 099c 21       		.uleb128 0x21
 1353 099d 500E0000 		.4byte	0xe50
 1354 09a1 00       		.byte	0
 1355 09a2 20       		.uleb128 0x20
 1356 09a3 48130000 		.4byte	.LASF152
 1357 09a7 02       		.byte	0x2
 1358 09a8 6E02     		.2byte	0x26e
 1359 09aa 26030000 		.4byte	.LASF155
 1360 09ae 500E0000 		.4byte	0xe50
 1361 09b2 01       		.byte	0x1
 1362 09b3 BB090000 		.4byte	0x9bb
 1363 09b7 C6090000 		.4byte	0x9c6
 1364 09bb 21       		.uleb128 0x21
 1365 09bc 500E0000 		.4byte	0xe50
 1366 09c0 11       		.uleb128 0x11
 1367 09c1 B6020000 		.4byte	0x2b6
 1368 09c5 00       		.byte	0
ARM GAS  /tmp/ccyXT0C6.s 			page 25


 1369 09c6 20       		.uleb128 0x20
 1370 09c7 DE0E0000 		.4byte	.LASF156
 1371 09cb 02       		.byte	0x2
 1372 09cc 7902     		.2byte	0x279
 1373 09ce CE080000 		.4byte	.LASF157
 1374 09d2 DB070000 		.4byte	0x7db
 1375 09d6 01       		.byte	0x1
 1376 09d7 DF090000 		.4byte	0x9df
 1377 09db E5090000 		.4byte	0x9e5
 1378 09df 21       		.uleb128 0x21
 1379 09e0 560E0000 		.4byte	0xe56
 1380 09e4 00       		.byte	0
 1381 09e5 20       		.uleb128 0x20
 1382 09e6 E9120000 		.4byte	.LASF158
 1383 09ea 02       		.byte	0x2
 1384 09eb 8102     		.2byte	0x281
 1385 09ed B20E0000 		.4byte	.LASF159
 1386 09f1 B6020000 		.4byte	0x2b6
 1387 09f5 01       		.byte	0x1
 1388 09f6 FE090000 		.4byte	0x9fe
 1389 09fa 040A0000 		.4byte	0xa04
 1390 09fe 21       		.uleb128 0x21
 1391 09ff 500E0000 		.4byte	0xe50
 1392 0a03 00       		.byte	0
 1393 0a04 22       		.uleb128 0x22
 1394 0a05 DA100000 		.4byte	.LASF160
 1395 0a09 02       		.byte	0x2
 1396 0a0a 9002     		.2byte	0x290
 1397 0a0c 660A0000 		.4byte	.LASF161
 1398 0a10 01       		.byte	0x1
 1399 0a11 190A0000 		.4byte	0xa19
 1400 0a15 1F0A0000 		.4byte	0xa1f
 1401 0a19 21       		.uleb128 0x21
 1402 0a1a 560E0000 		.4byte	0xe56
 1403 0a1e 00       		.byte	0
 1404 0a1f 20       		.uleb128 0x20
 1405 0a20 00000000 		.4byte	.LASF162
 1406 0a24 02       		.byte	0x2
 1407 0a25 9F02     		.2byte	0x29f
 1408 0a27 07090000 		.4byte	.LASF163
 1409 0a2b 69090000 		.4byte	0x969
 1410 0a2f 01       		.byte	0x1
 1411 0a30 380A0000 		.4byte	0xa38
 1412 0a34 3E0A0000 		.4byte	0xa3e
 1413 0a38 21       		.uleb128 0x21
 1414 0a39 560E0000 		.4byte	0xe56
 1415 0a3d 00       		.byte	0
 1416 0a3e 22       		.uleb128 0x22
 1417 0a3f C0120000 		.4byte	.LASF164
 1418 0a43 02       		.byte	0x2
 1419 0a44 B302     		.2byte	0x2b3
 1420 0a46 84000000 		.4byte	.LASF165
 1421 0a4a 01       		.byte	0x1
 1422 0a4b 530A0000 		.4byte	0xa53
 1423 0a4f 590A0000 		.4byte	0xa59
 1424 0a53 21       		.uleb128 0x21
 1425 0a54 500E0000 		.4byte	0xe50
ARM GAS  /tmp/ccyXT0C6.s 			page 26


 1426 0a58 00       		.byte	0
 1427 0a59 20       		.uleb128 0x20
 1428 0a5a 150A0000 		.4byte	.LASF166
 1429 0a5e 02       		.byte	0x2
 1430 0a5f DA02     		.2byte	0x2da
 1431 0a61 CC020000 		.4byte	.LASF167
 1432 0a65 1C010000 		.4byte	0x11c
 1433 0a69 01       		.byte	0x1
 1434 0a6a 720A0000 		.4byte	0xa72
 1435 0a6e 780A0000 		.4byte	0xa78
 1436 0a72 21       		.uleb128 0x21
 1437 0a73 500E0000 		.4byte	0xe50
 1438 0a77 00       		.byte	0
 1439 0a78 20       		.uleb128 0x20
 1440 0a79 F4020000 		.4byte	.LASF168
 1441 0a7d 02       		.byte	0x2
 1442 0a7e EC02     		.2byte	0x2ec
 1443 0a80 D20D0000 		.4byte	.LASF169
 1444 0a84 1C010000 		.4byte	0x11c
 1445 0a88 01       		.byte	0x1
 1446 0a89 910A0000 		.4byte	0xa91
 1447 0a8d 9C0A0000 		.4byte	0xa9c
 1448 0a91 21       		.uleb128 0x21
 1449 0a92 560E0000 		.4byte	0xe56
 1450 0a96 11       		.uleb128 0x11
 1451 0a97 1C010000 		.4byte	0x11c
 1452 0a9b 00       		.byte	0
 1453 0a9c 20       		.uleb128 0x20
 1454 0a9d 22050000 		.4byte	.LASF170
 1455 0aa1 02       		.byte	0x2
 1456 0aa2 F902     		.2byte	0x2f9
 1457 0aa4 EE010000 		.4byte	.LASF171
 1458 0aa8 DB070000 		.4byte	0x7db
 1459 0aac 01       		.byte	0x1
 1460 0aad B50A0000 		.4byte	0xab5
 1461 0ab1 BB0A0000 		.4byte	0xabb
 1462 0ab5 21       		.uleb128 0x21
 1463 0ab6 560E0000 		.4byte	0xe56
 1464 0aba 00       		.byte	0
 1465 0abb 20       		.uleb128 0x20
 1466 0abc D1060000 		.4byte	.LASF172
 1467 0ac0 02       		.byte	0x2
 1468 0ac1 0503     		.2byte	0x305
 1469 0ac3 A40B0000 		.4byte	.LASF173
 1470 0ac7 1C010000 		.4byte	0x11c
 1471 0acb 01       		.byte	0x1
 1472 0acc D40A0000 		.4byte	0xad4
 1473 0ad0 DA0A0000 		.4byte	0xada
 1474 0ad4 21       		.uleb128 0x21
 1475 0ad5 560E0000 		.4byte	0xe56
 1476 0ad9 00       		.byte	0
 1477 0ada 22       		.uleb128 0x22
 1478 0adb CB100000 		.4byte	.LASF174
 1479 0adf 02       		.byte	0x2
 1480 0ae0 1203     		.2byte	0x312
 1481 0ae2 19010000 		.4byte	.LASF175
 1482 0ae6 01       		.byte	0x1
ARM GAS  /tmp/ccyXT0C6.s 			page 27


 1483 0ae7 EF0A0000 		.4byte	0xaef
 1484 0aeb FA0A0000 		.4byte	0xafa
 1485 0aef 21       		.uleb128 0x21
 1486 0af0 500E0000 		.4byte	0xe50
 1487 0af4 11       		.uleb128 0x11
 1488 0af5 1C010000 		.4byte	0x11c
 1489 0af9 00       		.byte	0
 1490 0afa 22       		.uleb128 0x22
 1491 0afb E1010000 		.4byte	.LASF176
 1492 0aff 02       		.byte	0x2
 1493 0b00 2203     		.2byte	0x322
 1494 0b02 53070000 		.4byte	.LASF177
 1495 0b06 01       		.byte	0x1
 1496 0b07 0F0B0000 		.4byte	0xb0f
 1497 0b0b 1A0B0000 		.4byte	0xb1a
 1498 0b0f 21       		.uleb128 0x21
 1499 0b10 560E0000 		.4byte	0xe56
 1500 0b14 11       		.uleb128 0x11
 1501 0b15 32010000 		.4byte	0x132
 1502 0b19 00       		.byte	0
 1503 0b1a 23       		.uleb128 0x23
 1504 0b1b 82050000 		.4byte	.LASF178
 1505 0b1f 02       		.byte	0x2
 1506 0b20 2E03     		.2byte	0x32e
 1507 0b22 B1090000 		.4byte	.LASF179
 1508 0b26 01       		.byte	0x1
 1509 0b27 2B0B0000 		.4byte	0xb2b
 1510 0b2b 21       		.uleb128 0x21
 1511 0b2c 560E0000 		.4byte	0xe56
 1512 0b30 11       		.uleb128 0x11
 1513 0b31 32010000 		.4byte	0x132
 1514 0b35 00       		.byte	0
 1515 0b36 00       		.byte	0
 1516 0b37 14       		.uleb128 0x14
 1517 0b38 69090000 		.4byte	0x969
 1518 0b3c 24       		.uleb128 0x24
 1519 0b3d 200F0000 		.4byte	.LASF182
 1520 0b41 04       		.byte	0x4
 1521 0b42 02       		.byte	0x2
 1522 0b43 8803     		.2byte	0x388
 1523 0b45 3C0B0000 		.4byte	0xb3c
 1524 0b49 390E0000 		.4byte	0xe39
 1525 0b4d 25       		.uleb128 0x25
 1526 0b4e C8130000 		.4byte	.LASF180
 1527 0b52 670E0000 		.4byte	0xe67
 1528 0b56 00       		.byte	0
 1529 0b57 01       		.byte	0x1
 1530 0b58 26       		.uleb128 0x26
 1531 0b59 B00F0000 		.4byte	.LASF181
 1532 0b5d BC0A0000 		.4byte	.LASF183
 1533 0b61 93030000 		.4byte	0x393
 1534 0b65 01       		.byte	0x1
 1535 0b66 6E0B0000 		.4byte	0xb6e
 1536 0b6a 790B0000 		.4byte	0xb79
 1537 0b6e 21       		.uleb128 0x21
 1538 0b6f 770E0000 		.4byte	0xe77
 1539 0b73 21       		.uleb128 0x21
ARM GAS  /tmp/ccyXT0C6.s 			page 28


 1540 0b74 25000000 		.4byte	0x25
 1541 0b78 00       		.byte	0
 1542 0b79 26       		.uleb128 0x26
 1543 0b7a 200F0000 		.4byte	.LASF182
 1544 0b7e 890D0000 		.4byte	.LASF184
 1545 0b82 770E0000 		.4byte	0xe77
 1546 0b86 01       		.byte	0x1
 1547 0b87 8F0B0000 		.4byte	0xb8f
 1548 0b8b 9A0B0000 		.4byte	0xb9a
 1549 0b8f 21       		.uleb128 0x21
 1550 0b90 770E0000 		.4byte	0xe77
 1551 0b94 11       		.uleb128 0x11
 1552 0b95 7D0E0000 		.4byte	0xe7d
 1553 0b99 00       		.byte	0
 1554 0b9a 26       		.uleb128 0x26
 1555 0b9b 200F0000 		.4byte	.LASF182
 1556 0b9f FE100000 		.4byte	.LASF185
 1557 0ba3 770E0000 		.4byte	0xe77
 1558 0ba7 01       		.byte	0x1
 1559 0ba8 B00B0000 		.4byte	0xbb0
 1560 0bac BB0B0000 		.4byte	0xbbb
 1561 0bb0 21       		.uleb128 0x21
 1562 0bb1 770E0000 		.4byte	0xe77
 1563 0bb5 11       		.uleb128 0x11
 1564 0bb6 830E0000 		.4byte	0xe83
 1565 0bba 00       		.byte	0
 1566 0bbb 20       		.uleb128 0x20
 1567 0bbc 200F0000 		.4byte	.LASF182
 1568 0bc0 02       		.byte	0x2
 1569 0bc1 8F03     		.2byte	0x38f
 1570 0bc3 CA000000 		.4byte	.LASF186
 1571 0bc7 770E0000 		.4byte	0xe77
 1572 0bcb 01       		.byte	0x1
 1573 0bcc D40B0000 		.4byte	0xbd4
 1574 0bd0 DA0B0000 		.4byte	0xbda
 1575 0bd4 21       		.uleb128 0x21
 1576 0bd5 770E0000 		.4byte	0xe77
 1577 0bd9 00       		.byte	0
 1578 0bda 27       		.uleb128 0x27
 1579 0bdb 62020000 		.4byte	.LASF240
 1580 0bdf 02       		.byte	0x2
 1581 0be0 9A03     		.2byte	0x39a
 1582 0be2 8A080000 		.4byte	.LASF241
 1583 0be6 01       		.byte	0x1
 1584 0be7 02       		.uleb128 0x2
 1585 0be8 10       		.byte	0x10
 1586 0be9 00       		.uleb128 0
 1587 0bea 3C0B0000 		.4byte	0xb3c
 1588 0bee 01       		.byte	0x1
 1589 0bef F70B0000 		.4byte	0xbf7
 1590 0bf3 FD0B0000 		.4byte	0xbfd
 1591 0bf7 21       		.uleb128 0x21
 1592 0bf8 770E0000 		.4byte	0xe77
 1593 0bfc 00       		.byte	0
 1594 0bfd 28       		.uleb128 0x28
 1595 0bfe AD110000 		.4byte	.LASF242
 1596 0c02 02       		.byte	0x2
ARM GAS  /tmp/ccyXT0C6.s 			page 29


 1597 0c03 A503     		.2byte	0x3a5
 1598 0c05 F1090000 		.4byte	.LASF243
 1599 0c09 69090000 		.4byte	0x969
 1600 0c0d 01       		.byte	0x1
 1601 0c0e 02       		.uleb128 0x2
 1602 0c0f 10       		.byte	0x10
 1603 0c10 01       		.uleb128 0x1
 1604 0c11 3C0B0000 		.4byte	0xb3c
 1605 0c15 01       		.byte	0x1
 1606 0c16 1E0C0000 		.4byte	0xc1e
 1607 0c1a 290C0000 		.4byte	0xc29
 1608 0c1e 21       		.uleb128 0x21
 1609 0c1f 770E0000 		.4byte	0xe77
 1610 0c23 11       		.uleb128 0x11
 1611 0c24 11010000 		.4byte	0x111
 1612 0c28 00       		.byte	0
 1613 0c29 1D       		.uleb128 0x1d
 1614 0c2a 1C080000 		.4byte	.LASF187
 1615 0c2e 02       		.byte	0x2
 1616 0c2f AE03     		.2byte	0x3ae
 1617 0c31 D4070000 		.4byte	.LASF188
 1618 0c35 69090000 		.4byte	0x969
 1619 0c39 01       		.byte	0x1
 1620 0c3a 1C       		.uleb128 0x1c
 1621 0c3b B8120000 		.4byte	.LASF189
 1622 0c3f 02       		.byte	0x2
 1623 0c40 BC03     		.2byte	0x3bc
 1624 0c42 7C110000 		.4byte	.LASF190
 1625 0c46 01       		.byte	0x1
 1626 0c47 510C0000 		.4byte	0xc51
 1627 0c4b 11       		.uleb128 0x11
 1628 0c4c 8B070000 		.4byte	0x78b
 1629 0c50 00       		.byte	0
 1630 0c51 1E       		.uleb128 0x1e
 1631 0c52 97090000 		.4byte	.LASF191
 1632 0c56 02       		.byte	0x2
 1633 0c57 CD03     		.2byte	0x3cd
 1634 0c59 C6030000 		.4byte	.LASF192
 1635 0c5d 11010000 		.4byte	0x111
 1636 0c61 01       		.byte	0x1
 1637 0c62 6C0C0000 		.4byte	0xc6c
 1638 0c66 11       		.uleb128 0x11
 1639 0c67 11010000 		.4byte	0x111
 1640 0c6b 00       		.byte	0
 1641 0c6c 1D       		.uleb128 0x1d
 1642 0c6d 620F0000 		.4byte	.LASF193
 1643 0c71 02       		.byte	0x2
 1644 0c72 DA03     		.2byte	0x3da
 1645 0c74 4B050000 		.4byte	.LASF194
 1646 0c78 11010000 		.4byte	0x111
 1647 0c7c 01       		.byte	0x1
 1648 0c7d 1C       		.uleb128 0x1c
 1649 0c7e 2B0F0000 		.4byte	.LASF195
 1650 0c82 02       		.byte	0x2
 1651 0c83 ED03     		.2byte	0x3ed
 1652 0c85 300A0000 		.4byte	.LASF196
 1653 0c89 01       		.byte	0x1
ARM GAS  /tmp/ccyXT0C6.s 			page 30


 1654 0c8a 940C0000 		.4byte	0xc94
 1655 0c8e 11       		.uleb128 0x11
 1656 0c8f 1C010000 		.4byte	0x11c
 1657 0c93 00       		.byte	0
 1658 0c94 1C       		.uleb128 0x1c
 1659 0c95 1A0A0000 		.4byte	.LASF197
 1660 0c99 02       		.byte	0x2
 1661 0c9a 0004     		.2byte	0x400
 1662 0c9c 18070000 		.4byte	.LASF198
 1663 0ca0 01       		.byte	0x1
 1664 0ca1 AB0C0000 		.4byte	0xcab
 1665 0ca5 11       		.uleb128 0x11
 1666 0ca6 1C010000 		.4byte	0x11c
 1667 0caa 00       		.byte	0
 1668 0cab 1D       		.uleb128 0x1d
 1669 0cac 3E040000 		.4byte	.LASF199
 1670 0cb0 02       		.byte	0x2
 1671 0cb1 0F04     		.2byte	0x40f
 1672 0cb3 A2060000 		.4byte	.LASF200
 1673 0cb7 DB070000 		.4byte	0x7db
 1674 0cbb 01       		.byte	0x1
 1675 0cbc 1C       		.uleb128 0x1c
 1676 0cbd 1C060000 		.4byte	.LASF201
 1677 0cc1 02       		.byte	0x2
 1678 0cc2 2004     		.2byte	0x420
 1679 0cc4 BB0C0000 		.4byte	.LASF202
 1680 0cc8 01       		.byte	0x1
 1681 0cc9 D30C0000 		.4byte	0xcd3
 1682 0ccd 11       		.uleb128 0x11
 1683 0cce D3040000 		.4byte	0x4d3
 1684 0cd2 00       		.byte	0
 1685 0cd3 1C       		.uleb128 0x1c
 1686 0cd4 FB110000 		.4byte	.LASF203
 1687 0cd8 02       		.byte	0x2
 1688 0cd9 2D04     		.2byte	0x42d
 1689 0cdb 3C0D0000 		.4byte	.LASF204
 1690 0cdf 01       		.byte	0x1
 1691 0ce0 EA0C0000 		.4byte	0xcea
 1692 0ce4 11       		.uleb128 0x11
 1693 0ce5 C8040000 		.4byte	0x4c8
 1694 0ce9 00       		.byte	0
 1695 0cea 1E       		.uleb128 0x1e
 1696 0ceb 4B090000 		.4byte	.LASF205
 1697 0cef 02       		.byte	0x2
 1698 0cf0 4004     		.2byte	0x440
 1699 0cf2 6C0C0000 		.4byte	.LASF206
 1700 0cf6 C8040000 		.4byte	0x4c8
 1701 0cfa 01       		.byte	0x1
 1702 0cfb 0A0D0000 		.4byte	0xd0a
 1703 0cff 11       		.uleb128 0x11
 1704 0d00 C8040000 		.4byte	0x4c8
 1705 0d04 11       		.uleb128 0x11
 1706 0d05 C8040000 		.4byte	0x4c8
 1707 0d09 00       		.byte	0
 1708 0d0a 29       		.uleb128 0x29
 1709 0d0b 8C010000 		.4byte	.LASF207
 1710 0d0f 02       		.byte	0x2
ARM GAS  /tmp/ccyXT0C6.s 			page 31


 1711 0d10 4C04     		.2byte	0x44c
 1712 0d12 7F120000 		.4byte	.LASF229
 1713 0d16 01       		.byte	0x1
 1714 0d17 1D       		.uleb128 0x1d
 1715 0d18 32120000 		.4byte	.LASF208
 1716 0d1c 02       		.byte	0x2
 1717 0d1d 5C04     		.2byte	0x45c
 1718 0d1f 22060000 		.4byte	.LASF209
 1719 0d23 69090000 		.4byte	0x969
 1720 0d27 01       		.byte	0x1
 1721 0d28 1E       		.uleb128 0x1e
 1722 0d29 55030000 		.4byte	.LASF210
 1723 0d2d 02       		.byte	0x2
 1724 0d2e 6B04     		.2byte	0x46b
 1725 0d30 620B0000 		.4byte	.LASF211
 1726 0d34 32010000 		.4byte	0x132
 1727 0d38 01       		.byte	0x1
 1728 0d39 430D0000 		.4byte	0xd43
 1729 0d3d 11       		.uleb128 0x11
 1730 0d3e 32010000 		.4byte	0x132
 1731 0d42 00       		.byte	0
 1732 0d43 1E       		.uleb128 0x1e
 1733 0d44 580B0000 		.4byte	.LASF212
 1734 0d48 02       		.byte	0x2
 1735 0d49 7A04     		.2byte	0x47a
 1736 0d4b 48120000 		.4byte	.LASF213
 1737 0d4f 32010000 		.4byte	0x132
 1738 0d53 01       		.byte	0x1
 1739 0d54 5E0D0000 		.4byte	0xd5e
 1740 0d58 11       		.uleb128 0x11
 1741 0d59 32010000 		.4byte	0x132
 1742 0d5d 00       		.byte	0
 1743 0d5e 1E       		.uleb128 0x1e
 1744 0d5f C0010000 		.4byte	.LASF214
 1745 0d63 02       		.byte	0x2
 1746 0d64 9004     		.2byte	0x490
 1747 0d66 B7040000 		.4byte	.LASF215
 1748 0d6a 32010000 		.4byte	0x132
 1749 0d6e 01       		.byte	0x1
 1750 0d6f 790D0000 		.4byte	0xd79
 1751 0d73 11       		.uleb128 0x11
 1752 0d74 32010000 		.4byte	0x132
 1753 0d78 00       		.byte	0
 1754 0d79 1E       		.uleb128 0x1e
 1755 0d7a C3110000 		.4byte	.LASF216
 1756 0d7e 02       		.byte	0x2
 1757 0d7f A104     		.2byte	0x4a1
 1758 0d81 50110000 		.4byte	.LASF217
 1759 0d85 32010000 		.4byte	0x132
 1760 0d89 01       		.byte	0x1
 1761 0d8a 940D0000 		.4byte	0xd94
 1762 0d8e 11       		.uleb128 0x11
 1763 0d8f 32010000 		.4byte	0x132
 1764 0d93 00       		.byte	0
 1765 0d94 1E       		.uleb128 0x1e
 1766 0d95 A3090000 		.4byte	.LASF218
 1767 0d99 02       		.byte	0x2
ARM GAS  /tmp/ccyXT0C6.s 			page 32


 1768 0d9a B104     		.2byte	0x4b1
 1769 0d9c 89130000 		.4byte	.LASF219
 1770 0da0 32010000 		.4byte	0x132
 1771 0da4 01       		.byte	0x1
 1772 0da5 AF0D0000 		.4byte	0xdaf
 1773 0da9 11       		.uleb128 0x11
 1774 0daa 32010000 		.4byte	0x132
 1775 0dae 00       		.byte	0
 1776 0daf 1E       		.uleb128 0x1e
 1777 0db0 DC060000 		.4byte	.LASF220
 1778 0db4 02       		.byte	0x2
 1779 0db5 CC04     		.2byte	0x4cc
 1780 0db7 E50E0000 		.4byte	.LASF221
 1781 0dbb 32010000 		.4byte	0x132
 1782 0dbf 01       		.byte	0x1
 1783 0dc0 CF0D0000 		.4byte	0xdcf
 1784 0dc4 11       		.uleb128 0x11
 1785 0dc5 32010000 		.4byte	0x132
 1786 0dc9 11       		.uleb128 0x11
 1787 0dca D3040000 		.4byte	0x4d3
 1788 0dce 00       		.byte	0
 1789 0dcf 1E       		.uleb128 0x1e
 1790 0dd0 9F0C0000 		.4byte	.LASF222
 1791 0dd4 02       		.byte	0x2
 1792 0dd5 E104     		.2byte	0x4e1
 1793 0dd7 E2050000 		.4byte	.LASF223
 1794 0ddb 32010000 		.4byte	0x132
 1795 0ddf 01       		.byte	0x1
 1796 0de0 EF0D0000 		.4byte	0xdef
 1797 0de4 11       		.uleb128 0x11
 1798 0de5 32010000 		.4byte	0x132
 1799 0de9 11       		.uleb128 0x11
 1800 0dea D3040000 		.4byte	0x4d3
 1801 0dee 00       		.byte	0
 1802 0def 1E       		.uleb128 0x1e
 1803 0df0 D0110000 		.4byte	.LASF224
 1804 0df4 02       		.byte	0x2
 1805 0df5 F504     		.2byte	0x4f5
 1806 0df7 7B0F0000 		.4byte	.LASF225
 1807 0dfb 32010000 		.4byte	0x132
 1808 0dff 01       		.byte	0x1
 1809 0e00 0F0E0000 		.4byte	0xe0f
 1810 0e04 11       		.uleb128 0x11
 1811 0e05 32010000 		.4byte	0x132
 1812 0e09 11       		.uleb128 0x11
 1813 0e0a D3040000 		.4byte	0x4d3
 1814 0e0e 00       		.byte	0
 1815 0e0f 1C       		.uleb128 0x1c
 1816 0e10 0A010000 		.4byte	.LASF226
 1817 0e14 02       		.byte	0x2
 1818 0e15 0505     		.2byte	0x505
 1819 0e17 030E0000 		.4byte	.LASF227
 1820 0e1b 01       		.byte	0x1
 1821 0e1c 2B0E0000 		.4byte	0xe2b
 1822 0e20 11       		.uleb128 0x11
 1823 0e21 890E0000 		.4byte	0xe89
 1824 0e25 11       		.uleb128 0x11
ARM GAS  /tmp/ccyXT0C6.s 			page 33


 1825 0e26 32010000 		.4byte	0x132
 1826 0e2a 00       		.byte	0
 1827 0e2b 29       		.uleb128 0x29
 1828 0e2c 9F050000 		.4byte	.LASF228
 1829 0e30 02       		.byte	0x2
 1830 0e31 1805     		.2byte	0x518
 1831 0e33 18130000 		.4byte	.LASF230
 1832 0e37 01       		.byte	0x1
 1833 0e38 00       		.byte	0
 1834 0e39 14       		.uleb128 0x14
 1835 0e3a 3C0B0000 		.4byte	0xb3c
 1836 0e3e 2A       		.uleb128 0x2a
 1837 0e3f 8C090000 		.4byte	.LASF244
 1838 0e43 03       		.byte	0x3
 1839 0e44 27       		.byte	0x27
 1840 0e45 350F0000 		.4byte	.LASF245
 1841 0e49 11       		.uleb128 0x11
 1842 0e4a 93030000 		.4byte	0x393
 1843 0e4e 00       		.byte	0
 1844 0e4f 00       		.byte	0
 1845 0e50 0E       		.uleb128 0xe
 1846 0e51 04       		.byte	0x4
 1847 0e52 69090000 		.4byte	0x969
 1848 0e56 0E       		.uleb128 0xe
 1849 0e57 04       		.byte	0x4
 1850 0e58 370B0000 		.4byte	0xb37
 1851 0e5c 2B       		.uleb128 0x2b
 1852 0e5d 25000000 		.4byte	0x25
 1853 0e61 670E0000 		.4byte	0xe67
 1854 0e65 2C       		.uleb128 0x2c
 1855 0e66 00       		.byte	0
 1856 0e67 0E       		.uleb128 0xe
 1857 0e68 04       		.byte	0x4
 1858 0e69 6D0E0000 		.4byte	0xe6d
 1859 0e6d 2D       		.uleb128 0x2d
 1860 0e6e 04       		.byte	0x4
 1861 0e6f AF000000 		.4byte	.LASF246
 1862 0e73 5C0E0000 		.4byte	0xe5c
 1863 0e77 0E       		.uleb128 0xe
 1864 0e78 04       		.byte	0x4
 1865 0e79 3C0B0000 		.4byte	0xb3c
 1866 0e7d 2E       		.uleb128 0x2e
 1867 0e7e 04       		.byte	0x4
 1868 0e7f 3C0B0000 		.4byte	0xb3c
 1869 0e83 2F       		.uleb128 0x2f
 1870 0e84 04       		.byte	0x4
 1871 0e85 390E0000 		.4byte	0xe39
 1872 0e89 0E       		.uleb128 0xe
 1873 0e8a 04       		.byte	0x4
 1874 0e8b 8F0E0000 		.4byte	0xe8f
 1875 0e8f 14       		.uleb128 0x14
 1876 0e90 BF070000 		.4byte	0x7bf
 1877 0e94 30       		.uleb128 0x30
 1878 0e95 CD010000 		.4byte	.LASF247
 1879 0e99 01       		.byte	0x1
 1880 0e9a CD01     		.2byte	0x1cd
 1881 0e9c B6020000 		.4byte	0x2b6
ARM GAS  /tmp/ccyXT0C6.s 			page 34


 1882 0ea0 00000000 		.4byte	.LFB190
 1883 0ea4 0C000000 		.4byte	.LFE190-.LFB190
 1884 0ea8 01       		.uleb128 0x1
 1885 0ea9 9C       		.byte	0x9c
 1886 0eaa 31       		.uleb128 0x31
 1887 0eab A2090000 		.4byte	0x9a2
 1888 0eaf 02       		.byte	0x2
 1889 0eb0 B80E0000 		.4byte	0xeb8
 1890 0eb4 CD0E0000 		.4byte	0xecd
 1891 0eb8 32       		.uleb128 0x32
 1892 0eb9 A6070000 		.4byte	.LASF248
 1893 0ebd CD0E0000 		.4byte	0xecd
 1894 0ec1 33       		.uleb128 0x33
 1895 0ec2 747000   		.ascii	"tp\000"
 1896 0ec5 02       		.byte	0x2
 1897 0ec6 6E02     		.2byte	0x26e
 1898 0ec8 B6020000 		.4byte	0x2b6
 1899 0ecc 00       		.byte	0
 1900 0ecd 14       		.uleb128 0x14
 1901 0ece 500E0000 		.4byte	0xe50
 1902 0ed2 34       		.uleb128 0x34
 1903 0ed3 AA0E0000 		.4byte	0xeaa
 1904 0ed7 88040000 		.4byte	.LASF249
 1905 0edb 00000000 		.4byte	.LFB329
 1906 0edf 14000000 		.4byte	.LFE329-.LFB329
 1907 0ee3 01       		.uleb128 0x1
 1908 0ee4 9C       		.byte	0x9c
 1909 0ee5 ED0E0000 		.4byte	0xeed
 1910 0ee9 FE0E0000 		.4byte	0xefe
 1911 0eed 35       		.uleb128 0x35
 1912 0eee B80E0000 		.4byte	0xeb8
 1913 0ef2 02       		.uleb128 0x2
 1914 0ef3 91       		.byte	0x91
 1915 0ef4 7C       		.sleb128 -4
 1916 0ef5 35       		.uleb128 0x35
 1917 0ef6 C10E0000 		.4byte	0xec1
 1918 0efa 02       		.uleb128 0x2
 1919 0efb 91       		.byte	0x91
 1920 0efc 78       		.sleb128 -8
 1921 0efd 00       		.byte	0
 1922 0efe 36       		.uleb128 0x36
 1923 0eff 57090000 		.4byte	0x957
 1924 0f03 03       		.byte	0x3
 1925 0f04 1D       		.byte	0x1d
 1926 0f05 00000000 		.4byte	.LFB486
 1927 0f09 1E000000 		.4byte	.LFE486-.LFB486
 1928 0f0d 01       		.uleb128 0x1
 1929 0f0e 9C       		.byte	0x9c
 1930 0f0f 37       		.uleb128 0x37
 1931 0f10 3E0E0000 		.4byte	0xe3e
 1932 0f14 00000000 		.4byte	.LFB487
 1933 0f18 18000000 		.4byte	.LFE487-.LFB487
 1934 0f1c 01       		.uleb128 0x1
 1935 0f1d 9C       		.byte	0x9c
 1936 0f1e 310F0000 		.4byte	0xf31
 1937 0f22 38       		.uleb128 0x38
 1938 0f23 61726700 		.ascii	"arg\000"
ARM GAS  /tmp/ccyXT0C6.s 			page 35


 1939 0f27 03       		.byte	0x3
 1940 0f28 27       		.byte	0x27
 1941 0f29 93030000 		.4byte	0x393
 1942 0f2d 02       		.uleb128 0x2
 1943 0f2e 91       		.byte	0x91
 1944 0f2f 74       		.sleb128 -12
 1945 0f30 00       		.byte	0
 1946 0f31 39       		.uleb128 0x39
 1947 0f32 E4090000 		.4byte	.LASF231
 1948 0f36 11       		.byte	0x11
 1949 0f37 0408     		.2byte	0x804
 1950 0f39 3D0F0000 		.4byte	0xf3d
 1951 0f3d 15       		.uleb128 0x15
 1952 0f3e AE000000 		.4byte	0xae
 1953 0f42 3A       		.uleb128 0x3a
 1954 0f43 636800   		.ascii	"ch\000"
 1955 0f46 08       		.byte	0x8
 1956 0f47 C701     		.2byte	0x1c7
 1957 0f49 62040000 		.4byte	0x462
 1958 0f4d 00       		.byte	0
 1959              		.section	.debug_abbrev,"",%progbits
 1960              	.Ldebug_abbrev0:
 1961 0000 01       		.uleb128 0x1
 1962 0001 11       		.uleb128 0x11
 1963 0002 01       		.byte	0x1
 1964 0003 25       		.uleb128 0x25
 1965 0004 0E       		.uleb128 0xe
 1966 0005 13       		.uleb128 0x13
 1967 0006 0B       		.uleb128 0xb
 1968 0007 03       		.uleb128 0x3
 1969 0008 0E       		.uleb128 0xe
 1970 0009 1B       		.uleb128 0x1b
 1971 000a 0E       		.uleb128 0xe
 1972 000b 55       		.uleb128 0x55
 1973 000c 17       		.uleb128 0x17
 1974 000d 11       		.uleb128 0x11
 1975 000e 01       		.uleb128 0x1
 1976 000f 10       		.uleb128 0x10
 1977 0010 17       		.uleb128 0x17
 1978 0011 00       		.byte	0
 1979 0012 00       		.byte	0
 1980 0013 02       		.uleb128 0x2
 1981 0014 24       		.uleb128 0x24
 1982 0015 00       		.byte	0
 1983 0016 0B       		.uleb128 0xb
 1984 0017 0B       		.uleb128 0xb
 1985 0018 3E       		.uleb128 0x3e
 1986 0019 0B       		.uleb128 0xb
 1987 001a 03       		.uleb128 0x3
 1988 001b 08       		.uleb128 0x8
 1989 001c 00       		.byte	0
 1990 001d 00       		.byte	0
 1991 001e 03       		.uleb128 0x3
 1992 001f 24       		.uleb128 0x24
 1993 0020 00       		.byte	0
 1994 0021 0B       		.uleb128 0xb
 1995 0022 0B       		.uleb128 0xb
ARM GAS  /tmp/ccyXT0C6.s 			page 36


 1996 0023 3E       		.uleb128 0x3e
 1997 0024 0B       		.uleb128 0xb
 1998 0025 03       		.uleb128 0x3
 1999 0026 0E       		.uleb128 0xe
 2000 0027 00       		.byte	0
 2001 0028 00       		.byte	0
 2002 0029 04       		.uleb128 0x4
 2003 002a 3B       		.uleb128 0x3b
 2004 002b 00       		.byte	0
 2005 002c 03       		.uleb128 0x3
 2006 002d 0E       		.uleb128 0xe
 2007 002e 00       		.byte	0
 2008 002f 00       		.byte	0
 2009 0030 05       		.uleb128 0x5
 2010 0031 16       		.uleb128 0x16
 2011 0032 00       		.byte	0
 2012 0033 03       		.uleb128 0x3
 2013 0034 0E       		.uleb128 0xe
 2014 0035 3A       		.uleb128 0x3a
 2015 0036 0B       		.uleb128 0xb
 2016 0037 3B       		.uleb128 0x3b
 2017 0038 0B       		.uleb128 0xb
 2018 0039 49       		.uleb128 0x49
 2019 003a 13       		.uleb128 0x13
 2020 003b 00       		.byte	0
 2021 003c 00       		.byte	0
 2022 003d 06       		.uleb128 0x6
 2023 003e 13       		.uleb128 0x13
 2024 003f 01       		.byte	0x1
 2025 0040 03       		.uleb128 0x3
 2026 0041 0E       		.uleb128 0xe
 2027 0042 0B       		.uleb128 0xb
 2028 0043 0B       		.uleb128 0xb
 2029 0044 3A       		.uleb128 0x3a
 2030 0045 0B       		.uleb128 0xb
 2031 0046 3B       		.uleb128 0x3b
 2032 0047 0B       		.uleb128 0xb
 2033 0048 01       		.uleb128 0x1
 2034 0049 13       		.uleb128 0x13
 2035 004a 00       		.byte	0
 2036 004b 00       		.byte	0
 2037 004c 07       		.uleb128 0x7
 2038 004d 17       		.uleb128 0x17
 2039 004e 01       		.byte	0x1
 2040 004f 0B       		.uleb128 0xb
 2041 0050 0B       		.uleb128 0xb
 2042 0051 3A       		.uleb128 0x3a
 2043 0052 0B       		.uleb128 0xb
 2044 0053 3B       		.uleb128 0x3b
 2045 0054 0B       		.uleb128 0xb
 2046 0055 01       		.uleb128 0x1
 2047 0056 13       		.uleb128 0x13
 2048 0057 00       		.byte	0
 2049 0058 00       		.byte	0
 2050 0059 08       		.uleb128 0x8
 2051 005a 0D       		.uleb128 0xd
 2052 005b 00       		.byte	0
ARM GAS  /tmp/ccyXT0C6.s 			page 37


 2053 005c 03       		.uleb128 0x3
 2054 005d 0E       		.uleb128 0xe
 2055 005e 3A       		.uleb128 0x3a
 2056 005f 0B       		.uleb128 0xb
 2057 0060 3B       		.uleb128 0x3b
 2058 0061 0B       		.uleb128 0xb
 2059 0062 49       		.uleb128 0x49
 2060 0063 13       		.uleb128 0x13
 2061 0064 00       		.byte	0
 2062 0065 00       		.byte	0
 2063 0066 09       		.uleb128 0x9
 2064 0067 0D       		.uleb128 0xd
 2065 0068 00       		.byte	0
 2066 0069 03       		.uleb128 0x3
 2067 006a 0E       		.uleb128 0xe
 2068 006b 3A       		.uleb128 0x3a
 2069 006c 0B       		.uleb128 0xb
 2070 006d 3B       		.uleb128 0x3b
 2071 006e 05       		.uleb128 0x5
 2072 006f 49       		.uleb128 0x49
 2073 0070 13       		.uleb128 0x13
 2074 0071 00       		.byte	0
 2075 0072 00       		.byte	0
 2076 0073 0A       		.uleb128 0xa
 2077 0074 0D       		.uleb128 0xd
 2078 0075 00       		.byte	0
 2079 0076 03       		.uleb128 0x3
 2080 0077 0E       		.uleb128 0xe
 2081 0078 3A       		.uleb128 0x3a
 2082 0079 0B       		.uleb128 0xb
 2083 007a 3B       		.uleb128 0x3b
 2084 007b 0B       		.uleb128 0xb
 2085 007c 49       		.uleb128 0x49
 2086 007d 13       		.uleb128 0x13
 2087 007e 38       		.uleb128 0x38
 2088 007f 0B       		.uleb128 0xb
 2089 0080 00       		.byte	0
 2090 0081 00       		.byte	0
 2091 0082 0B       		.uleb128 0xb
 2092 0083 0D       		.uleb128 0xd
 2093 0084 00       		.byte	0
 2094 0085 03       		.uleb128 0x3
 2095 0086 08       		.uleb128 0x8
 2096 0087 3A       		.uleb128 0x3a
 2097 0088 0B       		.uleb128 0xb
 2098 0089 3B       		.uleb128 0x3b
 2099 008a 0B       		.uleb128 0xb
 2100 008b 49       		.uleb128 0x49
 2101 008c 13       		.uleb128 0x13
 2102 008d 38       		.uleb128 0x38
 2103 008e 0B       		.uleb128 0xb
 2104 008f 00       		.byte	0
 2105 0090 00       		.byte	0
 2106 0091 0C       		.uleb128 0xc
 2107 0092 0D       		.uleb128 0xd
 2108 0093 00       		.byte	0
 2109 0094 03       		.uleb128 0x3
ARM GAS  /tmp/ccyXT0C6.s 			page 38


 2110 0095 08       		.uleb128 0x8
 2111 0096 3A       		.uleb128 0x3a
 2112 0097 0B       		.uleb128 0xb
 2113 0098 3B       		.uleb128 0x3b
 2114 0099 05       		.uleb128 0x5
 2115 009a 49       		.uleb128 0x49
 2116 009b 13       		.uleb128 0x13
 2117 009c 38       		.uleb128 0x38
 2118 009d 0B       		.uleb128 0xb
 2119 009e 00       		.byte	0
 2120 009f 00       		.byte	0
 2121 00a0 0D       		.uleb128 0xd
 2122 00a1 0D       		.uleb128 0xd
 2123 00a2 00       		.byte	0
 2124 00a3 03       		.uleb128 0x3
 2125 00a4 0E       		.uleb128 0xe
 2126 00a5 3A       		.uleb128 0x3a
 2127 00a6 0B       		.uleb128 0xb
 2128 00a7 3B       		.uleb128 0x3b
 2129 00a8 05       		.uleb128 0x5
 2130 00a9 49       		.uleb128 0x49
 2131 00aa 13       		.uleb128 0x13
 2132 00ab 38       		.uleb128 0x38
 2133 00ac 0B       		.uleb128 0xb
 2134 00ad 00       		.byte	0
 2135 00ae 00       		.byte	0
 2136 00af 0E       		.uleb128 0xe
 2137 00b0 0F       		.uleb128 0xf
 2138 00b1 00       		.byte	0
 2139 00b2 0B       		.uleb128 0xb
 2140 00b3 0B       		.uleb128 0xb
 2141 00b4 49       		.uleb128 0x49
 2142 00b5 13       		.uleb128 0x13
 2143 00b6 00       		.byte	0
 2144 00b7 00       		.byte	0
 2145 00b8 0F       		.uleb128 0xf
 2146 00b9 13       		.uleb128 0x13
 2147 00ba 01       		.byte	0x1
 2148 00bb 03       		.uleb128 0x3
 2149 00bc 0E       		.uleb128 0xe
 2150 00bd 0B       		.uleb128 0xb
 2151 00be 0B       		.uleb128 0xb
 2152 00bf 3A       		.uleb128 0x3a
 2153 00c0 0B       		.uleb128 0xb
 2154 00c1 3B       		.uleb128 0x3b
 2155 00c2 05       		.uleb128 0x5
 2156 00c3 01       		.uleb128 0x1
 2157 00c4 13       		.uleb128 0x13
 2158 00c5 00       		.byte	0
 2159 00c6 00       		.byte	0
 2160 00c7 10       		.uleb128 0x10
 2161 00c8 15       		.uleb128 0x15
 2162 00c9 01       		.byte	0x1
 2163 00ca 01       		.uleb128 0x1
 2164 00cb 13       		.uleb128 0x13
 2165 00cc 00       		.byte	0
 2166 00cd 00       		.byte	0
ARM GAS  /tmp/ccyXT0C6.s 			page 39


 2167 00ce 11       		.uleb128 0x11
 2168 00cf 05       		.uleb128 0x5
 2169 00d0 00       		.byte	0
 2170 00d1 49       		.uleb128 0x49
 2171 00d2 13       		.uleb128 0x13
 2172 00d3 00       		.byte	0
 2173 00d4 00       		.byte	0
 2174 00d5 12       		.uleb128 0x12
 2175 00d6 0F       		.uleb128 0xf
 2176 00d7 00       		.byte	0
 2177 00d8 0B       		.uleb128 0xb
 2178 00d9 0B       		.uleb128 0xb
 2179 00da 00       		.byte	0
 2180 00db 00       		.byte	0
 2181 00dc 13       		.uleb128 0x13
 2182 00dd 13       		.uleb128 0x13
 2183 00de 01       		.byte	0x1
 2184 00df 0B       		.uleb128 0xb
 2185 00e0 0B       		.uleb128 0xb
 2186 00e1 3A       		.uleb128 0x3a
 2187 00e2 0B       		.uleb128 0xb
 2188 00e3 3B       		.uleb128 0x3b
 2189 00e4 0B       		.uleb128 0xb
 2190 00e5 6E       		.uleb128 0x6e
 2191 00e6 0E       		.uleb128 0xe
 2192 00e7 01       		.uleb128 0x1
 2193 00e8 13       		.uleb128 0x13
 2194 00e9 00       		.byte	0
 2195 00ea 00       		.byte	0
 2196 00eb 14       		.uleb128 0x14
 2197 00ec 26       		.uleb128 0x26
 2198 00ed 00       		.byte	0
 2199 00ee 49       		.uleb128 0x49
 2200 00ef 13       		.uleb128 0x13
 2201 00f0 00       		.byte	0
 2202 00f1 00       		.byte	0
 2203 00f2 15       		.uleb128 0x15
 2204 00f3 35       		.uleb128 0x35
 2205 00f4 00       		.byte	0
 2206 00f5 49       		.uleb128 0x49
 2207 00f6 13       		.uleb128 0x13
 2208 00f7 00       		.byte	0
 2209 00f8 00       		.byte	0
 2210 00f9 16       		.uleb128 0x16
 2211 00fa 39       		.uleb128 0x39
 2212 00fb 01       		.byte	0x1
 2213 00fc 03       		.uleb128 0x3
 2214 00fd 0E       		.uleb128 0xe
 2215 00fe 3A       		.uleb128 0x3a
 2216 00ff 0B       		.uleb128 0xb
 2217 0100 3B       		.uleb128 0x3b
 2218 0101 0B       		.uleb128 0xb
 2219 0102 01       		.uleb128 0x1
 2220 0103 13       		.uleb128 0x13
 2221 0104 00       		.byte	0
 2222 0105 00       		.byte	0
 2223 0106 17       		.uleb128 0x17
ARM GAS  /tmp/ccyXT0C6.s 			page 40


 2224 0107 02       		.uleb128 0x2
 2225 0108 01       		.byte	0x1
 2226 0109 03       		.uleb128 0x3
 2227 010a 0E       		.uleb128 0xe
 2228 010b 0B       		.uleb128 0xb
 2229 010c 0B       		.uleb128 0xb
 2230 010d 3A       		.uleb128 0x3a
 2231 010e 0B       		.uleb128 0xb
 2232 010f 3B       		.uleb128 0x3b
 2233 0110 0B       		.uleb128 0xb
 2234 0111 01       		.uleb128 0x1
 2235 0112 13       		.uleb128 0x13
 2236 0113 00       		.byte	0
 2237 0114 00       		.byte	0
 2238 0115 18       		.uleb128 0x18
 2239 0116 2E       		.uleb128 0x2e
 2240 0117 00       		.byte	0
 2241 0118 3F       		.uleb128 0x3f
 2242 0119 19       		.uleb128 0x19
 2243 011a 03       		.uleb128 0x3
 2244 011b 0E       		.uleb128 0xe
 2245 011c 3A       		.uleb128 0x3a
 2246 011d 0B       		.uleb128 0xb
 2247 011e 3B       		.uleb128 0x3b
 2248 011f 0B       		.uleb128 0xb
 2249 0120 6E       		.uleb128 0x6e
 2250 0121 0E       		.uleb128 0xe
 2251 0122 32       		.uleb128 0x32
 2252 0123 0B       		.uleb128 0xb
 2253 0124 3C       		.uleb128 0x3c
 2254 0125 19       		.uleb128 0x19
 2255 0126 00       		.byte	0
 2256 0127 00       		.byte	0
 2257 0128 19       		.uleb128 0x19
 2258 0129 2E       		.uleb128 0x2e
 2259 012a 01       		.byte	0x1
 2260 012b 3F       		.uleb128 0x3f
 2261 012c 19       		.uleb128 0x19
 2262 012d 03       		.uleb128 0x3
 2263 012e 0E       		.uleb128 0xe
 2264 012f 3A       		.uleb128 0x3a
 2265 0130 0B       		.uleb128 0xb
 2266 0131 3B       		.uleb128 0x3b
 2267 0132 0B       		.uleb128 0xb
 2268 0133 6E       		.uleb128 0x6e
 2269 0134 0E       		.uleb128 0xe
 2270 0135 32       		.uleb128 0x32
 2271 0136 0B       		.uleb128 0xb
 2272 0137 3C       		.uleb128 0x3c
 2273 0138 19       		.uleb128 0x19
 2274 0139 01       		.uleb128 0x1
 2275 013a 13       		.uleb128 0x13
 2276 013b 00       		.byte	0
 2277 013c 00       		.byte	0
 2278 013d 1A       		.uleb128 0x1a
 2279 013e 2E       		.uleb128 0x2e
 2280 013f 01       		.byte	0x1
ARM GAS  /tmp/ccyXT0C6.s 			page 41


 2281 0140 3F       		.uleb128 0x3f
 2282 0141 19       		.uleb128 0x19
 2283 0142 03       		.uleb128 0x3
 2284 0143 0E       		.uleb128 0xe
 2285 0144 3A       		.uleb128 0x3a
 2286 0145 0B       		.uleb128 0xb
 2287 0146 3B       		.uleb128 0x3b
 2288 0147 0B       		.uleb128 0xb
 2289 0148 6E       		.uleb128 0x6e
 2290 0149 0E       		.uleb128 0xe
 2291 014a 49       		.uleb128 0x49
 2292 014b 13       		.uleb128 0x13
 2293 014c 32       		.uleb128 0x32
 2294 014d 0B       		.uleb128 0xb
 2295 014e 3C       		.uleb128 0x3c
 2296 014f 19       		.uleb128 0x19
 2297 0150 01       		.uleb128 0x1
 2298 0151 13       		.uleb128 0x13
 2299 0152 00       		.byte	0
 2300 0153 00       		.byte	0
 2301 0154 1B       		.uleb128 0x1b
 2302 0155 2E       		.uleb128 0x2e
 2303 0156 00       		.byte	0
 2304 0157 3F       		.uleb128 0x3f
 2305 0158 19       		.uleb128 0x19
 2306 0159 03       		.uleb128 0x3
 2307 015a 0E       		.uleb128 0xe
 2308 015b 3A       		.uleb128 0x3a
 2309 015c 0B       		.uleb128 0xb
 2310 015d 3B       		.uleb128 0x3b
 2311 015e 0B       		.uleb128 0xb
 2312 015f 6E       		.uleb128 0x6e
 2313 0160 0E       		.uleb128 0xe
 2314 0161 49       		.uleb128 0x49
 2315 0162 13       		.uleb128 0x13
 2316 0163 32       		.uleb128 0x32
 2317 0164 0B       		.uleb128 0xb
 2318 0165 3C       		.uleb128 0x3c
 2319 0166 19       		.uleb128 0x19
 2320 0167 00       		.byte	0
 2321 0168 00       		.byte	0
 2322 0169 1C       		.uleb128 0x1c
 2323 016a 2E       		.uleb128 0x2e
 2324 016b 01       		.byte	0x1
 2325 016c 3F       		.uleb128 0x3f
 2326 016d 19       		.uleb128 0x19
 2327 016e 03       		.uleb128 0x3
 2328 016f 0E       		.uleb128 0xe
 2329 0170 3A       		.uleb128 0x3a
 2330 0171 0B       		.uleb128 0xb
 2331 0172 3B       		.uleb128 0x3b
 2332 0173 05       		.uleb128 0x5
 2333 0174 6E       		.uleb128 0x6e
 2334 0175 0E       		.uleb128 0xe
 2335 0176 32       		.uleb128 0x32
 2336 0177 0B       		.uleb128 0xb
 2337 0178 3C       		.uleb128 0x3c
ARM GAS  /tmp/ccyXT0C6.s 			page 42


 2338 0179 19       		.uleb128 0x19
 2339 017a 01       		.uleb128 0x1
 2340 017b 13       		.uleb128 0x13
 2341 017c 00       		.byte	0
 2342 017d 00       		.byte	0
 2343 017e 1D       		.uleb128 0x1d
 2344 017f 2E       		.uleb128 0x2e
 2345 0180 00       		.byte	0
 2346 0181 3F       		.uleb128 0x3f
 2347 0182 19       		.uleb128 0x19
 2348 0183 03       		.uleb128 0x3
 2349 0184 0E       		.uleb128 0xe
 2350 0185 3A       		.uleb128 0x3a
 2351 0186 0B       		.uleb128 0xb
 2352 0187 3B       		.uleb128 0x3b
 2353 0188 05       		.uleb128 0x5
 2354 0189 6E       		.uleb128 0x6e
 2355 018a 0E       		.uleb128 0xe
 2356 018b 49       		.uleb128 0x49
 2357 018c 13       		.uleb128 0x13
 2358 018d 32       		.uleb128 0x32
 2359 018e 0B       		.uleb128 0xb
 2360 018f 3C       		.uleb128 0x3c
 2361 0190 19       		.uleb128 0x19
 2362 0191 00       		.byte	0
 2363 0192 00       		.byte	0
 2364 0193 1E       		.uleb128 0x1e
 2365 0194 2E       		.uleb128 0x2e
 2366 0195 01       		.byte	0x1
 2367 0196 3F       		.uleb128 0x3f
 2368 0197 19       		.uleb128 0x19
 2369 0198 03       		.uleb128 0x3
 2370 0199 0E       		.uleb128 0xe
 2371 019a 3A       		.uleb128 0x3a
 2372 019b 0B       		.uleb128 0xb
 2373 019c 3B       		.uleb128 0x3b
 2374 019d 05       		.uleb128 0x5
 2375 019e 6E       		.uleb128 0x6e
 2376 019f 0E       		.uleb128 0xe
 2377 01a0 49       		.uleb128 0x49
 2378 01a1 13       		.uleb128 0x13
 2379 01a2 32       		.uleb128 0x32
 2380 01a3 0B       		.uleb128 0xb
 2381 01a4 3C       		.uleb128 0x3c
 2382 01a5 19       		.uleb128 0x19
 2383 01a6 01       		.uleb128 0x1
 2384 01a7 13       		.uleb128 0x13
 2385 01a8 00       		.byte	0
 2386 01a9 00       		.byte	0
 2387 01aa 1F       		.uleb128 0x1f
 2388 01ab 02       		.uleb128 0x2
 2389 01ac 01       		.byte	0x1
 2390 01ad 03       		.uleb128 0x3
 2391 01ae 0E       		.uleb128 0xe
 2392 01af 0B       		.uleb128 0xb
 2393 01b0 0B       		.uleb128 0xb
 2394 01b1 3A       		.uleb128 0x3a
ARM GAS  /tmp/ccyXT0C6.s 			page 43


 2395 01b2 0B       		.uleb128 0xb
 2396 01b3 3B       		.uleb128 0x3b
 2397 01b4 05       		.uleb128 0x5
 2398 01b5 01       		.uleb128 0x1
 2399 01b6 13       		.uleb128 0x13
 2400 01b7 00       		.byte	0
 2401 01b8 00       		.byte	0
 2402 01b9 20       		.uleb128 0x20
 2403 01ba 2E       		.uleb128 0x2e
 2404 01bb 01       		.byte	0x1
 2405 01bc 3F       		.uleb128 0x3f
 2406 01bd 19       		.uleb128 0x19
 2407 01be 03       		.uleb128 0x3
 2408 01bf 0E       		.uleb128 0xe
 2409 01c0 3A       		.uleb128 0x3a
 2410 01c1 0B       		.uleb128 0xb
 2411 01c2 3B       		.uleb128 0x3b
 2412 01c3 05       		.uleb128 0x5
 2413 01c4 6E       		.uleb128 0x6e
 2414 01c5 0E       		.uleb128 0xe
 2415 01c6 49       		.uleb128 0x49
 2416 01c7 13       		.uleb128 0x13
 2417 01c8 32       		.uleb128 0x32
 2418 01c9 0B       		.uleb128 0xb
 2419 01ca 3C       		.uleb128 0x3c
 2420 01cb 19       		.uleb128 0x19
 2421 01cc 64       		.uleb128 0x64
 2422 01cd 13       		.uleb128 0x13
 2423 01ce 01       		.uleb128 0x1
 2424 01cf 13       		.uleb128 0x13
 2425 01d0 00       		.byte	0
 2426 01d1 00       		.byte	0
 2427 01d2 21       		.uleb128 0x21
 2428 01d3 05       		.uleb128 0x5
 2429 01d4 00       		.byte	0
 2430 01d5 49       		.uleb128 0x49
 2431 01d6 13       		.uleb128 0x13
 2432 01d7 34       		.uleb128 0x34
 2433 01d8 19       		.uleb128 0x19
 2434 01d9 00       		.byte	0
 2435 01da 00       		.byte	0
 2436 01db 22       		.uleb128 0x22
 2437 01dc 2E       		.uleb128 0x2e
 2438 01dd 01       		.byte	0x1
 2439 01de 3F       		.uleb128 0x3f
 2440 01df 19       		.uleb128 0x19
 2441 01e0 03       		.uleb128 0x3
 2442 01e1 0E       		.uleb128 0xe
 2443 01e2 3A       		.uleb128 0x3a
 2444 01e3 0B       		.uleb128 0xb
 2445 01e4 3B       		.uleb128 0x3b
 2446 01e5 05       		.uleb128 0x5
 2447 01e6 6E       		.uleb128 0x6e
 2448 01e7 0E       		.uleb128 0xe
 2449 01e8 32       		.uleb128 0x32
 2450 01e9 0B       		.uleb128 0xb
 2451 01ea 3C       		.uleb128 0x3c
ARM GAS  /tmp/ccyXT0C6.s 			page 44


 2452 01eb 19       		.uleb128 0x19
 2453 01ec 64       		.uleb128 0x64
 2454 01ed 13       		.uleb128 0x13
 2455 01ee 01       		.uleb128 0x1
 2456 01ef 13       		.uleb128 0x13
 2457 01f0 00       		.byte	0
 2458 01f1 00       		.byte	0
 2459 01f2 23       		.uleb128 0x23
 2460 01f3 2E       		.uleb128 0x2e
 2461 01f4 01       		.byte	0x1
 2462 01f5 3F       		.uleb128 0x3f
 2463 01f6 19       		.uleb128 0x19
 2464 01f7 03       		.uleb128 0x3
 2465 01f8 0E       		.uleb128 0xe
 2466 01f9 3A       		.uleb128 0x3a
 2467 01fa 0B       		.uleb128 0xb
 2468 01fb 3B       		.uleb128 0x3b
 2469 01fc 05       		.uleb128 0x5
 2470 01fd 6E       		.uleb128 0x6e
 2471 01fe 0E       		.uleb128 0xe
 2472 01ff 32       		.uleb128 0x32
 2473 0200 0B       		.uleb128 0xb
 2474 0201 3C       		.uleb128 0x3c
 2475 0202 19       		.uleb128 0x19
 2476 0203 64       		.uleb128 0x64
 2477 0204 13       		.uleb128 0x13
 2478 0205 00       		.byte	0
 2479 0206 00       		.byte	0
 2480 0207 24       		.uleb128 0x24
 2481 0208 02       		.uleb128 0x2
 2482 0209 01       		.byte	0x1
 2483 020a 03       		.uleb128 0x3
 2484 020b 0E       		.uleb128 0xe
 2485 020c 0B       		.uleb128 0xb
 2486 020d 0B       		.uleb128 0xb
 2487 020e 3A       		.uleb128 0x3a
 2488 020f 0B       		.uleb128 0xb
 2489 0210 3B       		.uleb128 0x3b
 2490 0211 05       		.uleb128 0x5
 2491 0212 1D       		.uleb128 0x1d
 2492 0213 13       		.uleb128 0x13
 2493 0214 01       		.uleb128 0x1
 2494 0215 13       		.uleb128 0x13
 2495 0216 00       		.byte	0
 2496 0217 00       		.byte	0
 2497 0218 25       		.uleb128 0x25
 2498 0219 0D       		.uleb128 0xd
 2499 021a 00       		.byte	0
 2500 021b 03       		.uleb128 0x3
 2501 021c 0E       		.uleb128 0xe
 2502 021d 49       		.uleb128 0x49
 2503 021e 13       		.uleb128 0x13
 2504 021f 38       		.uleb128 0x38
 2505 0220 0B       		.uleb128 0xb
 2506 0221 34       		.uleb128 0x34
 2507 0222 19       		.uleb128 0x19
 2508 0223 32       		.uleb128 0x32
ARM GAS  /tmp/ccyXT0C6.s 			page 45


 2509 0224 0B       		.uleb128 0xb
 2510 0225 00       		.byte	0
 2511 0226 00       		.byte	0
 2512 0227 26       		.uleb128 0x26
 2513 0228 2E       		.uleb128 0x2e
 2514 0229 01       		.byte	0x1
 2515 022a 3F       		.uleb128 0x3f
 2516 022b 19       		.uleb128 0x19
 2517 022c 03       		.uleb128 0x3
 2518 022d 0E       		.uleb128 0xe
 2519 022e 6E       		.uleb128 0x6e
 2520 022f 0E       		.uleb128 0xe
 2521 0230 49       		.uleb128 0x49
 2522 0231 13       		.uleb128 0x13
 2523 0232 34       		.uleb128 0x34
 2524 0233 19       		.uleb128 0x19
 2525 0234 32       		.uleb128 0x32
 2526 0235 0B       		.uleb128 0xb
 2527 0236 3C       		.uleb128 0x3c
 2528 0237 19       		.uleb128 0x19
 2529 0238 64       		.uleb128 0x64
 2530 0239 13       		.uleb128 0x13
 2531 023a 01       		.uleb128 0x1
 2532 023b 13       		.uleb128 0x13
 2533 023c 00       		.byte	0
 2534 023d 00       		.byte	0
 2535 023e 27       		.uleb128 0x27
 2536 023f 2E       		.uleb128 0x2e
 2537 0240 01       		.byte	0x1
 2538 0241 3F       		.uleb128 0x3f
 2539 0242 19       		.uleb128 0x19
 2540 0243 03       		.uleb128 0x3
 2541 0244 0E       		.uleb128 0xe
 2542 0245 3A       		.uleb128 0x3a
 2543 0246 0B       		.uleb128 0xb
 2544 0247 3B       		.uleb128 0x3b
 2545 0248 05       		.uleb128 0x5
 2546 0249 6E       		.uleb128 0x6e
 2547 024a 0E       		.uleb128 0xe
 2548 024b 4C       		.uleb128 0x4c
 2549 024c 0B       		.uleb128 0xb
 2550 024d 4D       		.uleb128 0x4d
 2551 024e 18       		.uleb128 0x18
 2552 024f 1D       		.uleb128 0x1d
 2553 0250 13       		.uleb128 0x13
 2554 0251 32       		.uleb128 0x32
 2555 0252 0B       		.uleb128 0xb
 2556 0253 3C       		.uleb128 0x3c
 2557 0254 19       		.uleb128 0x19
 2558 0255 64       		.uleb128 0x64
 2559 0256 13       		.uleb128 0x13
 2560 0257 01       		.uleb128 0x1
 2561 0258 13       		.uleb128 0x13
 2562 0259 00       		.byte	0
 2563 025a 00       		.byte	0
 2564 025b 28       		.uleb128 0x28
 2565 025c 2E       		.uleb128 0x2e
ARM GAS  /tmp/ccyXT0C6.s 			page 46


 2566 025d 01       		.byte	0x1
 2567 025e 3F       		.uleb128 0x3f
 2568 025f 19       		.uleb128 0x19
 2569 0260 03       		.uleb128 0x3
 2570 0261 0E       		.uleb128 0xe
 2571 0262 3A       		.uleb128 0x3a
 2572 0263 0B       		.uleb128 0xb
 2573 0264 3B       		.uleb128 0x3b
 2574 0265 05       		.uleb128 0x5
 2575 0266 6E       		.uleb128 0x6e
 2576 0267 0E       		.uleb128 0xe
 2577 0268 49       		.uleb128 0x49
 2578 0269 13       		.uleb128 0x13
 2579 026a 4C       		.uleb128 0x4c
 2580 026b 0B       		.uleb128 0xb
 2581 026c 4D       		.uleb128 0x4d
 2582 026d 18       		.uleb128 0x18
 2583 026e 1D       		.uleb128 0x1d
 2584 026f 13       		.uleb128 0x13
 2585 0270 32       		.uleb128 0x32
 2586 0271 0B       		.uleb128 0xb
 2587 0272 3C       		.uleb128 0x3c
 2588 0273 19       		.uleb128 0x19
 2589 0274 64       		.uleb128 0x64
 2590 0275 13       		.uleb128 0x13
 2591 0276 01       		.uleb128 0x1
 2592 0277 13       		.uleb128 0x13
 2593 0278 00       		.byte	0
 2594 0279 00       		.byte	0
 2595 027a 29       		.uleb128 0x29
 2596 027b 2E       		.uleb128 0x2e
 2597 027c 00       		.byte	0
 2598 027d 3F       		.uleb128 0x3f
 2599 027e 19       		.uleb128 0x19
 2600 027f 03       		.uleb128 0x3
 2601 0280 0E       		.uleb128 0xe
 2602 0281 3A       		.uleb128 0x3a
 2603 0282 0B       		.uleb128 0xb
 2604 0283 3B       		.uleb128 0x3b
 2605 0284 05       		.uleb128 0x5
 2606 0285 6E       		.uleb128 0x6e
 2607 0286 0E       		.uleb128 0xe
 2608 0287 32       		.uleb128 0x32
 2609 0288 0B       		.uleb128 0xb
 2610 0289 3C       		.uleb128 0x3c
 2611 028a 19       		.uleb128 0x19
 2612 028b 00       		.byte	0
 2613 028c 00       		.byte	0
 2614 028d 2A       		.uleb128 0x2a
 2615 028e 2E       		.uleb128 0x2e
 2616 028f 01       		.byte	0x1
 2617 0290 3F       		.uleb128 0x3f
 2618 0291 19       		.uleb128 0x19
 2619 0292 03       		.uleb128 0x3
 2620 0293 0E       		.uleb128 0xe
 2621 0294 3A       		.uleb128 0x3a
 2622 0295 0B       		.uleb128 0xb
ARM GAS  /tmp/ccyXT0C6.s 			page 47


 2623 0296 3B       		.uleb128 0x3b
 2624 0297 0B       		.uleb128 0xb
 2625 0298 6E       		.uleb128 0x6e
 2626 0299 0E       		.uleb128 0xe
 2627 029a 3C       		.uleb128 0x3c
 2628 029b 19       		.uleb128 0x19
 2629 029c 00       		.byte	0
 2630 029d 00       		.byte	0
 2631 029e 2B       		.uleb128 0x2b
 2632 029f 15       		.uleb128 0x15
 2633 02a0 01       		.byte	0x1
 2634 02a1 49       		.uleb128 0x49
 2635 02a2 13       		.uleb128 0x13
 2636 02a3 01       		.uleb128 0x1
 2637 02a4 13       		.uleb128 0x13
 2638 02a5 00       		.byte	0
 2639 02a6 00       		.byte	0
 2640 02a7 2C       		.uleb128 0x2c
 2641 02a8 18       		.uleb128 0x18
 2642 02a9 00       		.byte	0
 2643 02aa 00       		.byte	0
 2644 02ab 00       		.byte	0
 2645 02ac 2D       		.uleb128 0x2d
 2646 02ad 0F       		.uleb128 0xf
 2647 02ae 00       		.byte	0
 2648 02af 0B       		.uleb128 0xb
 2649 02b0 0B       		.uleb128 0xb
 2650 02b1 03       		.uleb128 0x3
 2651 02b2 0E       		.uleb128 0xe
 2652 02b3 49       		.uleb128 0x49
 2653 02b4 13       		.uleb128 0x13
 2654 02b5 00       		.byte	0
 2655 02b6 00       		.byte	0
 2656 02b7 2E       		.uleb128 0x2e
 2657 02b8 42       		.uleb128 0x42
 2658 02b9 00       		.byte	0
 2659 02ba 0B       		.uleb128 0xb
 2660 02bb 0B       		.uleb128 0xb
 2661 02bc 49       		.uleb128 0x49
 2662 02bd 13       		.uleb128 0x13
 2663 02be 00       		.byte	0
 2664 02bf 00       		.byte	0
 2665 02c0 2F       		.uleb128 0x2f
 2666 02c1 10       		.uleb128 0x10
 2667 02c2 00       		.byte	0
 2668 02c3 0B       		.uleb128 0xb
 2669 02c4 0B       		.uleb128 0xb
 2670 02c5 49       		.uleb128 0x49
 2671 02c6 13       		.uleb128 0x13
 2672 02c7 00       		.byte	0
 2673 02c8 00       		.byte	0
 2674 02c9 30       		.uleb128 0x30
 2675 02ca 2E       		.uleb128 0x2e
 2676 02cb 00       		.byte	0
 2677 02cc 03       		.uleb128 0x3
 2678 02cd 0E       		.uleb128 0xe
 2679 02ce 3A       		.uleb128 0x3a
ARM GAS  /tmp/ccyXT0C6.s 			page 48


 2680 02cf 0B       		.uleb128 0xb
 2681 02d0 3B       		.uleb128 0x3b
 2682 02d1 05       		.uleb128 0x5
 2683 02d2 49       		.uleb128 0x49
 2684 02d3 13       		.uleb128 0x13
 2685 02d4 11       		.uleb128 0x11
 2686 02d5 01       		.uleb128 0x1
 2687 02d6 12       		.uleb128 0x12
 2688 02d7 06       		.uleb128 0x6
 2689 02d8 40       		.uleb128 0x40
 2690 02d9 18       		.uleb128 0x18
 2691 02da 9742     		.uleb128 0x2117
 2692 02dc 19       		.uleb128 0x19
 2693 02dd 00       		.byte	0
 2694 02de 00       		.byte	0
 2695 02df 31       		.uleb128 0x31
 2696 02e0 2E       		.uleb128 0x2e
 2697 02e1 01       		.byte	0x1
 2698 02e2 47       		.uleb128 0x47
 2699 02e3 13       		.uleb128 0x13
 2700 02e4 20       		.uleb128 0x20
 2701 02e5 0B       		.uleb128 0xb
 2702 02e6 64       		.uleb128 0x64
 2703 02e7 13       		.uleb128 0x13
 2704 02e8 01       		.uleb128 0x1
 2705 02e9 13       		.uleb128 0x13
 2706 02ea 00       		.byte	0
 2707 02eb 00       		.byte	0
 2708 02ec 32       		.uleb128 0x32
 2709 02ed 05       		.uleb128 0x5
 2710 02ee 00       		.byte	0
 2711 02ef 03       		.uleb128 0x3
 2712 02f0 0E       		.uleb128 0xe
 2713 02f1 49       		.uleb128 0x49
 2714 02f2 13       		.uleb128 0x13
 2715 02f3 34       		.uleb128 0x34
 2716 02f4 19       		.uleb128 0x19
 2717 02f5 00       		.byte	0
 2718 02f6 00       		.byte	0
 2719 02f7 33       		.uleb128 0x33
 2720 02f8 05       		.uleb128 0x5
 2721 02f9 00       		.byte	0
 2722 02fa 03       		.uleb128 0x3
 2723 02fb 08       		.uleb128 0x8
 2724 02fc 3A       		.uleb128 0x3a
 2725 02fd 0B       		.uleb128 0xb
 2726 02fe 3B       		.uleb128 0x3b
 2727 02ff 05       		.uleb128 0x5
 2728 0300 49       		.uleb128 0x49
 2729 0301 13       		.uleb128 0x13
 2730 0302 00       		.byte	0
 2731 0303 00       		.byte	0
 2732 0304 34       		.uleb128 0x34
 2733 0305 2E       		.uleb128 0x2e
 2734 0306 01       		.byte	0x1
 2735 0307 31       		.uleb128 0x31
 2736 0308 13       		.uleb128 0x13
ARM GAS  /tmp/ccyXT0C6.s 			page 49


 2737 0309 6E       		.uleb128 0x6e
 2738 030a 0E       		.uleb128 0xe
 2739 030b 11       		.uleb128 0x11
 2740 030c 01       		.uleb128 0x1
 2741 030d 12       		.uleb128 0x12
 2742 030e 06       		.uleb128 0x6
 2743 030f 40       		.uleb128 0x40
 2744 0310 18       		.uleb128 0x18
 2745 0311 64       		.uleb128 0x64
 2746 0312 13       		.uleb128 0x13
 2747 0313 9742     		.uleb128 0x2117
 2748 0315 19       		.uleb128 0x19
 2749 0316 01       		.uleb128 0x1
 2750 0317 13       		.uleb128 0x13
 2751 0318 00       		.byte	0
 2752 0319 00       		.byte	0
 2753 031a 35       		.uleb128 0x35
 2754 031b 05       		.uleb128 0x5
 2755 031c 00       		.byte	0
 2756 031d 31       		.uleb128 0x31
 2757 031e 13       		.uleb128 0x13
 2758 031f 02       		.uleb128 0x2
 2759 0320 18       		.uleb128 0x18
 2760 0321 00       		.byte	0
 2761 0322 00       		.byte	0
 2762 0323 36       		.uleb128 0x36
 2763 0324 2E       		.uleb128 0x2e
 2764 0325 00       		.byte	0
 2765 0326 47       		.uleb128 0x47
 2766 0327 13       		.uleb128 0x13
 2767 0328 3A       		.uleb128 0x3a
 2768 0329 0B       		.uleb128 0xb
 2769 032a 3B       		.uleb128 0x3b
 2770 032b 0B       		.uleb128 0xb
 2771 032c 11       		.uleb128 0x11
 2772 032d 01       		.uleb128 0x1
 2773 032e 12       		.uleb128 0x12
 2774 032f 06       		.uleb128 0x6
 2775 0330 40       		.uleb128 0x40
 2776 0331 18       		.uleb128 0x18
 2777 0332 9642     		.uleb128 0x2116
 2778 0334 19       		.uleb128 0x19
 2779 0335 00       		.byte	0
 2780 0336 00       		.byte	0
 2781 0337 37       		.uleb128 0x37
 2782 0338 2E       		.uleb128 0x2e
 2783 0339 01       		.byte	0x1
 2784 033a 47       		.uleb128 0x47
 2785 033b 13       		.uleb128 0x13
 2786 033c 11       		.uleb128 0x11
 2787 033d 01       		.uleb128 0x1
 2788 033e 12       		.uleb128 0x12
 2789 033f 06       		.uleb128 0x6
 2790 0340 40       		.uleb128 0x40
 2791 0341 18       		.uleb128 0x18
 2792 0342 9642     		.uleb128 0x2116
 2793 0344 19       		.uleb128 0x19
ARM GAS  /tmp/ccyXT0C6.s 			page 50


 2794 0345 01       		.uleb128 0x1
 2795 0346 13       		.uleb128 0x13
 2796 0347 00       		.byte	0
 2797 0348 00       		.byte	0
 2798 0349 38       		.uleb128 0x38
 2799 034a 05       		.uleb128 0x5
 2800 034b 00       		.byte	0
 2801 034c 03       		.uleb128 0x3
 2802 034d 08       		.uleb128 0x8
 2803 034e 3A       		.uleb128 0x3a
 2804 034f 0B       		.uleb128 0xb
 2805 0350 3B       		.uleb128 0x3b
 2806 0351 0B       		.uleb128 0xb
 2807 0352 49       		.uleb128 0x49
 2808 0353 13       		.uleb128 0x13
 2809 0354 02       		.uleb128 0x2
 2810 0355 18       		.uleb128 0x18
 2811 0356 00       		.byte	0
 2812 0357 00       		.byte	0
 2813 0358 39       		.uleb128 0x39
 2814 0359 34       		.uleb128 0x34
 2815 035a 00       		.byte	0
 2816 035b 03       		.uleb128 0x3
 2817 035c 0E       		.uleb128 0xe
 2818 035d 3A       		.uleb128 0x3a
 2819 035e 0B       		.uleb128 0xb
 2820 035f 3B       		.uleb128 0x3b
 2821 0360 05       		.uleb128 0x5
 2822 0361 49       		.uleb128 0x49
 2823 0362 13       		.uleb128 0x13
 2824 0363 3F       		.uleb128 0x3f
 2825 0364 19       		.uleb128 0x19
 2826 0365 3C       		.uleb128 0x3c
 2827 0366 19       		.uleb128 0x19
 2828 0367 00       		.byte	0
 2829 0368 00       		.byte	0
 2830 0369 3A       		.uleb128 0x3a
 2831 036a 34       		.uleb128 0x34
 2832 036b 00       		.byte	0
 2833 036c 03       		.uleb128 0x3
 2834 036d 08       		.uleb128 0x8
 2835 036e 3A       		.uleb128 0x3a
 2836 036f 0B       		.uleb128 0xb
 2837 0370 3B       		.uleb128 0x3b
 2838 0371 05       		.uleb128 0x5
 2839 0372 49       		.uleb128 0x49
 2840 0373 13       		.uleb128 0x13
 2841 0374 3F       		.uleb128 0x3f
 2842 0375 19       		.uleb128 0x19
 2843 0376 3C       		.uleb128 0x3c
 2844 0377 19       		.uleb128 0x19
 2845 0378 00       		.byte	0
 2846 0379 00       		.byte	0
 2847 037a 00       		.byte	0
 2848              		.section	.debug_aranges,"",%progbits
 2849 0000 34000000 		.4byte	0x34
 2850 0004 0200     		.2byte	0x2
ARM GAS  /tmp/ccyXT0C6.s 			page 51


 2851 0006 00000000 		.4byte	.Ldebug_info0
 2852 000a 04       		.byte	0x4
 2853 000b 00       		.byte	0
 2854 000c 0000     		.2byte	0
 2855 000e 0000     		.2byte	0
 2856 0010 00000000 		.4byte	.LFB190
 2857 0014 0C000000 		.4byte	.LFE190-.LFB190
 2858 0018 00000000 		.4byte	.LFB329
 2859 001c 14000000 		.4byte	.LFE329-.LFB329
 2860 0020 00000000 		.4byte	.LFB486
 2861 0024 1E000000 		.4byte	.LFE486-.LFB486
 2862 0028 00000000 		.4byte	.LFB487
 2863 002c 18000000 		.4byte	.LFE487-.LFB487
 2864 0030 00000000 		.4byte	0
 2865 0034 00000000 		.4byte	0
 2866              		.section	.debug_ranges,"",%progbits
 2867              	.Ldebug_ranges0:
 2868 0000 00000000 		.4byte	.LFB190
 2869 0004 0C000000 		.4byte	.LFE190
 2870 0008 00000000 		.4byte	.LFB329
 2871 000c 14000000 		.4byte	.LFE329
 2872 0010 00000000 		.4byte	.LFB486
 2873 0014 1E000000 		.4byte	.LFE486
 2874 0018 00000000 		.4byte	.LFB487
 2875 001c 18000000 		.4byte	.LFE487
 2876 0020 00000000 		.4byte	0
 2877 0024 00000000 		.4byte	0
 2878              		.section	.debug_line,"",%progbits
 2879              	.Ldebug_line0:
 2880 0000 68020000 		.section	.debug_str,"MS",%progbits,1
 2880      02001602 
 2880      00000201 
 2880      FB0E0D00 
 2880      01010101 
 2881              	.LASF162:
 2882 0000 61646452 		.ascii	"addRef\000"
 2882      656600
 2883              	.LASF147:
 2884 0007 5F5A4E31 		.ascii	"_ZN10chibios_rt6System16isCounterWithinXEmmm\000"
 2884      30636869 
 2884      62696F73 
 2884      5F727436 
 2884      53797374 
 2885              	.LASF85:
 2886 0034 73697A65 		.ascii	"sizetype\000"
 2886      74797065 
 2886      00
 2887              	.LASF36:
 2888 003d 77747365 		.ascii	"wtsemp\000"
 2888      6D7000
 2889              	.LASF83:
 2890 0044 73797374 		.ascii	"systime_t\000"
 2890      696D655F 
 2890      7400
 2891              	.LASF107:
 2892 004e 6F776E65 		.ascii	"owner\000"
 2892      7200
ARM GAS  /tmp/ccyXT0C6.s 			page 52


 2893              	.LASF24:
 2894 0054 74707269 		.ascii	"tprio_t\000"
 2894      6F5F7400 
 2895              	.LASF15:
 2896 005c 696E7433 		.ascii	"int32_t\000"
 2896      325F7400 
 2897              	.LASF66:
 2898 0064 76746675 		.ascii	"vtfunc_t\000"
 2898      6E635F74 
 2898      00
 2899              	.LASF72:
 2900 006d 63685F76 		.ascii	"ch_virtual_timers_list\000"
 2900      69727475 
 2900      616C5F74 
 2900      696D6572 
 2900      735F6C69 
 2901              	.LASF165:
 2902 0084 5F5A4E31 		.ascii	"_ZN10chibios_rt15ThreadReference7releaseEv\000"
 2902      30636869 
 2902      62696F73 
 2902      5F727431 
 2902      35546872 
 2903              	.LASF246:
 2904 00af 5F5F7674 		.ascii	"__vtbl_ptr_type\000"
 2904      626C5F70 
 2904      74725F74 
 2904      79706500 
 2905              	.LASF236:
 2906 00bf 63686962 		.ascii	"chibios_rt\000"
 2906      696F735F 
 2906      727400
 2907              	.LASF186:
 2908 00ca 5F5A4E31 		.ascii	"_ZN10chibios_rt10BaseThreadC4Ev\000"
 2908      30636869 
 2908      62696F73 
 2908      5F727431 
 2908      30426173 
 2909              	.LASF45:
 2910 00ea 73746174 		.ascii	"state\000"
 2910      6500
 2911              	.LASF135:
 2912 00f0 67657452 		.ascii	"getRealtimeCounterX\000"
 2912      65616C74 
 2912      696D6543 
 2912      6F756E74 
 2912      65725800 
 2913              	.LASF54:
 2914 0104 73746174 		.ascii	"stats\000"
 2914      7300
 2915              	.LASF226:
 2916 010a 64697370 		.ascii	"dispatchEvents\000"
 2916      61746368 
 2916      4576656E 
 2916      747300
 2917              	.LASF175:
 2918 0119 5F5A4E31 		.ascii	"_ZN10chibios_rt15ThreadReference14releaseMessageEl\000"
 2918      30636869 
ARM GAS  /tmp/ccyXT0C6.s 			page 53


 2918      62696F73 
 2918      5F727431 
 2918      35546872 
 2919              	.LASF40:
 2920 014c 7072696F 		.ascii	"prio\000"
 2920      00
 2921              	.LASF32:
 2922 0151 65786974 		.ascii	"exitcode\000"
 2922      636F6465 
 2922      00
 2923              	.LASF127:
 2924 015a 5F5A4E31 		.ascii	"_ZN10chibios_rt6System13unlockFromIsrEv\000"
 2924      30636869 
 2924      62696F73 
 2924      5F727436 
 2924      53797374 
 2925              	.LASF7:
 2926 0182 5F5F7569 		.ascii	"__uint8_t\000"
 2926      6E74385F 
 2926      7400
 2927              	.LASF207:
 2928 018c 7969656C 		.ascii	"yield\000"
 2928      6400
 2929              	.LASF154:
 2930 0192 5F5A4E31 		.ascii	"_ZN10chibios_rt15ThreadReferenceC4Ev\000"
 2930      30636869 
 2930      62696F73 
 2930      5F727431 
 2930      35546872 
 2931              	.LASF9:
 2932 01b7 6C6F6E67 		.ascii	"long int\000"
 2932      20696E74 
 2932      00
 2933              	.LASF214:
 2934 01c0 77616974 		.ascii	"waitOneEvent\000"
 2934      4F6E6545 
 2934      76656E74 
 2934      00
 2935              	.LASF247:
 2936 01cd 63685379 		.ascii	"chSysGetIdleThreadX\000"
 2936      73476574 
 2936      49646C65 
 2936      54687265 
 2936      61645800 
 2937              	.LASF176:
 2938 01e1 7369676E 		.ascii	"signalEvents\000"
 2938      616C4576 
 2938      656E7473 
 2938      00
 2939              	.LASF171:
 2940 01ee 5F5A4E4B 		.ascii	"_ZNK10chibios_rt15ThreadReference16isPendingMessage"
 2940      31306368 
 2940      6962696F 
 2940      735F7274 
 2940      31355468 
 2941 0221 457600   		.ascii	"Ev\000"
 2942              	.LASF129:
ARM GAS  /tmp/ccyXT0C6.s 			page 54


 2943 0224 5F5A4E31 		.ascii	"_ZN10chibios_rt6System17unconditionalLockEv\000"
 2943      30636869 
 2943      62696F73 
 2943      5F727436 
 2943      53797374 
 2944              	.LASF22:
 2945 0250 74737461 		.ascii	"tstate_t\000"
 2945      74655F74 
 2945      00
 2946              	.LASF19:
 2947 0259 72747469 		.ascii	"rttime_t\000"
 2947      6D655F74 
 2947      00
 2948              	.LASF240:
 2949 0262 6D61696E 		.ascii	"main\000"
 2949      00
 2950              	.LASF60:
 2951 0267 74687265 		.ascii	"threads_queue_t\000"
 2951      6164735F 
 2951      71756575 
 2951      655F7400 
 2952              	.LASF142:
 2953 0277 5F5A4E31 		.ascii	"_ZN10chibios_rt6System19getRealtimeCounterXEv\000"
 2953      30636869 
 2953      62696F73 
 2953      5F727436 
 2953      53797374 
 2954              	.LASF86:
 2955 02a5 72656761 		.ascii	"regarm_t\000"
 2955      726D5F74 
 2955      00
 2956              	.LASF114:
 2957 02ae 5F5A4E31 		.ascii	"_ZN10chibios_rt6System4initEv\000"
 2957      30636869 
 2957      62696F73 
 2957      5F727436 
 2957      53797374 
 2958              	.LASF167:
 2959 02cc 5F5A4E31 		.ascii	"_ZN10chibios_rt15ThreadReference4waitEv\000"
 2959      30636869 
 2959      62696F73 
 2959      5F727431 
 2959      35546872 
 2960              	.LASF168:
 2961 02f4 73656E64 		.ascii	"sendMessage\000"
 2961      4D657373 
 2961      61676500 
 2962              	.LASF97:
 2963 0300 63756D75 		.ascii	"cumulative\000"
 2963      6C617469 
 2963      766500
 2964              	.LASF3:
 2965 030b 7369676E 		.ascii	"signed char\000"
 2965      65642063 
 2965      68617200 
 2966              	.LASF38:
 2967 0317 65776D61 		.ascii	"ewmask\000"
ARM GAS  /tmp/ccyXT0C6.s 			page 55


 2967      736B00
 2968              	.LASF14:
 2969 031e 75696E74 		.ascii	"uint8_t\000"
 2969      385F7400 
 2970              	.LASF155:
 2971 0326 5F5A4E31 		.ascii	"_ZN10chibios_rt15ThreadReferenceC4EP9ch_thread\000"
 2971      30636869 
 2971      62696F73 
 2971      5F727431 
 2971      35546872 
 2972              	.LASF210:
 2973 0355 67657441 		.ascii	"getAndClearEvents\000"
 2973      6E64436C 
 2973      65617245 
 2973      76656E74 
 2973      7300
 2974              	.LASF27:
 2975 0367 6576656E 		.ascii	"eventmask_t\000"
 2975      746D6173 
 2975      6B5F7400 
 2976              	.LASF239:
 2977 0373 5F5A4E31 		.ascii	"_ZN10chibios_rt6System17getStatusAndLockXEv\000"
 2977      30636869 
 2977      62696F73 
 2977      5F727436 
 2977      53797374 
 2978              	.LASF34:
 2979 039f 77747472 		.ascii	"wttrp\000"
 2979      7000
 2980              	.LASF4:
 2981 03a5 756E7369 		.ascii	"unsigned char\000"
 2981      676E6564 
 2981      20636861 
 2981      7200
 2982              	.LASF73:
 2983 03b3 6C617374 		.ascii	"lasttime\000"
 2983      74696D65 
 2983      00
 2984              	.LASF76:
 2985 03bc 70616E69 		.ascii	"panic_msg\000"
 2985      635F6D73 
 2985      6700
 2986              	.LASF192:
 2987 03c6 5F5A4E31 		.ascii	"_ZN10chibios_rt10BaseThread11setPriorityEm\000"
 2987      30636869 
 2987      62696F73 
 2987      5F727431 
 2987      30426173 
 2988              	.LASF151:
 2989 03f1 53797374 		.ascii	"System\000"
 2989      656D00
 2990              	.LASF20:
 2991 03f8 73797373 		.ascii	"syssts_t\000"
 2991      74735F74 
 2991      00
 2992              	.LASF74:
 2993 0401 73797374 		.ascii	"system_debug_t\000"
ARM GAS  /tmp/ccyXT0C6.s 			page 56


 2993      656D5F64 
 2993      65627567 
 2993      5F7400
 2994              	.LASF131:
 2995 0410 5F5A4E31 		.ascii	"_ZN10chibios_rt6System19unconditionalUnlockEv\000"
 2995      30636869 
 2995      62696F73 
 2995      5F727436 
 2995      53797374 
 2996              	.LASF199:
 2997 043e 73686F75 		.ascii	"shouldTerminate\000"
 2997      6C645465 
 2997      726D696E 
 2997      61746500 
 2998              	.LASF233:
 2999 044e 2E2E2F2E 		.ascii	"../../modules/ChibiOS/os/various/cpp_wrappers/ch.cp"
 2999      2E2F6D6F 
 2999      64756C65 
 2999      732F4368 
 2999      6962694F 
 3000 0481 7000     		.ascii	"p\000"
 3001              	.LASF108:
 3002 0483 63686172 		.ascii	"char\000"
 3002      00
 3003              	.LASF249:
 3004 0488 5F5A4E31 		.ascii	"_ZN10chibios_rt15ThreadReferenceC2EP9ch_thread\000"
 3004      30636869 
 3004      62696F73 
 3004      5F727431 
 3004      35546872 
 3005              	.LASF215:
 3006 04b7 5F5A4E31 		.ascii	"_ZN10chibios_rt10BaseThread12waitOneEventEm\000"
 3006      30636869 
 3006      62696F73 
 3006      5F727431 
 3006      30426173 
 3007              	.LASF120:
 3008 04e3 6C6F636B 		.ascii	"lock\000"
 3008      00
 3009              	.LASF33:
 3010 04e8 77746F62 		.ascii	"wtobjp\000"
 3010      6A7000
 3011              	.LASF238:
 3012 04ef 5F5A4E31 		.ascii	"_ZN10chibios_rt6System15integrityCheckIEj\000"
 3012      30636869 
 3012      62696F73 
 3012      5F727436 
 3012      53797374 
 3013              	.LASF101:
 3014 0519 6E5F6374 		.ascii	"n_ctxswc\000"
 3014      78737763 
 3014      00
 3015              	.LASF170:
 3016 0522 69735065 		.ascii	"isPendingMessage\000"
 3016      6E64696E 
 3016      674D6573 
 3016      73616765 
ARM GAS  /tmp/ccyXT0C6.s 			page 57


 3016      00
 3017              	.LASF46:
 3018 0533 666C6167 		.ascii	"flags\000"
 3018      7300
 3019              	.LASF235:
 3020 0539 6465636C 		.ascii	"decltype(nullptr)\000"
 3020      74797065 
 3020      286E756C 
 3020      6C707472 
 3020      2900
 3021              	.LASF194:
 3022 054b 5F5A4E31 		.ascii	"_ZN10chibios_rt10BaseThread12getPriorityXEv\000"
 3022      30636869 
 3022      62696F73 
 3022      5F727431 
 3022      30426173 
 3023              	.LASF87:
 3024 0577 73746B61 		.ascii	"stkalign_t\000"
 3024      6C69676E 
 3024      5F7400
 3025              	.LASF178:
 3026 0582 7369676E 		.ascii	"signalEventsI\000"
 3026      616C4576 
 3026      656E7473 
 3026      4900
 3027              	.LASF149:
 3028 0590 67657449 		.ascii	"getIdleThreadX\000"
 3028      646C6554 
 3028      68726561 
 3028      645800
 3029              	.LASF228:
 3030 059f 756E6C6F 		.ascii	"unlockAllMutexes\000"
 3030      636B416C 
 3030      6C4D7574 
 3030      65786573 
 3030      00
 3031              	.LASF53:
 3032 05b0 6D706F6F 		.ascii	"mpool\000"
 3032      6C00
 3033              	.LASF125:
 3034 05b6 5F5A4E31 		.ascii	"_ZN10chibios_rt6System11lockFromIsrEv\000"
 3034      30636869 
 3034      62696F73 
 3034      5F727436 
 3034      53797374 
 3035              	.LASF95:
 3036 05dc 776F7273 		.ascii	"worst\000"
 3036      7400
 3037              	.LASF223:
 3038 05e2 5F5A4E31 		.ascii	"_ZN10chibios_rt10BaseThread19waitAnyEventTimeoutEmm"
 3038      30636869 
 3038      62696F73 
 3038      5F727431 
 3038      30426173 
 3039 0615 00       		.ascii	"\000"
 3040              	.LASF28:
 3041 0616 636E745F 		.ascii	"cnt_t\000"
ARM GAS  /tmp/ccyXT0C6.s 			page 58


 3041      7400
 3042              	.LASF201:
 3043 061c 736C6565 		.ascii	"sleep\000"
 3043      7000
 3044              	.LASF209:
 3045 0622 5F5A4E31 		.ascii	"_ZN10chibios_rt10BaseThread11waitMessageEv\000"
 3045      30636869 
 3045      62696F73 
 3045      5F727431 
 3045      30426173 
 3046              	.LASF121:
 3047 064d 5F5A4E31 		.ascii	"_ZN10chibios_rt6System4lockEv\000"
 3047      30636869 
 3047      62696F73 
 3047      5F727436 
 3047      53797374 
 3048              	.LASF145:
 3049 066b 5F5A4E31 		.ascii	"_ZN10chibios_rt6System8getTimeXEv\000"
 3049      30636869 
 3049      62696F73 
 3049      5F727436 
 3049      53797374 
 3050              	.LASF37:
 3051 068d 77746D74 		.ascii	"wtmtxp\000"
 3051      787000
 3052              	.LASF64:
 3053 0694 63685F72 		.ascii	"ch_ready_list\000"
 3053      65616479 
 3053      5F6C6973 
 3053      7400
 3054              	.LASF200:
 3055 06a2 5F5A4E31 		.ascii	"_ZN10chibios_rt10BaseThread15shouldTerminateEv\000"
 3055      30636869 
 3055      62696F73 
 3055      5F727431 
 3055      30426173 
 3056              	.LASF172:
 3057 06d1 6765744D 		.ascii	"getMessage\000"
 3057      65737361 
 3057      676500
 3058              	.LASF220:
 3059 06dc 77616974 		.ascii	"waitOneEventTimeout\000"
 3059      4F6E6545 
 3059      76656E74 
 3059      54696D65 
 3059      6F757400 
 3060              	.LASF102:
 3061 06f0 6D5F6372 		.ascii	"m_crit_thd\000"
 3061      69745F74 
 3061      686400
 3062              	.LASF12:
 3063 06fb 5F5F7569 		.ascii	"__uint64_t\000"
 3063      6E743634 
 3063      5F7400
 3064              	.LASF11:
 3065 0706 6C6F6E67 		.ascii	"long unsigned int\000"
 3065      20756E73 
ARM GAS  /tmp/ccyXT0C6.s 			page 59


 3065      69676E65 
 3065      6420696E 
 3065      7400
 3066              	.LASF198:
 3067 0718 5F5A4E31 		.ascii	"_ZN10chibios_rt10BaseThread5exitSEl\000"
 3067      30636869 
 3067      62696F73 
 3067      5F727431 
 3067      30426173 
 3068              	.LASF105:
 3069 073c 63685F73 		.ascii	"ch_semaphore\000"
 3069      656D6170 
 3069      686F7265 
 3069      00
 3070              	.LASF57:
 3071 0749 63685F74 		.ascii	"ch_thread\000"
 3071      68726561 
 3071      6400
 3072              	.LASF177:
 3073 0753 5F5A4E4B 		.ascii	"_ZNK10chibios_rt15ThreadReference12signalEventsEm\000"
 3073      31306368 
 3073      6962696F 
 3073      735F7274 
 3073      31355468 
 3074              	.LASF71:
 3075 0785 76697274 		.ascii	"virtual_timers_list_t\000"
 3075      75616C5F 
 3075      74696D65 
 3075      72735F6C 
 3075      6973745F 
 3076              	.LASF153:
 3077 079b 74687265 		.ascii	"thread_ref\000"
 3077      61645F72 
 3077      656600
 3078              	.LASF248:
 3079 07a6 74686973 		.ascii	"this\000"
 3079      00
 3080              	.LASF150:
 3081 07ab 5F5A4E31 		.ascii	"_ZN10chibios_rt6System14getIdleThreadXEv\000"
 3081      30636869 
 3081      62696F73 
 3081      5F727436 
 3081      53797374 
 3082              	.LASF188:
 3083 07d4 5F5A4E31 		.ascii	"_ZN10chibios_rt10BaseThread8getSelfXEv\000"
 3083      30636869 
 3083      62696F73 
 3083      5F727431 
 3083      30426173 
 3084              	.LASF115:
 3085 07fb 5F5A4E31 		.ascii	"_ZN10chibios_rt6System7disableEv\000"
 3085      30636869 
 3085      62696F73 
 3085      5F727436 
 3085      53797374 
 3086              	.LASF187:
 3087 081c 67657453 		.ascii	"getSelfX\000"
ARM GAS  /tmp/ccyXT0C6.s 			page 60


 3087      656C6658 
 3087      00
 3088              	.LASF67:
 3089 0825 76697274 		.ascii	"virtual_timer_t\000"
 3089      75616C5F 
 3089      74696D65 
 3089      725F7400 
 3090              	.LASF63:
 3091 0835 72656164 		.ascii	"ready_list_t\000"
 3091      795F6C69 
 3091      73745F74 
 3091      00
 3092              	.LASF42:
 3093 0842 6F6C6465 		.ascii	"older\000"
 3093      7200
 3094              	.LASF52:
 3095 0848 7265616C 		.ascii	"realprio\000"
 3095      7072696F 
 3095      00
 3096              	.LASF29:
 3097 0851 75636E74 		.ascii	"ucnt_t\000"
 3097      5F7400
 3098              	.LASF146:
 3099 0858 69735379 		.ascii	"isSystemTimeWithin\000"
 3099      7374656D 
 3099      54696D65 
 3099      57697468 
 3099      696E00
 3100              	.LASF58:
 3101 086b 63685F74 		.ascii	"ch_threads_list\000"
 3101      68726561 
 3101      64735F6C 
 3101      69737400 
 3102              	.LASF100:
 3103 087b 6E5F6972 		.ascii	"n_irq\000"
 3103      7100
 3104              	.LASF144:
 3105 0881 67657454 		.ascii	"getTimeX\000"
 3105      696D6558 
 3105      00
 3106              	.LASF241:
 3107 088a 5F5A4E31 		.ascii	"_ZN10chibios_rt10BaseThread4mainEv\000"
 3107      30636869 
 3107      62696F73 
 3107      5F727431 
 3107      30426173 
 3108              	.LASF10:
 3109 08ad 5F5F7569 		.ascii	"__uint32_t\000"
 3109      6E743332 
 3109      5F7400
 3110              	.LASF51:
 3111 08b8 6D74786C 		.ascii	"mtxlist\000"
 3111      69737400 
 3112              	.LASF1:
 3113 08c0 6C6F6E67 		.ascii	"long long int\000"
 3113      206C6F6E 
 3113      6720696E 
ARM GAS  /tmp/ccyXT0C6.s 			page 61


 3113      7400
 3114              	.LASF157:
 3115 08ce 5F5A4E4B 		.ascii	"_ZNK10chibios_rt15ThreadReference6isNullEv\000"
 3115      31306368 
 3115      6962696F 
 3115      735F7274 
 3115      31355468 
 3116              	.LASF84:
 3117 08f9 73797369 		.ascii	"sysinterval_t\000"
 3117      6E746572 
 3117      76616C5F 
 3117      7400
 3118              	.LASF163:
 3119 0907 5F5A4E4B 		.ascii	"_ZNK10chibios_rt15ThreadReference6addRefEv\000"
 3119      31306368 
 3119      6962696F 
 3119      735F7274 
 3119      31355468 
 3120              	.LASF118:
 3121 0932 656E6162 		.ascii	"enable\000"
 3121      6C6500
 3122              	.LASF134:
 3123 0939 67657453 		.ascii	"getStatusAndLockX\000"
 3123      74617475 
 3123      73416E64 
 3123      4C6F636B 
 3123      5800
 3124              	.LASF205:
 3125 094b 736C6565 		.ascii	"sleepUntilWindowed\000"
 3125      70556E74 
 3125      696C5769 
 3125      6E646F77 
 3125      656400
 3126              	.LASF148:
 3127 095e 5F5A4E31 		.ascii	"_ZN10chibios_rt6System18isSystemTimeWithinEmm\000"
 3127      30636869 
 3127      62696F73 
 3127      5F727436 
 3127      53797374 
 3128              	.LASF244:
 3129 098c 5F746864 		.ascii	"_thd_start\000"
 3129      5F737461 
 3129      727400
 3130              	.LASF191:
 3131 0997 73657450 		.ascii	"setPriority\000"
 3131      72696F72 
 3131      69747900 
 3132              	.LASF218:
 3133 09a3 77616974 		.ascii	"waitAllEvents\000"
 3133      416C6C45 
 3133      76656E74 
 3133      7300
 3134              	.LASF179:
 3135 09b1 5F5A4E4B 		.ascii	"_ZNK10chibios_rt15ThreadReference13signalEventsIEm\000"
 3135      31306368 
 3135      6962696F 
 3135      735F7274 
ARM GAS  /tmp/ccyXT0C6.s 			page 62


 3135      31355468 
 3136              	.LASF231:
 3137 09e4 49544D5F 		.ascii	"ITM_RxBuffer\000"
 3137      52784275 
 3137      66666572 
 3137      00
 3138              	.LASF243:
 3139 09f1 5F5A4E31 		.ascii	"_ZN10chibios_rt10BaseThread5startEm\000"
 3139      30636869 
 3139      62696F73 
 3139      5F727431 
 3139      30426173 
 3140              	.LASF166:
 3141 0a15 77616974 		.ascii	"wait\000"
 3141      00
 3142              	.LASF197:
 3143 0a1a 65786974 		.ascii	"exitS\000"
 3143      5300
 3144              	.LASF113:
 3145 0a20 64697361 		.ascii	"disable\000"
 3145      626C6500 
 3146              	.LASF116:
 3147 0a28 73757370 		.ascii	"suspend\000"
 3147      656E6400 
 3148              	.LASF196:
 3149 0a30 5F5A4E31 		.ascii	"_ZN10chibios_rt10BaseThread4exitEl\000"
 3149      30636869 
 3149      62696F73 
 3149      5F727431 
 3149      30426173 
 3150              	.LASF98:
 3151 0a53 74696D65 		.ascii	"time_measurement_t\000"
 3151      5F6D6561 
 3151      73757265 
 3151      6D656E74 
 3151      5F7400
 3152              	.LASF161:
 3153 0a66 5F5A4E4B 		.ascii	"_ZNK10chibios_rt15ThreadReference16requestTerminate"
 3153      31306368 
 3153      6962696F 
 3153      735F7274 
 3153      31355468 
 3154 0a99 457600   		.ascii	"Ev\000"
 3155              	.LASF103:
 3156 0a9c 6D5F6372 		.ascii	"m_crit_isr\000"
 3156      69745F69 
 3156      737200
 3157              	.LASF0:
 3158 0aa7 756E7369 		.ascii	"unsigned int\000"
 3158      676E6564 
 3158      20696E74 
 3158      00
 3159              	.LASF18:
 3160 0ab4 7274636E 		.ascii	"rtcnt_t\000"
 3160      745F7400 
 3161              	.LASF183:
 3162 0abc 5F5A4E31 		.ascii	"_ZN10chibios_rt10BaseThreadD4Ev\000"
ARM GAS  /tmp/ccyXT0C6.s 			page 63


 3162      30636869 
 3162      62696F73 
 3162      5F727431 
 3162      30426173 
 3163              	.LASF99:
 3164 0adc 31346B65 		.ascii	"14kernel_stats_t\000"
 3164      726E656C 
 3164      5F737461 
 3164      74735F74 
 3164      00
 3165              	.LASF104:
 3166 0aed 6B65726E 		.ascii	"kernel_stats_t\000"
 3166      656C5F73 
 3166      74617473 
 3166      5F7400
 3167              	.LASF130:
 3168 0afc 756E636F 		.ascii	"unconditionalUnlock\000"
 3168      6E646974 
 3168      696F6E61 
 3168      6C556E6C 
 3168      6F636B00 
 3169              	.LASF136:
 3170 0b10 696E7465 		.ascii	"integrityCheckI\000"
 3170      67726974 
 3170      79436865 
 3170      636B4900 
 3171              	.LASF139:
 3172 0b20 5F5A4E31 		.ascii	"_ZN10chibios_rt6System14restoreStatusXEm\000"
 3172      30636869 
 3172      62696F73 
 3172      5F727436 
 3172      53797374 
 3173              	.LASF65:
 3174 0b49 63757272 		.ascii	"current\000"
 3174      656E7400 
 3175              	.LASF90:
 3176 0b51 6F666673 		.ascii	"offset\000"
 3176      657400
 3177              	.LASF212:
 3178 0b58 61646445 		.ascii	"addEvents\000"
 3178      76656E74 
 3178      7300
 3179              	.LASF211:
 3180 0b62 5F5A4E31 		.ascii	"_ZN10chibios_rt10BaseThread17getAndClearEventsEm\000"
 3180      30636869 
 3180      62696F73 
 3180      5F727431 
 3180      30426173 
 3181              	.LASF137:
 3182 0b93 6973436F 		.ascii	"isCounterWithinX\000"
 3182      756E7465 
 3182      72576974 
 3182      68696E58 
 3182      00
 3183              	.LASF173:
 3184 0ba4 5F5A4E4B 		.ascii	"_ZNK10chibios_rt15ThreadReference10getMessageEv\000"
 3184      31306368 
ARM GAS  /tmp/ccyXT0C6.s 			page 64


 3184      6962696F 
 3184      735F7274 
 3184      31355468 
 3185              	.LASF234:
 3186 0bd4 2F686F6D 		.ascii	"/home/user/csse4011/project/4011-surfbee/ardupilot/"
 3186      652F7573 
 3186      65722F63 
 3186      73736534 
 3186      3031312F 
 3187 0c07 6275696C 		.ascii	"build/stm32l475\000"
 3187      642F7374 
 3187      6D33326C 
 3187      34373500 
 3188              	.LASF111:
 3189 0c17 626F6F6C 		.ascii	"bool\000"
 3189      00
 3190              	.LASF141:
 3191 0c1c 67657454 		.ascii	"getTime\000"
 3191      696D6500 
 3192              	.LASF119:
 3193 0c24 5F5A4E31 		.ascii	"_ZN10chibios_rt6System6enableEv\000"
 3193      30636869 
 3193      62696F73 
 3193      5F727436 
 3193      53797374 
 3194              	.LASF30:
 3195 0c44 74687265 		.ascii	"thread_t\000"
 3195      61645F74 
 3195      00
 3196              	.LASF2:
 3197 0c4d 6C6F6E67 		.ascii	"long double\000"
 3197      20646F75 
 3197      626C6500 
 3198              	.LASF55:
 3199 0c59 74687265 		.ascii	"thread_reference_t\000"
 3199      61645F72 
 3199      65666572 
 3199      656E6365 
 3199      5F7400
 3200              	.LASF206:
 3201 0c6c 5F5A4E31 		.ascii	"_ZN10chibios_rt10BaseThread18sleepUntilWindowedEmm\000"
 3201      30636869 
 3201      62696F73 
 3201      5F727431 
 3201      30426173 
 3202              	.LASF222:
 3203 0c9f 77616974 		.ascii	"waitAnyEventTimeout\000"
 3203      416E7945 
 3203      76656E74 
 3203      54696D65 
 3203      6F757400 
 3204              	.LASF35:
 3205 0cb3 73656E74 		.ascii	"sentmsg\000"
 3205      6D736700 
 3206              	.LASF202:
 3207 0cbb 5F5A4E31 		.ascii	"_ZN10chibios_rt10BaseThread5sleepEm\000"
 3207      30636869 
ARM GAS  /tmp/ccyXT0C6.s 			page 65


 3207      62696F73 
 3207      5F727431 
 3207      30426173 
 3208              	.LASF89:
 3209 0cdf 706F7274 		.ascii	"port_intctx\000"
 3209      5F696E74 
 3209      63747800 
 3210              	.LASF237:
 3211 0ceb 5F5A4E31 		.ascii	"_ZN10chibios_rt6System4haltEPKc\000"
 3211      30636869 
 3211      62696F73 
 3211      5F727436 
 3211      53797374 
 3212              	.LASF68:
 3213 0d0b 63685F76 		.ascii	"ch_virtual_timer\000"
 3213      69727475 
 3213      616C5F74 
 3213      696D6572 
 3213      00
 3214              	.LASF92:
 3215 0d1c 3136746D 		.ascii	"16tm_calibration_t\000"
 3215      5F63616C 
 3215      69627261 
 3215      74696F6E 
 3215      5F7400
 3216              	.LASF82:
 3217 0d2f 6B65726E 		.ascii	"kernel_stats\000"
 3217      656C5F73 
 3217      74617473 
 3217      00
 3218              	.LASF204:
 3219 0d3c 5F5A4E31 		.ascii	"_ZN10chibios_rt10BaseThread10sleepUntilEm\000"
 3219      30636869 
 3219      62696F73 
 3219      5F727431 
 3219      30426173 
 3220              	.LASF13:
 3221 0d66 6C6F6E67 		.ascii	"long long unsigned int\000"
 3221      206C6F6E 
 3221      6720756E 
 3221      7369676E 
 3221      65642069 
 3222              	.LASF124:
 3223 0d7d 6C6F636B 		.ascii	"lockFromIsr\000"
 3223      46726F6D 
 3223      49737200 
 3224              	.LASF184:
 3225 0d89 5F5A4E31 		.ascii	"_ZN10chibios_rt10BaseThreadC4EOS0_\000"
 3225      30636869 
 3225      62696F73 
 3225      5F727431 
 3225      30426173 
 3226              	.LASF25:
 3227 0dac 6D73675F 		.ascii	"msg_t\000"
 3227      7400
 3228              	.LASF133:
 3229 0db2 72657374 		.ascii	"restoreStatusX\000"
ARM GAS  /tmp/ccyXT0C6.s 			page 66


 3229      6F726553 
 3229      74617475 
 3229      735800
 3230              	.LASF61:
 3231 0dc1 63685F74 		.ascii	"ch_threads_queue\000"
 3231      68726561 
 3231      64735F71 
 3231      75657565 
 3231      00
 3232              	.LASF169:
 3233 0dd2 5F5A4E4B 		.ascii	"_ZNK10chibios_rt15ThreadReference11sendMessageEl\000"
 3233      31306368 
 3233      6962696F 
 3233      735F7274 
 3233      31355468 
 3234              	.LASF227:
 3235 0e03 5F5A4E31 		.ascii	"_ZN10chibios_rt10BaseThread14dispatchEventsEPKPFvlE"
 3235      30636869 
 3235      62696F73 
 3235      5F727431 
 3235      30426173 
 3236 0e36 6D00     		.ascii	"m\000"
 3237              	.LASF69:
 3238 0e38 64656C74 		.ascii	"delta\000"
 3238      6100
 3239              	.LASF126:
 3240 0e3e 756E6C6F 		.ascii	"unlockFromIsr\000"
 3240      636B4672 
 3240      6F6D4973 
 3240      7200
 3241              	.LASF26:
 3242 0e4c 6576656E 		.ascii	"eventid_t\000"
 3242      7469645F 
 3242      7400
 3243              	.LASF47:
 3244 0e56 72656673 		.ascii	"refs\000"
 3244      00
 3245              	.LASF39:
 3246 0e5b 71756575 		.ascii	"queue\000"
 3246      6500
 3247              	.LASF50:
 3248 0e61 6570656E 		.ascii	"epending\000"
 3248      64696E67 
 3248      00
 3249              	.LASF143:
 3250 0e6a 5F5A4E31 		.ascii	"_ZN10chibios_rt6System7getTimeEv\000"
 3250      30636869 
 3250      62696F73 
 3250      5F727436 
 3250      53797374 
 3251              	.LASF81:
 3252 0e8b 6D61696E 		.ascii	"mainthread\000"
 3252      74687265 
 3252      616400
 3253              	.LASF132:
 3254 0e96 68616C74 		.ascii	"halt\000"
 3254      00
ARM GAS  /tmp/ccyXT0C6.s 			page 67


 3255              	.LASF128:
 3256 0e9b 756E636F 		.ascii	"unconditionalLock\000"
 3256      6E646974 
 3256      696F6E61 
 3256      6C4C6F63 
 3256      6B00
 3257              	.LASF94:
 3258 0ead 62657374 		.ascii	"best\000"
 3258      00
 3259              	.LASF159:
 3260 0eb2 5F5A4E31 		.ascii	"_ZN10chibios_rt15ThreadReference8getInnerEv\000"
 3260      30636869 
 3260      62696F73 
 3260      5F727431 
 3260      35546872 
 3261              	.LASF156:
 3262 0ede 69734E75 		.ascii	"isNull\000"
 3262      6C6C00
 3263              	.LASF221:
 3264 0ee5 5F5A4E31 		.ascii	"_ZN10chibios_rt10BaseThread19waitOneEventTimeoutEmm"
 3264      30636869 
 3264      62696F73 
 3264      5F727431 
 3264      30426173 
 3265 0f18 00       		.ascii	"\000"
 3266              	.LASF44:
 3267 0f19 77616261 		.ascii	"wabase\000"
 3267      736500
 3268              	.LASF182:
 3269 0f20 42617365 		.ascii	"BaseThread\000"
 3269      54687265 
 3269      616400
 3270              	.LASF195:
 3271 0f2b 65786974 		.ascii	"exit\000"
 3271      00
 3272              	.LASF112:
 3273 0f30 696E6974 		.ascii	"init\000"
 3273      00
 3274              	.LASF245:
 3275 0f35 5F5A4E31 		.ascii	"_ZN10chibios_rt10_thd_startEPv\000"
 3275      30636869 
 3275      62696F73 
 3275      5F727431 
 3275      305F7468 
 3276              	.LASF79:
 3277 0f54 726C6973 		.ascii	"rlist\000"
 3277      7400
 3278              	.LASF21:
 3279 0f5a 746D6F64 		.ascii	"tmode_t\000"
 3279      655F7400 
 3280              	.LASF193:
 3281 0f62 67657450 		.ascii	"getPriorityX\000"
 3281      72696F72 
 3281      69747958 
 3281      00
 3282              	.LASF110:
 3283 0f6f 65766861 		.ascii	"evhandler_t\000"
ARM GAS  /tmp/ccyXT0C6.s 			page 68


 3283      6E646C65 
 3283      725F7400 
 3284              	.LASF225:
 3285 0f7b 5F5A4E31 		.ascii	"_ZN10chibios_rt10BaseThread20waitAllEventsTimeoutEm"
 3285      30636869 
 3285      62696F73 
 3285      5F727431 
 3285      30426173 
 3286 0fae 6D00     		.ascii	"m\000"
 3287              	.LASF181:
 3288 0fb0 7E426173 		.ascii	"~BaseThread\000"
 3288      65546872 
 3288      65616400 
 3289              	.LASF91:
 3290 0fbc 746D5F63 		.ascii	"tm_calibration_t\000"
 3290      616C6962 
 3290      72617469 
 3290      6F6E5F74 
 3290      00
 3291              	.LASF43:
 3292 0fcd 6E616D65 		.ascii	"name\000"
 3292      00
 3293              	.LASF232:
 3294 0fd2 474E5520 		.ascii	"GNU C++11 5.4.1 20160919 -mcpu=cortex-m4 -mfloat-ab"
 3294      432B2B31 
 3294      3120352E 
 3294      342E3120 
 3294      32303136 
 3295 1005 693D6861 		.ascii	"i=hard -mfpu=fpv4-sp-d16 -mno-thumb-interwork -mthu"
 3295      7264202D 
 3295      6D667075 
 3295      3D667076 
 3295      342D7370 
 3296 1038 6D62202D 		.ascii	"mb -g -std=gnu++11 -fomit-frame-pointer -falign-fun"
 3296      67202D73 
 3296      74643D67 
 3296      6E752B2B 
 3296      3131202D 
 3297 106b 6374696F 		.ascii	"ctions=16 -ffunction-sections -fdata-sections -fno-"
 3297      6E733D31 
 3297      36202D66 
 3297      66756E63 
 3297      74696F6E 
 3298 109e 636F6D6D 		.ascii	"common -fsingle-precision-constant -fno-rtti\000"
 3298      6F6E202D 
 3298      6673696E 
 3298      676C652D 
 3298      70726563 
 3299              	.LASF174:
 3300 10cb 72656C65 		.ascii	"releaseMessage\000"
 3300      6173654D 
 3300      65737361 
 3300      676500
 3301              	.LASF160:
 3302 10da 72657175 		.ascii	"requestTerminate\000"
 3302      65737454 
 3302      65726D69 
ARM GAS  /tmp/ccyXT0C6.s 			page 69


 3302      6E617465 
 3302      00
 3303              	.LASF5:
 3304 10eb 73686F72 		.ascii	"short int\000"
 3304      7420696E 
 3304      7400
 3305              	.LASF17:
 3306 10f5 75696E74 		.ascii	"uint64_t\000"
 3306      36345F74 
 3306      00
 3307              	.LASF185:
 3308 10fe 5F5A4E31 		.ascii	"_ZN10chibios_rt10BaseThreadC4ERKS0_\000"
 3308      30636869 
 3308      62696F73 
 3308      5F727431 
 3308      30426173 
 3309              	.LASF70:
 3310 1122 66756E63 		.ascii	"func\000"
 3310      00
 3311              	.LASF106:
 3312 1127 63685F6D 		.ascii	"ch_mutex\000"
 3312      75746578 
 3312      00
 3313              	.LASF123:
 3314 1130 5F5A4E31 		.ascii	"_ZN10chibios_rt6System6unlockEv\000"
 3314      30636869 
 3314      62696F73 
 3314      5F727436 
 3314      53797374 
 3315              	.LASF217:
 3316 1150 5F5A4E31 		.ascii	"_ZN10chibios_rt10BaseThread12waitAnyEventEm\000"
 3316      30636869 
 3316      62696F73 
 3316      5F727431 
 3316      30426173 
 3317              	.LASF190:
 3318 117c 5F5A4E31 		.ascii	"_ZN10chibios_rt10BaseThread7setNameEPKc\000"
 3318      30636869 
 3318      62696F73 
 3318      5F727431 
 3318      30426173 
 3319              	.LASF49:
 3320 11a4 6D736771 		.ascii	"msgqueue\000"
 3320      75657565 
 3320      00
 3321              	.LASF242:
 3322 11ad 73746172 		.ascii	"start\000"
 3322      7400
 3323              	.LASF75:
 3324 11b3 63685F73 		.ascii	"ch_system_debug\000"
 3324      79737465 
 3324      6D5F6465 
 3324      62756700 
 3325              	.LASF216:
 3326 11c3 77616974 		.ascii	"waitAnyEvent\000"
 3326      416E7945 
 3326      76656E74 
ARM GAS  /tmp/ccyXT0C6.s 			page 70


 3326      00
 3327              	.LASF224:
 3328 11d0 77616974 		.ascii	"waitAllEventsTimeout\000"
 3328      416C6C45 
 3328      76656E74 
 3328      7354696D 
 3328      656F7574 
 3329              	.LASF122:
 3330 11e5 756E6C6F 		.ascii	"unlock\000"
 3330      636B00
 3331              	.LASF80:
 3332 11ec 76746C69 		.ascii	"vtlist\000"
 3332      737400
 3333              	.LASF48:
 3334 11f3 77616974 		.ascii	"waiting\000"
 3334      696E6700 
 3335              	.LASF203:
 3336 11fb 736C6565 		.ascii	"sleepUntil\000"
 3336      70556E74 
 3336      696C00
 3337              	.LASF109:
 3338 1206 6D757465 		.ascii	"mutex_t\000"
 3338      785F7400 
 3339              	.LASF23:
 3340 120e 74726566 		.ascii	"trefs_t\000"
 3340      735F7400 
 3341              	.LASF88:
 3342 1216 706F7274 		.ascii	"port_context\000"
 3342      5F636F6E 
 3342      74657874 
 3342      00
 3343              	.LASF56:
 3344 1223 74687265 		.ascii	"threads_list_t\000"
 3344      6164735F 
 3344      6C697374 
 3344      5F7400
 3345              	.LASF208:
 3346 1232 77616974 		.ascii	"waitMessage\000"
 3346      4D657373 
 3346      61676500 
 3347              	.LASF78:
 3348 123e 63685F73 		.ascii	"ch_system\000"
 3348      79737465 
 3348      6D00
 3349              	.LASF213:
 3350 1248 5F5A4E31 		.ascii	"_ZN10chibios_rt10BaseThread9addEventsEm\000"
 3350      30636869 
 3350      62696F73 
 3350      5F727431 
 3350      30426173 
 3351              	.LASF41:
 3352 1270 6E657765 		.ascii	"newer\000"
 3352      7200
 3353              	.LASF16:
 3354 1276 75696E74 		.ascii	"uint32_t\000"
 3354      33325F74 
 3354      00
ARM GAS  /tmp/ccyXT0C6.s 			page 71


 3355              	.LASF229:
 3356 127f 5F5A4E31 		.ascii	"_ZN10chibios_rt10BaseThread5yieldEv\000"
 3356      30636869 
 3356      62696F73 
 3356      5F727431 
 3356      30426173 
 3357              	.LASF93:
 3358 12a3 31387469 		.ascii	"18time_measurement_t\000"
 3358      6D655F6D 
 3358      65617375 
 3358      72656D65 
 3358      6E745F74 
 3359              	.LASF189:
 3360 12b8 7365744E 		.ascii	"setName\000"
 3360      616D6500 
 3361              	.LASF164:
 3362 12c0 72656C65 		.ascii	"release\000"
 3362      61736500 
 3363              	.LASF117:
 3364 12c8 5F5A4E31 		.ascii	"_ZN10chibios_rt6System7suspendEv\000"
 3364      30636869 
 3364      62696F73 
 3364      5F727436 
 3364      53797374 
 3365              	.LASF158:
 3366 12e9 67657449 		.ascii	"getInner\000"
 3366      6E6E6572 
 3366      00
 3367              	.LASF31:
 3368 12f2 7264796D 		.ascii	"rdymsg\000"
 3368      736700
 3369              	.LASF6:
 3370 12f9 73686F72 		.ascii	"short unsigned int\000"
 3370      7420756E 
 3370      7369676E 
 3370      65642069 
 3370      6E7400
 3371              	.LASF77:
 3372 130c 63685F73 		.ascii	"ch_system_t\000"
 3372      79737465 
 3372      6D5F7400 
 3373              	.LASF230:
 3374 1318 5F5A4E31 		.ascii	"_ZN10chibios_rt10BaseThread16unlockAllMutexesEv\000"
 3374      30636869 
 3374      62696F73 
 3374      5F727431 
 3374      30426173 
 3375              	.LASF152:
 3376 1348 54687265 		.ascii	"ThreadReference\000"
 3376      61645265 
 3376      66657265 
 3376      6E636500 
 3377              	.LASF140:
 3378 1358 5F5A4E31 		.ascii	"_ZN10chibios_rt6System12polledDelayXEm\000"
 3378      30636869 
 3378      62696F73 
 3378      5F727436 
ARM GAS  /tmp/ccyXT0C6.s 			page 72


 3378      53797374 
 3379              	.LASF8:
 3380 137f 5F5F696E 		.ascii	"__int32_t\000"
 3380      7433325F 
 3380      7400
 3381              	.LASF219:
 3382 1389 5F5A4E31 		.ascii	"_ZN10chibios_rt10BaseThread13waitAllEventsEm\000"
 3382      30636869 
 3382      62696F73 
 3382      5F727431 
 3382      30426173 
 3383              	.LASF138:
 3384 13b6 706F6C6C 		.ascii	"polledDelayX\000"
 3384      65644465 
 3384      6C617958 
 3384      00
 3385              	.LASF59:
 3386 13c3 6E657874 		.ascii	"next\000"
 3386      00
 3387              	.LASF180:
 3388 13c8 5F767074 		.ascii	"_vptr.BaseThread\000"
 3388      722E4261 
 3388      73655468 
 3388      72656164 
 3388      00
 3389              	.LASF62:
 3390 13d9 70726576 		.ascii	"prev\000"
 3390      00
 3391              	.LASF96:
 3392 13de 6C617374 		.ascii	"last\000"
 3392      00
 3393              		.ident	"GCC: (15:5.4.1+svn241155-1) 5.4.1 20160919"
ARM GAS  /tmp/ccyXT0C6.s 			page 73


DEFINED SYMBOLS
                            *ABS*:0000000000000000 ch.cpp
     /tmp/ccyXT0C6.s:22     .text._ZL19chSysGetIdleThreadXv:0000000000000000 $t
     /tmp/ccyXT0C6.s:27     .text._ZL19chSysGetIdleThreadXv:0000000000000000 _ZL19chSysGetIdleThreadXv
     /tmp/ccyXT0C6.s:45     .text._ZL19chSysGetIdleThreadXv:0000000000000008 $d
.ARM.exidx.text._ZL19chSysGetIdleThreadXv:0000000000000000 $d
     /tmp/ccyXT0C6.s:52     .text._ZN10chibios_rt15ThreadReferenceC2EP9ch_thread:0000000000000000 $t
     /tmp/ccyXT0C6.s:58     .text._ZN10chibios_rt15ThreadReferenceC2EP9ch_thread:0000000000000000 _ZN10chibios_rt15ThreadReferenceC2EP9ch_thread
.ARM.exidx.text._ZN10chibios_rt15ThreadReferenceC2EP9ch_thread:0000000000000000 $d
     /tmp/ccyXT0C6.s:58     .text._ZN10chibios_rt15ThreadReferenceC2EP9ch_thread:0000000000000000 _ZN10chibios_rt15ThreadReferenceC1EP9ch_thread
     /tmp/ccyXT0C6.s:92     .text._ZN10chibios_rt6System14getIdleThreadXEv:0000000000000000 $t
     /tmp/ccyXT0C6.s:98     .text._ZN10chibios_rt6System14getIdleThreadXEv:0000000000000000 _ZN10chibios_rt6System14getIdleThreadXEv
.ARM.exidx.text._ZN10chibios_rt6System14getIdleThreadXEv:0000000000000000 $d
     /tmp/ccyXT0C6.s:131    .text._ZN10chibios_rt10_thd_startEPv:0000000000000000 $t
     /tmp/ccyXT0C6.s:137    .text._ZN10chibios_rt10_thd_startEPv:0000000000000000 _ZN10chibios_rt10_thd_startEPv
.ARM.exidx.text._ZN10chibios_rt10_thd_startEPv:0000000000000000 $d
                     .debug_frame:0000000000000010 $d
                           .group:0000000000000000 _ZN10chibios_rt15ThreadReferenceC5EP9ch_thread

UNDEFINED SYMBOLS
ch
__aeabi_unwind_cpp_pr0
