ARM GAS  /tmp/ccxrFU1V.s 			page 1


   1              		.syntax unified
   2              		.cpu cortex-m4
   3              		.eabi_attribute 27, 1
   4              		.eabi_attribute 28, 1
   5              		.fpu fpv4-sp-d16
   6              		.eabi_attribute 20, 1
   7              		.eabi_attribute 21, 1
   8              		.eabi_attribute 23, 3
   9              		.eabi_attribute 24, 1
  10              		.eabi_attribute 25, 1
  11              		.eabi_attribute 26, 1
  12              		.eabi_attribute 30, 4
  13              		.eabi_attribute 34, 1
  14              		.eabi_attribute 18, 4
  15              		.thumb
  16              		.syntax unified
  17              		.file	"chcore_v7m.c"
  18              		.text
  19              	.Ltext0:
  20              		.cfi_sections	.debug_frame
  21              		.section	.text.SVC_Handler,"ax",%progbits
  22              		.align	1
  23              		.global	SVC_Handler
  24              		.thumb
  25              		.thumb_func
  26              		.type	SVC_Handler, %function
  27              	SVC_Handler:
  28              	.LFB290:
  29              		.file 1 "../../modules/ChibiOS/os/common/ports/ARMCMx/chcore_v7m.c"
  30              		.loc 1 62 0
  31              		.cfi_startproc
  32              		@ args = 0, pretend = 0, frame = 0
  33              		@ frame_needed = 0, uses_anonymous_args = 0
  34              		@ link register save eliminated.
  35              		.loc 1 68 0
  36 0000 064A     		ldr	r2, .L2
  37 0002 5368     		ldr	r3, [r2, #4]
  38 0004 23F00103 		bic	r3, r3, #1
  39 0008 5360     		str	r3, [r2, #4]
  40              	.LBB51:
  41              	.LBB52:
  42              		.file 2 "../../modules/ChibiOS/os/common/ext/ARM/CMSIS/Core/Include/cmsis_gcc.h"
  43              		.loc 2 251 0
  44              		.syntax unified
  45              	@ 251 "../../modules/ChibiOS/os/common/ext/ARM/CMSIS/Core/Include/cmsis_gcc.h" 1
  46 000a EFF30983 		MRS r3, psp
  47              	@ 0 "" 2
  48              	.LVL0:
  49              		.thumb
  50              		.syntax unified
  51              	.LBE52:
  52              	.LBE51:
  53              	.LBB53:
  54              	.LBB54:
  55              		.loc 2 279 0
  56 000e 6833     		adds	r3, r3, #104
  57              	.LVL1:
ARM GAS  /tmp/ccxrFU1V.s 			page 2


  58              		.syntax unified
  59              	@ 279 "../../modules/ChibiOS/os/common/ext/ARM/CMSIS/Core/Include/cmsis_gcc.h" 1
  60 0010 83F30988 		MSR psp, r3
  61              	@ 0 "" 2
  62              	.LVL2:
  63              		.thumb
  64              		.syntax unified
  65              	.LBE54:
  66              	.LBE53:
  67              	.LBB55:
  68              	.LBB56:
  69              	.LBB57:
  70              	.LBB58:
  71              		.loc 2 493 0
  72 0014 0023     		movs	r3, #0
  73              	.LVL3:
  74              		.syntax unified
  75              	@ 493 "../../modules/ChibiOS/os/common/ext/ARM/CMSIS/Core/Include/cmsis_gcc.h" 1
  76 0016 83F31188 		MSR basepri, r3
  77              	@ 0 "" 2
  78              	.LVL4:
  79              		.thumb
  80              		.syntax unified
  81 001a 7047     		bx	lr
  82              	.L3:
  83              		.align	2
  84              	.L2:
  85 001c 30EF00E0 		.word	-536809680
  86              	.LBE58:
  87              	.LBE57:
  88              	.LBE56:
  89              	.LBE55:
  90              		.cfi_endproc
  91              	.LFE290:
  92              		.size	SVC_Handler, .-SVC_Handler
  93              		.section	.text._port_irq_epilogue,"ax",%progbits
  94              		.align	1
  95              		.global	_port_irq_epilogue
  96              		.thumb
  97              		.thumb_func
  98              		.type	_port_irq_epilogue, %function
  99              	_port_irq_epilogue:
 100              	.LFB291:
 101              		.loc 1 122 0
 102              		.cfi_startproc
 103              		@ args = 0, pretend = 0, frame = 0
 104              		@ frame_needed = 0, uses_anonymous_args = 0
 105              	.LVL5:
 106 0000 10B5     		push	{r4, lr}
 107              		.cfi_def_cfa_offset 8
 108              		.cfi_offset 4, -8
 109              		.cfi_offset 14, -4
 110              	.LBB59:
 111              	.LBB60:
 112              	.LBB61:
 113              	.LBB62:
 114              		.loc 2 493 0
ARM GAS  /tmp/ccxrFU1V.s 			page 3


 115 0002 2023     		movs	r3, #32
 116              		.syntax unified
 117              	@ 493 "../../modules/ChibiOS/os/common/ext/ARM/CMSIS/Core/Include/cmsis_gcc.h" 1
 118 0004 83F31188 		MSR basepri, r3
 119              	@ 0 "" 2
 120              	.LVL6:
 121              		.thumb
 122              		.syntax unified
 123              	.LBE62:
 124              	.LBE61:
 125              	.LBE60:
 126              	.LBE59:
 127              		.loc 1 125 0
 128 0008 104B     		ldr	r3, .L10
 129 000a 5B68     		ldr	r3, [r3, #4]
 130 000c 13F40063 		ands	r3, r3, #2048
 131 0010 18D0     		beq	.L5
 132              	.LBB63:
 133              	.LBB64:
 134              	.LBB65:
 135              		.loc 2 778 0
 136              		.syntax unified
 137              	@ 778 "../../modules/ChibiOS/os/common/ext/ARM/CMSIS/Core/Include/cmsis_gcc.h" 1
 138 0012 F1EE103A 		VMRS r3, fpscr
 139              	@ 0 "" 2
 140              		.thumb
 141              		.syntax unified
 142              	.LBE65:
 143              	.LBE64:
 144              	.LBB66:
 145              	.LBB67:
 146              		.loc 2 251 0
 147              		.syntax unified
 148              	@ 251 "../../modules/ChibiOS/os/common/ext/ARM/CMSIS/Core/Include/cmsis_gcc.h" 1
 149 0016 EFF30984 		MRS r4, psp
 150              	@ 0 "" 2
 151              	.LVL7:
 152              		.thumb
 153              		.syntax unified
 154              	.LBE67:
 155              	.LBE66:
 156              		.loc 1 141 0
 157 001a 4FF08073 		mov	r3, #16777216
 158 001e 44F84C3C 		str	r3, [r4, #-76]
 159              		.loc 1 143 0
 160 0022 0B4B     		ldr	r3, .L10+4
 161 0024 DB68     		ldr	r3, [r3, #12]
 162 0026 44F8083C 		str	r3, [r4, #-8]
 163              	.LVL8:
 164              	.LBB68:
 165              	.LBB69:
 166              		.loc 2 279 0
 167 002a A4F16803 		sub	r3, r4, #104
 168              	.LVL9:
 169              		.syntax unified
 170              	@ 279 "../../modules/ChibiOS/os/common/ext/ARM/CMSIS/Core/Include/cmsis_gcc.h" 1
 171 002e 83F30988 		MSR psp, r3
ARM GAS  /tmp/ccxrFU1V.s 			page 4


 172              	@ 0 "" 2
 173              	.LVL10:
 174              		.thumb
 175              		.syntax unified
 176              	.LBE69:
 177              	.LBE68:
 178              		.loc 1 151 0
 179 0032 FFF7FEFF 		bl	chSchIsPreemptionRequired
 180              	.LVL11:
 181 0036 08B1     		cbz	r0, .L6
 182              		.loc 1 153 0
 183 0038 064B     		ldr	r3, .L10+8
 184 003a 00E0     		b	.L8
 185              	.L6:
 186              		.loc 1 158 0
 187 003c 064B     		ldr	r3, .L10+12
 188              	.L8:
 189 003e 44F8503C 		str	r3, [r4, #-80]
 190 0042 10BD     		pop	{r4, pc}
 191              	.LVL12:
 192              	.L5:
 193              	.LBE63:
 194              	.LBB70:
 195              	.LBB71:
 196              	.LBB72:
 197              	.LBB73:
 198              		.loc 2 493 0
 199              		.syntax unified
 200              	@ 493 "../../modules/ChibiOS/os/common/ext/ARM/CMSIS/Core/Include/cmsis_gcc.h" 1
 201 0044 83F31188 		MSR basepri, r3
 202              	@ 0 "" 2
 203              	.LVL13:
 204              		.thumb
 205              		.syntax unified
 206 0048 10BD     		pop	{r4, pc}
 207              	.L11:
 208 004a 00BF     		.align	2
 209              	.L10:
 210 004c 00ED00E0 		.word	-536810240
 211 0050 30EF00E0 		.word	-536809680
 212 0054 00000000 		.word	_port_switch_from_isr
 213 0058 00000000 		.word	_port_exit_from_isr
 214              	.LBE73:
 215              	.LBE72:
 216              	.LBE71:
 217              	.LBE70:
 218              		.cfi_endproc
 219              	.LFE291:
 220              		.size	_port_irq_epilogue, .-_port_irq_epilogue
 221              		.text
 222              	.Letext0:
 223              		.file 3 "/usr/include/newlib/machine/_default_types.h"
 224              		.file 4 "/usr/include/newlib/sys/_stdint.h"
 225              		.file 5 "../../modules/ChibiOS/os/common/ports/ARMCMx/compilers/GCC/chtypes.h"
 226              		.file 6 "../../modules/ChibiOS/os/rt/include/chsystypes.h"
 227              		.file 7 "../../modules/ChibiOS/os/rt/include/chschd.h"
 228              		.file 8 "../../modules/ChibiOS/os/rt/include/chtime.h"
ARM GAS  /tmp/ccxrFU1V.s 			page 5


 229              		.file 9 "../../modules/ChibiOS/os/common/ext/ARM/CMSIS/Core/Include/core_cm4.h"
 230              		.file 10 "../../modules/ChibiOS/os/common/ports/ARMCMx/chcore.h"
 231              		.file 11 "../../modules/ChibiOS/os/common/ports/ARMCMx/chcore_v7m.h"
 232              		.file 12 "../../modules/ChibiOS/os/rt/include/chtm.h"
 233              		.file 13 "../../modules/ChibiOS/os/rt/include/chstats.h"
 234              		.file 14 "../../modules/ChibiOS/os/rt/include/chsem.h"
 235              		.file 15 "../../modules/ChibiOS/os/rt/include/chmtx.h"
 236              		.section	.debug_info,"",%progbits
 237              	.Ldebug_info0:
 238 0000 830D0000 		.4byte	0xd83
 239 0004 0400     		.2byte	0x4
 240 0006 00000000 		.4byte	.Ldebug_abbrev0
 241 000a 04       		.byte	0x4
 242 000b 01       		.uleb128 0x1
 243 000c 93000000 		.4byte	.LASF148
 244 0010 0C       		.byte	0xc
 245 0011 92060000 		.4byte	.LASF149
 246 0015 43050000 		.4byte	.LASF150
 247 0019 00000000 		.4byte	.Ldebug_ranges0+0
 248 001d 00000000 		.4byte	0
 249 0021 00000000 		.4byte	.Ldebug_line0
 250 0025 02       		.uleb128 0x2
 251 0026 04       		.byte	0x4
 252 0027 05       		.byte	0x5
 253 0028 696E7400 		.ascii	"int\000"
 254 002c 03       		.uleb128 0x3
 255 002d 04       		.byte	0x4
 256 002e 07       		.byte	0x7
 257 002f BD020000 		.4byte	.LASF0
 258 0033 03       		.uleb128 0x3
 259 0034 08       		.byte	0x8
 260 0035 05       		.byte	0x5
 261 0036 92020000 		.4byte	.LASF1
 262 003a 03       		.uleb128 0x3
 263 003b 08       		.byte	0x8
 264 003c 04       		.byte	0x4
 265 003d F0030000 		.4byte	.LASF2
 266 0041 03       		.uleb128 0x3
 267 0042 01       		.byte	0x1
 268 0043 06       		.byte	0x6
 269 0044 3D000000 		.4byte	.LASF3
 270 0048 04       		.uleb128 0x4
 271 0049 49000000 		.4byte	.LASF7
 272 004d 03       		.byte	0x3
 273 004e 1D       		.byte	0x1d
 274 004f 53000000 		.4byte	0x53
 275 0053 03       		.uleb128 0x3
 276 0054 01       		.byte	0x1
 277 0055 08       		.byte	0x8
 278 0056 B7040000 		.4byte	.LASF4
 279 005a 03       		.uleb128 0x3
 280 005b 02       		.byte	0x2
 281 005c 05       		.byte	0x5
 282 005d DD040000 		.4byte	.LASF5
 283 0061 03       		.uleb128 0x3
 284 0062 02       		.byte	0x2
 285 0063 07       		.byte	0x7
ARM GAS  /tmp/ccxrFU1V.s 			page 6


 286 0064 21060000 		.4byte	.LASF6
 287 0068 04       		.uleb128 0x4
 288 0069 93030000 		.4byte	.LASF8
 289 006d 03       		.byte	0x3
 290 006e 3F       		.byte	0x3f
 291 006f 73000000 		.4byte	0x73
 292 0073 03       		.uleb128 0x3
 293 0074 04       		.byte	0x4
 294 0075 05       		.byte	0x5
 295 0076 26020000 		.4byte	.LASF9
 296 007a 04       		.uleb128 0x4
 297 007b 5D020000 		.4byte	.LASF10
 298 007f 03       		.byte	0x3
 299 0080 41       		.byte	0x41
 300 0081 85000000 		.4byte	0x85
 301 0085 03       		.uleb128 0x3
 302 0086 04       		.byte	0x4
 303 0087 07       		.byte	0x7
 304 0088 A8050000 		.4byte	.LASF11
 305 008c 04       		.uleb128 0x4
 306 008d 43040000 		.4byte	.LASF12
 307 0091 03       		.byte	0x3
 308 0092 5B       		.byte	0x5b
 309 0093 97000000 		.4byte	0x97
 310 0097 03       		.uleb128 0x3
 311 0098 08       		.byte	0x8
 312 0099 07       		.byte	0x7
 313 009a E0010000 		.4byte	.LASF13
 314 009e 04       		.uleb128 0x4
 315 009f CC060000 		.4byte	.LASF14
 316 00a3 04       		.byte	0x4
 317 00a4 18       		.byte	0x18
 318 00a5 48000000 		.4byte	0x48
 319 00a9 04       		.uleb128 0x4
 320 00aa AF040000 		.4byte	.LASF15
 321 00ae 04       		.byte	0x4
 322 00af 2C       		.byte	0x2c
 323 00b0 68000000 		.4byte	0x68
 324 00b4 04       		.uleb128 0x4
 325 00b5 65060000 		.4byte	.LASF16
 326 00b9 04       		.byte	0x4
 327 00ba 30       		.byte	0x30
 328 00bb 7A000000 		.4byte	0x7a
 329 00bf 04       		.uleb128 0x4
 330 00c0 27000000 		.4byte	.LASF17
 331 00c4 04       		.byte	0x4
 332 00c5 3C       		.byte	0x3c
 333 00c6 8C000000 		.4byte	0x8c
 334 00ca 04       		.uleb128 0x4
 335 00cb 40060000 		.4byte	.LASF18
 336 00cf 05       		.byte	0x5
 337 00d0 27       		.byte	0x27
 338 00d1 B4000000 		.4byte	0xb4
 339 00d5 04       		.uleb128 0x4
 340 00d6 D7010000 		.4byte	.LASF19
 341 00da 05       		.byte	0x5
 342 00db 28       		.byte	0x28
ARM GAS  /tmp/ccxrFU1V.s 			page 7


 343 00dc BF000000 		.4byte	0xbf
 344 00e0 04       		.uleb128 0x4
 345 00e1 57030000 		.4byte	.LASF20
 346 00e5 05       		.byte	0x5
 347 00e6 2A       		.byte	0x2a
 348 00e7 9E000000 		.4byte	0x9e
 349 00eb 04       		.uleb128 0x4
 350 00ec 2F020000 		.4byte	.LASF21
 351 00f0 05       		.byte	0x5
 352 00f1 2B       		.byte	0x2b
 353 00f2 9E000000 		.4byte	0x9e
 354 00f6 04       		.uleb128 0x4
 355 00f7 65040000 		.4byte	.LASF22
 356 00fb 05       		.byte	0x5
 357 00fc 2C       		.byte	0x2c
 358 00fd 9E000000 		.4byte	0x9e
 359 0101 04       		.uleb128 0x4
 360 0102 8C040000 		.4byte	.LASF23
 361 0106 05       		.byte	0x5
 362 0107 2E       		.byte	0x2e
 363 0108 B4000000 		.4byte	0xb4
 364 010c 04       		.uleb128 0x4
 365 010d 1D030000 		.4byte	.LASF24
 366 0111 05       		.byte	0x5
 367 0112 2F       		.byte	0x2f
 368 0113 A9000000 		.4byte	0xa9
 369 0117 04       		.uleb128 0x4
 370 0118 78030000 		.4byte	.LASF25
 371 011c 05       		.byte	0x5
 372 011d 31       		.byte	0x31
 373 011e B4000000 		.4byte	0xb4
 374 0122 04       		.uleb128 0x4
 375 0123 AE020000 		.4byte	.LASF26
 376 0127 05       		.byte	0x5
 377 0128 33       		.byte	0x33
 378 0129 A9000000 		.4byte	0xa9
 379 012d 04       		.uleb128 0x4
 380 012e 2E030000 		.4byte	.LASF27
 381 0132 05       		.byte	0x5
 382 0133 34       		.byte	0x34
 383 0134 B4000000 		.4byte	0xb4
 384 0138 04       		.uleb128 0x4
 385 0139 E1050000 		.4byte	.LASF28
 386 013d 06       		.byte	0x6
 387 013e 34       		.byte	0x34
 388 013f 43010000 		.4byte	0x143
 389 0143 05       		.uleb128 0x5
 390 0144 09030000 		.4byte	.LASF47
 391 0148 60       		.byte	0x60
 392 0149 07       		.byte	0x7
 393 014a 8E       		.byte	0x8e
 394 014b 2E020000 		.4byte	0x22e
 395 014f 06       		.uleb128 0x6
 396 0150 FC030000 		.4byte	.LASF29
 397 0154 07       		.byte	0x7
 398 0155 8F       		.byte	0x8f
 399 0156 63020000 		.4byte	0x263
ARM GAS  /tmp/ccxrFU1V.s 			page 8


 400 015a 00       		.byte	0
 401 015b 06       		.uleb128 0x6
 402 015c 31040000 		.4byte	.LASF30
 403 0160 07       		.byte	0x7
 404 0161 90       		.byte	0x90
 405 0162 01010000 		.4byte	0x101
 406 0166 08       		.byte	0x8
 407 0167 07       		.uleb128 0x7
 408 0168 63747800 		.ascii	"ctx\000"
 409 016c 07       		.byte	0x7
 410 016d 91       		.byte	0x91
 411 016e 9B060000 		.4byte	0x69b
 412 0172 0C       		.byte	0xc
 413 0173 06       		.uleb128 0x6
 414 0174 A8030000 		.4byte	.LASF31
 415 0178 07       		.byte	0x7
 416 0179 93       		.byte	0x93
 417 017a 39020000 		.4byte	0x239
 418 017e 10       		.byte	0x10
 419 017f 06       		.uleb128 0x6
 420 0180 C6050000 		.4byte	.LASF32
 421 0184 07       		.byte	0x7
 422 0185 94       		.byte	0x94
 423 0186 39020000 		.4byte	0x239
 424 018a 14       		.byte	0x14
 425 018b 06       		.uleb128 0x6
 426 018c 04030000 		.4byte	.LASF33
 427 0190 07       		.byte	0x7
 428 0191 9B       		.byte	0x9b
 429 0192 D20A0000 		.4byte	0xad2
 430 0196 18       		.byte	0x18
 431 0197 06       		.uleb128 0x6
 432 0198 BA050000 		.4byte	.LASF34
 433 019c 07       		.byte	0x7
 434 019d A4       		.byte	0xa4
 435 019e E40A0000 		.4byte	0xae4
 436 01a2 1C       		.byte	0x1c
 437 01a3 06       		.uleb128 0x6
 438 01a4 20020000 		.4byte	.LASF35
 439 01a8 07       		.byte	0x7
 440 01a9 A9       		.byte	0xa9
 441 01aa EB000000 		.4byte	0xeb
 442 01ae 20       		.byte	0x20
 443 01af 06       		.uleb128 0x6
 444 01b0 D4060000 		.4byte	.LASF36
 445 01b4 07       		.byte	0x7
 446 01b5 AD       		.byte	0xad
 447 01b6 E0000000 		.4byte	0xe0
 448 01ba 21       		.byte	0x21
 449 01bb 06       		.uleb128 0x6
 450 01bc D8040000 		.4byte	.LASF37
 451 01c0 07       		.byte	0x7
 452 01c1 B2       		.byte	0xb2
 453 01c2 F6000000 		.4byte	0xf6
 454 01c6 22       		.byte	0x22
 455 01c7 08       		.uleb128 0x8
 456 01c8 7500     		.ascii	"u\000"
ARM GAS  /tmp/ccxrFU1V.s 			page 9


 457 01ca 07       		.byte	0x7
 458 01cb 0301     		.2byte	0x103
 459 01cd 080A0000 		.4byte	0xa08
 460 01d1 24       		.byte	0x24
 461 01d2 09       		.uleb128 0x9
 462 01d3 8A020000 		.4byte	.LASF38
 463 01d7 07       		.byte	0x7
 464 01d8 0801     		.2byte	0x108
 465 01da 3F020000 		.4byte	0x23f
 466 01de 28       		.byte	0x28
 467 01df 09       		.uleb128 0x9
 468 01e0 17020000 		.4byte	.LASF39
 469 01e4 07       		.byte	0x7
 470 01e5 0E01     		.2byte	0x10e
 471 01e7 63020000 		.4byte	0x263
 472 01eb 2C       		.byte	0x2c
 473 01ec 09       		.uleb128 0x9
 474 01ed 35030000 		.4byte	.LASF40
 475 01f1 07       		.byte	0x7
 476 01f2 1401     		.2byte	0x114
 477 01f4 17010000 		.4byte	0x117
 478 01f8 34       		.byte	0x34
 479 01f9 09       		.uleb128 0x9
 480 01fa EC060000 		.4byte	.LASF41
 481 01fe 07       		.byte	0x7
 482 01ff 1B01     		.2byte	0x11b
 483 0201 CC0A0000 		.4byte	0xacc
 484 0205 38       		.byte	0x38
 485 0206 09       		.uleb128 0x9
 486 0207 AE030000 		.4byte	.LASF42
 487 020b 07       		.byte	0x7
 488 020c 1F01     		.2byte	0x11f
 489 020e 01010000 		.4byte	0x101
 490 0212 3C       		.byte	0x3c
 491 0213 09       		.uleb128 0x9
 492 0214 E6020000 		.4byte	.LASF43
 493 0218 07       		.byte	0x7
 494 0219 2601     		.2byte	0x126
 495 021b 16030000 		.4byte	0x316
 496 021f 40       		.byte	0x40
 497 0220 09       		.uleb128 0x9
 498 0221 3D020000 		.4byte	.LASF44
 499 0225 07       		.byte	0x7
 500 0226 2C01     		.2byte	0x12c
 501 0228 B9090000 		.4byte	0x9b9
 502 022c 48       		.byte	0x48
 503 022d 00       		.byte	0
 504 022e 04       		.uleb128 0x4
 505 022f C6030000 		.4byte	.LASF45
 506 0233 06       		.byte	0x6
 507 0234 39       		.byte	0x39
 508 0235 39020000 		.4byte	0x239
 509 0239 0A       		.uleb128 0xa
 510 023a 04       		.byte	0x4
 511 023b 38010000 		.4byte	0x138
 512 023f 04       		.uleb128 0x4
 513 0240 84000000 		.4byte	.LASF46
ARM GAS  /tmp/ccxrFU1V.s 			page 10


 514 0244 06       		.byte	0x6
 515 0245 3E       		.byte	0x3e
 516 0246 4A020000 		.4byte	0x24a
 517 024a 05       		.uleb128 0x5
 518 024b 92050000 		.4byte	.LASF48
 519 024f 04       		.byte	0x4
 520 0250 07       		.byte	0x7
 521 0251 7C       		.byte	0x7c
 522 0252 63020000 		.4byte	0x263
 523 0256 06       		.uleb128 0x6
 524 0257 D2010000 		.4byte	.LASF49
 525 025b 07       		.byte	0x7
 526 025c 7D       		.byte	0x7d
 527 025d 39020000 		.4byte	0x239
 528 0261 00       		.byte	0
 529 0262 00       		.byte	0
 530 0263 04       		.uleb128 0x4
 531 0264 6E060000 		.4byte	.LASF50
 532 0268 06       		.byte	0x6
 533 0269 45       		.byte	0x45
 534 026a 6E020000 		.4byte	0x26e
 535 026e 05       		.uleb128 0x5
 536 026f 64000000 		.4byte	.LASF51
 537 0273 08       		.byte	0x8
 538 0274 07       		.byte	0x7
 539 0275 83       		.byte	0x83
 540 0276 93020000 		.4byte	0x293
 541 027a 06       		.uleb128 0x6
 542 027b D2010000 		.4byte	.LASF49
 543 027f 07       		.byte	0x7
 544 0280 84       		.byte	0x84
 545 0281 39020000 		.4byte	0x239
 546 0285 00       		.byte	0
 547 0286 06       		.uleb128 0x6
 548 0287 53000000 		.4byte	.LASF52
 549 028b 07       		.byte	0x7
 550 028c 85       		.byte	0x85
 551 028d 39020000 		.4byte	0x239
 552 0291 04       		.byte	0x4
 553 0292 00       		.byte	0
 554 0293 04       		.uleb128 0x4
 555 0294 00000000 		.4byte	.LASF53
 556 0298 06       		.byte	0x6
 557 0299 4C       		.byte	0x4c
 558 029a 9E020000 		.4byte	0x29e
 559 029e 0B       		.uleb128 0xb
 560 029f 6A030000 		.4byte	.LASF54
 561 02a3 1C       		.byte	0x1c
 562 02a4 07       		.byte	0x7
 563 02a5 5E01     		.2byte	0x15e
 564 02a7 FA020000 		.4byte	0x2fa
 565 02ab 09       		.uleb128 0x9
 566 02ac FC030000 		.4byte	.LASF29
 567 02b0 07       		.byte	0x7
 568 02b1 5F01     		.2byte	0x15f
 569 02b3 63020000 		.4byte	0x263
 570 02b7 00       		.byte	0
ARM GAS  /tmp/ccxrFU1V.s 			page 11


 571 02b8 09       		.uleb128 0x9
 572 02b9 31040000 		.4byte	.LASF30
 573 02bd 07       		.byte	0x7
 574 02be 6001     		.2byte	0x160
 575 02c0 01010000 		.4byte	0x101
 576 02c4 08       		.byte	0x8
 577 02c5 08       		.uleb128 0x8
 578 02c6 63747800 		.ascii	"ctx\000"
 579 02ca 07       		.byte	0x7
 580 02cb 6201     		.2byte	0x162
 581 02cd 9B060000 		.4byte	0x69b
 582 02d1 0C       		.byte	0xc
 583 02d2 09       		.uleb128 0x9
 584 02d3 A8030000 		.4byte	.LASF31
 585 02d7 07       		.byte	0x7
 586 02d8 6501     		.2byte	0x165
 587 02da 39020000 		.4byte	0x239
 588 02de 10       		.byte	0x10
 589 02df 09       		.uleb128 0x9
 590 02e0 C6050000 		.4byte	.LASF32
 591 02e4 07       		.byte	0x7
 592 02e5 6601     		.2byte	0x166
 593 02e7 39020000 		.4byte	0x239
 594 02eb 14       		.byte	0x14
 595 02ec 09       		.uleb128 0x9
 596 02ed 36040000 		.4byte	.LASF55
 597 02f1 07       		.byte	0x7
 598 02f2 6901     		.2byte	0x169
 599 02f4 39020000 		.4byte	0x239
 600 02f8 18       		.byte	0x18
 601 02f9 00       		.byte	0
 602 02fa 04       		.uleb128 0x4
 603 02fb F9050000 		.4byte	.LASF56
 604 02ff 06       		.byte	0x6
 605 0300 51       		.byte	0x51
 606 0301 05030000 		.4byte	0x305
 607 0305 0A       		.uleb128 0xa
 608 0306 04       		.byte	0x4
 609 0307 0B030000 		.4byte	0x30b
 610 030b 0C       		.uleb128 0xc
 611 030c 16030000 		.4byte	0x316
 612 0310 0D       		.uleb128 0xd
 613 0311 16030000 		.4byte	0x316
 614 0315 00       		.byte	0
 615 0316 0E       		.uleb128 0xe
 616 0317 04       		.byte	0x4
 617 0318 04       		.uleb128 0x4
 618 0319 7C040000 		.4byte	.LASF57
 619 031d 06       		.byte	0x6
 620 031e 56       		.byte	0x56
 621 031f 23030000 		.4byte	0x323
 622 0323 0B       		.uleb128 0xb
 623 0324 25050000 		.4byte	.LASF58
 624 0328 14       		.byte	0x14
 625 0329 07       		.byte	0x7
 626 032a 3901     		.2byte	0x139
 627 032c 72030000 		.4byte	0x372
ARM GAS  /tmp/ccxrFU1V.s 			page 12


 628 0330 09       		.uleb128 0x9
 629 0331 D2010000 		.4byte	.LASF49
 630 0335 07       		.byte	0x7
 631 0336 3A01     		.2byte	0x13a
 632 0338 EA0A0000 		.4byte	0xaea
 633 033c 00       		.byte	0
 634 033d 09       		.uleb128 0x9
 635 033e 53000000 		.4byte	.LASF52
 636 0342 07       		.byte	0x7
 637 0343 3B01     		.2byte	0x13b
 638 0345 EA0A0000 		.4byte	0xaea
 639 0349 04       		.byte	0x4
 640 034a 09       		.uleb128 0x9
 641 034b 13000000 		.4byte	.LASF59
 642 034f 07       		.byte	0x7
 643 0350 3C01     		.2byte	0x13c
 644 0352 56040000 		.4byte	0x456
 645 0356 08       		.byte	0x8
 646 0357 09       		.uleb128 0x9
 647 0358 38020000 		.4byte	.LASF60
 648 035c 07       		.byte	0x7
 649 035d 3D01     		.2byte	0x13d
 650 035f FA020000 		.4byte	0x2fa
 651 0363 0C       		.byte	0xc
 652 0364 08       		.uleb128 0x8
 653 0365 70617200 		.ascii	"par\000"
 654 0369 07       		.byte	0x7
 655 036a 3F01     		.2byte	0x13f
 656 036c 16030000 		.4byte	0x316
 657 0370 10       		.byte	0x10
 658 0371 00       		.byte	0
 659 0372 04       		.uleb128 0x4
 660 0373 B6010000 		.4byte	.LASF61
 661 0377 06       		.byte	0x6
 662 0378 5B       		.byte	0x5b
 663 0379 7D030000 		.4byte	0x37d
 664 037d 0B       		.uleb128 0xb
 665 037e D9030000 		.4byte	.LASF62
 666 0382 10       		.byte	0x10
 667 0383 07       		.byte	0x7
 668 0384 4901     		.2byte	0x149
 669 0386 BF030000 		.4byte	0x3bf
 670 038a 09       		.uleb128 0x9
 671 038b D2010000 		.4byte	.LASF49
 672 038f 07       		.byte	0x7
 673 0390 4A01     		.2byte	0x14a
 674 0392 EA0A0000 		.4byte	0xaea
 675 0396 00       		.byte	0
 676 0397 09       		.uleb128 0x9
 677 0398 53000000 		.4byte	.LASF52
 678 039c 07       		.byte	0x7
 679 039d 4C01     		.2byte	0x14c
 680 039f EA0A0000 		.4byte	0xaea
 681 03a3 04       		.byte	0x4
 682 03a4 09       		.uleb128 0x9
 683 03a5 13000000 		.4byte	.LASF59
 684 03a9 07       		.byte	0x7
ARM GAS  /tmp/ccxrFU1V.s 			page 13


 685 03aa 4E01     		.2byte	0x14e
 686 03ac 56040000 		.4byte	0x456
 687 03b0 08       		.byte	0x8
 688 03b1 09       		.uleb128 0x9
 689 03b2 E7040000 		.4byte	.LASF63
 690 03b6 07       		.byte	0x7
 691 03b7 5601     		.2byte	0x156
 692 03b9 4B040000 		.4byte	0x44b
 693 03bd 0C       		.byte	0xc
 694 03be 00       		.byte	0
 695 03bf 04       		.uleb128 0x4
 696 03c0 75000000 		.4byte	.LASF64
 697 03c4 06       		.byte	0x6
 698 03c5 60       		.byte	0x60
 699 03c6 CA030000 		.4byte	0x3ca
 700 03ca 0B       		.uleb128 0xb
 701 03cb 7A020000 		.4byte	.LASF65
 702 03cf 04       		.byte	0x4
 703 03d0 07       		.byte	0x7
 704 03d1 7001     		.2byte	0x170
 705 03d3 E5030000 		.4byte	0x3e5
 706 03d7 09       		.uleb128 0x9
 707 03d8 10060000 		.4byte	.LASF66
 708 03dc 07       		.byte	0x7
 709 03dd 7801     		.2byte	0x178
 710 03df F00A0000 		.4byte	0xaf0
 711 03e3 00       		.byte	0
 712 03e4 00       		.byte	0
 713 03e5 04       		.uleb128 0x4
 714 03e6 34060000 		.4byte	.LASF67
 715 03ea 06       		.byte	0x6
 716 03eb 65       		.byte	0x65
 717 03ec F0030000 		.4byte	0x3f0
 718 03f0 0B       		.uleb128 0xb
 719 03f1 FC040000 		.4byte	.LASF68
 720 03f5 D0       		.byte	0xd0
 721 03f6 07       		.byte	0x7
 722 03f7 9001     		.2byte	0x190
 723 03f9 4B040000 		.4byte	0x44b
 724 03fd 09       		.uleb128 0x9
 725 03fe 8C060000 		.4byte	.LASF69
 726 0402 07       		.byte	0x7
 727 0403 9401     		.2byte	0x194
 728 0405 93020000 		.4byte	0x293
 729 0409 00       		.byte	0
 730 040a 09       		.uleb128 0x9
 731 040b 04020000 		.4byte	.LASF70
 732 040f 07       		.byte	0x7
 733 0410 9801     		.2byte	0x198
 734 0412 72030000 		.4byte	0x372
 735 0416 1C       		.byte	0x1c
 736 0417 08       		.uleb128 0x8
 737 0418 64626700 		.ascii	"dbg\000"
 738 041c 07       		.byte	0x7
 739 041d 9C01     		.2byte	0x19c
 740 041f BF030000 		.4byte	0x3bf
 741 0423 2C       		.byte	0x2c
ARM GAS  /tmp/ccxrFU1V.s 			page 14


 742 0424 09       		.uleb128 0x9
 743 0425 A3010000 		.4byte	.LASF71
 744 0429 07       		.byte	0x7
 745 042a A001     		.2byte	0x1a0
 746 042c 38010000 		.4byte	0x138
 747 0430 30       		.byte	0x30
 748 0431 08       		.uleb128 0x8
 749 0432 746D00   		.ascii	"tm\000"
 750 0435 07       		.byte	0x7
 751 0436 A501     		.2byte	0x1a5
 752 0438 6B090000 		.4byte	0x96b
 753 043c 90       		.byte	0x90
 754 043d 09       		.uleb128 0x9
 755 043e 30000000 		.4byte	.LASF72
 756 0442 07       		.byte	0x7
 757 0443 AB01     		.2byte	0x1ab
 758 0445 FD090000 		.4byte	0x9fd
 759 0449 98       		.byte	0x98
 760 044a 00       		.byte	0
 761 044b 04       		.uleb128 0x4
 762 044c EF050000 		.4byte	.LASF73
 763 0450 08       		.byte	0x8
 764 0451 6D       		.byte	0x6d
 765 0452 B4000000 		.4byte	0xb4
 766 0456 04       		.uleb128 0x4
 767 0457 A0020000 		.4byte	.LASF74
 768 045b 08       		.byte	0x8
 769 045c 79       		.byte	0x79
 770 045d B4000000 		.4byte	0xb4
 771 0461 03       		.uleb128 0x3
 772 0462 04       		.byte	0x4
 773 0463 07       		.byte	0x7
 774 0464 BD030000 		.4byte	.LASF75
 775 0468 0F       		.uleb128 0xf
 776 0469 B4000000 		.4byte	0xb4
 777 046d 0F       		.uleb128 0xf
 778 046e 9E000000 		.4byte	0x9e
 779 0472 10       		.uleb128 0x10
 780 0473 8C       		.byte	0x8c
 781 0474 09       		.byte	0x9
 782 0475 B801     		.2byte	0x1b8
 783 0477 8D050000 		.4byte	0x58d
 784 047b 09       		.uleb128 0x9
 785 047c CC010000 		.4byte	.LASF76
 786 0480 09       		.byte	0x9
 787 0481 BA01     		.2byte	0x1ba
 788 0483 8D050000 		.4byte	0x58d
 789 0487 00       		.byte	0
 790 0488 09       		.uleb128 0x9
 791 0489 18030000 		.4byte	.LASF77
 792 048d 09       		.byte	0x9
 793 048e BB01     		.2byte	0x1bb
 794 0490 68040000 		.4byte	0x468
 795 0494 04       		.byte	0x4
 796 0495 09       		.uleb128 0x9
 797 0496 E1020000 		.4byte	.LASF78
 798 049a 09       		.byte	0x9
ARM GAS  /tmp/ccxrFU1V.s 			page 15


 799 049b BC01     		.2byte	0x1bc
 800 049d 68040000 		.4byte	0x468
 801 04a1 08       		.byte	0x8
 802 04a2 09       		.uleb128 0x9
 803 04a3 23030000 		.4byte	.LASF79
 804 04a7 09       		.byte	0x9
 805 04a8 BD01     		.2byte	0x1bd
 806 04aa 68040000 		.4byte	0x468
 807 04ae 0C       		.byte	0xc
 808 04af 08       		.uleb128 0x8
 809 04b0 53435200 		.ascii	"SCR\000"
 810 04b4 09       		.byte	0x9
 811 04b5 BE01     		.2byte	0x1be
 812 04b7 68040000 		.4byte	0x468
 813 04bb 10       		.byte	0x10
 814 04bc 08       		.uleb128 0x8
 815 04bd 43435200 		.ascii	"CCR\000"
 816 04c1 09       		.byte	0x9
 817 04c2 BF01     		.2byte	0x1bf
 818 04c4 68040000 		.4byte	0x468
 819 04c8 14       		.byte	0x14
 820 04c9 08       		.uleb128 0x8
 821 04ca 53485000 		.ascii	"SHP\000"
 822 04ce 09       		.byte	0x9
 823 04cf C001     		.2byte	0x1c0
 824 04d1 A2050000 		.4byte	0x5a2
 825 04d5 18       		.byte	0x18
 826 04d6 09       		.uleb128 0x9
 827 04d7 C5040000 		.4byte	.LASF80
 828 04db 09       		.byte	0x9
 829 04dc C101     		.2byte	0x1c1
 830 04de 68040000 		.4byte	0x468
 831 04e2 24       		.byte	0x24
 832 04e3 09       		.uleb128 0x9
 833 04e4 02040000 		.4byte	.LASF81
 834 04e8 09       		.byte	0x9
 835 04e9 C201     		.2byte	0x1c2
 836 04eb 68040000 		.4byte	0x468
 837 04ef 28       		.byte	0x28
 838 04f0 09       		.uleb128 0x9
 839 04f1 E7060000 		.4byte	.LASF82
 840 04f5 09       		.byte	0x9
 841 04f6 C301     		.2byte	0x1c3
 842 04f8 68040000 		.4byte	0x468
 843 04fc 2C       		.byte	0x2c
 844 04fd 09       		.uleb128 0x9
 845 04fe 29030000 		.4byte	.LASF83
 846 0502 09       		.byte	0x9
 847 0503 C401     		.2byte	0x1c4
 848 0505 68040000 		.4byte	0x468
 849 0509 30       		.byte	0x30
 850 050a 09       		.uleb128 0x9
 851 050b 3E030000 		.4byte	.LASF84
 852 050f 09       		.byte	0x9
 853 0510 C501     		.2byte	0x1c5
 854 0512 68040000 		.4byte	0x468
 855 0516 34       		.byte	0x34
ARM GAS  /tmp/ccxrFU1V.s 			page 16


 856 0517 09       		.uleb128 0x9
 857 0518 13030000 		.4byte	.LASF85
 858 051c 09       		.byte	0x9
 859 051d C601     		.2byte	0x1c6
 860 051f 68040000 		.4byte	0x468
 861 0523 38       		.byte	0x38
 862 0524 09       		.uleb128 0x9
 863 0525 8D050000 		.4byte	.LASF86
 864 0529 09       		.byte	0x9
 865 052a C701     		.2byte	0x1c7
 866 052c 68040000 		.4byte	0x468
 867 0530 3C       		.byte	0x3c
 868 0531 08       		.uleb128 0x8
 869 0532 50465200 		.ascii	"PFR\000"
 870 0536 09       		.byte	0x9
 871 0537 C801     		.2byte	0x1c8
 872 0539 BC050000 		.4byte	0x5bc
 873 053d 40       		.byte	0x40
 874 053e 08       		.uleb128 0x8
 875 053f 44465200 		.ascii	"DFR\000"
 876 0543 09       		.byte	0x9
 877 0544 C901     		.2byte	0x1c9
 878 0546 8D050000 		.4byte	0x58d
 879 054a 48       		.byte	0x48
 880 054b 08       		.uleb128 0x8
 881 054c 41445200 		.ascii	"ADR\000"
 882 0550 09       		.byte	0x9
 883 0551 CA01     		.2byte	0x1ca
 884 0553 8D050000 		.4byte	0x58d
 885 0557 4C       		.byte	0x4c
 886 0558 09       		.uleb128 0x9
 887 0559 87060000 		.4byte	.LASF87
 888 055d 09       		.byte	0x9
 889 055e CB01     		.2byte	0x1cb
 890 0560 D6050000 		.4byte	0x5d6
 891 0564 50       		.byte	0x50
 892 0565 09       		.uleb128 0x9
 893 0566 F7010000 		.4byte	.LASF88
 894 056a 09       		.byte	0x9
 895 056b CC01     		.2byte	0x1cc
 896 056d F0050000 		.4byte	0x5f0
 897 0571 60       		.byte	0x60
 898 0572 09       		.uleb128 0x9
 899 0573 6D040000 		.4byte	.LASF89
 900 0577 09       		.byte	0x9
 901 0578 CD01     		.2byte	0x1cd
 902 057a F5050000 		.4byte	0x5f5
 903 057e 74       		.byte	0x74
 904 057f 09       		.uleb128 0x9
 905 0580 E1060000 		.4byte	.LASF90
 906 0584 09       		.byte	0x9
 907 0585 CE01     		.2byte	0x1ce
 908 0587 68040000 		.4byte	0x468
 909 058b 88       		.byte	0x88
 910 058c 00       		.byte	0
 911 058d 11       		.uleb128 0x11
 912 058e 68040000 		.4byte	0x468
ARM GAS  /tmp/ccxrFU1V.s 			page 17


 913 0592 12       		.uleb128 0x12
 914 0593 6D040000 		.4byte	0x46d
 915 0597 A2050000 		.4byte	0x5a2
 916 059b 13       		.uleb128 0x13
 917 059c 61040000 		.4byte	0x461
 918 05a0 0B       		.byte	0xb
 919 05a1 00       		.byte	0
 920 05a2 0F       		.uleb128 0xf
 921 05a3 92050000 		.4byte	0x592
 922 05a7 12       		.uleb128 0x12
 923 05a8 8D050000 		.4byte	0x58d
 924 05ac B7050000 		.4byte	0x5b7
 925 05b0 13       		.uleb128 0x13
 926 05b1 61040000 		.4byte	0x461
 927 05b5 01       		.byte	0x1
 928 05b6 00       		.byte	0
 929 05b7 0F       		.uleb128 0xf
 930 05b8 A7050000 		.4byte	0x5a7
 931 05bc 11       		.uleb128 0x11
 932 05bd B7050000 		.4byte	0x5b7
 933 05c1 12       		.uleb128 0x12
 934 05c2 8D050000 		.4byte	0x58d
 935 05c6 D1050000 		.4byte	0x5d1
 936 05ca 13       		.uleb128 0x13
 937 05cb 61040000 		.4byte	0x461
 938 05cf 03       		.byte	0x3
 939 05d0 00       		.byte	0
 940 05d1 0F       		.uleb128 0xf
 941 05d2 C1050000 		.4byte	0x5c1
 942 05d6 11       		.uleb128 0x11
 943 05d7 D1050000 		.4byte	0x5d1
 944 05db 12       		.uleb128 0x12
 945 05dc 8D050000 		.4byte	0x58d
 946 05e0 EB050000 		.4byte	0x5eb
 947 05e4 13       		.uleb128 0x13
 948 05e5 61040000 		.4byte	0x461
 949 05e9 04       		.byte	0x4
 950 05ea 00       		.byte	0
 951 05eb 0F       		.uleb128 0xf
 952 05ec DB050000 		.4byte	0x5db
 953 05f0 11       		.uleb128 0x11
 954 05f1 EB050000 		.4byte	0x5eb
 955 05f5 12       		.uleb128 0x12
 956 05f6 B4000000 		.4byte	0xb4
 957 05fa 05060000 		.4byte	0x605
 958 05fe 13       		.uleb128 0x13
 959 05ff 61040000 		.4byte	0x461
 960 0603 04       		.byte	0x4
 961 0604 00       		.byte	0
 962 0605 14       		.uleb128 0x14
 963 0606 71020000 		.4byte	.LASF91
 964 060a 09       		.byte	0x9
 965 060b CF01     		.2byte	0x1cf
 966 060d 72040000 		.4byte	0x472
 967 0611 12       		.uleb128 0x12
 968 0612 B4000000 		.4byte	0xb4
 969 0616 21060000 		.4byte	0x621
ARM GAS  /tmp/ccxrFU1V.s 			page 18


 970 061a 13       		.uleb128 0x13
 971 061b 61040000 		.4byte	0x461
 972 061f 00       		.byte	0
 973 0620 00       		.byte	0
 974 0621 10       		.uleb128 0x10
 975 0622 18       		.byte	0x18
 976 0623 09       		.byte	0x9
 977 0624 2705     		.2byte	0x527
 978 0626 79060000 		.4byte	0x679
 979 062a 09       		.uleb128 0x9
 980 062b 6D040000 		.4byte	.LASF89
 981 062f 09       		.byte	0x9
 982 0630 2905     		.2byte	0x529
 983 0632 11060000 		.4byte	0x611
 984 0636 00       		.byte	0
 985 0637 09       		.uleb128 0x9
 986 0638 B7030000 		.4byte	.LASF92
 987 063c 09       		.byte	0x9
 988 063d 2A05     		.2byte	0x52a
 989 063f 68040000 		.4byte	0x468
 990 0643 04       		.byte	0x4
 991 0644 09       		.uleb128 0x9
 992 0645 13050000 		.4byte	.LASF93
 993 0649 09       		.byte	0x9
 994 064a 2B05     		.2byte	0x52b
 995 064c 68040000 		.4byte	0x468
 996 0650 08       		.byte	0x8
 997 0651 09       		.uleb128 0x9
 998 0652 20000000 		.4byte	.LASF94
 999 0656 09       		.byte	0x9
 1000 0657 2C05     		.2byte	0x52c
 1001 0659 68040000 		.4byte	0x468
 1002 065d 0C       		.byte	0xc
 1003 065e 09       		.uleb128 0x9
 1004 065f 59040000 		.4byte	.LASF95
 1005 0663 09       		.byte	0x9
 1006 0664 2D05     		.2byte	0x52d
 1007 0666 8D050000 		.4byte	0x58d
 1008 066a 10       		.byte	0x10
 1009 066b 09       		.uleb128 0x9
 1010 066c 5F040000 		.4byte	.LASF96
 1011 0670 09       		.byte	0x9
 1012 0671 2E05     		.2byte	0x52e
 1013 0673 8D050000 		.4byte	0x58d
 1014 0677 14       		.byte	0x14
 1015 0678 00       		.byte	0
 1016 0679 14       		.uleb128 0x14
 1017 067a B4020000 		.4byte	.LASF97
 1018 067e 09       		.byte	0x9
 1019 067f 2F05     		.2byte	0x52f
 1020 0681 21060000 		.4byte	0x621
 1021 0685 04       		.uleb128 0x4
 1022 0686 68020000 		.4byte	.LASF98
 1023 068a 0A       		.byte	0xa
 1024 068b 65       		.byte	0x65
 1025 068c 16030000 		.4byte	0x316
 1026 0690 04       		.uleb128 0x4
ARM GAS  /tmp/ccxrFU1V.s 			page 19


 1027 0691 9D030000 		.4byte	.LASF99
 1028 0695 0A       		.byte	0xa
 1029 0696 6D       		.byte	0x6d
 1030 0697 BF000000 		.4byte	0xbf
 1031 069b 05       		.uleb128 0x5
 1032 069c 07040000 		.4byte	.LASF100
 1033 06a0 04       		.byte	0x4
 1034 06a1 0A       		.byte	0xa
 1035 06a2 89       		.byte	0x89
 1036 06a3 B3060000 		.4byte	0x6b3
 1037 06a7 07       		.uleb128 0x7
 1038 06a8 737000   		.ascii	"sp\000"
 1039 06ab 0A       		.byte	0xa
 1040 06ac 8A       		.byte	0x8a
 1041 06ad FF070000 		.4byte	0x7ff
 1042 06b1 00       		.byte	0
 1043 06b2 00       		.byte	0
 1044 06b3 0B       		.uleb128 0xb
 1045 06b4 58000000 		.4byte	.LASF101
 1046 06b8 64       		.byte	0x64
 1047 06b9 0B       		.byte	0xb
 1048 06ba 5901     		.2byte	0x159
 1049 06bc FF070000 		.4byte	0x7ff
 1050 06c0 08       		.uleb128 0x8
 1051 06c1 73313600 		.ascii	"s16\000"
 1052 06c5 0B       		.byte	0xb
 1053 06c6 5B01     		.2byte	0x15b
 1054 06c8 85060000 		.4byte	0x685
 1055 06cc 00       		.byte	0
 1056 06cd 08       		.uleb128 0x8
 1057 06ce 73313700 		.ascii	"s17\000"
 1058 06d2 0B       		.byte	0xb
 1059 06d3 5C01     		.2byte	0x15c
 1060 06d5 85060000 		.4byte	0x685
 1061 06d9 04       		.byte	0x4
 1062 06da 08       		.uleb128 0x8
 1063 06db 73313800 		.ascii	"s18\000"
 1064 06df 0B       		.byte	0xb
 1065 06e0 5D01     		.2byte	0x15d
 1066 06e2 85060000 		.4byte	0x685
 1067 06e6 08       		.byte	0x8
 1068 06e7 08       		.uleb128 0x8
 1069 06e8 73313900 		.ascii	"s19\000"
 1070 06ec 0B       		.byte	0xb
 1071 06ed 5E01     		.2byte	0x15e
 1072 06ef 85060000 		.4byte	0x685
 1073 06f3 0C       		.byte	0xc
 1074 06f4 08       		.uleb128 0x8
 1075 06f5 73323000 		.ascii	"s20\000"
 1076 06f9 0B       		.byte	0xb
 1077 06fa 5F01     		.2byte	0x15f
 1078 06fc 85060000 		.4byte	0x685
 1079 0700 10       		.byte	0x10
 1080 0701 08       		.uleb128 0x8
 1081 0702 73323100 		.ascii	"s21\000"
 1082 0706 0B       		.byte	0xb
 1083 0707 6001     		.2byte	0x160
ARM GAS  /tmp/ccxrFU1V.s 			page 20


 1084 0709 85060000 		.4byte	0x685
 1085 070d 14       		.byte	0x14
 1086 070e 08       		.uleb128 0x8
 1087 070f 73323200 		.ascii	"s22\000"
 1088 0713 0B       		.byte	0xb
 1089 0714 6101     		.2byte	0x161
 1090 0716 85060000 		.4byte	0x685
 1091 071a 18       		.byte	0x18
 1092 071b 08       		.uleb128 0x8
 1093 071c 73323300 		.ascii	"s23\000"
 1094 0720 0B       		.byte	0xb
 1095 0721 6201     		.2byte	0x162
 1096 0723 85060000 		.4byte	0x685
 1097 0727 1C       		.byte	0x1c
 1098 0728 08       		.uleb128 0x8
 1099 0729 73323400 		.ascii	"s24\000"
 1100 072d 0B       		.byte	0xb
 1101 072e 6301     		.2byte	0x163
 1102 0730 85060000 		.4byte	0x685
 1103 0734 20       		.byte	0x20
 1104 0735 08       		.uleb128 0x8
 1105 0736 73323500 		.ascii	"s25\000"
 1106 073a 0B       		.byte	0xb
 1107 073b 6401     		.2byte	0x164
 1108 073d 85060000 		.4byte	0x685
 1109 0741 24       		.byte	0x24
 1110 0742 08       		.uleb128 0x8
 1111 0743 73323600 		.ascii	"s26\000"
 1112 0747 0B       		.byte	0xb
 1113 0748 6501     		.2byte	0x165
 1114 074a 85060000 		.4byte	0x685
 1115 074e 28       		.byte	0x28
 1116 074f 08       		.uleb128 0x8
 1117 0750 73323700 		.ascii	"s27\000"
 1118 0754 0B       		.byte	0xb
 1119 0755 6601     		.2byte	0x166
 1120 0757 85060000 		.4byte	0x685
 1121 075b 2C       		.byte	0x2c
 1122 075c 08       		.uleb128 0x8
 1123 075d 73323800 		.ascii	"s28\000"
 1124 0761 0B       		.byte	0xb
 1125 0762 6701     		.2byte	0x167
 1126 0764 85060000 		.4byte	0x685
 1127 0768 30       		.byte	0x30
 1128 0769 08       		.uleb128 0x8
 1129 076a 73323900 		.ascii	"s29\000"
 1130 076e 0B       		.byte	0xb
 1131 076f 6801     		.2byte	0x168
 1132 0771 85060000 		.4byte	0x685
 1133 0775 34       		.byte	0x34
 1134 0776 08       		.uleb128 0x8
 1135 0777 73333000 		.ascii	"s30\000"
 1136 077b 0B       		.byte	0xb
 1137 077c 6901     		.2byte	0x169
 1138 077e 85060000 		.4byte	0x685
 1139 0782 38       		.byte	0x38
 1140 0783 08       		.uleb128 0x8
ARM GAS  /tmp/ccxrFU1V.s 			page 21


 1141 0784 73333100 		.ascii	"s31\000"
 1142 0788 0B       		.byte	0xb
 1143 0789 6A01     		.2byte	0x16a
 1144 078b 85060000 		.4byte	0x685
 1145 078f 3C       		.byte	0x3c
 1146 0790 08       		.uleb128 0x8
 1147 0791 723400   		.ascii	"r4\000"
 1148 0794 0B       		.byte	0xb
 1149 0795 6C01     		.2byte	0x16c
 1150 0797 85060000 		.4byte	0x685
 1151 079b 40       		.byte	0x40
 1152 079c 08       		.uleb128 0x8
 1153 079d 723500   		.ascii	"r5\000"
 1154 07a0 0B       		.byte	0xb
 1155 07a1 6D01     		.2byte	0x16d
 1156 07a3 85060000 		.4byte	0x685
 1157 07a7 44       		.byte	0x44
 1158 07a8 08       		.uleb128 0x8
 1159 07a9 723600   		.ascii	"r6\000"
 1160 07ac 0B       		.byte	0xb
 1161 07ad 6E01     		.2byte	0x16e
 1162 07af 85060000 		.4byte	0x685
 1163 07b3 48       		.byte	0x48
 1164 07b4 08       		.uleb128 0x8
 1165 07b5 723700   		.ascii	"r7\000"
 1166 07b8 0B       		.byte	0xb
 1167 07b9 6F01     		.2byte	0x16f
 1168 07bb 85060000 		.4byte	0x685
 1169 07bf 4C       		.byte	0x4c
 1170 07c0 08       		.uleb128 0x8
 1171 07c1 723800   		.ascii	"r8\000"
 1172 07c4 0B       		.byte	0xb
 1173 07c5 7001     		.2byte	0x170
 1174 07c7 85060000 		.4byte	0x685
 1175 07cb 50       		.byte	0x50
 1176 07cc 08       		.uleb128 0x8
 1177 07cd 723900   		.ascii	"r9\000"
 1178 07d0 0B       		.byte	0xb
 1179 07d1 7101     		.2byte	0x171
 1180 07d3 85060000 		.4byte	0x685
 1181 07d7 54       		.byte	0x54
 1182 07d8 08       		.uleb128 0x8
 1183 07d9 72313000 		.ascii	"r10\000"
 1184 07dd 0B       		.byte	0xb
 1185 07de 7201     		.2byte	0x172
 1186 07e0 85060000 		.4byte	0x685
 1187 07e4 58       		.byte	0x58
 1188 07e5 08       		.uleb128 0x8
 1189 07e6 72313100 		.ascii	"r11\000"
 1190 07ea 0B       		.byte	0xb
 1191 07eb 7301     		.2byte	0x173
 1192 07ed 85060000 		.4byte	0x685
 1193 07f1 5C       		.byte	0x5c
 1194 07f2 08       		.uleb128 0x8
 1195 07f3 6C7200   		.ascii	"lr\000"
 1196 07f6 0B       		.byte	0xb
 1197 07f7 7401     		.2byte	0x174
ARM GAS  /tmp/ccxrFU1V.s 			page 22


 1198 07f9 85060000 		.4byte	0x685
 1199 07fd 60       		.byte	0x60
 1200 07fe 00       		.byte	0
 1201 07ff 0A       		.uleb128 0xa
 1202 0800 04       		.byte	0x4
 1203 0801 B3060000 		.4byte	0x6b3
 1204 0805 0B       		.uleb128 0xb
 1205 0806 14040000 		.4byte	.LASF102
 1206 080a 68       		.byte	0x68
 1207 080b 0B       		.byte	0xb
 1208 080c 3A01     		.2byte	0x13a
 1209 080e 56090000 		.4byte	0x956
 1210 0812 08       		.uleb128 0x8
 1211 0813 723000   		.ascii	"r0\000"
 1212 0816 0B       		.byte	0xb
 1213 0817 3B01     		.2byte	0x13b
 1214 0819 85060000 		.4byte	0x685
 1215 081d 00       		.byte	0
 1216 081e 08       		.uleb128 0x8
 1217 081f 723100   		.ascii	"r1\000"
 1218 0822 0B       		.byte	0xb
 1219 0823 3C01     		.2byte	0x13c
 1220 0825 85060000 		.4byte	0x685
 1221 0829 04       		.byte	0x4
 1222 082a 08       		.uleb128 0x8
 1223 082b 723200   		.ascii	"r2\000"
 1224 082e 0B       		.byte	0xb
 1225 082f 3D01     		.2byte	0x13d
 1226 0831 85060000 		.4byte	0x685
 1227 0835 08       		.byte	0x8
 1228 0836 08       		.uleb128 0x8
 1229 0837 723300   		.ascii	"r3\000"
 1230 083a 0B       		.byte	0xb
 1231 083b 3E01     		.2byte	0x13e
 1232 083d 85060000 		.4byte	0x685
 1233 0841 0C       		.byte	0xc
 1234 0842 08       		.uleb128 0x8
 1235 0843 72313200 		.ascii	"r12\000"
 1236 0847 0B       		.byte	0xb
 1237 0848 3F01     		.2byte	0x13f
 1238 084a 85060000 		.4byte	0x685
 1239 084e 10       		.byte	0x10
 1240 084f 09       		.uleb128 0x9
 1241 0850 0C050000 		.4byte	.LASF103
 1242 0854 0B       		.byte	0xb
 1243 0855 4001     		.2byte	0x140
 1244 0857 85060000 		.4byte	0x685
 1245 085b 14       		.byte	0x14
 1246 085c 08       		.uleb128 0x8
 1247 085d 706300   		.ascii	"pc\000"
 1248 0860 0B       		.byte	0xb
 1249 0861 4101     		.2byte	0x141
 1250 0863 85060000 		.4byte	0x685
 1251 0867 18       		.byte	0x18
 1252 0868 09       		.uleb128 0x9
 1253 0869 F0040000 		.4byte	.LASF104
 1254 086d 0B       		.byte	0xb
ARM GAS  /tmp/ccxrFU1V.s 			page 23


 1255 086e 4201     		.2byte	0x142
 1256 0870 85060000 		.4byte	0x685
 1257 0874 1C       		.byte	0x1c
 1258 0875 08       		.uleb128 0x8
 1259 0876 733000   		.ascii	"s0\000"
 1260 0879 0B       		.byte	0xb
 1261 087a 4401     		.2byte	0x144
 1262 087c 85060000 		.4byte	0x685
 1263 0880 20       		.byte	0x20
 1264 0881 08       		.uleb128 0x8
 1265 0882 733100   		.ascii	"s1\000"
 1266 0885 0B       		.byte	0xb
 1267 0886 4501     		.2byte	0x145
 1268 0888 85060000 		.4byte	0x685
 1269 088c 24       		.byte	0x24
 1270 088d 08       		.uleb128 0x8
 1271 088e 733200   		.ascii	"s2\000"
 1272 0891 0B       		.byte	0xb
 1273 0892 4601     		.2byte	0x146
 1274 0894 85060000 		.4byte	0x685
 1275 0898 28       		.byte	0x28
 1276 0899 08       		.uleb128 0x8
 1277 089a 733300   		.ascii	"s3\000"
 1278 089d 0B       		.byte	0xb
 1279 089e 4701     		.2byte	0x147
 1280 08a0 85060000 		.4byte	0x685
 1281 08a4 2C       		.byte	0x2c
 1282 08a5 08       		.uleb128 0x8
 1283 08a6 733400   		.ascii	"s4\000"
 1284 08a9 0B       		.byte	0xb
 1285 08aa 4801     		.2byte	0x148
 1286 08ac 85060000 		.4byte	0x685
 1287 08b0 30       		.byte	0x30
 1288 08b1 08       		.uleb128 0x8
 1289 08b2 733500   		.ascii	"s5\000"
 1290 08b5 0B       		.byte	0xb
 1291 08b6 4901     		.2byte	0x149
 1292 08b8 85060000 		.4byte	0x685
 1293 08bc 34       		.byte	0x34
 1294 08bd 08       		.uleb128 0x8
 1295 08be 733600   		.ascii	"s6\000"
 1296 08c1 0B       		.byte	0xb
 1297 08c2 4A01     		.2byte	0x14a
 1298 08c4 85060000 		.4byte	0x685
 1299 08c8 38       		.byte	0x38
 1300 08c9 08       		.uleb128 0x8
 1301 08ca 733700   		.ascii	"s7\000"
 1302 08cd 0B       		.byte	0xb
 1303 08ce 4B01     		.2byte	0x14b
 1304 08d0 85060000 		.4byte	0x685
 1305 08d4 3C       		.byte	0x3c
 1306 08d5 08       		.uleb128 0x8
 1307 08d6 733800   		.ascii	"s8\000"
 1308 08d9 0B       		.byte	0xb
 1309 08da 4C01     		.2byte	0x14c
 1310 08dc 85060000 		.4byte	0x685
 1311 08e0 40       		.byte	0x40
ARM GAS  /tmp/ccxrFU1V.s 			page 24


 1312 08e1 08       		.uleb128 0x8
 1313 08e2 733900   		.ascii	"s9\000"
 1314 08e5 0B       		.byte	0xb
 1315 08e6 4D01     		.2byte	0x14d
 1316 08e8 85060000 		.4byte	0x685
 1317 08ec 44       		.byte	0x44
 1318 08ed 08       		.uleb128 0x8
 1319 08ee 73313000 		.ascii	"s10\000"
 1320 08f2 0B       		.byte	0xb
 1321 08f3 4E01     		.2byte	0x14e
 1322 08f5 85060000 		.4byte	0x685
 1323 08f9 48       		.byte	0x48
 1324 08fa 08       		.uleb128 0x8
 1325 08fb 73313100 		.ascii	"s11\000"
 1326 08ff 0B       		.byte	0xb
 1327 0900 4F01     		.2byte	0x14f
 1328 0902 85060000 		.4byte	0x685
 1329 0906 4C       		.byte	0x4c
 1330 0907 08       		.uleb128 0x8
 1331 0908 73313200 		.ascii	"s12\000"
 1332 090c 0B       		.byte	0xb
 1333 090d 5001     		.2byte	0x150
 1334 090f 85060000 		.4byte	0x685
 1335 0913 50       		.byte	0x50
 1336 0914 08       		.uleb128 0x8
 1337 0915 73313300 		.ascii	"s13\000"
 1338 0919 0B       		.byte	0xb
 1339 091a 5101     		.2byte	0x151
 1340 091c 85060000 		.4byte	0x685
 1341 0920 54       		.byte	0x54
 1342 0921 08       		.uleb128 0x8
 1343 0922 73313400 		.ascii	"s14\000"
 1344 0926 0B       		.byte	0xb
 1345 0927 5201     		.2byte	0x152
 1346 0929 85060000 		.4byte	0x685
 1347 092d 58       		.byte	0x58
 1348 092e 08       		.uleb128 0x8
 1349 092f 73313500 		.ascii	"s15\000"
 1350 0933 0B       		.byte	0xb
 1351 0934 5301     		.2byte	0x153
 1352 0936 85060000 		.4byte	0x685
 1353 093a 5C       		.byte	0x5c
 1354 093b 09       		.uleb128 0x9
 1355 093c 06050000 		.4byte	.LASF105
 1356 0940 0B       		.byte	0xb
 1357 0941 5401     		.2byte	0x154
 1358 0943 85060000 		.4byte	0x685
 1359 0947 60       		.byte	0x60
 1360 0948 09       		.uleb128 0x9
 1361 0949 EC020000 		.4byte	.LASF106
 1362 094d 0B       		.byte	0xb
 1363 094e 5501     		.2byte	0x155
 1364 0950 85060000 		.4byte	0x685
 1365 0954 64       		.byte	0x64
 1366 0955 00       		.byte	0
 1367 0956 15       		.uleb128 0x15
 1368 0957 04       		.byte	0x4
ARM GAS  /tmp/ccxrFU1V.s 			page 25


 1369 0958 0C       		.byte	0xc
 1370 0959 38       		.byte	0x38
 1371 095a 6B090000 		.4byte	0x96b
 1372 095e 06       		.uleb128 0x6
 1373 095f 1A060000 		.4byte	.LASF107
 1374 0963 0C       		.byte	0xc
 1375 0964 3C       		.byte	0x3c
 1376 0965 CA000000 		.4byte	0xca
 1377 0969 00       		.byte	0
 1378 096a 00       		.byte	0
 1379 096b 04       		.uleb128 0x4
 1380 096c 20040000 		.4byte	.LASF108
 1381 0970 0C       		.byte	0xc
 1382 0971 3D       		.byte	0x3d
 1383 0972 56090000 		.4byte	0x956
 1384 0976 15       		.uleb128 0x15
 1385 0977 18       		.byte	0x18
 1386 0978 0C       		.byte	0xc
 1387 0979 48       		.byte	0x48
 1388 097a B9090000 		.4byte	0x9b9
 1389 097e 06       		.uleb128 0x6
 1390 097f EA050000 		.4byte	.LASF109
 1391 0983 0C       		.byte	0xc
 1392 0984 49       		.byte	0x49
 1393 0985 CA000000 		.4byte	0xca
 1394 0989 00       		.byte	0
 1395 098a 06       		.uleb128 0x6
 1396 098b 81010000 		.4byte	.LASF110
 1397 098f 0C       		.byte	0xc
 1398 0990 4A       		.byte	0x4a
 1399 0991 CA000000 		.4byte	0xca
 1400 0995 04       		.byte	0x4
 1401 0996 06       		.uleb128 0x6
 1402 0997 3E040000 		.4byte	.LASF111
 1403 099b 0C       		.byte	0xc
 1404 099c 4B       		.byte	0x4b
 1405 099d CA000000 		.4byte	0xca
 1406 09a1 08       		.byte	0x8
 1407 09a2 07       		.uleb128 0x7
 1408 09a3 6E00     		.ascii	"n\000"
 1409 09a5 0C       		.byte	0xc
 1410 09a6 4C       		.byte	0x4c
 1411 09a7 2D010000 		.4byte	0x12d
 1412 09ab 0C       		.byte	0xc
 1413 09ac 06       		.uleb128 0x6
 1414 09ad 4E040000 		.4byte	.LASF112
 1415 09b1 0C       		.byte	0xc
 1416 09b2 4D       		.byte	0x4d
 1417 09b3 D5000000 		.4byte	0xd5
 1418 09b7 10       		.byte	0x10
 1419 09b8 00       		.byte	0
 1420 09b9 04       		.uleb128 0x4
 1421 09ba 87010000 		.4byte	.LASF113
 1422 09be 0C       		.byte	0xc
 1423 09bf 4E       		.byte	0x4e
 1424 09c0 76090000 		.4byte	0x976
 1425 09c4 15       		.uleb128 0x15
ARM GAS  /tmp/ccxrFU1V.s 			page 26


 1426 09c5 38       		.byte	0x38
 1427 09c6 0D       		.byte	0xd
 1428 09c7 38       		.byte	0x38
 1429 09c8 FD090000 		.4byte	0x9fd
 1430 09cc 06       		.uleb128 0x6
 1431 09cd DB020000 		.4byte	.LASF114
 1432 09d1 0D       		.byte	0xd
 1433 09d2 39       		.byte	0x39
 1434 09d3 2D010000 		.4byte	0x12d
 1435 09d7 00       		.byte	0
 1436 09d8 06       		.uleb128 0x6
 1437 09d9 A0040000 		.4byte	.LASF115
 1438 09dd 0D       		.byte	0xd
 1439 09de 3A       		.byte	0x3a
 1440 09df 2D010000 		.4byte	0x12d
 1441 09e3 04       		.byte	0x4
 1442 09e4 06       		.uleb128 0x6
 1443 09e5 FC060000 		.4byte	.LASF116
 1444 09e9 0D       		.byte	0xd
 1445 09ea 3B       		.byte	0x3b
 1446 09eb B9090000 		.4byte	0x9b9
 1447 09ef 08       		.byte	0x8
 1448 09f0 06       		.uleb128 0x6
 1449 09f1 5F030000 		.4byte	.LASF117
 1450 09f5 0D       		.byte	0xd
 1451 09f6 3D       		.byte	0x3d
 1452 09f7 B9090000 		.4byte	0x9b9
 1453 09fb 20       		.byte	0x20
 1454 09fc 00       		.byte	0
 1455 09fd 04       		.uleb128 0x4
 1456 09fe F5020000 		.4byte	.LASF118
 1457 0a02 0D       		.byte	0xd
 1458 0a03 3F       		.byte	0x3f
 1459 0a04 C4090000 		.4byte	0x9c4
 1460 0a08 16       		.uleb128 0x16
 1461 0a09 04       		.byte	0x4
 1462 0a0a 07       		.byte	0x7
 1463 0a0b C6       		.byte	0xc6
 1464 0a0c 6A0A0000 		.4byte	0xa6a
 1465 0a10 17       		.uleb128 0x17
 1466 0a11 19000000 		.4byte	.LASF119
 1467 0a15 07       		.byte	0x7
 1468 0a16 CD       		.byte	0xcd
 1469 0a17 0C010000 		.4byte	0x10c
 1470 0a1b 17       		.uleb128 0x17
 1471 0a1c 9A010000 		.4byte	.LASF120
 1472 0a20 07       		.byte	0x7
 1473 0a21 D4       		.byte	0xd4
 1474 0a22 0C010000 		.4byte	0x10c
 1475 0a26 17       		.uleb128 0x17
 1476 0a27 DA060000 		.4byte	.LASF121
 1477 0a2b 07       		.byte	0x7
 1478 0a2c DB       		.byte	0xdb
 1479 0a2d 16030000 		.4byte	0x316
 1480 0a31 17       		.uleb128 0x17
 1481 0a32 0D000000 		.4byte	.LASF122
 1482 0a36 07       		.byte	0x7
ARM GAS  /tmp/ccxrFU1V.s 			page 27


 1483 0a37 E2       		.byte	0xe2
 1484 0a38 6A0A0000 		.4byte	0xa6a
 1485 0a3c 17       		.uleb128 0x17
 1486 0a3d AE010000 		.4byte	.LASF123
 1487 0a41 07       		.byte	0x7
 1488 0a42 E7       		.byte	0xe7
 1489 0a43 0C010000 		.4byte	0x10c
 1490 0a47 17       		.uleb128 0x17
 1491 0a48 D4020000 		.4byte	.LASF124
 1492 0a4c 07       		.byte	0x7
 1493 0a4d F0       		.byte	0xf0
 1494 0a4e 950A0000 		.4byte	0xa95
 1495 0a52 17       		.uleb128 0x17
 1496 0a53 86050000 		.4byte	.LASF125
 1497 0a57 07       		.byte	0x7
 1498 0a58 F9       		.byte	0xf9
 1499 0a59 CC0A0000 		.4byte	0xacc
 1500 0a5d 18       		.uleb128 0x18
 1501 0a5e F5040000 		.4byte	.LASF126
 1502 0a62 07       		.byte	0x7
 1503 0a63 0101     		.2byte	0x101
 1504 0a65 17010000 		.4byte	0x117
 1505 0a69 00       		.byte	0
 1506 0a6a 0A       		.uleb128 0xa
 1507 0a6b 04       		.byte	0x4
 1508 0a6c 2E020000 		.4byte	0x22e
 1509 0a70 05       		.uleb128 0x5
 1510 0a71 36050000 		.4byte	.LASF127
 1511 0a75 0C       		.byte	0xc
 1512 0a76 0E       		.byte	0xe
 1513 0a77 34       		.byte	0x34
 1514 0a78 950A0000 		.4byte	0xa95
 1515 0a7c 06       		.uleb128 0x6
 1516 0a7d FC030000 		.4byte	.LASF29
 1517 0a81 0E       		.byte	0xe
 1518 0a82 35       		.byte	0x35
 1519 0a83 63020000 		.4byte	0x263
 1520 0a87 00       		.byte	0
 1521 0a88 07       		.uleb128 0x7
 1522 0a89 636E7400 		.ascii	"cnt\000"
 1523 0a8d 0E       		.byte	0xe
 1524 0a8e 37       		.byte	0x37
 1525 0a8f 22010000 		.4byte	0x122
 1526 0a93 08       		.byte	0x8
 1527 0a94 00       		.byte	0
 1528 0a95 0A       		.uleb128 0xa
 1529 0a96 04       		.byte	0x4
 1530 0a97 700A0000 		.4byte	0xa70
 1531 0a9b 05       		.uleb128 0x5
 1532 0a9c 7E060000 		.4byte	.LASF128
 1533 0aa0 10       		.byte	0x10
 1534 0aa1 0F       		.byte	0xf
 1535 0aa2 39       		.byte	0x39
 1536 0aa3 CC0A0000 		.4byte	0xacc
 1537 0aa7 06       		.uleb128 0x6
 1538 0aa8 FC030000 		.4byte	.LASF29
 1539 0aac 0F       		.byte	0xf
ARM GAS  /tmp/ccxrFU1V.s 			page 28


 1540 0aad 3A       		.byte	0x3a
 1541 0aae 63020000 		.4byte	0x263
 1542 0ab2 00       		.byte	0
 1543 0ab3 06       		.uleb128 0x6
 1544 0ab4 A2050000 		.4byte	.LASF129
 1545 0ab8 0F       		.byte	0xf
 1546 0ab9 3C       		.byte	0x3c
 1547 0aba 39020000 		.4byte	0x239
 1548 0abe 08       		.byte	0x8
 1549 0abf 06       		.uleb128 0x6
 1550 0ac0 D2010000 		.4byte	.LASF49
 1551 0ac4 0F       		.byte	0xf
 1552 0ac5 3E       		.byte	0x3e
 1553 0ac6 000B0000 		.4byte	0xb00
 1554 0aca 0C       		.byte	0xc
 1555 0acb 00       		.byte	0
 1556 0acc 0A       		.uleb128 0xa
 1557 0acd 04       		.byte	0x4
 1558 0ace 9B0A0000 		.4byte	0xa9b
 1559 0ad2 0A       		.uleb128 0xa
 1560 0ad3 04       		.byte	0x4
 1561 0ad4 DF0A0000 		.4byte	0xadf
 1562 0ad8 03       		.uleb128 0x3
 1563 0ad9 01       		.byte	0x1
 1564 0ada 08       		.byte	0x8
 1565 0adb C1050000 		.4byte	.LASF130
 1566 0adf 11       		.uleb128 0x11
 1567 0ae0 D80A0000 		.4byte	0xad8
 1568 0ae4 0A       		.uleb128 0xa
 1569 0ae5 04       		.byte	0x4
 1570 0ae6 90060000 		.4byte	0x690
 1571 0aea 0A       		.uleb128 0xa
 1572 0aeb 04       		.byte	0x4
 1573 0aec 18030000 		.4byte	0x318
 1574 0af0 0F       		.uleb128 0xf
 1575 0af1 D20A0000 		.4byte	0xad2
 1576 0af5 04       		.uleb128 0x4
 1577 0af6 F4060000 		.4byte	.LASF131
 1578 0afa 0F       		.byte	0xf
 1579 0afb 34       		.byte	0x34
 1580 0afc 9B0A0000 		.4byte	0xa9b
 1581 0b00 0A       		.uleb128 0xa
 1582 0b01 04       		.byte	0x4
 1583 0b02 F50A0000 		.4byte	0xaf5
 1584 0b06 03       		.uleb128 0x3
 1585 0b07 01       		.byte	0x1
 1586 0b08 02       		.byte	0x2
 1587 0b09 A9040000 		.4byte	.LASF132
 1588 0b0d 19       		.uleb128 0x19
 1589 0b0e 02060000 		.4byte	.LASF135
 1590 0b12 02       		.byte	0x2
 1591 0b13 EB01     		.2byte	0x1eb
 1592 0b15 03       		.byte	0x3
 1593 0b16 270B0000 		.4byte	0xb27
 1594 0b1a 1A       		.uleb128 0x1a
 1595 0b1b FC010000 		.4byte	.LASF137
 1596 0b1f 02       		.byte	0x2
ARM GAS  /tmp/ccxrFU1V.s 			page 29


 1597 0b20 EB01     		.2byte	0x1eb
 1598 0b22 B4000000 		.4byte	0xb4
 1599 0b26 00       		.byte	0
 1600 0b27 1B       		.uleb128 0x1b
 1601 0b28 77010000 		.4byte	.LASF133
 1602 0b2c 0B       		.byte	0xb
 1603 0b2d 5A02     		.2byte	0x25a
 1604 0b2f 03       		.byte	0x3
 1605 0b30 1B       		.uleb128 0x1b
 1606 0b31 0B020000 		.4byte	.LASF134
 1607 0b35 0B       		.byte	0xb
 1608 0b36 7202     		.2byte	0x272
 1609 0b38 03       		.byte	0x3
 1610 0b39 19       		.uleb128 0x19
 1611 0b3a CA020000 		.4byte	.LASF136
 1612 0b3e 02       		.byte	0x2
 1613 0b3f 1501     		.2byte	0x115
 1614 0b41 03       		.byte	0x3
 1615 0b42 530B0000 		.4byte	0xb53
 1616 0b46 1A       		.uleb128 0x1a
 1617 0b47 84030000 		.4byte	.LASF138
 1618 0b4b 02       		.byte	0x2
 1619 0b4c 1501     		.2byte	0x115
 1620 0b4e B4000000 		.4byte	0xb4
 1621 0b52 00       		.byte	0
 1622 0b53 1C       		.uleb128 0x1c
 1623 0b54 5B060000 		.4byte	.LASF140
 1624 0b58 02       		.byte	0x2
 1625 0b59 F7       		.byte	0xf7
 1626 0b5a B4000000 		.4byte	0xb4
 1627 0b5e 03       		.byte	0x3
 1628 0b5f 6F0B0000 		.4byte	0xb6f
 1629 0b63 1D       		.uleb128 0x1d
 1630 0b64 07070000 		.4byte	.LASF142
 1631 0b68 02       		.byte	0x2
 1632 0b69 F9       		.byte	0xf9
 1633 0b6a B4000000 		.4byte	0xb4
 1634 0b6e 00       		.byte	0
 1635 0b6f 1B       		.uleb128 0x1b
 1636 0b70 CC050000 		.4byte	.LASF139
 1637 0b74 0B       		.byte	0xb
 1638 0b75 8C02     		.2byte	0x28c
 1639 0b77 03       		.byte	0x3
 1640 0b78 1E       		.uleb128 0x1e
 1641 0b79 94040000 		.4byte	.LASF141
 1642 0b7d 02       		.byte	0x2
 1643 0b7e FE02     		.2byte	0x2fe
 1644 0b80 B4000000 		.4byte	0xb4
 1645 0b84 03       		.byte	0x3
 1646 0b85 960B0000 		.4byte	0xb96
 1647 0b89 1F       		.uleb128 0x1f
 1648 0b8a 07070000 		.4byte	.LASF142
 1649 0b8e 02       		.byte	0x2
 1650 0b8f 0803     		.2byte	0x308
 1651 0b91 B4000000 		.4byte	0xb4
 1652 0b95 00       		.byte	0
 1653 0b96 1B       		.uleb128 0x1b
ARM GAS  /tmp/ccxrFU1V.s 			page 30


 1654 0b97 48060000 		.4byte	.LASF143
 1655 0b9b 0B       		.byte	0xb
 1656 0b9c 8102     		.2byte	0x281
 1657 0b9e 03       		.byte	0x3
 1658 0b9f 20       		.uleb128 0x20
 1659 0ba0 19050000 		.4byte	.LASF144
 1660 0ba4 01       		.byte	0x1
 1661 0ba5 3E       		.byte	0x3e
 1662 0ba6 00000000 		.4byte	.LFB290
 1663 0baa 20000000 		.4byte	.LFE290-.LFB290
 1664 0bae 01       		.uleb128 0x1
 1665 0baf 9C       		.byte	0x9c
 1666 0bb0 3F0C0000 		.4byte	0xc3f
 1667 0bb4 21       		.uleb128 0x21
 1668 0bb5 77040000 		.4byte	.LASF146
 1669 0bb9 01       		.byte	0x1
 1670 0bba 40       		.byte	0x40
 1671 0bbb 3F0C0000 		.4byte	0xc3f
 1672 0bbf 00000000 		.4byte	.LLST0
 1673 0bc3 22       		.uleb128 0x22
 1674 0bc4 530B0000 		.4byte	0xb53
 1675 0bc8 0A000000 		.4byte	.LBB51
 1676 0bcc 04000000 		.4byte	.LBE51-.LBB51
 1677 0bd0 01       		.byte	0x1
 1678 0bd1 48       		.byte	0x48
 1679 0bd2 E60B0000 		.4byte	0xbe6
 1680 0bd6 23       		.uleb128 0x23
 1681 0bd7 0A000000 		.4byte	.LBB52
 1682 0bdb 04000000 		.4byte	.LBE52-.LBB52
 1683 0bdf 24       		.uleb128 0x24
 1684 0be0 630B0000 		.4byte	0xb63
 1685 0be4 00       		.byte	0
 1686 0be5 00       		.byte	0
 1687 0be6 22       		.uleb128 0x22
 1688 0be7 390B0000 		.4byte	0xb39
 1689 0beb 0E000000 		.4byte	.LBB53
 1690 0bef 06000000 		.4byte	.LBE53-.LBB53
 1691 0bf3 01       		.byte	0x1
 1692 0bf4 4F       		.byte	0x4f
 1693 0bf5 030C0000 		.4byte	0xc03
 1694 0bf9 25       		.uleb128 0x25
 1695 0bfa 460B0000 		.4byte	0xb46
 1696 0bfe 21000000 		.4byte	.LLST1
 1697 0c02 00       		.byte	0
 1698 0c03 26       		.uleb128 0x26
 1699 0c04 6F0B0000 		.4byte	0xb6f
 1700 0c08 14000000 		.4byte	.LBB55
 1701 0c0c 0C000000 		.4byte	.LBE55-.LBB55
 1702 0c10 01       		.byte	0x1
 1703 0c11 52       		.byte	0x52
 1704 0c12 27       		.uleb128 0x27
 1705 0c13 300B0000 		.4byte	0xb30
 1706 0c17 14000000 		.4byte	.LBB56
 1707 0c1b 0C000000 		.4byte	.LBE56-.LBB56
 1708 0c1f 0B       		.byte	0xb
 1709 0c20 8E02     		.2byte	0x28e
 1710 0c22 27       		.uleb128 0x27
ARM GAS  /tmp/ccxrFU1V.s 			page 31


 1711 0c23 0D0B0000 		.4byte	0xb0d
 1712 0c27 14000000 		.4byte	.LBB57
 1713 0c2b 0C000000 		.4byte	.LBE57-.LBB57
 1714 0c2f 0B       		.byte	0xb
 1715 0c30 7502     		.2byte	0x275
 1716 0c32 25       		.uleb128 0x25
 1717 0c33 1A0B0000 		.4byte	0xb1a
 1718 0c37 42000000 		.4byte	.LLST2
 1719 0c3b 00       		.byte	0
 1720 0c3c 00       		.byte	0
 1721 0c3d 00       		.byte	0
 1722 0c3e 00       		.byte	0
 1723 0c3f 0A       		.uleb128 0xa
 1724 0c40 04       		.byte	0x4
 1725 0c41 05080000 		.4byte	0x805
 1726 0c45 20       		.uleb128 0x20
 1727 0c46 44030000 		.4byte	.LASF145
 1728 0c4a 01       		.byte	0x1
 1729 0c4b 7A       		.byte	0x7a
 1730 0c4c 00000000 		.4byte	.LFB291
 1731 0c50 5C000000 		.4byte	.LFE291-.LFB291
 1732 0c54 01       		.uleb128 0x1
 1733 0c55 9C       		.byte	0x9c
 1734 0c56 5E0D0000 		.4byte	0xd5e
 1735 0c5a 22       		.uleb128 0x22
 1736 0c5b 960B0000 		.4byte	0xb96
 1737 0c5f 02000000 		.4byte	.LBB59
 1738 0c63 06000000 		.4byte	.LBE59-.LBB59
 1739 0c67 01       		.byte	0x1
 1740 0c68 7C       		.byte	0x7c
 1741 0c69 990C0000 		.4byte	0xc99
 1742 0c6d 27       		.uleb128 0x27
 1743 0c6e 270B0000 		.4byte	0xb27
 1744 0c72 02000000 		.4byte	.LBB60
 1745 0c76 06000000 		.4byte	.LBE60-.LBB60
 1746 0c7a 0B       		.byte	0xb
 1747 0c7b 8302     		.2byte	0x283
 1748 0c7d 27       		.uleb128 0x27
 1749 0c7e 0D0B0000 		.4byte	0xb0d
 1750 0c82 02000000 		.4byte	.LBB61
 1751 0c86 06000000 		.4byte	.LBE61-.LBB61
 1752 0c8a 0B       		.byte	0xb
 1753 0c8b 6202     		.2byte	0x262
 1754 0c8d 25       		.uleb128 0x25
 1755 0c8e 1A0B0000 		.4byte	0xb1a
 1756 0c92 56000000 		.4byte	.LLST3
 1757 0c96 00       		.byte	0
 1758 0c97 00       		.byte	0
 1759 0c98 00       		.byte	0
 1760 0c99 28       		.uleb128 0x28
 1761 0c9a 12000000 		.4byte	.LBB63
 1762 0c9e 32000000 		.4byte	.LBE63-.LBB63
 1763 0ca2 220D0000 		.4byte	0xd22
 1764 0ca6 21       		.uleb128 0x21
 1765 0ca7 77040000 		.4byte	.LASF146
 1766 0cab 01       		.byte	0x1
 1767 0cac 7E       		.byte	0x7e
ARM GAS  /tmp/ccxrFU1V.s 			page 32


 1768 0cad 3F0C0000 		.4byte	0xc3f
 1769 0cb1 6B000000 		.4byte	.LLST4
 1770 0cb5 22       		.uleb128 0x22
 1771 0cb6 780B0000 		.4byte	0xb78
 1772 0cba 12000000 		.4byte	.LBB64
 1773 0cbe 04000000 		.4byte	.LBE64-.LBB64
 1774 0cc2 01       		.byte	0x1
 1775 0cc3 82       		.byte	0x82
 1776 0cc4 D80C0000 		.4byte	0xcd8
 1777 0cc8 23       		.uleb128 0x23
 1778 0cc9 12000000 		.4byte	.LBB65
 1779 0ccd 04000000 		.4byte	.LBE65-.LBB65
 1780 0cd1 24       		.uleb128 0x24
 1781 0cd2 890B0000 		.4byte	0xb89
 1782 0cd6 00       		.byte	0
 1783 0cd7 00       		.byte	0
 1784 0cd8 22       		.uleb128 0x22
 1785 0cd9 530B0000 		.4byte	0xb53
 1786 0cdd 16000000 		.4byte	.LBB66
 1787 0ce1 04000000 		.4byte	.LBE66-.LBB66
 1788 0ce5 01       		.byte	0x1
 1789 0ce6 86       		.byte	0x86
 1790 0ce7 FB0C0000 		.4byte	0xcfb
 1791 0ceb 23       		.uleb128 0x23
 1792 0cec 16000000 		.4byte	.LBB67
 1793 0cf0 04000000 		.4byte	.LBE67-.LBB67
 1794 0cf4 24       		.uleb128 0x24
 1795 0cf5 630B0000 		.4byte	0xb63
 1796 0cf9 00       		.byte	0
 1797 0cfa 00       		.byte	0
 1798 0cfb 22       		.uleb128 0x22
 1799 0cfc 390B0000 		.4byte	0xb39
 1800 0d00 2A000000 		.4byte	.LBB68
 1801 0d04 08000000 		.4byte	.LBE68-.LBB68
 1802 0d08 01       		.byte	0x1
 1803 0d09 93       		.byte	0x93
 1804 0d0a 180D0000 		.4byte	0xd18
 1805 0d0e 25       		.uleb128 0x25
 1806 0d0f 460B0000 		.4byte	0xb46
 1807 0d13 9A000000 		.4byte	.LLST5
 1808 0d17 00       		.byte	0
 1809 0d18 29       		.uleb128 0x29
 1810 0d19 36000000 		.4byte	.LVL11
 1811 0d1d 7A0D0000 		.4byte	0xd7a
 1812 0d21 00       		.byte	0
 1813 0d22 26       		.uleb128 0x26
 1814 0d23 6F0B0000 		.4byte	0xb6f
 1815 0d27 44000000 		.4byte	.LBB70
 1816 0d2b 18000000 		.4byte	.LBE70-.LBB70
 1817 0d2f 01       		.byte	0x1
 1818 0d30 A5       		.byte	0xa5
 1819 0d31 27       		.uleb128 0x27
 1820 0d32 300B0000 		.4byte	0xb30
 1821 0d36 44000000 		.4byte	.LBB71
 1822 0d3a 18000000 		.4byte	.LBE71-.LBB71
 1823 0d3e 0B       		.byte	0xb
 1824 0d3f 8E02     		.2byte	0x28e
ARM GAS  /tmp/ccxrFU1V.s 			page 33


 1825 0d41 27       		.uleb128 0x27
 1826 0d42 0D0B0000 		.4byte	0xb0d
 1827 0d46 44000000 		.4byte	.LBB72
 1828 0d4a 18000000 		.4byte	.LBE72-.LBB72
 1829 0d4e 0B       		.byte	0xb
 1830 0d4f 7502     		.2byte	0x275
 1831 0d51 25       		.uleb128 0x25
 1832 0d52 1A0B0000 		.4byte	0xb1a
 1833 0d56 BB000000 		.4byte	.LLST6
 1834 0d5a 00       		.byte	0
 1835 0d5b 00       		.byte	0
 1836 0d5c 00       		.byte	0
 1837 0d5d 00       		.byte	0
 1838 0d5e 2A       		.uleb128 0x2a
 1839 0d5f CB040000 		.4byte	.LASF147
 1840 0d63 09       		.byte	0x9
 1841 0d64 0408     		.2byte	0x804
 1842 0d66 6A0D0000 		.4byte	0xd6a
 1843 0d6a 0F       		.uleb128 0xf
 1844 0d6b A9000000 		.4byte	0xa9
 1845 0d6f 2B       		.uleb128 0x2b
 1846 0d70 636800   		.ascii	"ch\000"
 1847 0d73 07       		.byte	0x7
 1848 0d74 C701     		.2byte	0x1c7
 1849 0d76 E5030000 		.4byte	0x3e5
 1850 0d7a 2C       		.uleb128 0x2c
 1851 0d7b 43020000 		.4byte	.LASF151
 1852 0d7f 43020000 		.4byte	.LASF151
 1853 0d83 07       		.byte	0x7
 1854 0d84 D701     		.2byte	0x1d7
 1855 0d86 00       		.byte	0
 1856              		.section	.debug_abbrev,"",%progbits
 1857              	.Ldebug_abbrev0:
 1858 0000 01       		.uleb128 0x1
 1859 0001 11       		.uleb128 0x11
 1860 0002 01       		.byte	0x1
 1861 0003 25       		.uleb128 0x25
 1862 0004 0E       		.uleb128 0xe
 1863 0005 13       		.uleb128 0x13
 1864 0006 0B       		.uleb128 0xb
 1865 0007 03       		.uleb128 0x3
 1866 0008 0E       		.uleb128 0xe
 1867 0009 1B       		.uleb128 0x1b
 1868 000a 0E       		.uleb128 0xe
 1869 000b 55       		.uleb128 0x55
 1870 000c 17       		.uleb128 0x17
 1871 000d 11       		.uleb128 0x11
 1872 000e 01       		.uleb128 0x1
 1873 000f 10       		.uleb128 0x10
 1874 0010 17       		.uleb128 0x17
 1875 0011 00       		.byte	0
 1876 0012 00       		.byte	0
 1877 0013 02       		.uleb128 0x2
 1878 0014 24       		.uleb128 0x24
 1879 0015 00       		.byte	0
 1880 0016 0B       		.uleb128 0xb
 1881 0017 0B       		.uleb128 0xb
ARM GAS  /tmp/ccxrFU1V.s 			page 34


 1882 0018 3E       		.uleb128 0x3e
 1883 0019 0B       		.uleb128 0xb
 1884 001a 03       		.uleb128 0x3
 1885 001b 08       		.uleb128 0x8
 1886 001c 00       		.byte	0
 1887 001d 00       		.byte	0
 1888 001e 03       		.uleb128 0x3
 1889 001f 24       		.uleb128 0x24
 1890 0020 00       		.byte	0
 1891 0021 0B       		.uleb128 0xb
 1892 0022 0B       		.uleb128 0xb
 1893 0023 3E       		.uleb128 0x3e
 1894 0024 0B       		.uleb128 0xb
 1895 0025 03       		.uleb128 0x3
 1896 0026 0E       		.uleb128 0xe
 1897 0027 00       		.byte	0
 1898 0028 00       		.byte	0
 1899 0029 04       		.uleb128 0x4
 1900 002a 16       		.uleb128 0x16
 1901 002b 00       		.byte	0
 1902 002c 03       		.uleb128 0x3
 1903 002d 0E       		.uleb128 0xe
 1904 002e 3A       		.uleb128 0x3a
 1905 002f 0B       		.uleb128 0xb
 1906 0030 3B       		.uleb128 0x3b
 1907 0031 0B       		.uleb128 0xb
 1908 0032 49       		.uleb128 0x49
 1909 0033 13       		.uleb128 0x13
 1910 0034 00       		.byte	0
 1911 0035 00       		.byte	0
 1912 0036 05       		.uleb128 0x5
 1913 0037 13       		.uleb128 0x13
 1914 0038 01       		.byte	0x1
 1915 0039 03       		.uleb128 0x3
 1916 003a 0E       		.uleb128 0xe
 1917 003b 0B       		.uleb128 0xb
 1918 003c 0B       		.uleb128 0xb
 1919 003d 3A       		.uleb128 0x3a
 1920 003e 0B       		.uleb128 0xb
 1921 003f 3B       		.uleb128 0x3b
 1922 0040 0B       		.uleb128 0xb
 1923 0041 01       		.uleb128 0x1
 1924 0042 13       		.uleb128 0x13
 1925 0043 00       		.byte	0
 1926 0044 00       		.byte	0
 1927 0045 06       		.uleb128 0x6
 1928 0046 0D       		.uleb128 0xd
 1929 0047 00       		.byte	0
 1930 0048 03       		.uleb128 0x3
 1931 0049 0E       		.uleb128 0xe
 1932 004a 3A       		.uleb128 0x3a
 1933 004b 0B       		.uleb128 0xb
 1934 004c 3B       		.uleb128 0x3b
 1935 004d 0B       		.uleb128 0xb
 1936 004e 49       		.uleb128 0x49
 1937 004f 13       		.uleb128 0x13
 1938 0050 38       		.uleb128 0x38
ARM GAS  /tmp/ccxrFU1V.s 			page 35


 1939 0051 0B       		.uleb128 0xb
 1940 0052 00       		.byte	0
 1941 0053 00       		.byte	0
 1942 0054 07       		.uleb128 0x7
 1943 0055 0D       		.uleb128 0xd
 1944 0056 00       		.byte	0
 1945 0057 03       		.uleb128 0x3
 1946 0058 08       		.uleb128 0x8
 1947 0059 3A       		.uleb128 0x3a
 1948 005a 0B       		.uleb128 0xb
 1949 005b 3B       		.uleb128 0x3b
 1950 005c 0B       		.uleb128 0xb
 1951 005d 49       		.uleb128 0x49
 1952 005e 13       		.uleb128 0x13
 1953 005f 38       		.uleb128 0x38
 1954 0060 0B       		.uleb128 0xb
 1955 0061 00       		.byte	0
 1956 0062 00       		.byte	0
 1957 0063 08       		.uleb128 0x8
 1958 0064 0D       		.uleb128 0xd
 1959 0065 00       		.byte	0
 1960 0066 03       		.uleb128 0x3
 1961 0067 08       		.uleb128 0x8
 1962 0068 3A       		.uleb128 0x3a
 1963 0069 0B       		.uleb128 0xb
 1964 006a 3B       		.uleb128 0x3b
 1965 006b 05       		.uleb128 0x5
 1966 006c 49       		.uleb128 0x49
 1967 006d 13       		.uleb128 0x13
 1968 006e 38       		.uleb128 0x38
 1969 006f 0B       		.uleb128 0xb
 1970 0070 00       		.byte	0
 1971 0071 00       		.byte	0
 1972 0072 09       		.uleb128 0x9
 1973 0073 0D       		.uleb128 0xd
 1974 0074 00       		.byte	0
 1975 0075 03       		.uleb128 0x3
 1976 0076 0E       		.uleb128 0xe
 1977 0077 3A       		.uleb128 0x3a
 1978 0078 0B       		.uleb128 0xb
 1979 0079 3B       		.uleb128 0x3b
 1980 007a 05       		.uleb128 0x5
 1981 007b 49       		.uleb128 0x49
 1982 007c 13       		.uleb128 0x13
 1983 007d 38       		.uleb128 0x38
 1984 007e 0B       		.uleb128 0xb
 1985 007f 00       		.byte	0
 1986 0080 00       		.byte	0
 1987 0081 0A       		.uleb128 0xa
 1988 0082 0F       		.uleb128 0xf
 1989 0083 00       		.byte	0
 1990 0084 0B       		.uleb128 0xb
 1991 0085 0B       		.uleb128 0xb
 1992 0086 49       		.uleb128 0x49
 1993 0087 13       		.uleb128 0x13
 1994 0088 00       		.byte	0
 1995 0089 00       		.byte	0
ARM GAS  /tmp/ccxrFU1V.s 			page 36


 1996 008a 0B       		.uleb128 0xb
 1997 008b 13       		.uleb128 0x13
 1998 008c 01       		.byte	0x1
 1999 008d 03       		.uleb128 0x3
 2000 008e 0E       		.uleb128 0xe
 2001 008f 0B       		.uleb128 0xb
 2002 0090 0B       		.uleb128 0xb
 2003 0091 3A       		.uleb128 0x3a
 2004 0092 0B       		.uleb128 0xb
 2005 0093 3B       		.uleb128 0x3b
 2006 0094 05       		.uleb128 0x5
 2007 0095 01       		.uleb128 0x1
 2008 0096 13       		.uleb128 0x13
 2009 0097 00       		.byte	0
 2010 0098 00       		.byte	0
 2011 0099 0C       		.uleb128 0xc
 2012 009a 15       		.uleb128 0x15
 2013 009b 01       		.byte	0x1
 2014 009c 27       		.uleb128 0x27
 2015 009d 19       		.uleb128 0x19
 2016 009e 01       		.uleb128 0x1
 2017 009f 13       		.uleb128 0x13
 2018 00a0 00       		.byte	0
 2019 00a1 00       		.byte	0
 2020 00a2 0D       		.uleb128 0xd
 2021 00a3 05       		.uleb128 0x5
 2022 00a4 00       		.byte	0
 2023 00a5 49       		.uleb128 0x49
 2024 00a6 13       		.uleb128 0x13
 2025 00a7 00       		.byte	0
 2026 00a8 00       		.byte	0
 2027 00a9 0E       		.uleb128 0xe
 2028 00aa 0F       		.uleb128 0xf
 2029 00ab 00       		.byte	0
 2030 00ac 0B       		.uleb128 0xb
 2031 00ad 0B       		.uleb128 0xb
 2032 00ae 00       		.byte	0
 2033 00af 00       		.byte	0
 2034 00b0 0F       		.uleb128 0xf
 2035 00b1 35       		.uleb128 0x35
 2036 00b2 00       		.byte	0
 2037 00b3 49       		.uleb128 0x49
 2038 00b4 13       		.uleb128 0x13
 2039 00b5 00       		.byte	0
 2040 00b6 00       		.byte	0
 2041 00b7 10       		.uleb128 0x10
 2042 00b8 13       		.uleb128 0x13
 2043 00b9 01       		.byte	0x1
 2044 00ba 0B       		.uleb128 0xb
 2045 00bb 0B       		.uleb128 0xb
 2046 00bc 3A       		.uleb128 0x3a
 2047 00bd 0B       		.uleb128 0xb
 2048 00be 3B       		.uleb128 0x3b
 2049 00bf 05       		.uleb128 0x5
 2050 00c0 01       		.uleb128 0x1
 2051 00c1 13       		.uleb128 0x13
 2052 00c2 00       		.byte	0
ARM GAS  /tmp/ccxrFU1V.s 			page 37


 2053 00c3 00       		.byte	0
 2054 00c4 11       		.uleb128 0x11
 2055 00c5 26       		.uleb128 0x26
 2056 00c6 00       		.byte	0
 2057 00c7 49       		.uleb128 0x49
 2058 00c8 13       		.uleb128 0x13
 2059 00c9 00       		.byte	0
 2060 00ca 00       		.byte	0
 2061 00cb 12       		.uleb128 0x12
 2062 00cc 01       		.uleb128 0x1
 2063 00cd 01       		.byte	0x1
 2064 00ce 49       		.uleb128 0x49
 2065 00cf 13       		.uleb128 0x13
 2066 00d0 01       		.uleb128 0x1
 2067 00d1 13       		.uleb128 0x13
 2068 00d2 00       		.byte	0
 2069 00d3 00       		.byte	0
 2070 00d4 13       		.uleb128 0x13
 2071 00d5 21       		.uleb128 0x21
 2072 00d6 00       		.byte	0
 2073 00d7 49       		.uleb128 0x49
 2074 00d8 13       		.uleb128 0x13
 2075 00d9 2F       		.uleb128 0x2f
 2076 00da 0B       		.uleb128 0xb
 2077 00db 00       		.byte	0
 2078 00dc 00       		.byte	0
 2079 00dd 14       		.uleb128 0x14
 2080 00de 16       		.uleb128 0x16
 2081 00df 00       		.byte	0
 2082 00e0 03       		.uleb128 0x3
 2083 00e1 0E       		.uleb128 0xe
 2084 00e2 3A       		.uleb128 0x3a
 2085 00e3 0B       		.uleb128 0xb
 2086 00e4 3B       		.uleb128 0x3b
 2087 00e5 05       		.uleb128 0x5
 2088 00e6 49       		.uleb128 0x49
 2089 00e7 13       		.uleb128 0x13
 2090 00e8 00       		.byte	0
 2091 00e9 00       		.byte	0
 2092 00ea 15       		.uleb128 0x15
 2093 00eb 13       		.uleb128 0x13
 2094 00ec 01       		.byte	0x1
 2095 00ed 0B       		.uleb128 0xb
 2096 00ee 0B       		.uleb128 0xb
 2097 00ef 3A       		.uleb128 0x3a
 2098 00f0 0B       		.uleb128 0xb
 2099 00f1 3B       		.uleb128 0x3b
 2100 00f2 0B       		.uleb128 0xb
 2101 00f3 01       		.uleb128 0x1
 2102 00f4 13       		.uleb128 0x13
 2103 00f5 00       		.byte	0
 2104 00f6 00       		.byte	0
 2105 00f7 16       		.uleb128 0x16
 2106 00f8 17       		.uleb128 0x17
 2107 00f9 01       		.byte	0x1
 2108 00fa 0B       		.uleb128 0xb
 2109 00fb 0B       		.uleb128 0xb
ARM GAS  /tmp/ccxrFU1V.s 			page 38


 2110 00fc 3A       		.uleb128 0x3a
 2111 00fd 0B       		.uleb128 0xb
 2112 00fe 3B       		.uleb128 0x3b
 2113 00ff 0B       		.uleb128 0xb
 2114 0100 01       		.uleb128 0x1
 2115 0101 13       		.uleb128 0x13
 2116 0102 00       		.byte	0
 2117 0103 00       		.byte	0
 2118 0104 17       		.uleb128 0x17
 2119 0105 0D       		.uleb128 0xd
 2120 0106 00       		.byte	0
 2121 0107 03       		.uleb128 0x3
 2122 0108 0E       		.uleb128 0xe
 2123 0109 3A       		.uleb128 0x3a
 2124 010a 0B       		.uleb128 0xb
 2125 010b 3B       		.uleb128 0x3b
 2126 010c 0B       		.uleb128 0xb
 2127 010d 49       		.uleb128 0x49
 2128 010e 13       		.uleb128 0x13
 2129 010f 00       		.byte	0
 2130 0110 00       		.byte	0
 2131 0111 18       		.uleb128 0x18
 2132 0112 0D       		.uleb128 0xd
 2133 0113 00       		.byte	0
 2134 0114 03       		.uleb128 0x3
 2135 0115 0E       		.uleb128 0xe
 2136 0116 3A       		.uleb128 0x3a
 2137 0117 0B       		.uleb128 0xb
 2138 0118 3B       		.uleb128 0x3b
 2139 0119 05       		.uleb128 0x5
 2140 011a 49       		.uleb128 0x49
 2141 011b 13       		.uleb128 0x13
 2142 011c 00       		.byte	0
 2143 011d 00       		.byte	0
 2144 011e 19       		.uleb128 0x19
 2145 011f 2E       		.uleb128 0x2e
 2146 0120 01       		.byte	0x1
 2147 0121 03       		.uleb128 0x3
 2148 0122 0E       		.uleb128 0xe
 2149 0123 3A       		.uleb128 0x3a
 2150 0124 0B       		.uleb128 0xb
 2151 0125 3B       		.uleb128 0x3b
 2152 0126 05       		.uleb128 0x5
 2153 0127 27       		.uleb128 0x27
 2154 0128 19       		.uleb128 0x19
 2155 0129 20       		.uleb128 0x20
 2156 012a 0B       		.uleb128 0xb
 2157 012b 01       		.uleb128 0x1
 2158 012c 13       		.uleb128 0x13
 2159 012d 00       		.byte	0
 2160 012e 00       		.byte	0
 2161 012f 1A       		.uleb128 0x1a
 2162 0130 05       		.uleb128 0x5
 2163 0131 00       		.byte	0
 2164 0132 03       		.uleb128 0x3
 2165 0133 0E       		.uleb128 0xe
 2166 0134 3A       		.uleb128 0x3a
ARM GAS  /tmp/ccxrFU1V.s 			page 39


 2167 0135 0B       		.uleb128 0xb
 2168 0136 3B       		.uleb128 0x3b
 2169 0137 05       		.uleb128 0x5
 2170 0138 49       		.uleb128 0x49
 2171 0139 13       		.uleb128 0x13
 2172 013a 00       		.byte	0
 2173 013b 00       		.byte	0
 2174 013c 1B       		.uleb128 0x1b
 2175 013d 2E       		.uleb128 0x2e
 2176 013e 00       		.byte	0
 2177 013f 03       		.uleb128 0x3
 2178 0140 0E       		.uleb128 0xe
 2179 0141 3A       		.uleb128 0x3a
 2180 0142 0B       		.uleb128 0xb
 2181 0143 3B       		.uleb128 0x3b
 2182 0144 05       		.uleb128 0x5
 2183 0145 27       		.uleb128 0x27
 2184 0146 19       		.uleb128 0x19
 2185 0147 20       		.uleb128 0x20
 2186 0148 0B       		.uleb128 0xb
 2187 0149 00       		.byte	0
 2188 014a 00       		.byte	0
 2189 014b 1C       		.uleb128 0x1c
 2190 014c 2E       		.uleb128 0x2e
 2191 014d 01       		.byte	0x1
 2192 014e 03       		.uleb128 0x3
 2193 014f 0E       		.uleb128 0xe
 2194 0150 3A       		.uleb128 0x3a
 2195 0151 0B       		.uleb128 0xb
 2196 0152 3B       		.uleb128 0x3b
 2197 0153 0B       		.uleb128 0xb
 2198 0154 27       		.uleb128 0x27
 2199 0155 19       		.uleb128 0x19
 2200 0156 49       		.uleb128 0x49
 2201 0157 13       		.uleb128 0x13
 2202 0158 20       		.uleb128 0x20
 2203 0159 0B       		.uleb128 0xb
 2204 015a 01       		.uleb128 0x1
 2205 015b 13       		.uleb128 0x13
 2206 015c 00       		.byte	0
 2207 015d 00       		.byte	0
 2208 015e 1D       		.uleb128 0x1d
 2209 015f 34       		.uleb128 0x34
 2210 0160 00       		.byte	0
 2211 0161 03       		.uleb128 0x3
 2212 0162 0E       		.uleb128 0xe
 2213 0163 3A       		.uleb128 0x3a
 2214 0164 0B       		.uleb128 0xb
 2215 0165 3B       		.uleb128 0x3b
 2216 0166 0B       		.uleb128 0xb
 2217 0167 49       		.uleb128 0x49
 2218 0168 13       		.uleb128 0x13
 2219 0169 00       		.byte	0
 2220 016a 00       		.byte	0
 2221 016b 1E       		.uleb128 0x1e
 2222 016c 2E       		.uleb128 0x2e
 2223 016d 01       		.byte	0x1
ARM GAS  /tmp/ccxrFU1V.s 			page 40


 2224 016e 03       		.uleb128 0x3
 2225 016f 0E       		.uleb128 0xe
 2226 0170 3A       		.uleb128 0x3a
 2227 0171 0B       		.uleb128 0xb
 2228 0172 3B       		.uleb128 0x3b
 2229 0173 05       		.uleb128 0x5
 2230 0174 27       		.uleb128 0x27
 2231 0175 19       		.uleb128 0x19
 2232 0176 49       		.uleb128 0x49
 2233 0177 13       		.uleb128 0x13
 2234 0178 20       		.uleb128 0x20
 2235 0179 0B       		.uleb128 0xb
 2236 017a 01       		.uleb128 0x1
 2237 017b 13       		.uleb128 0x13
 2238 017c 00       		.byte	0
 2239 017d 00       		.byte	0
 2240 017e 1F       		.uleb128 0x1f
 2241 017f 34       		.uleb128 0x34
 2242 0180 00       		.byte	0
 2243 0181 03       		.uleb128 0x3
 2244 0182 0E       		.uleb128 0xe
 2245 0183 3A       		.uleb128 0x3a
 2246 0184 0B       		.uleb128 0xb
 2247 0185 3B       		.uleb128 0x3b
 2248 0186 05       		.uleb128 0x5
 2249 0187 49       		.uleb128 0x49
 2250 0188 13       		.uleb128 0x13
 2251 0189 00       		.byte	0
 2252 018a 00       		.byte	0
 2253 018b 20       		.uleb128 0x20
 2254 018c 2E       		.uleb128 0x2e
 2255 018d 01       		.byte	0x1
 2256 018e 3F       		.uleb128 0x3f
 2257 018f 19       		.uleb128 0x19
 2258 0190 03       		.uleb128 0x3
 2259 0191 0E       		.uleb128 0xe
 2260 0192 3A       		.uleb128 0x3a
 2261 0193 0B       		.uleb128 0xb
 2262 0194 3B       		.uleb128 0x3b
 2263 0195 0B       		.uleb128 0xb
 2264 0196 27       		.uleb128 0x27
 2265 0197 19       		.uleb128 0x19
 2266 0198 11       		.uleb128 0x11
 2267 0199 01       		.uleb128 0x1
 2268 019a 12       		.uleb128 0x12
 2269 019b 06       		.uleb128 0x6
 2270 019c 40       		.uleb128 0x40
 2271 019d 18       		.uleb128 0x18
 2272 019e 9742     		.uleb128 0x2117
 2273 01a0 19       		.uleb128 0x19
 2274 01a1 01       		.uleb128 0x1
 2275 01a2 13       		.uleb128 0x13
 2276 01a3 00       		.byte	0
 2277 01a4 00       		.byte	0
 2278 01a5 21       		.uleb128 0x21
 2279 01a6 34       		.uleb128 0x34
 2280 01a7 00       		.byte	0
ARM GAS  /tmp/ccxrFU1V.s 			page 41


 2281 01a8 03       		.uleb128 0x3
 2282 01a9 0E       		.uleb128 0xe
 2283 01aa 3A       		.uleb128 0x3a
 2284 01ab 0B       		.uleb128 0xb
 2285 01ac 3B       		.uleb128 0x3b
 2286 01ad 0B       		.uleb128 0xb
 2287 01ae 49       		.uleb128 0x49
 2288 01af 13       		.uleb128 0x13
 2289 01b0 02       		.uleb128 0x2
 2290 01b1 17       		.uleb128 0x17
 2291 01b2 00       		.byte	0
 2292 01b3 00       		.byte	0
 2293 01b4 22       		.uleb128 0x22
 2294 01b5 1D       		.uleb128 0x1d
 2295 01b6 01       		.byte	0x1
 2296 01b7 31       		.uleb128 0x31
 2297 01b8 13       		.uleb128 0x13
 2298 01b9 11       		.uleb128 0x11
 2299 01ba 01       		.uleb128 0x1
 2300 01bb 12       		.uleb128 0x12
 2301 01bc 06       		.uleb128 0x6
 2302 01bd 58       		.uleb128 0x58
 2303 01be 0B       		.uleb128 0xb
 2304 01bf 59       		.uleb128 0x59
 2305 01c0 0B       		.uleb128 0xb
 2306 01c1 01       		.uleb128 0x1
 2307 01c2 13       		.uleb128 0x13
 2308 01c3 00       		.byte	0
 2309 01c4 00       		.byte	0
 2310 01c5 23       		.uleb128 0x23
 2311 01c6 0B       		.uleb128 0xb
 2312 01c7 01       		.byte	0x1
 2313 01c8 11       		.uleb128 0x11
 2314 01c9 01       		.uleb128 0x1
 2315 01ca 12       		.uleb128 0x12
 2316 01cb 06       		.uleb128 0x6
 2317 01cc 00       		.byte	0
 2318 01cd 00       		.byte	0
 2319 01ce 24       		.uleb128 0x24
 2320 01cf 34       		.uleb128 0x34
 2321 01d0 00       		.byte	0
 2322 01d1 31       		.uleb128 0x31
 2323 01d2 13       		.uleb128 0x13
 2324 01d3 00       		.byte	0
 2325 01d4 00       		.byte	0
 2326 01d5 25       		.uleb128 0x25
 2327 01d6 05       		.uleb128 0x5
 2328 01d7 00       		.byte	0
 2329 01d8 31       		.uleb128 0x31
 2330 01d9 13       		.uleb128 0x13
 2331 01da 02       		.uleb128 0x2
 2332 01db 17       		.uleb128 0x17
 2333 01dc 00       		.byte	0
 2334 01dd 00       		.byte	0
 2335 01de 26       		.uleb128 0x26
 2336 01df 1D       		.uleb128 0x1d
 2337 01e0 01       		.byte	0x1
ARM GAS  /tmp/ccxrFU1V.s 			page 42


 2338 01e1 31       		.uleb128 0x31
 2339 01e2 13       		.uleb128 0x13
 2340 01e3 11       		.uleb128 0x11
 2341 01e4 01       		.uleb128 0x1
 2342 01e5 12       		.uleb128 0x12
 2343 01e6 06       		.uleb128 0x6
 2344 01e7 58       		.uleb128 0x58
 2345 01e8 0B       		.uleb128 0xb
 2346 01e9 59       		.uleb128 0x59
 2347 01ea 0B       		.uleb128 0xb
 2348 01eb 00       		.byte	0
 2349 01ec 00       		.byte	0
 2350 01ed 27       		.uleb128 0x27
 2351 01ee 1D       		.uleb128 0x1d
 2352 01ef 01       		.byte	0x1
 2353 01f0 31       		.uleb128 0x31
 2354 01f1 13       		.uleb128 0x13
 2355 01f2 11       		.uleb128 0x11
 2356 01f3 01       		.uleb128 0x1
 2357 01f4 12       		.uleb128 0x12
 2358 01f5 06       		.uleb128 0x6
 2359 01f6 58       		.uleb128 0x58
 2360 01f7 0B       		.uleb128 0xb
 2361 01f8 59       		.uleb128 0x59
 2362 01f9 05       		.uleb128 0x5
 2363 01fa 00       		.byte	0
 2364 01fb 00       		.byte	0
 2365 01fc 28       		.uleb128 0x28
 2366 01fd 0B       		.uleb128 0xb
 2367 01fe 01       		.byte	0x1
 2368 01ff 11       		.uleb128 0x11
 2369 0200 01       		.uleb128 0x1
 2370 0201 12       		.uleb128 0x12
 2371 0202 06       		.uleb128 0x6
 2372 0203 01       		.uleb128 0x1
 2373 0204 13       		.uleb128 0x13
 2374 0205 00       		.byte	0
 2375 0206 00       		.byte	0
 2376 0207 29       		.uleb128 0x29
 2377 0208 898201   		.uleb128 0x4109
 2378 020b 00       		.byte	0
 2379 020c 11       		.uleb128 0x11
 2380 020d 01       		.uleb128 0x1
 2381 020e 31       		.uleb128 0x31
 2382 020f 13       		.uleb128 0x13
 2383 0210 00       		.byte	0
 2384 0211 00       		.byte	0
 2385 0212 2A       		.uleb128 0x2a
 2386 0213 34       		.uleb128 0x34
 2387 0214 00       		.byte	0
 2388 0215 03       		.uleb128 0x3
 2389 0216 0E       		.uleb128 0xe
 2390 0217 3A       		.uleb128 0x3a
 2391 0218 0B       		.uleb128 0xb
 2392 0219 3B       		.uleb128 0x3b
 2393 021a 05       		.uleb128 0x5
 2394 021b 49       		.uleb128 0x49
ARM GAS  /tmp/ccxrFU1V.s 			page 43


 2395 021c 13       		.uleb128 0x13
 2396 021d 3F       		.uleb128 0x3f
 2397 021e 19       		.uleb128 0x19
 2398 021f 3C       		.uleb128 0x3c
 2399 0220 19       		.uleb128 0x19
 2400 0221 00       		.byte	0
 2401 0222 00       		.byte	0
 2402 0223 2B       		.uleb128 0x2b
 2403 0224 34       		.uleb128 0x34
 2404 0225 00       		.byte	0
 2405 0226 03       		.uleb128 0x3
 2406 0227 08       		.uleb128 0x8
 2407 0228 3A       		.uleb128 0x3a
 2408 0229 0B       		.uleb128 0xb
 2409 022a 3B       		.uleb128 0x3b
 2410 022b 05       		.uleb128 0x5
 2411 022c 49       		.uleb128 0x49
 2412 022d 13       		.uleb128 0x13
 2413 022e 3F       		.uleb128 0x3f
 2414 022f 19       		.uleb128 0x19
 2415 0230 3C       		.uleb128 0x3c
 2416 0231 19       		.uleb128 0x19
 2417 0232 00       		.byte	0
 2418 0233 00       		.byte	0
 2419 0234 2C       		.uleb128 0x2c
 2420 0235 2E       		.uleb128 0x2e
 2421 0236 00       		.byte	0
 2422 0237 3F       		.uleb128 0x3f
 2423 0238 19       		.uleb128 0x19
 2424 0239 3C       		.uleb128 0x3c
 2425 023a 19       		.uleb128 0x19
 2426 023b 6E       		.uleb128 0x6e
 2427 023c 0E       		.uleb128 0xe
 2428 023d 03       		.uleb128 0x3
 2429 023e 0E       		.uleb128 0xe
 2430 023f 3A       		.uleb128 0x3a
 2431 0240 0B       		.uleb128 0xb
 2432 0241 3B       		.uleb128 0x3b
 2433 0242 05       		.uleb128 0x5
 2434 0243 00       		.byte	0
 2435 0244 00       		.byte	0
 2436 0245 00       		.byte	0
 2437              		.section	.debug_loc,"",%progbits
 2438              	.Ldebug_loc0:
 2439              	.LLST0:
 2440 0000 0E000000 		.4byte	.LVL0
 2441 0004 10000000 		.4byte	.LVL1
 2442 0008 0400     		.2byte	0x4
 2443 000a 73       		.byte	0x73
 2444 000b E800     		.sleb128 104
 2445 000d 9F       		.byte	0x9f
 2446 000e 10000000 		.4byte	.LVL1
 2447 0012 16000000 		.4byte	.LVL3
 2448 0016 0100     		.2byte	0x1
 2449 0018 53       		.byte	0x53
 2450 0019 00000000 		.4byte	0
 2451 001d 00000000 		.4byte	0
ARM GAS  /tmp/ccxrFU1V.s 			page 44


 2452              	.LLST1:
 2453 0021 0E000000 		.4byte	.LVL0
 2454 0025 10000000 		.4byte	.LVL1
 2455 0029 0400     		.2byte	0x4
 2456 002b 73       		.byte	0x73
 2457 002c E800     		.sleb128 104
 2458 002e 9F       		.byte	0x9f
 2459 002f 10000000 		.4byte	.LVL1
 2460 0033 14000000 		.4byte	.LVL2
 2461 0037 0100     		.2byte	0x1
 2462 0039 53       		.byte	0x53
 2463 003a 00000000 		.4byte	0
 2464 003e 00000000 		.4byte	0
 2465              	.LLST2:
 2466 0042 14000000 		.4byte	.LVL2
 2467 0046 1A000000 		.4byte	.LVL4
 2468 004a 0200     		.2byte	0x2
 2469 004c 30       		.byte	0x30
 2470 004d 9F       		.byte	0x9f
 2471 004e 00000000 		.4byte	0
 2472 0052 00000000 		.4byte	0
 2473              	.LLST3:
 2474 0056 00000000 		.4byte	.LVL5
 2475 005a 08000000 		.4byte	.LVL6
 2476 005e 0300     		.2byte	0x3
 2477 0060 08       		.byte	0x8
 2478 0061 20       		.byte	0x20
 2479 0062 9F       		.byte	0x9f
 2480 0063 00000000 		.4byte	0
 2481 0067 00000000 		.4byte	0
 2482              	.LLST4:
 2483 006b 1A000000 		.4byte	.LVL7
 2484 006f 2E000000 		.4byte	.LVL9
 2485 0073 0400     		.2byte	0x4
 2486 0075 74       		.byte	0x74
 2487 0076 987F     		.sleb128 -104
 2488 0078 9F       		.byte	0x9f
 2489 0079 2E000000 		.4byte	.LVL9
 2490 007d 35000000 		.4byte	.LVL11-1
 2491 0081 0100     		.2byte	0x1
 2492 0083 53       		.byte	0x53
 2493 0084 35000000 		.4byte	.LVL11-1
 2494 0088 44000000 		.4byte	.LVL12
 2495 008c 0400     		.2byte	0x4
 2496 008e 74       		.byte	0x74
 2497 008f 987F     		.sleb128 -104
 2498 0091 9F       		.byte	0x9f
 2499 0092 00000000 		.4byte	0
 2500 0096 00000000 		.4byte	0
 2501              	.LLST5:
 2502 009a 2A000000 		.4byte	.LVL8
 2503 009e 2E000000 		.4byte	.LVL9
 2504 00a2 0400     		.2byte	0x4
 2505 00a4 74       		.byte	0x74
 2506 00a5 987F     		.sleb128 -104
 2507 00a7 9F       		.byte	0x9f
 2508 00a8 2E000000 		.4byte	.LVL9
ARM GAS  /tmp/ccxrFU1V.s 			page 45


 2509 00ac 32000000 		.4byte	.LVL10
 2510 00b0 0100     		.2byte	0x1
 2511 00b2 53       		.byte	0x53
 2512 00b3 00000000 		.4byte	0
 2513 00b7 00000000 		.4byte	0
 2514              	.LLST6:
 2515 00bb 44000000 		.4byte	.LVL12
 2516 00bf 48000000 		.4byte	.LVL13
 2517 00c3 0200     		.2byte	0x2
 2518 00c5 30       		.byte	0x30
 2519 00c6 9F       		.byte	0x9f
 2520 00c7 00000000 		.4byte	0
 2521 00cb 00000000 		.4byte	0
 2522              		.section	.debug_aranges,"",%progbits
 2523 0000 24000000 		.4byte	0x24
 2524 0004 0200     		.2byte	0x2
 2525 0006 00000000 		.4byte	.Ldebug_info0
 2526 000a 04       		.byte	0x4
 2527 000b 00       		.byte	0
 2528 000c 0000     		.2byte	0
 2529 000e 0000     		.2byte	0
 2530 0010 00000000 		.4byte	.LFB290
 2531 0014 20000000 		.4byte	.LFE290-.LFB290
 2532 0018 00000000 		.4byte	.LFB291
 2533 001c 5C000000 		.4byte	.LFE291-.LFB291
 2534 0020 00000000 		.4byte	0
 2535 0024 00000000 		.4byte	0
 2536              		.section	.debug_ranges,"",%progbits
 2537              	.Ldebug_ranges0:
 2538 0000 00000000 		.4byte	.LFB290
 2539 0004 20000000 		.4byte	.LFE290
 2540 0008 00000000 		.4byte	.LFB291
 2541 000c 5C000000 		.4byte	.LFE291
 2542 0010 00000000 		.4byte	0
 2543 0014 00000000 		.4byte	0
 2544              		.section	.debug_line,"",%progbits
 2545              	.Ldebug_line0:
 2546 0000 3E020000 		.section	.debug_str,"MS",%progbits,1
 2546      0200DA01 
 2546      00000201 
 2546      FB0E0D00 
 2546      01010101 
 2547              	.LASF53:
 2548 0000 72656164 		.ascii	"ready_list_t\000"
 2548      795F6C69 
 2548      73745F74 
 2548      00
 2549              	.LASF122:
 2550 000d 77747472 		.ascii	"wttrp\000"
 2550      7000
 2551              	.LASF59:
 2552 0013 64656C74 		.ascii	"delta\000"
 2552      6100
 2553              	.LASF119:
 2554 0019 7264796D 		.ascii	"rdymsg\000"
 2554      736700
 2555              	.LASF94:
ARM GAS  /tmp/ccxrFU1V.s 			page 46


 2556 0020 46504453 		.ascii	"FPDSCR\000"
 2556      435200
 2557              	.LASF17:
 2558 0027 75696E74 		.ascii	"uint64_t\000"
 2558      36345F74 
 2558      00
 2559              	.LASF72:
 2560 0030 6B65726E 		.ascii	"kernel_stats\000"
 2560      656C5F73 
 2560      74617473 
 2560      00
 2561              	.LASF3:
 2562 003d 7369676E 		.ascii	"signed char\000"
 2562      65642063 
 2562      68617200 
 2563              	.LASF7:
 2564 0049 5F5F7569 		.ascii	"__uint8_t\000"
 2564      6E74385F 
 2564      7400
 2565              	.LASF52:
 2566 0053 70726576 		.ascii	"prev\000"
 2566      00
 2567              	.LASF101:
 2568 0058 706F7274 		.ascii	"port_intctx\000"
 2568      5F696E74 
 2568      63747800 
 2569              	.LASF51:
 2570 0064 63685F74 		.ascii	"ch_threads_queue\000"
 2570      68726561 
 2570      64735F71 
 2570      75657565 
 2570      00
 2571              	.LASF64:
 2572 0075 73797374 		.ascii	"system_debug_t\000"
 2572      656D5F64 
 2572      65627567 
 2572      5F7400
 2573              	.LASF46:
 2574 0084 74687265 		.ascii	"threads_list_t\000"
 2574      6164735F 
 2574      6C697374 
 2574      5F7400
 2575              	.LASF148:
 2576 0093 474E5520 		.ascii	"GNU C11 5.4.1 20160919 -mcpu=cortex-m4 -mfloat-abi="
 2576      43313120 
 2576      352E342E 
 2576      31203230 
 2576      31363039 
 2577 00c6 68617264 		.ascii	"hard -mfpu=fpv4-sp-d16 -mno-thumb-interwork -mthumb"
 2577      202D6D66 
 2577      70753D66 
 2577      7076342D 
 2577      73702D64 
 2578 00f9 202D6720 		.ascii	" -g -Os -fomit-frame-pointer -falign-functions=16 -"
 2578      2D4F7320 
 2578      2D666F6D 
 2578      69742D66 
ARM GAS  /tmp/ccxrFU1V.s 			page 47


 2578      72616D65 
 2579 012c 6666756E 		.ascii	"ffunction-sections -fdata-sections -fno-common -fsi"
 2579      6374696F 
 2579      6E2D7365 
 2579      6374696F 
 2579      6E73202D 
 2580 015f 6E676C65 		.ascii	"ngle-precision-constant\000"
 2580      2D707265 
 2580      63697369 
 2580      6F6E2D63 
 2580      6F6E7374 
 2581              	.LASF133:
 2582 0177 706F7274 		.ascii	"port_lock\000"
 2582      5F6C6F63 
 2582      6B00
 2583              	.LASF110:
 2584 0181 776F7273 		.ascii	"worst\000"
 2584      7400
 2585              	.LASF113:
 2586 0187 74696D65 		.ascii	"time_measurement_t\000"
 2586      5F6D6561 
 2586      73757265 
 2586      6D656E74 
 2586      5F7400
 2587              	.LASF120:
 2588 019a 65786974 		.ascii	"exitcode\000"
 2588      636F6465 
 2588      00
 2589              	.LASF71:
 2590 01a3 6D61696E 		.ascii	"mainthread\000"
 2590      74687265 
 2590      616400
 2591              	.LASF123:
 2592 01ae 73656E74 		.ascii	"sentmsg\000"
 2592      6D736700 
 2593              	.LASF61:
 2594 01b6 76697274 		.ascii	"virtual_timers_list_t\000"
 2594      75616C5F 
 2594      74696D65 
 2594      72735F6C 
 2594      6973745F 
 2595              	.LASF76:
 2596 01cc 43505549 		.ascii	"CPUID\000"
 2596      4400
 2597              	.LASF49:
 2598 01d2 6E657874 		.ascii	"next\000"
 2598      00
 2599              	.LASF19:
 2600 01d7 72747469 		.ascii	"rttime_t\000"
 2600      6D655F74 
 2600      00
 2601              	.LASF13:
 2602 01e0 6C6F6E67 		.ascii	"long long unsigned int\000"
 2602      206C6F6E 
 2602      6720756E 
 2602      7369676E 
 2602      65642069 
ARM GAS  /tmp/ccxrFU1V.s 			page 48


 2603              	.LASF88:
 2604 01f7 49534152 		.ascii	"ISAR\000"
 2604      00
 2605              	.LASF137:
 2606 01fc 62617365 		.ascii	"basePri\000"
 2606      50726900 
 2607              	.LASF70:
 2608 0204 76746C69 		.ascii	"vtlist\000"
 2608      737400
 2609              	.LASF134:
 2610 020b 706F7274 		.ascii	"port_unlock\000"
 2610      5F756E6C 
 2610      6F636B00 
 2611              	.LASF39:
 2612 0217 6D736771 		.ascii	"msgqueue\000"
 2612      75657565 
 2612      00
 2613              	.LASF35:
 2614 0220 73746174 		.ascii	"state\000"
 2614      6500
 2615              	.LASF9:
 2616 0226 6C6F6E67 		.ascii	"long int\000"
 2616      20696E74 
 2616      00
 2617              	.LASF21:
 2618 022f 74737461 		.ascii	"tstate_t\000"
 2618      74655F74 
 2618      00
 2619              	.LASF60:
 2620 0238 66756E63 		.ascii	"func\000"
 2620      00
 2621              	.LASF44:
 2622 023d 73746174 		.ascii	"stats\000"
 2622      7300
 2623              	.LASF151:
 2624 0243 63685363 		.ascii	"chSchIsPreemptionRequired\000"
 2624      68497350 
 2624      7265656D 
 2624      7074696F 
 2624      6E526571 
 2625              	.LASF10:
 2626 025d 5F5F7569 		.ascii	"__uint32_t\000"
 2626      6E743332 
 2626      5F7400
 2627              	.LASF98:
 2628 0268 72656761 		.ascii	"regarm_t\000"
 2628      726D5F74 
 2628      00
 2629              	.LASF91:
 2630 0271 5343425F 		.ascii	"SCB_Type\000"
 2630      54797065 
 2630      00
 2631              	.LASF65:
 2632 027a 63685F73 		.ascii	"ch_system_debug\000"
 2632      79737465 
 2632      6D5F6465 
 2632      62756700 
ARM GAS  /tmp/ccxrFU1V.s 			page 49


 2633              	.LASF38:
 2634 028a 77616974 		.ascii	"waiting\000"
 2634      696E6700 
 2635              	.LASF1:
 2636 0292 6C6F6E67 		.ascii	"long long int\000"
 2636      206C6F6E 
 2636      6720696E 
 2636      7400
 2637              	.LASF74:
 2638 02a0 73797369 		.ascii	"sysinterval_t\000"
 2638      6E746572 
 2638      76616C5F 
 2638      7400
 2639              	.LASF26:
 2640 02ae 636E745F 		.ascii	"cnt_t\000"
 2640      7400
 2641              	.LASF97:
 2642 02b4 4650555F 		.ascii	"FPU_Type\000"
 2642      54797065 
 2642      00
 2643              	.LASF0:
 2644 02bd 756E7369 		.ascii	"unsigned int\000"
 2644      676E6564 
 2644      20696E74 
 2644      00
 2645              	.LASF136:
 2646 02ca 5F5F7365 		.ascii	"__set_PSP\000"
 2646      745F5053 
 2646      5000
 2647              	.LASF124:
 2648 02d4 77747365 		.ascii	"wtsemp\000"
 2648      6D7000
 2649              	.LASF114:
 2650 02db 6E5F6972 		.ascii	"n_irq\000"
 2650      7100
 2651              	.LASF78:
 2652 02e1 56544F52 		.ascii	"VTOR\000"
 2652      00
 2653              	.LASF43:
 2654 02e6 6D706F6F 		.ascii	"mpool\000"
 2654      6C00
 2655              	.LASF106:
 2656 02ec 72657365 		.ascii	"reserved\000"
 2656      72766564 
 2656      00
 2657              	.LASF118:
 2658 02f5 6B65726E 		.ascii	"kernel_stats_t\000"
 2658      656C5F73 
 2658      74617473 
 2658      5F7400
 2659              	.LASF33:
 2660 0304 6E616D65 		.ascii	"name\000"
 2660      00
 2661              	.LASF47:
 2662 0309 63685F74 		.ascii	"ch_thread\000"
 2662      68726561 
 2662      6400
ARM GAS  /tmp/ccxrFU1V.s 			page 50


 2663              	.LASF85:
 2664 0313 42464152 		.ascii	"BFAR\000"
 2664      00
 2665              	.LASF77:
 2666 0318 49435352 		.ascii	"ICSR\000"
 2666      00
 2667              	.LASF24:
 2668 031d 6D73675F 		.ascii	"msg_t\000"
 2668      7400
 2669              	.LASF79:
 2670 0323 41495243 		.ascii	"AIRCR\000"
 2670      5200
 2671              	.LASF83:
 2672 0329 44465352 		.ascii	"DFSR\000"
 2672      00
 2673              	.LASF27:
 2674 032e 75636E74 		.ascii	"ucnt_t\000"
 2674      5F7400
 2675              	.LASF40:
 2676 0335 6570656E 		.ascii	"epending\000"
 2676      64696E67 
 2676      00
 2677              	.LASF84:
 2678 033e 4D4D4641 		.ascii	"MMFAR\000"
 2678      5200
 2679              	.LASF145:
 2680 0344 5F706F72 		.ascii	"_port_irq_epilogue\000"
 2680      745F6972 
 2680      715F6570 
 2680      696C6F67 
 2680      756500
 2681              	.LASF20:
 2682 0357 746D6F64 		.ascii	"tmode_t\000"
 2682      655F7400 
 2683              	.LASF117:
 2684 035f 6D5F6372 		.ascii	"m_crit_isr\000"
 2684      69745F69 
 2684      737200
 2685              	.LASF54:
 2686 036a 63685F72 		.ascii	"ch_ready_list\000"
 2686      65616479 
 2686      5F6C6973 
 2686      7400
 2687              	.LASF25:
 2688 0378 6576656E 		.ascii	"eventmask_t\000"
 2688      746D6173 
 2688      6B5F7400 
 2689              	.LASF138:
 2690 0384 746F704F 		.ascii	"topOfProcStack\000"
 2690      6650726F 
 2690      63537461 
 2690      636B00
 2691              	.LASF8:
 2692 0393 5F5F696E 		.ascii	"__int32_t\000"
 2692      7433325F 
 2692      7400
 2693              	.LASF99:
ARM GAS  /tmp/ccxrFU1V.s 			page 51


 2694 039d 73746B61 		.ascii	"stkalign_t\000"
 2694      6C69676E 
 2694      5F7400
 2695              	.LASF31:
 2696 03a8 6E657765 		.ascii	"newer\000"
 2696      7200
 2697              	.LASF42:
 2698 03ae 7265616C 		.ascii	"realprio\000"
 2698      7072696F 
 2698      00
 2699              	.LASF92:
 2700 03b7 46504343 		.ascii	"FPCCR\000"
 2700      5200
 2701              	.LASF75:
 2702 03bd 73697A65 		.ascii	"sizetype\000"
 2702      74797065 
 2702      00
 2703              	.LASF45:
 2704 03c6 74687265 		.ascii	"thread_reference_t\000"
 2704      61645F72 
 2704      65666572 
 2704      656E6365 
 2704      5F7400
 2705              	.LASF62:
 2706 03d9 63685F76 		.ascii	"ch_virtual_timers_list\000"
 2706      69727475 
 2706      616C5F74 
 2706      696D6572 
 2706      735F6C69 
 2707              	.LASF2:
 2708 03f0 6C6F6E67 		.ascii	"long double\000"
 2708      20646F75 
 2708      626C6500 
 2709              	.LASF29:
 2710 03fc 71756575 		.ascii	"queue\000"
 2710      6500
 2711              	.LASF81:
 2712 0402 43465352 		.ascii	"CFSR\000"
 2712      00
 2713              	.LASF100:
 2714 0407 706F7274 		.ascii	"port_context\000"
 2714      5F636F6E 
 2714      74657874 
 2714      00
 2715              	.LASF102:
 2716 0414 706F7274 		.ascii	"port_extctx\000"
 2716      5F657874 
 2716      63747800 
 2717              	.LASF108:
 2718 0420 746D5F63 		.ascii	"tm_calibration_t\000"
 2718      616C6962 
 2718      72617469 
 2718      6F6E5F74 
 2718      00
 2719              	.LASF30:
 2720 0431 7072696F 		.ascii	"prio\000"
 2720      00
ARM GAS  /tmp/ccxrFU1V.s 			page 52


 2721              	.LASF55:
 2722 0436 63757272 		.ascii	"current\000"
 2722      656E7400 
 2723              	.LASF111:
 2724 043e 6C617374 		.ascii	"last\000"
 2724      00
 2725              	.LASF12:
 2726 0443 5F5F7569 		.ascii	"__uint64_t\000"
 2726      6E743634 
 2726      5F7400
 2727              	.LASF112:
 2728 044e 63756D75 		.ascii	"cumulative\000"
 2728      6C617469 
 2728      766500
 2729              	.LASF95:
 2730 0459 4D564652 		.ascii	"MVFR0\000"
 2730      3000
 2731              	.LASF96:
 2732 045f 4D564652 		.ascii	"MVFR1\000"
 2732      3100
 2733              	.LASF22:
 2734 0465 74726566 		.ascii	"trefs_t\000"
 2734      735F7400 
 2735              	.LASF89:
 2736 046d 52455345 		.ascii	"RESERVED0\000"
 2736      52564544 
 2736      3000
 2737              	.LASF146:
 2738 0477 63747870 		.ascii	"ctxp\000"
 2738      00
 2739              	.LASF57:
 2740 047c 76697274 		.ascii	"virtual_timer_t\000"
 2740      75616C5F 
 2740      74696D65 
 2740      725F7400 
 2741              	.LASF23:
 2742 048c 74707269 		.ascii	"tprio_t\000"
 2742      6F5F7400 
 2743              	.LASF141:
 2744 0494 5F5F6765 		.ascii	"__get_FPSCR\000"
 2744      745F4650 
 2744      53435200 
 2745              	.LASF115:
 2746 04a0 6E5F6374 		.ascii	"n_ctxswc\000"
 2746      78737763 
 2746      00
 2747              	.LASF132:
 2748 04a9 5F426F6F 		.ascii	"_Bool\000"
 2748      6C00
 2749              	.LASF15:
 2750 04af 696E7433 		.ascii	"int32_t\000"
 2750      325F7400 
 2751              	.LASF4:
 2752 04b7 756E7369 		.ascii	"unsigned char\000"
 2752      676E6564 
 2752      20636861 
 2752      7200
ARM GAS  /tmp/ccxrFU1V.s 			page 53


 2753              	.LASF80:
 2754 04c5 53484353 		.ascii	"SHCSR\000"
 2754      5200
 2755              	.LASF147:
 2756 04cb 49544D5F 		.ascii	"ITM_RxBuffer\000"
 2756      52784275 
 2756      66666572 
 2756      00
 2757              	.LASF37:
 2758 04d8 72656673 		.ascii	"refs\000"
 2758      00
 2759              	.LASF5:
 2760 04dd 73686F72 		.ascii	"short int\000"
 2760      7420696E 
 2760      7400
 2761              	.LASF63:
 2762 04e7 6C617374 		.ascii	"lasttime\000"
 2762      74696D65 
 2762      00
 2763              	.LASF104:
 2764 04f0 78707372 		.ascii	"xpsr\000"
 2764      00
 2765              	.LASF126:
 2766 04f5 65776D61 		.ascii	"ewmask\000"
 2766      736B00
 2767              	.LASF68:
 2768 04fc 63685F73 		.ascii	"ch_system\000"
 2768      79737465 
 2768      6D00
 2769              	.LASF105:
 2770 0506 66707363 		.ascii	"fpscr\000"
 2770      7200
 2771              	.LASF103:
 2772 050c 6C725F74 		.ascii	"lr_thd\000"
 2772      686400
 2773              	.LASF93:
 2774 0513 46504341 		.ascii	"FPCAR\000"
 2774      5200
 2775              	.LASF144:
 2776 0519 5356435F 		.ascii	"SVC_Handler\000"
 2776      48616E64 
 2776      6C657200 
 2777              	.LASF58:
 2778 0525 63685F76 		.ascii	"ch_virtual_timer\000"
 2778      69727475 
 2778      616C5F74 
 2778      696D6572 
 2778      00
 2779              	.LASF127:
 2780 0536 63685F73 		.ascii	"ch_semaphore\000"
 2780      656D6170 
 2780      686F7265 
 2780      00
 2781              	.LASF150:
 2782 0543 2F686F6D 		.ascii	"/home/user/csse4011/project/4011-surfbee/ardupilot/"
 2782      652F7573 
 2782      65722F63 
ARM GAS  /tmp/ccxrFU1V.s 			page 54


 2782      73736534 
 2782      3031312F 
 2783 0576 6275696C 		.ascii	"build/stm32l475\000"
 2783      642F7374 
 2783      6D33326C 
 2783      34373500 
 2784              	.LASF125:
 2785 0586 77746D74 		.ascii	"wtmtxp\000"
 2785      787000
 2786              	.LASF86:
 2787 058d 41465352 		.ascii	"AFSR\000"
 2787      00
 2788              	.LASF48:
 2789 0592 63685F74 		.ascii	"ch_threads_list\000"
 2789      68726561 
 2789      64735F6C 
 2789      69737400 
 2790              	.LASF129:
 2791 05a2 6F776E65 		.ascii	"owner\000"
 2791      7200
 2792              	.LASF11:
 2793 05a8 6C6F6E67 		.ascii	"long unsigned int\000"
 2793      20756E73 
 2793      69676E65 
 2793      6420696E 
 2793      7400
 2794              	.LASF34:
 2795 05ba 77616261 		.ascii	"wabase\000"
 2795      736500
 2796              	.LASF130:
 2797 05c1 63686172 		.ascii	"char\000"
 2797      00
 2798              	.LASF32:
 2799 05c6 6F6C6465 		.ascii	"older\000"
 2799      7200
 2800              	.LASF139:
 2801 05cc 706F7274 		.ascii	"port_unlock_from_isr\000"
 2801      5F756E6C 
 2801      6F636B5F 
 2801      66726F6D 
 2801      5F697372 
 2802              	.LASF28:
 2803 05e1 74687265 		.ascii	"thread_t\000"
 2803      61645F74 
 2803      00
 2804              	.LASF109:
 2805 05ea 62657374 		.ascii	"best\000"
 2805      00
 2806              	.LASF73:
 2807 05ef 73797374 		.ascii	"systime_t\000"
 2807      696D655F 
 2807      7400
 2808              	.LASF56:
 2809 05f9 76746675 		.ascii	"vtfunc_t\000"
 2809      6E635F74 
 2809      00
 2810              	.LASF135:
ARM GAS  /tmp/ccxrFU1V.s 			page 55


 2811 0602 5F5F7365 		.ascii	"__set_BASEPRI\000"
 2811      745F4241 
 2811      53455052 
 2811      4900
 2812              	.LASF66:
 2813 0610 70616E69 		.ascii	"panic_msg\000"
 2813      635F6D73 
 2813      6700
 2814              	.LASF107:
 2815 061a 6F666673 		.ascii	"offset\000"
 2815      657400
 2816              	.LASF6:
 2817 0621 73686F72 		.ascii	"short unsigned int\000"
 2817      7420756E 
 2817      7369676E 
 2817      65642069 
 2817      6E7400
 2818              	.LASF67:
 2819 0634 63685F73 		.ascii	"ch_system_t\000"
 2819      79737465 
 2819      6D5F7400 
 2820              	.LASF18:
 2821 0640 7274636E 		.ascii	"rtcnt_t\000"
 2821      745F7400 
 2822              	.LASF143:
 2823 0648 706F7274 		.ascii	"port_lock_from_isr\000"
 2823      5F6C6F63 
 2823      6B5F6672 
 2823      6F6D5F69 
 2823      737200
 2824              	.LASF140:
 2825 065b 5F5F6765 		.ascii	"__get_PSP\000"
 2825      745F5053 
 2825      5000
 2826              	.LASF16:
 2827 0665 75696E74 		.ascii	"uint32_t\000"
 2827      33325F74 
 2827      00
 2828              	.LASF50:
 2829 066e 74687265 		.ascii	"threads_queue_t\000"
 2829      6164735F 
 2829      71756575 
 2829      655F7400 
 2830              	.LASF128:
 2831 067e 63685F6D 		.ascii	"ch_mutex\000"
 2831      75746578 
 2831      00
 2832              	.LASF87:
 2833 0687 4D4D4652 		.ascii	"MMFR\000"
 2833      00
 2834              	.LASF69:
 2835 068c 726C6973 		.ascii	"rlist\000"
 2835      7400
 2836              	.LASF149:
 2837 0692 2E2E2F2E 		.ascii	"../../modules/ChibiOS/os/common/ports/ARMCMx/chcore"
 2837      2E2F6D6F 
 2837      64756C65 
ARM GAS  /tmp/ccxrFU1V.s 			page 56


 2837      732F4368 
 2837      6962694F 
 2838 06c5 5F76376D 		.ascii	"_v7m.c\000"
 2838      2E6300
 2839              	.LASF14:
 2840 06cc 75696E74 		.ascii	"uint8_t\000"
 2840      385F7400 
 2841              	.LASF36:
 2842 06d4 666C6167 		.ascii	"flags\000"
 2842      7300
 2843              	.LASF121:
 2844 06da 77746F62 		.ascii	"wtobjp\000"
 2844      6A7000
 2845              	.LASF90:
 2846 06e1 43504143 		.ascii	"CPACR\000"
 2846      5200
 2847              	.LASF82:
 2848 06e7 48465352 		.ascii	"HFSR\000"
 2848      00
 2849              	.LASF41:
 2850 06ec 6D74786C 		.ascii	"mtxlist\000"
 2850      69737400 
 2851              	.LASF131:
 2852 06f4 6D757465 		.ascii	"mutex_t\000"
 2852      785F7400 
 2853              	.LASF116:
 2854 06fc 6D5F6372 		.ascii	"m_crit_thd\000"
 2854      69745F74 
 2854      686400
 2855              	.LASF142:
 2856 0707 72657375 		.ascii	"result\000"
 2856      6C7400
 2857              		.ident	"GCC: (15:5.4.1+svn241155-1) 5.4.1 20160919"
ARM GAS  /tmp/ccxrFU1V.s 			page 57


DEFINED SYMBOLS
                            *ABS*:0000000000000000 chcore_v7m.c
     /tmp/ccxrFU1V.s:22     .text.SVC_Handler:0000000000000000 $t
     /tmp/ccxrFU1V.s:27     .text.SVC_Handler:0000000000000000 SVC_Handler
     /tmp/ccxrFU1V.s:85     .text.SVC_Handler:000000000000001c $d
     /tmp/ccxrFU1V.s:94     .text._port_irq_epilogue:0000000000000000 $t
     /tmp/ccxrFU1V.s:99     .text._port_irq_epilogue:0000000000000000 _port_irq_epilogue
     /tmp/ccxrFU1V.s:210    .text._port_irq_epilogue:000000000000004c $d
                     .debug_frame:0000000000000010 $d

UNDEFINED SYMBOLS
chSchIsPreemptionRequired
_port_switch_from_isr
_port_exit_from_isr
