ARM GAS  /tmp/ccqKJp3m.s 			page 1


   1              		.syntax unified
   2              		.cpu cortex-m4
   3              		.eabi_attribute 27, 1
   4              		.eabi_attribute 28, 1
   5              		.fpu fpv4-sp-d16
   6              		.eabi_attribute 20, 1
   7              		.eabi_attribute 21, 1
   8              		.eabi_attribute 23, 3
   9              		.eabi_attribute 24, 1
  10              		.eabi_attribute 25, 1
  11              		.eabi_attribute 26, 1
  12              		.eabi_attribute 30, 4
  13              		.eabi_attribute 34, 1
  14              		.eabi_attribute 18, 4
  15              		.thumb
  16              		.syntax unified
  17              		.file	"chcond.c"
  18              		.text
  19              	.Ltext0:
  20              		.cfi_sections	.debug_frame
  21              		.section	.text.queue_prio_insert,"ax",%progbits
  22              		.align	1
  23              		.thumb
  24              		.thumb_func
  25              		.type	queue_prio_insert, %function
  26              	queue_prio_insert:
  27              	.LFB172:
  28              		.file 1 "../../modules/ChibiOS/os/rt/include/chschd.h"
  29              		.loc 1 586 0
  30              		.cfi_startproc
  31              		@ args = 0, pretend = 0, frame = 0
  32              		@ frame_needed = 0, uses_anonymous_args = 0
  33              	.LVL0:
  34 0000 10B5     		push	{r4, lr}
  35              		.cfi_def_cfa_offset 8
  36              		.cfi_offset 4, -8
  37              		.cfi_offset 14, -4
  38              		.loc 1 588 0
  39 0002 0B46     		mov	r3, r1
  40              	.LVL1:
  41              	.L3:
  42              		.loc 1 590 0 discriminator 2
  43 0004 1B68     		ldr	r3, [r3]
  44              	.LVL2:
  45              		.loc 1 591 0 discriminator 2
  46 0006 9942     		cmp	r1, r3
  47 0008 05D1     		bne	.L2
  48              	.L4:
  49              		.loc 1 593 0
  50 000a 5A68     		ldr	r2, [r3, #4]
  51              		.loc 1 592 0
  52 000c 0360     		str	r3, [r0]
  53              		.loc 1 593 0
  54 000e 4260     		str	r2, [r0, #4]
  55              		.loc 1 594 0
  56 0010 1060     		str	r0, [r2]
  57              		.loc 1 595 0
ARM GAS  /tmp/ccqKJp3m.s 			page 2


  58 0012 5860     		str	r0, [r3, #4]
  59              		.loc 1 596 0
  60 0014 10BD     		pop	{r4, pc}
  61              	.L2:
  62              		.loc 1 591 0 discriminator 1
  63 0016 9C68     		ldr	r4, [r3, #8]
  64 0018 8268     		ldr	r2, [r0, #8]
  65 001a 9442     		cmp	r4, r2
  66 001c F2D2     		bcs	.L3
  67 001e F4E7     		b	.L4
  68              		.cfi_endproc
  69              	.LFE172:
  70              		.size	queue_prio_insert, .-queue_prio_insert
  71              		.section	.text.chCondObjectInit,"ax",%progbits
  72              		.align	1
  73              		.global	chCondObjectInit
  74              		.thumb
  75              		.thumb_func
  76              		.type	chCondObjectInit, %function
  77              	chCondObjectInit:
  78              	.LFB290:
  79              		.file 2 "../../modules/ChibiOS/os/rt/src/chcond.c"
  80              		.loc 2 75 0
  81              		.cfi_startproc
  82              		@ args = 0, pretend = 0, frame = 0
  83              		@ frame_needed = 0, uses_anonymous_args = 0
  84              		@ link register save eliminated.
  85              	.LVL3:
  86              	.LBB39:
  87              	.LBB40:
  88              		.loc 1 539 0
  89 0000 0060     		str	r0, [r0]
  90              		.loc 1 540 0
  91 0002 4060     		str	r0, [r0, #4]
  92              	.LVL4:
  93 0004 7047     		bx	lr
  94              	.LBE40:
  95              	.LBE39:
  96              		.cfi_endproc
  97              	.LFE290:
  98              		.size	chCondObjectInit, .-chCondObjectInit
  99              		.section	.text.chCondSignal,"ax",%progbits
 100              		.align	1
 101              		.global	chCondSignal
 102              		.thumb
 103              		.thumb_func
 104              		.type	chCondSignal, %function
 105              	chCondSignal:
 106              	.LFB291:
 107              		.loc 2 89 0
 108              		.cfi_startproc
 109              		@ args = 0, pretend = 0, frame = 0
 110              		@ frame_needed = 0, uses_anonymous_args = 0
 111              	.LVL5:
 112 0000 10B5     		push	{r4, lr}
 113              		.cfi_def_cfa_offset 8
 114              		.cfi_offset 4, -8
ARM GAS  /tmp/ccqKJp3m.s 			page 3


 115              		.cfi_offset 14, -4
 116              	.LBB55:
 117              	.LBB56:
 118              	.LBB57:
 119              	.LBB58:
 120              	.LBB59:
 121              		.file 3 "../../modules/ChibiOS/os/common/ext/ARM/CMSIS/Core/Include/cmsis_gcc.h"
 122              		.loc 3 493 0
 123 0002 2023     		movs	r3, #32
 124              	.LBE59:
 125              	.LBE58:
 126              	.LBE57:
 127              	.LBE56:
 128              	.LBE55:
 129              		.loc 2 89 0
 130 0004 0446     		mov	r4, r0
 131              	.LBB64:
 132              	.LBB63:
 133              	.LBB62:
 134              	.LBB61:
 135              	.LBB60:
 136              		.loc 3 493 0
 137              		.syntax unified
 138              	@ 493 "../../modules/ChibiOS/os/common/ext/ARM/CMSIS/Core/Include/cmsis_gcc.h" 1
 139 0006 83F31188 		MSR basepri, r3
 140              	@ 0 "" 2
 141              	.LVL6:
 142              		.thumb
 143              		.syntax unified
 144              	.LBE60:
 145              	.LBE61:
 146              	.LBE62:
 147              		.file 4 "../../modules/ChibiOS/os/rt/include/chsys.h"
 148              		.loc 4 356 0
 149 000a FFF7FEFF 		bl	_stats_start_measure_crit_thd
 150              	.LVL7:
 151              	.LBE63:
 152              	.LBE64:
 153              	.LBB65:
 154              	.LBB66:
 155              		.loc 1 566 0
 156 000e 2068     		ldr	r0, [r4]
 157              	.LVL8:
 158              	.LBE66:
 159              	.LBE65:
 160              		.loc 2 94 0
 161 0010 8442     		cmp	r4, r0
 162 0012 05D0     		beq	.L10
 163              	.LVL9:
 164              	.LBB67:
 165              	.LBB68:
 166              		.loc 1 609 0
 167 0014 0368     		ldr	r3, [r0]
 168 0016 2360     		str	r3, [r4]
 169              	.LBE68:
 170              	.LBE67:
 171              		.loc 2 95 0
ARM GAS  /tmp/ccqKJp3m.s 			page 4


 172 0018 0021     		movs	r1, #0
 173              	.LBB70:
 174              	.LBB69:
 175              		.loc 1 610 0
 176 001a 5C60     		str	r4, [r3, #4]
 177              	.LVL10:
 178              	.LBE69:
 179              	.LBE70:
 180              		.loc 2 95 0
 181 001c FFF7FEFF 		bl	chSchWakeupS
 182              	.LVL11:
 183              	.L10:
 184              	.LBB71:
 185              	.LBB72:
 186              		.loc 4 368 0
 187 0020 FFF7FEFF 		bl	_stats_stop_measure_crit_thd
 188              	.LVL12:
 189              	.LBB73:
 190              	.LBB74:
 191              	.LBB75:
 192              		.loc 3 493 0
 193 0024 0023     		movs	r3, #0
 194              		.syntax unified
 195              	@ 493 "../../modules/ChibiOS/os/common/ext/ARM/CMSIS/Core/Include/cmsis_gcc.h" 1
 196 0026 83F31188 		MSR basepri, r3
 197              	@ 0 "" 2
 198              	.LVL13:
 199              		.thumb
 200              		.syntax unified
 201 002a 10BD     		pop	{r4, pc}
 202              	.LBE75:
 203              	.LBE74:
 204              	.LBE73:
 205              	.LBE72:
 206              	.LBE71:
 207              		.cfi_endproc
 208              	.LFE291:
 209              		.size	chCondSignal, .-chCondSignal
 210              		.section	.text.chCondSignalI,"ax",%progbits
 211              		.align	1
 212              		.global	chCondSignalI
 213              		.thumb
 214              		.thumb_func
 215              		.type	chCondSignalI, %function
 216              	chCondSignalI:
 217              	.LFB292:
 218              		.loc 2 111 0
 219              		.cfi_startproc
 220              		@ args = 0, pretend = 0, frame = 0
 221              		@ frame_needed = 0, uses_anonymous_args = 0
 222              		@ link register save eliminated.
 223              	.LVL14:
 224              	.LBB76:
 225              	.LBB77:
 226              		.loc 1 566 0
 227 0000 0368     		ldr	r3, [r0]
 228              	.LVL15:
ARM GAS  /tmp/ccqKJp3m.s 			page 5


 229              	.LBE77:
 230              	.LBE76:
 231              		.loc 2 116 0
 232 0002 9842     		cmp	r0, r3
 233 0004 07D0     		beq	.L11
 234              	.LVL16:
 235              	.LBB78:
 236              	.LBB79:
 237              	.LBB80:
 238              		.loc 1 609 0
 239 0006 1A68     		ldr	r2, [r3]
 240 0008 0260     		str	r2, [r0]
 241              		.loc 1 610 0
 242 000a 5060     		str	r0, [r2, #4]
 243              	.LVL17:
 244              	.LBE80:
 245              	.LBE79:
 246              		.loc 2 118 0
 247 000c 0022     		movs	r2, #0
 248 000e 5A62     		str	r2, [r3, #36]
 249              		.loc 2 119 0
 250 0010 1846     		mov	r0, r3
 251              	.LVL18:
 252 0012 FFF7FEBF 		b	chSchReadyI
 253              	.LVL19:
 254              	.L11:
 255 0016 7047     		bx	lr
 256              	.LBE78:
 257              		.cfi_endproc
 258              	.LFE292:
 259              		.size	chCondSignalI, .-chCondSignalI
 260              		.section	.text.chCondBroadcastI,"ax",%progbits
 261              		.align	1
 262              		.global	chCondBroadcastI
 263              		.thumb
 264              		.thumb_func
 265              		.type	chCondBroadcastI, %function
 266              	chCondBroadcastI:
 267              	.LFB294:
 268              		.loc 2 149 0
 269              		.cfi_startproc
 270              		@ args = 0, pretend = 0, frame = 0
 271              		@ frame_needed = 0, uses_anonymous_args = 0
 272              	.LVL20:
 273 0000 38B5     		push	{r3, r4, r5, lr}
 274              		.cfi_def_cfa_offset 16
 275              		.cfi_offset 3, -16
 276              		.cfi_offset 4, -12
 277              		.cfi_offset 5, -8
 278              		.cfi_offset 14, -4
 279              		.loc 2 149 0
 280 0002 0446     		mov	r4, r0
 281              		.loc 2 158 0
 282 0004 6FF00105 		mvn	r5, #1
 283              	.LVL21:
 284              	.L14:
 285              	.LBB81:
ARM GAS  /tmp/ccqKJp3m.s 			page 6


 286              	.LBB82:
 287              		.loc 1 566 0
 288 0008 2068     		ldr	r0, [r4]
 289              	.LVL22:
 290              	.LBE82:
 291              	.LBE81:
 292              		.loc 2 157 0
 293 000a 8442     		cmp	r4, r0
 294 000c 06D0     		beq	.L16
 295              	.LVL23:
 296              	.LBB83:
 297              	.LBB84:
 298              		.loc 1 609 0
 299 000e 0368     		ldr	r3, [r0]
 300 0010 2360     		str	r3, [r4]
 301              		.loc 1 610 0
 302 0012 5C60     		str	r4, [r3, #4]
 303              	.LVL24:
 304              	.LBE84:
 305              	.LBE83:
 306              		.loc 2 158 0
 307 0014 FFF7FEFF 		bl	chSchReadyI
 308              	.LVL25:
 309 0018 4562     		str	r5, [r0, #36]
 310 001a F5E7     		b	.L14
 311              	.L16:
 312              		.loc 2 160 0
 313 001c 38BD     		pop	{r3, r4, r5, pc}
 314              		.cfi_endproc
 315              	.LFE294:
 316              		.size	chCondBroadcastI, .-chCondBroadcastI
 317              		.section	.text.chCondBroadcast,"ax",%progbits
 318              		.align	1
 319              		.global	chCondBroadcast
 320              		.thumb
 321              		.thumb_func
 322              		.type	chCondBroadcast, %function
 323              	chCondBroadcast:
 324              	.LFB293:
 325              		.loc 2 130 0
 326              		.cfi_startproc
 327              		@ args = 0, pretend = 0, frame = 0
 328              		@ frame_needed = 0, uses_anonymous_args = 0
 329              	.LVL26:
 330 0000 10B5     		push	{r4, lr}
 331              		.cfi_def_cfa_offset 8
 332              		.cfi_offset 4, -8
 333              		.cfi_offset 14, -4
 334              	.LBB95:
 335              	.LBB96:
 336              	.LBB97:
 337              	.LBB98:
 338              	.LBB99:
 339              		.loc 3 493 0
 340 0002 2023     		movs	r3, #32
 341              	.LBE99:
 342              	.LBE98:
ARM GAS  /tmp/ccqKJp3m.s 			page 7


 343              	.LBE97:
 344              	.LBE96:
 345              	.LBE95:
 346              		.loc 2 130 0
 347 0004 0446     		mov	r4, r0
 348              	.LBB104:
 349              	.LBB103:
 350              	.LBB102:
 351              	.LBB101:
 352              	.LBB100:
 353              		.loc 3 493 0
 354              		.syntax unified
 355              	@ 493 "../../modules/ChibiOS/os/common/ext/ARM/CMSIS/Core/Include/cmsis_gcc.h" 1
 356 0006 83F31188 		MSR basepri, r3
 357              	@ 0 "" 2
 358              	.LVL27:
 359              		.thumb
 360              		.syntax unified
 361              	.LBE100:
 362              	.LBE101:
 363              	.LBE102:
 364              		.loc 4 356 0
 365 000a FFF7FEFF 		bl	_stats_start_measure_crit_thd
 366              	.LVL28:
 367              	.LBE103:
 368              	.LBE104:
 369              		.loc 2 133 0
 370 000e 2046     		mov	r0, r4
 371 0010 FFF7FEFF 		bl	chCondBroadcastI
 372              	.LVL29:
 373              		.loc 2 134 0
 374 0014 FFF7FEFF 		bl	chSchRescheduleS
 375              	.LVL30:
 376              	.LBB105:
 377              	.LBB106:
 378              		.loc 4 368 0
 379 0018 FFF7FEFF 		bl	_stats_stop_measure_crit_thd
 380              	.LVL31:
 381              	.LBB107:
 382              	.LBB108:
 383              	.LBB109:
 384              		.loc 3 493 0
 385 001c 0023     		movs	r3, #0
 386              		.syntax unified
 387              	@ 493 "../../modules/ChibiOS/os/common/ext/ARM/CMSIS/Core/Include/cmsis_gcc.h" 1
 388 001e 83F31188 		MSR basepri, r3
 389              	@ 0 "" 2
 390              	.LVL32:
 391              		.thumb
 392              		.syntax unified
 393 0022 10BD     		pop	{r4, pc}
 394              	.LBE109:
 395              	.LBE108:
 396              	.LBE107:
 397              	.LBE106:
 398              	.LBE105:
 399              		.cfi_endproc
ARM GAS  /tmp/ccqKJp3m.s 			page 8


 400              	.LFE293:
 401              		.size	chCondBroadcast, .-chCondBroadcast
 402              		.section	.text.chCondWaitS,"ax",%progbits
 403              		.align	1
 404              		.global	chCondWaitS
 405              		.thumb
 406              		.thumb_func
 407              		.type	chCondWaitS, %function
 408              	chCondWaitS:
 409              	.LFB296:
 410              		.loc 2 205 0
 411              		.cfi_startproc
 412              		@ args = 0, pretend = 0, frame = 0
 413              		@ frame_needed = 0, uses_anonymous_args = 0
 414              	.LVL33:
 415              		.loc 2 206 0
 416 0000 0A4B     		ldr	r3, .L19
 417              		.loc 2 205 0
 418 0002 70B5     		push	{r4, r5, r6, lr}
 419              		.cfi_def_cfa_offset 16
 420              		.cfi_offset 4, -16
 421              		.cfi_offset 5, -12
 422              		.cfi_offset 6, -8
 423              		.cfi_offset 14, -4
 424              		.loc 2 206 0
 425 0004 9C69     		ldr	r4, [r3, #24]
 426              	.LVL34:
 427              	.LBB110:
 428              	.LBB111:
 429              		.file 5 "../../modules/ChibiOS/os/rt/include/chmtx.h"
 430              		.loc 5 161 0
 431 0006 A56B     		ldr	r5, [r4, #56]
 432              	.LBE111:
 433              	.LBE110:
 434              		.loc 2 205 0
 435 0008 0646     		mov	r6, r0
 436              		.loc 2 215 0
 437 000a 2846     		mov	r0, r5
 438              	.LVL35:
 439 000c FFF7FEFF 		bl	chMtxUnlockS
 440              	.LVL36:
 441              		.loc 2 220 0
 442 0010 3146     		mov	r1, r6
 443              		.loc 2 219 0
 444 0012 6662     		str	r6, [r4, #36]
 445              		.loc 2 220 0
 446 0014 2046     		mov	r0, r4
 447 0016 FFF7FEFF 		bl	queue_prio_insert
 448              	.LVL37:
 449              		.loc 2 221 0
 450 001a 0720     		movs	r0, #7
 451 001c FFF7FEFF 		bl	chSchGoSleepS
 452              	.LVL38:
 453              		.loc 2 222 0
 454 0020 646A     		ldr	r4, [r4, #36]
 455              	.LVL39:
 456              		.loc 2 223 0
ARM GAS  /tmp/ccqKJp3m.s 			page 9


 457 0022 2846     		mov	r0, r5
 458 0024 FFF7FEFF 		bl	chMtxLockS
 459              	.LVL40:
 460              		.loc 2 226 0
 461 0028 2046     		mov	r0, r4
 462 002a 70BD     		pop	{r4, r5, r6, pc}
 463              	.LVL41:
 464              	.L20:
 465              		.align	2
 466              	.L19:
 467 002c 00000000 		.word	ch
 468              		.cfi_endproc
 469              	.LFE296:
 470              		.size	chCondWaitS, .-chCondWaitS
 471              		.section	.text.chCondWait,"ax",%progbits
 472              		.align	1
 473              		.global	chCondWait
 474              		.thumb
 475              		.thumb_func
 476              		.type	chCondWait, %function
 477              	chCondWait:
 478              	.LFB295:
 479              		.loc 2 179 0
 480              		.cfi_startproc
 481              		@ args = 0, pretend = 0, frame = 0
 482              		@ frame_needed = 0, uses_anonymous_args = 0
 483              	.LVL42:
 484 0000 10B5     		push	{r4, lr}
 485              		.cfi_def_cfa_offset 8
 486              		.cfi_offset 4, -8
 487              		.cfi_offset 14, -4
 488              	.LBB122:
 489              	.LBB123:
 490              	.LBB124:
 491              	.LBB125:
 492              	.LBB126:
 493              		.loc 3 493 0
 494 0002 2023     		movs	r3, #32
 495              	.LBE126:
 496              	.LBE125:
 497              	.LBE124:
 498              	.LBE123:
 499              	.LBE122:
 500              		.loc 2 179 0
 501 0004 0446     		mov	r4, r0
 502              	.LBB131:
 503              	.LBB130:
 504              	.LBB129:
 505              	.LBB128:
 506              	.LBB127:
 507              		.loc 3 493 0
 508              		.syntax unified
 509              	@ 493 "../../modules/ChibiOS/os/common/ext/ARM/CMSIS/Core/Include/cmsis_gcc.h" 1
 510 0006 83F31188 		MSR basepri, r3
 511              	@ 0 "" 2
 512              	.LVL43:
 513              		.thumb
ARM GAS  /tmp/ccqKJp3m.s 			page 10


 514              		.syntax unified
 515              	.LBE127:
 516              	.LBE128:
 517              	.LBE129:
 518              		.loc 4 356 0
 519 000a FFF7FEFF 		bl	_stats_start_measure_crit_thd
 520              	.LVL44:
 521              	.LBE130:
 522              	.LBE131:
 523              		.loc 2 183 0
 524 000e 2046     		mov	r0, r4
 525 0010 FFF7FEFF 		bl	chCondWaitS
 526              	.LVL45:
 527 0014 0446     		mov	r4, r0
 528              	.LVL46:
 529              	.LBB132:
 530              	.LBB133:
 531              		.loc 4 368 0
 532 0016 FFF7FEFF 		bl	_stats_stop_measure_crit_thd
 533              	.LVL47:
 534              	.LBB134:
 535              	.LBB135:
 536              	.LBB136:
 537              		.loc 3 493 0
 538 001a 0023     		movs	r3, #0
 539              		.syntax unified
 540              	@ 493 "../../modules/ChibiOS/os/common/ext/ARM/CMSIS/Core/Include/cmsis_gcc.h" 1
 541 001c 83F31188 		MSR basepri, r3
 542              	@ 0 "" 2
 543              	.LVL48:
 544              		.thumb
 545              		.syntax unified
 546              	.LBE136:
 547              	.LBE135:
 548              	.LBE134:
 549              	.LBE133:
 550              	.LBE132:
 551              		.loc 2 186 0
 552 0020 2046     		mov	r0, r4
 553 0022 10BD     		pop	{r4, pc}
 554              		.cfi_endproc
 555              	.LFE295:
 556              		.size	chCondWait, .-chCondWait
 557              		.section	.text.chCondWaitTimeoutS,"ax",%progbits
 558              		.align	1
 559              		.global	chCondWaitTimeoutS
 560              		.thumb
 561              		.thumb_func
 562              		.type	chCondWaitTimeoutS, %function
 563              	chCondWaitTimeoutS:
 564              	.LFB298:
 565              		.loc 2 295 0
 566              		.cfi_startproc
 567              		@ args = 0, pretend = 0, frame = 0
 568              		@ frame_needed = 0, uses_anonymous_args = 0
 569              	.LVL49:
 570 0000 F8B5     		push	{r3, r4, r5, r6, r7, lr}
ARM GAS  /tmp/ccqKJp3m.s 			page 11


 571              		.cfi_def_cfa_offset 24
 572              		.cfi_offset 3, -24
 573              		.cfi_offset 4, -20
 574              		.cfi_offset 5, -16
 575              		.cfi_offset 6, -12
 576              		.cfi_offset 7, -8
 577              		.cfi_offset 14, -4
 578              	.LBB137:
 579              	.LBB138:
 580              	.LBB139:
 581              	.LBB140:
 582              		.file 6 "../../modules/ChibiOS/os/rt/include/chthreads.h"
 583              		.loc 6 274 0
 584 0002 0C4E     		ldr	r6, .L27
 585              	.LBE140:
 586              	.LBE139:
 587              		.loc 5 161 0
 588 0004 B369     		ldr	r3, [r6, #24]
 589 0006 9D6B     		ldr	r5, [r3, #56]
 590              	.LBE138:
 591              	.LBE137:
 592              		.loc 2 295 0
 593 0008 0446     		mov	r4, r0
 594              		.loc 2 304 0
 595 000a 2846     		mov	r0, r5
 596              	.LVL50:
 597              		.loc 2 295 0
 598 000c 0F46     		mov	r7, r1
 599              		.loc 2 304 0
 600 000e FFF7FEFF 		bl	chMtxUnlockS
 601              	.LVL51:
 602              		.loc 2 308 0
 603 0012 B069     		ldr	r0, [r6, #24]
 604              		.loc 2 309 0
 605 0014 2146     		mov	r1, r4
 606              		.loc 2 308 0
 607 0016 4462     		str	r4, [r0, #36]
 608              		.loc 2 309 0
 609 0018 FFF7FEFF 		bl	queue_prio_insert
 610              	.LVL52:
 611              		.loc 2 310 0
 612 001c 3946     		mov	r1, r7
 613 001e 0720     		movs	r0, #7
 614 0020 FFF7FEFF 		bl	chSchGoSleepTimeoutS
 615              	.LVL53:
 616              		.loc 2 311 0
 617 0024 431C     		adds	r3, r0, #1
 618              		.loc 2 310 0
 619 0026 0446     		mov	r4, r0
 620              	.LVL54:
 621              		.loc 2 311 0
 622 0028 02D0     		beq	.L23
 623              		.loc 2 312 0
 624 002a 2846     		mov	r0, r5
 625              	.LVL55:
 626 002c FFF7FEFF 		bl	chMtxLockS
 627              	.LVL56:
ARM GAS  /tmp/ccqKJp3m.s 			page 12


 628              	.L23:
 629              		.loc 2 316 0
 630 0030 2046     		mov	r0, r4
 631 0032 F8BD     		pop	{r3, r4, r5, r6, r7, pc}
 632              	.LVL57:
 633              	.L28:
 634              		.align	2
 635              	.L27:
 636 0034 00000000 		.word	ch
 637              		.cfi_endproc
 638              	.LFE298:
 639              		.size	chCondWaitTimeoutS, .-chCondWaitTimeoutS
 640              		.section	.text.chCondWaitTimeout,"ax",%progbits
 641              		.align	1
 642              		.global	chCondWaitTimeout
 643              		.thumb
 644              		.thumb_func
 645              		.type	chCondWaitTimeout, %function
 646              	chCondWaitTimeout:
 647              	.LFB297:
 648              		.loc 2 257 0
 649              		.cfi_startproc
 650              		@ args = 0, pretend = 0, frame = 0
 651              		@ frame_needed = 0, uses_anonymous_args = 0
 652              	.LVL58:
 653 0000 38B5     		push	{r3, r4, r5, lr}
 654              		.cfi_def_cfa_offset 16
 655              		.cfi_offset 3, -16
 656              		.cfi_offset 4, -12
 657              		.cfi_offset 5, -8
 658              		.cfi_offset 14, -4
 659              		.loc 2 257 0
 660 0002 0446     		mov	r4, r0
 661 0004 0D46     		mov	r5, r1
 662              	.LBB151:
 663              	.LBB152:
 664              	.LBB153:
 665              	.LBB154:
 666              	.LBB155:
 667              		.loc 3 493 0
 668 0006 2023     		movs	r3, #32
 669              		.syntax unified
 670              	@ 493 "../../modules/ChibiOS/os/common/ext/ARM/CMSIS/Core/Include/cmsis_gcc.h" 1
 671 0008 83F31188 		MSR basepri, r3
 672              	@ 0 "" 2
 673              	.LVL59:
 674              		.thumb
 675              		.syntax unified
 676              	.LBE155:
 677              	.LBE154:
 678              	.LBE153:
 679              		.loc 4 356 0
 680 000c FFF7FEFF 		bl	_stats_start_measure_crit_thd
 681              	.LVL60:
 682              	.LBE152:
 683              	.LBE151:
 684              		.loc 2 261 0
ARM GAS  /tmp/ccqKJp3m.s 			page 13


 685 0010 2946     		mov	r1, r5
 686 0012 2046     		mov	r0, r4
 687 0014 FFF7FEFF 		bl	chCondWaitTimeoutS
 688              	.LVL61:
 689 0018 0446     		mov	r4, r0
 690              	.LVL62:
 691              	.LBB156:
 692              	.LBB157:
 693              		.loc 4 368 0
 694 001a FFF7FEFF 		bl	_stats_stop_measure_crit_thd
 695              	.LVL63:
 696              	.LBB158:
 697              	.LBB159:
 698              	.LBB160:
 699              		.loc 3 493 0
 700 001e 0023     		movs	r3, #0
 701              		.syntax unified
 702              	@ 493 "../../modules/ChibiOS/os/common/ext/ARM/CMSIS/Core/Include/cmsis_gcc.h" 1
 703 0020 83F31188 		MSR basepri, r3
 704              	@ 0 "" 2
 705              	.LVL64:
 706              		.thumb
 707              		.syntax unified
 708              	.LBE160:
 709              	.LBE159:
 710              	.LBE158:
 711              	.LBE157:
 712              	.LBE156:
 713              		.loc 2 265 0
 714 0024 2046     		mov	r0, r4
 715 0026 38BD     		pop	{r3, r4, r5, pc}
 716              		.cfi_endproc
 717              	.LFE297:
 718              		.size	chCondWaitTimeout, .-chCondWaitTimeout
 719              		.text
 720              	.Letext0:
 721              		.file 7 "/usr/include/newlib/machine/_default_types.h"
 722              		.file 8 "/usr/include/newlib/sys/_stdint.h"
 723              		.file 9 "../../modules/ChibiOS/os/common/ports/ARMCMx/compilers/GCC/chtypes.h"
 724              		.file 10 "../../modules/ChibiOS/os/rt/include/chsystypes.h"
 725              		.file 11 "../../modules/ChibiOS/os/rt/include/chtime.h"
 726              		.file 12 "../../modules/ChibiOS/os/common/ports/ARMCMx/chcore.h"
 727              		.file 13 "../../modules/ChibiOS/os/common/ports/ARMCMx/chcore_v7m.h"
 728              		.file 14 "../../modules/ChibiOS/os/rt/include/chtm.h"
 729              		.file 15 "../../modules/ChibiOS/os/rt/include/chstats.h"
 730              		.file 16 "../../modules/ChibiOS/os/rt/include/chsem.h"
 731              		.file 17 "../../modules/ChibiOS/os/rt/include/chcond.h"
 732              		.file 18 "../../modules/ChibiOS/os/common/ext/ARM/CMSIS/Core/Include/core_cm4.h"
 733              		.section	.debug_info,"",%progbits
 734              	.Ldebug_info0:
 735 0000 CE100000 		.4byte	0x10ce
 736 0004 0400     		.2byte	0x4
 737 0006 00000000 		.4byte	.Ldebug_abbrev0
 738 000a 04       		.byte	0x4
 739 000b 01       		.uleb128 0x1
 740 000c 7C000000 		.4byte	.LASF140
 741 0010 0C       		.byte	0xc
ARM GAS  /tmp/ccqKJp3m.s 			page 14


 742 0011 A0060000 		.4byte	.LASF141
 743 0015 49050000 		.4byte	.LASF142
 744 0019 A8000000 		.4byte	.Ldebug_ranges0+0xa8
 745 001d 00000000 		.4byte	0
 746 0021 00000000 		.4byte	.Ldebug_line0
 747 0025 02       		.uleb128 0x2
 748 0026 04       		.byte	0x4
 749 0027 05       		.byte	0x5
 750 0028 696E7400 		.ascii	"int\000"
 751 002c 03       		.uleb128 0x3
 752 002d 04       		.byte	0x4
 753 002e 07       		.byte	0x7
 754 002f F0020000 		.4byte	.LASF0
 755 0033 03       		.uleb128 0x3
 756 0034 08       		.byte	0x8
 757 0035 05       		.byte	0x5
 758 0036 F8010000 		.4byte	.LASF1
 759 003a 03       		.uleb128 0x3
 760 003b 08       		.byte	0x8
 761 003c 04       		.byte	0x4
 762 003d 0E060000 		.4byte	.LASF2
 763 0041 03       		.uleb128 0x3
 764 0042 01       		.byte	0x1
 765 0043 06       		.byte	0x6
 766 0044 06020000 		.4byte	.LASF3
 767 0048 04       		.uleb128 0x4
 768 0049 36000000 		.4byte	.LASF7
 769 004d 07       		.byte	0x7
 770 004e 1D       		.byte	0x1d
 771 004f 53000000 		.4byte	0x53
 772 0053 03       		.uleb128 0x3
 773 0054 01       		.byte	0x1
 774 0055 08       		.byte	0x8
 775 0056 D8040000 		.4byte	.LASF4
 776 005a 03       		.uleb128 0x3
 777 005b 02       		.byte	0x2
 778 005c 05       		.byte	0x5
 779 005d E6040000 		.4byte	.LASF5
 780 0061 03       		.uleb128 0x3
 781 0062 02       		.byte	0x2
 782 0063 07       		.byte	0x7
 783 0064 1E030000 		.4byte	.LASF6
 784 0068 04       		.uleb128 0x4
 785 0069 A3030000 		.4byte	.LASF8
 786 006d 07       		.byte	0x7
 787 006e 3F       		.byte	0x3f
 788 006f 73000000 		.4byte	0x73
 789 0073 03       		.uleb128 0x3
 790 0074 04       		.byte	0x4
 791 0075 05       		.byte	0x5
 792 0076 51020000 		.4byte	.LASF9
 793 007a 04       		.uleb128 0x4
 794 007b 8E020000 		.4byte	.LASF10
 795 007f 07       		.byte	0x7
 796 0080 41       		.byte	0x41
 797 0081 85000000 		.4byte	0x85
 798 0085 03       		.uleb128 0x3
ARM GAS  /tmp/ccqKJp3m.s 			page 15


 799 0086 04       		.byte	0x4
 800 0087 07       		.byte	0x7
 801 0088 C8050000 		.4byte	.LASF11
 802 008c 04       		.uleb128 0x4
 803 008d 81040000 		.4byte	.LASF12
 804 0091 07       		.byte	0x7
 805 0092 5B       		.byte	0x5b
 806 0093 97000000 		.4byte	0x97
 807 0097 03       		.uleb128 0x3
 808 0098 08       		.byte	0x8
 809 0099 07       		.byte	0x7
 810 009a 94010000 		.4byte	.LASF13
 811 009e 04       		.uleb128 0x4
 812 009f E6060000 		.4byte	.LASF14
 813 00a3 08       		.byte	0x8
 814 00a4 18       		.byte	0x18
 815 00a5 48000000 		.4byte	0x48
 816 00a9 04       		.uleb128 0x4
 817 00aa D0040000 		.4byte	.LASF15
 818 00ae 08       		.byte	0x8
 819 00af 2C       		.byte	0x2c
 820 00b0 68000000 		.4byte	0x68
 821 00b4 04       		.uleb128 0x4
 822 00b5 7E060000 		.4byte	.LASF16
 823 00b9 08       		.byte	0x8
 824 00ba 30       		.byte	0x30
 825 00bb 7A000000 		.4byte	0x7a
 826 00bf 04       		.uleb128 0x4
 827 00c0 20000000 		.4byte	.LASF17
 828 00c4 08       		.byte	0x8
 829 00c5 3C       		.byte	0x3c
 830 00c6 8C000000 		.4byte	0x8c
 831 00ca 04       		.uleb128 0x4
 832 00cb 5E060000 		.4byte	.LASF18
 833 00cf 09       		.byte	0x9
 834 00d0 27       		.byte	0x27
 835 00d1 B4000000 		.4byte	0xb4
 836 00d5 04       		.uleb128 0x4
 837 00d6 EF010000 		.4byte	.LASF19
 838 00da 09       		.byte	0x9
 839 00db 28       		.byte	0x28
 840 00dc BF000000 		.4byte	0xbf
 841 00e0 04       		.uleb128 0x4
 842 00e1 76030000 		.4byte	.LASF20
 843 00e5 09       		.byte	0x9
 844 00e6 2A       		.byte	0x2a
 845 00e7 9E000000 		.4byte	0x9e
 846 00eb 04       		.uleb128 0x4
 847 00ec 5A020000 		.4byte	.LASF21
 848 00f0 09       		.byte	0x9
 849 00f1 2B       		.byte	0x2b
 850 00f2 9E000000 		.4byte	0x9e
 851 00f6 04       		.uleb128 0x4
 852 00f7 97040000 		.4byte	.LASF22
 853 00fb 09       		.byte	0x9
 854 00fc 2C       		.byte	0x2c
 855 00fd 9E000000 		.4byte	0x9e
ARM GAS  /tmp/ccqKJp3m.s 			page 16


 856 0101 04       		.uleb128 0x4
 857 0102 B4040000 		.4byte	.LASF23
 858 0106 09       		.byte	0x9
 859 0107 2E       		.byte	0x2e
 860 0108 B4000000 		.4byte	0xb4
 861 010c 04       		.uleb128 0x4
 862 010d 4F030000 		.4byte	.LASF24
 863 0111 09       		.byte	0x9
 864 0112 2F       		.byte	0x2f
 865 0113 A9000000 		.4byte	0xa9
 866 0117 04       		.uleb128 0x4
 867 0118 97030000 		.4byte	.LASF25
 868 011c 09       		.byte	0x9
 869 011d 31       		.byte	0x31
 870 011e B4000000 		.4byte	0xb4
 871 0122 04       		.uleb128 0x4
 872 0123 DD020000 		.4byte	.LASF26
 873 0127 09       		.byte	0x9
 874 0128 33       		.byte	0x33
 875 0129 A9000000 		.4byte	0xa9
 876 012d 04       		.uleb128 0x4
 877 012e 5A030000 		.4byte	.LASF27
 878 0132 09       		.byte	0x9
 879 0133 34       		.byte	0x34
 880 0134 B4000000 		.4byte	0xb4
 881 0138 04       		.uleb128 0x4
 882 0139 C9060000 		.4byte	.LASF28
 883 013d 0A       		.byte	0xa
 884 013e 34       		.byte	0x34
 885 013f 43010000 		.4byte	0x143
 886 0143 05       		.uleb128 0x5
 887 0144 40030000 		.4byte	.LASF47
 888 0148 60       		.byte	0x60
 889 0149 01       		.byte	0x1
 890 014a 8E       		.byte	0x8e
 891 014b 2E020000 		.4byte	0x22e
 892 014f 06       		.uleb128 0x6
 893 0150 12030000 		.4byte	.LASF29
 894 0154 01       		.byte	0x1
 895 0155 8F       		.byte	0x8f
 896 0156 63020000 		.4byte	0x263
 897 015a 00       		.byte	0
 898 015b 06       		.uleb128 0x6
 899 015c 64040000 		.4byte	.LASF30
 900 0160 01       		.byte	0x1
 901 0161 90       		.byte	0x90
 902 0162 01010000 		.4byte	0x101
 903 0166 08       		.byte	0x8
 904 0167 07       		.uleb128 0x7
 905 0168 63747800 		.ascii	"ctx\000"
 906 016c 01       		.byte	0x1
 907 016d 91       		.byte	0x91
 908 016e 7E040000 		.4byte	0x47e
 909 0172 0C       		.byte	0xc
 910 0173 06       		.uleb128 0x6
 911 0174 B8030000 		.4byte	.LASF31
 912 0178 01       		.byte	0x1
ARM GAS  /tmp/ccqKJp3m.s 			page 17


 913 0179 93       		.byte	0x93
 914 017a 39020000 		.4byte	0x239
 915 017e 10       		.byte	0x10
 916 017f 06       		.uleb128 0x6
 917 0180 E6050000 		.4byte	.LASF32
 918 0184 01       		.byte	0x1
 919 0185 94       		.byte	0x94
 920 0186 39020000 		.4byte	0x239
 921 018a 14       		.byte	0x14
 922 018b 06       		.uleb128 0x6
 923 018c 4A030000 		.4byte	.LASF33
 924 0190 01       		.byte	0x1
 925 0191 9B       		.byte	0x9b
 926 0192 64070000 		.4byte	0x764
 927 0196 18       		.byte	0x18
 928 0197 06       		.uleb128 0x6
 929 0198 DA050000 		.4byte	.LASF34
 930 019c 01       		.byte	0x1
 931 019d A4       		.byte	0xa4
 932 019e 76070000 		.4byte	0x776
 933 01a2 1C       		.byte	0x1c
 934 01a3 06       		.uleb128 0x6
 935 01a4 4B020000 		.4byte	.LASF35
 936 01a8 01       		.byte	0x1
 937 01a9 A9       		.byte	0xa9
 938 01aa EB000000 		.4byte	0xeb
 939 01ae 20       		.byte	0x20
 940 01af 06       		.uleb128 0x6
 941 01b0 EE060000 		.4byte	.LASF36
 942 01b4 01       		.byte	0x1
 943 01b5 AD       		.byte	0xad
 944 01b6 E0000000 		.4byte	0xe0
 945 01ba 21       		.byte	0x21
 946 01bb 06       		.uleb128 0x6
 947 01bc 9F040000 		.4byte	.LASF37
 948 01c0 01       		.byte	0x1
 949 01c1 B2       		.byte	0xb2
 950 01c2 F6000000 		.4byte	0xf6
 951 01c6 22       		.byte	0x22
 952 01c7 08       		.uleb128 0x8
 953 01c8 7500     		.ascii	"u\000"
 954 01ca 01       		.byte	0x1
 955 01cb 0301     		.2byte	0x103
 956 01cd 9A060000 		.4byte	0x69a
 957 01d1 24       		.byte	0x24
 958 01d2 09       		.uleb128 0x9
 959 01d3 B2020000 		.4byte	.LASF38
 960 01d7 01       		.byte	0x1
 961 01d8 0801     		.2byte	0x108
 962 01da 3F020000 		.4byte	0x23f
 963 01de 28       		.byte	0x28
 964 01df 09       		.uleb128 0x9
 965 01e0 42020000 		.4byte	.LASF39
 966 01e4 01       		.byte	0x1
 967 01e5 0E01     		.2byte	0x10e
 968 01e7 63020000 		.4byte	0x263
 969 01eb 2C       		.byte	0x2c
ARM GAS  /tmp/ccqKJp3m.s 			page 18


 970 01ec 09       		.uleb128 0x9
 971 01ed 61030000 		.4byte	.LASF40
 972 01f1 01       		.byte	0x1
 973 01f2 1401     		.2byte	0x114
 974 01f4 17010000 		.4byte	0x117
 975 01f8 34       		.byte	0x34
 976 01f9 09       		.uleb128 0x9
 977 01fa 78070000 		.4byte	.LASF41
 978 01fe 01       		.byte	0x1
 979 01ff 1B01     		.2byte	0x11b
 980 0201 5E070000 		.4byte	0x75e
 981 0205 38       		.byte	0x38
 982 0206 09       		.uleb128 0x9
 983 0207 BE030000 		.4byte	.LASF42
 984 020b 01       		.byte	0x1
 985 020c 1F01     		.2byte	0x11f
 986 020e 01010000 		.4byte	0x101
 987 0212 3C       		.byte	0x3c
 988 0213 09       		.uleb128 0x9
 989 0214 18030000 		.4byte	.LASF43
 990 0218 01       		.byte	0x1
 991 0219 2601     		.2byte	0x126
 992 021b 16030000 		.4byte	0x316
 993 021f 40       		.byte	0x40
 994 0220 09       		.uleb128 0x9
 995 0221 77020000 		.4byte	.LASF44
 996 0225 01       		.byte	0x1
 997 0226 2C01     		.2byte	0x12c
 998 0228 4B060000 		.4byte	0x64b
 999 022c 48       		.byte	0x48
 1000 022d 00       		.byte	0
 1001 022e 04       		.uleb128 0x4
 1002 022f ED030000 		.4byte	.LASF45
 1003 0233 0A       		.byte	0xa
 1004 0234 39       		.byte	0x39
 1005 0235 39020000 		.4byte	0x239
 1006 0239 0A       		.uleb128 0xa
 1007 023a 04       		.byte	0x4
 1008 023b 38010000 		.4byte	0x138
 1009 023f 04       		.uleb128 0x4
 1010 0240 2B070000 		.4byte	.LASF46
 1011 0244 0A       		.byte	0xa
 1012 0245 3E       		.byte	0x3e
 1013 0246 4A020000 		.4byte	0x24a
 1014 024a 05       		.uleb128 0x5
 1015 024b 9F050000 		.4byte	.LASF48
 1016 024f 04       		.byte	0x4
 1017 0250 01       		.byte	0x1
 1018 0251 7C       		.byte	0x7c
 1019 0252 63020000 		.4byte	0x263
 1020 0256 06       		.uleb128 0x6
 1021 0257 EA010000 		.4byte	.LASF49
 1022 025b 01       		.byte	0x1
 1023 025c 7D       		.byte	0x7d
 1024 025d 39020000 		.4byte	0x239
 1025 0261 00       		.byte	0
 1026 0262 00       		.byte	0
ARM GAS  /tmp/ccqKJp3m.s 			page 19


 1027 0263 04       		.uleb128 0x4
 1028 0264 87060000 		.4byte	.LASF50
 1029 0268 0A       		.byte	0xa
 1030 0269 45       		.byte	0x45
 1031 026a 6E020000 		.4byte	0x26e
 1032 026e 05       		.uleb128 0x5
 1033 026f 51000000 		.4byte	.LASF51
 1034 0273 08       		.byte	0x8
 1035 0274 01       		.byte	0x1
 1036 0275 83       		.byte	0x83
 1037 0276 93020000 		.4byte	0x293
 1038 027a 06       		.uleb128 0x6
 1039 027b EA010000 		.4byte	.LASF49
 1040 027f 01       		.byte	0x1
 1041 0280 84       		.byte	0x84
 1042 0281 39020000 		.4byte	0x239
 1043 0285 00       		.byte	0
 1044 0286 06       		.uleb128 0x6
 1045 0287 40000000 		.4byte	.LASF52
 1046 028b 01       		.byte	0x1
 1047 028c 85       		.byte	0x85
 1048 028d 39020000 		.4byte	0x239
 1049 0291 04       		.byte	0x4
 1050 0292 00       		.byte	0
 1051 0293 04       		.uleb128 0x4
 1052 0294 00000000 		.4byte	.LASF53
 1053 0298 0A       		.byte	0xa
 1054 0299 4C       		.byte	0x4c
 1055 029a 9E020000 		.4byte	0x29e
 1056 029e 0B       		.uleb128 0xb
 1057 029f 89030000 		.4byte	.LASF54
 1058 02a3 1C       		.byte	0x1c
 1059 02a4 01       		.byte	0x1
 1060 02a5 5E01     		.2byte	0x15e
 1061 02a7 FA020000 		.4byte	0x2fa
 1062 02ab 09       		.uleb128 0x9
 1063 02ac 12030000 		.4byte	.LASF29
 1064 02b0 01       		.byte	0x1
 1065 02b1 5F01     		.2byte	0x15f
 1066 02b3 63020000 		.4byte	0x263
 1067 02b7 00       		.byte	0
 1068 02b8 09       		.uleb128 0x9
 1069 02b9 64040000 		.4byte	.LASF30
 1070 02bd 01       		.byte	0x1
 1071 02be 6001     		.2byte	0x160
 1072 02c0 01010000 		.4byte	0x101
 1073 02c4 08       		.byte	0x8
 1074 02c5 08       		.uleb128 0x8
 1075 02c6 63747800 		.ascii	"ctx\000"
 1076 02ca 01       		.byte	0x1
 1077 02cb 6201     		.2byte	0x162
 1078 02cd 7E040000 		.4byte	0x47e
 1079 02d1 0C       		.byte	0xc
 1080 02d2 09       		.uleb128 0x9
 1081 02d3 B8030000 		.4byte	.LASF31
 1082 02d7 01       		.byte	0x1
 1083 02d8 6501     		.2byte	0x165
ARM GAS  /tmp/ccqKJp3m.s 			page 20


 1084 02da 39020000 		.4byte	0x239
 1085 02de 10       		.byte	0x10
 1086 02df 09       		.uleb128 0x9
 1087 02e0 E6050000 		.4byte	.LASF32
 1088 02e4 01       		.byte	0x1
 1089 02e5 6601     		.2byte	0x166
 1090 02e7 39020000 		.4byte	0x239
 1091 02eb 14       		.byte	0x14
 1092 02ec 09       		.uleb128 0x9
 1093 02ed 79040000 		.4byte	.LASF55
 1094 02f1 01       		.byte	0x1
 1095 02f2 6901     		.2byte	0x169
 1096 02f4 39020000 		.4byte	0x239
 1097 02f8 18       		.byte	0x18
 1098 02f9 00       		.byte	0
 1099 02fa 04       		.uleb128 0x4
 1100 02fb 36060000 		.4byte	.LASF56
 1101 02ff 0A       		.byte	0xa
 1102 0300 51       		.byte	0x51
 1103 0301 05030000 		.4byte	0x305
 1104 0305 0A       		.uleb128 0xa
 1105 0306 04       		.byte	0x4
 1106 0307 0B030000 		.4byte	0x30b
 1107 030b 0C       		.uleb128 0xc
 1108 030c 16030000 		.4byte	0x316
 1109 0310 0D       		.uleb128 0xd
 1110 0311 16030000 		.4byte	0x316
 1111 0315 00       		.byte	0
 1112 0316 0E       		.uleb128 0xe
 1113 0317 04       		.byte	0x4
 1114 0318 04       		.uleb128 0x4
 1115 0319 A4040000 		.4byte	.LASF57
 1116 031d 0A       		.byte	0xa
 1117 031e 56       		.byte	0x56
 1118 031f 23030000 		.4byte	0x323
 1119 0323 0B       		.uleb128 0xb
 1120 0324 1D050000 		.4byte	.LASF58
 1121 0328 14       		.byte	0x14
 1122 0329 01       		.byte	0x1
 1123 032a 3901     		.2byte	0x139
 1124 032c 72030000 		.4byte	0x372
 1125 0330 09       		.uleb128 0x9
 1126 0331 EA010000 		.4byte	.LASF49
 1127 0335 01       		.byte	0x1
 1128 0336 3A01     		.2byte	0x13a
 1129 0338 7C070000 		.4byte	0x77c
 1130 033c 00       		.byte	0
 1131 033d 09       		.uleb128 0x9
 1132 033e 40000000 		.4byte	.LASF52
 1133 0342 01       		.byte	0x1
 1134 0343 3B01     		.2byte	0x13b
 1135 0345 7C070000 		.4byte	0x77c
 1136 0349 04       		.byte	0x4
 1137 034a 09       		.uleb128 0x9
 1138 034b 13000000 		.4byte	.LASF59
 1139 034f 01       		.byte	0x1
 1140 0350 3C01     		.2byte	0x13c
ARM GAS  /tmp/ccqKJp3m.s 			page 21


 1141 0352 56040000 		.4byte	0x456
 1142 0356 08       		.byte	0x8
 1143 0357 09       		.uleb128 0x9
 1144 0358 72020000 		.4byte	.LASF60
 1145 035c 01       		.byte	0x1
 1146 035d 3D01     		.2byte	0x13d
 1147 035f FA020000 		.4byte	0x2fa
 1148 0363 0C       		.byte	0xc
 1149 0364 08       		.uleb128 0x8
 1150 0365 70617200 		.ascii	"par\000"
 1151 0369 01       		.byte	0x1
 1152 036a 3F01     		.2byte	0x13f
 1153 036c 16030000 		.4byte	0x316
 1154 0370 10       		.byte	0x10
 1155 0371 00       		.byte	0
 1156 0372 04       		.uleb128 0x4
 1157 0373 C7010000 		.4byte	.LASF61
 1158 0377 0A       		.byte	0xa
 1159 0378 5B       		.byte	0x5b
 1160 0379 7D030000 		.4byte	0x37d
 1161 037d 0B       		.uleb128 0xb
 1162 037e 00040000 		.4byte	.LASF62
 1163 0382 10       		.byte	0x10
 1164 0383 01       		.byte	0x1
 1165 0384 4901     		.2byte	0x149
 1166 0386 BF030000 		.4byte	0x3bf
 1167 038a 09       		.uleb128 0x9
 1168 038b EA010000 		.4byte	.LASF49
 1169 038f 01       		.byte	0x1
 1170 0390 4A01     		.2byte	0x14a
 1171 0392 7C070000 		.4byte	0x77c
 1172 0396 00       		.byte	0
 1173 0397 09       		.uleb128 0x9
 1174 0398 40000000 		.4byte	.LASF52
 1175 039c 01       		.byte	0x1
 1176 039d 4C01     		.2byte	0x14c
 1177 039f 7C070000 		.4byte	0x77c
 1178 03a3 04       		.byte	0x4
 1179 03a4 09       		.uleb128 0x9
 1180 03a5 13000000 		.4byte	.LASF59
 1181 03a9 01       		.byte	0x1
 1182 03aa 4E01     		.2byte	0x14e
 1183 03ac 56040000 		.4byte	0x456
 1184 03b0 08       		.byte	0x8
 1185 03b1 09       		.uleb128 0x9
 1186 03b2 F0040000 		.4byte	.LASF63
 1187 03b6 01       		.byte	0x1
 1188 03b7 5601     		.2byte	0x156
 1189 03b9 4B040000 		.4byte	0x44b
 1190 03bd 0C       		.byte	0xc
 1191 03be 00       		.byte	0
 1192 03bf 04       		.uleb128 0x4
 1193 03c0 62000000 		.4byte	.LASF64
 1194 03c4 0A       		.byte	0xa
 1195 03c5 60       		.byte	0x60
 1196 03c6 CA030000 		.4byte	0x3ca
 1197 03ca 0B       		.uleb128 0xb
ARM GAS  /tmp/ccqKJp3m.s 			page 22


 1198 03cb A2020000 		.4byte	.LASF65
 1199 03cf 04       		.byte	0x4
 1200 03d0 01       		.byte	0x1
 1201 03d1 7001     		.2byte	0x170
 1202 03d3 E5030000 		.4byte	0x3e5
 1203 03d7 09       		.uleb128 0x9
 1204 03d8 4D060000 		.4byte	.LASF66
 1205 03dc 01       		.byte	0x1
 1206 03dd 7801     		.2byte	0x178
 1207 03df 82070000 		.4byte	0x782
 1208 03e3 00       		.byte	0
 1209 03e4 00       		.byte	0
 1210 03e5 04       		.uleb128 0x4
 1211 03e6 6A030000 		.4byte	.LASF67
 1212 03ea 0A       		.byte	0xa
 1213 03eb 65       		.byte	0x65
 1214 03ec F0030000 		.4byte	0x3f0
 1215 03f0 0B       		.uleb128 0xb
 1216 03f1 00050000 		.4byte	.LASF68
 1217 03f5 D0       		.byte	0xd0
 1218 03f6 01       		.byte	0x1
 1219 03f7 9001     		.2byte	0x190
 1220 03f9 4B040000 		.4byte	0x44b
 1221 03fd 09       		.uleb128 0x9
 1222 03fe D2060000 		.4byte	.LASF69
 1223 0402 01       		.byte	0x1
 1224 0403 9401     		.2byte	0x194
 1225 0405 93020000 		.4byte	0x293
 1226 0409 00       		.byte	0
 1227 040a 09       		.uleb128 0x9
 1228 040b 2F020000 		.4byte	.LASF70
 1229 040f 01       		.byte	0x1
 1230 0410 9801     		.2byte	0x198
 1231 0412 72030000 		.4byte	0x372
 1232 0416 1C       		.byte	0x1c
 1233 0417 08       		.uleb128 0x8
 1234 0418 64626700 		.ascii	"dbg\000"
 1235 041c 01       		.byte	0x1
 1236 041d 9C01     		.2byte	0x19c
 1237 041f BF030000 		.4byte	0x3bf
 1238 0423 2C       		.byte	0x2c
 1239 0424 09       		.uleb128 0x9
 1240 0425 B4010000 		.4byte	.LASF71
 1241 0429 01       		.byte	0x1
 1242 042a A001     		.2byte	0x1a0
 1243 042c 38010000 		.4byte	0x138
 1244 0430 30       		.byte	0x30
 1245 0431 08       		.uleb128 0x8
 1246 0432 746D00   		.ascii	"tm\000"
 1247 0435 01       		.byte	0x1
 1248 0436 A501     		.2byte	0x1a5
 1249 0438 FD050000 		.4byte	0x5fd
 1250 043c 90       		.byte	0x90
 1251 043d 09       		.uleb128 0x9
 1252 043e 29000000 		.4byte	.LASF72
 1253 0442 01       		.byte	0x1
 1254 0443 AB01     		.2byte	0x1ab
ARM GAS  /tmp/ccqKJp3m.s 			page 23


 1255 0445 8F060000 		.4byte	0x68f
 1256 0449 98       		.byte	0x98
 1257 044a 00       		.byte	0
 1258 044b 04       		.uleb128 0x4
 1259 044c 2C060000 		.4byte	.LASF73
 1260 0450 0B       		.byte	0xb
 1261 0451 6D       		.byte	0x6d
 1262 0452 B4000000 		.4byte	0xb4
 1263 0456 04       		.uleb128 0x4
 1264 0457 CF020000 		.4byte	.LASF74
 1265 045b 0B       		.byte	0xb
 1266 045c 79       		.byte	0x79
 1267 045d B4000000 		.4byte	0xb4
 1268 0461 03       		.uleb128 0x3
 1269 0462 04       		.byte	0x4
 1270 0463 07       		.byte	0x7
 1271 0464 E4030000 		.4byte	.LASF75
 1272 0468 04       		.uleb128 0x4
 1273 0469 99020000 		.4byte	.LASF76
 1274 046d 0C       		.byte	0xc
 1275 046e 65       		.byte	0x65
 1276 046f 16030000 		.4byte	0x316
 1277 0473 04       		.uleb128 0x4
 1278 0474 AD030000 		.4byte	.LASF77
 1279 0478 0C       		.byte	0xc
 1280 0479 6D       		.byte	0x6d
 1281 047a BF000000 		.4byte	0xbf
 1282 047e 05       		.uleb128 0x5
 1283 047f 46040000 		.4byte	.LASF78
 1284 0483 04       		.byte	0x4
 1285 0484 0C       		.byte	0xc
 1286 0485 89       		.byte	0x89
 1287 0486 96040000 		.4byte	0x496
 1288 048a 07       		.uleb128 0x7
 1289 048b 737000   		.ascii	"sp\000"
 1290 048e 0C       		.byte	0xc
 1291 048f 8A       		.byte	0x8a
 1292 0490 E2050000 		.4byte	0x5e2
 1293 0494 00       		.byte	0
 1294 0495 00       		.byte	0
 1295 0496 0B       		.uleb128 0xb
 1296 0497 45000000 		.4byte	.LASF79
 1297 049b 64       		.byte	0x64
 1298 049c 0D       		.byte	0xd
 1299 049d 5901     		.2byte	0x159
 1300 049f E2050000 		.4byte	0x5e2
 1301 04a3 08       		.uleb128 0x8
 1302 04a4 73313600 		.ascii	"s16\000"
 1303 04a8 0D       		.byte	0xd
 1304 04a9 5B01     		.2byte	0x15b
 1305 04ab 68040000 		.4byte	0x468
 1306 04af 00       		.byte	0
 1307 04b0 08       		.uleb128 0x8
 1308 04b1 73313700 		.ascii	"s17\000"
 1309 04b5 0D       		.byte	0xd
 1310 04b6 5C01     		.2byte	0x15c
 1311 04b8 68040000 		.4byte	0x468
ARM GAS  /tmp/ccqKJp3m.s 			page 24


 1312 04bc 04       		.byte	0x4
 1313 04bd 08       		.uleb128 0x8
 1314 04be 73313800 		.ascii	"s18\000"
 1315 04c2 0D       		.byte	0xd
 1316 04c3 5D01     		.2byte	0x15d
 1317 04c5 68040000 		.4byte	0x468
 1318 04c9 08       		.byte	0x8
 1319 04ca 08       		.uleb128 0x8
 1320 04cb 73313900 		.ascii	"s19\000"
 1321 04cf 0D       		.byte	0xd
 1322 04d0 5E01     		.2byte	0x15e
 1323 04d2 68040000 		.4byte	0x468
 1324 04d6 0C       		.byte	0xc
 1325 04d7 08       		.uleb128 0x8
 1326 04d8 73323000 		.ascii	"s20\000"
 1327 04dc 0D       		.byte	0xd
 1328 04dd 5F01     		.2byte	0x15f
 1329 04df 68040000 		.4byte	0x468
 1330 04e3 10       		.byte	0x10
 1331 04e4 08       		.uleb128 0x8
 1332 04e5 73323100 		.ascii	"s21\000"
 1333 04e9 0D       		.byte	0xd
 1334 04ea 6001     		.2byte	0x160
 1335 04ec 68040000 		.4byte	0x468
 1336 04f0 14       		.byte	0x14
 1337 04f1 08       		.uleb128 0x8
 1338 04f2 73323200 		.ascii	"s22\000"
 1339 04f6 0D       		.byte	0xd
 1340 04f7 6101     		.2byte	0x161
 1341 04f9 68040000 		.4byte	0x468
 1342 04fd 18       		.byte	0x18
 1343 04fe 08       		.uleb128 0x8
 1344 04ff 73323300 		.ascii	"s23\000"
 1345 0503 0D       		.byte	0xd
 1346 0504 6201     		.2byte	0x162
 1347 0506 68040000 		.4byte	0x468
 1348 050a 1C       		.byte	0x1c
 1349 050b 08       		.uleb128 0x8
 1350 050c 73323400 		.ascii	"s24\000"
 1351 0510 0D       		.byte	0xd
 1352 0511 6301     		.2byte	0x163
 1353 0513 68040000 		.4byte	0x468
 1354 0517 20       		.byte	0x20
 1355 0518 08       		.uleb128 0x8
 1356 0519 73323500 		.ascii	"s25\000"
 1357 051d 0D       		.byte	0xd
 1358 051e 6401     		.2byte	0x164
 1359 0520 68040000 		.4byte	0x468
 1360 0524 24       		.byte	0x24
 1361 0525 08       		.uleb128 0x8
 1362 0526 73323600 		.ascii	"s26\000"
 1363 052a 0D       		.byte	0xd
 1364 052b 6501     		.2byte	0x165
 1365 052d 68040000 		.4byte	0x468
 1366 0531 28       		.byte	0x28
 1367 0532 08       		.uleb128 0x8
 1368 0533 73323700 		.ascii	"s27\000"
ARM GAS  /tmp/ccqKJp3m.s 			page 25


 1369 0537 0D       		.byte	0xd
 1370 0538 6601     		.2byte	0x166
 1371 053a 68040000 		.4byte	0x468
 1372 053e 2C       		.byte	0x2c
 1373 053f 08       		.uleb128 0x8
 1374 0540 73323800 		.ascii	"s28\000"
 1375 0544 0D       		.byte	0xd
 1376 0545 6701     		.2byte	0x167
 1377 0547 68040000 		.4byte	0x468
 1378 054b 30       		.byte	0x30
 1379 054c 08       		.uleb128 0x8
 1380 054d 73323900 		.ascii	"s29\000"
 1381 0551 0D       		.byte	0xd
 1382 0552 6801     		.2byte	0x168
 1383 0554 68040000 		.4byte	0x468
 1384 0558 34       		.byte	0x34
 1385 0559 08       		.uleb128 0x8
 1386 055a 73333000 		.ascii	"s30\000"
 1387 055e 0D       		.byte	0xd
 1388 055f 6901     		.2byte	0x169
 1389 0561 68040000 		.4byte	0x468
 1390 0565 38       		.byte	0x38
 1391 0566 08       		.uleb128 0x8
 1392 0567 73333100 		.ascii	"s31\000"
 1393 056b 0D       		.byte	0xd
 1394 056c 6A01     		.2byte	0x16a
 1395 056e 68040000 		.4byte	0x468
 1396 0572 3C       		.byte	0x3c
 1397 0573 08       		.uleb128 0x8
 1398 0574 723400   		.ascii	"r4\000"
 1399 0577 0D       		.byte	0xd
 1400 0578 6C01     		.2byte	0x16c
 1401 057a 68040000 		.4byte	0x468
 1402 057e 40       		.byte	0x40
 1403 057f 08       		.uleb128 0x8
 1404 0580 723500   		.ascii	"r5\000"
 1405 0583 0D       		.byte	0xd
 1406 0584 6D01     		.2byte	0x16d
 1407 0586 68040000 		.4byte	0x468
 1408 058a 44       		.byte	0x44
 1409 058b 08       		.uleb128 0x8
 1410 058c 723600   		.ascii	"r6\000"
 1411 058f 0D       		.byte	0xd
 1412 0590 6E01     		.2byte	0x16e
 1413 0592 68040000 		.4byte	0x468
 1414 0596 48       		.byte	0x48
 1415 0597 08       		.uleb128 0x8
 1416 0598 723700   		.ascii	"r7\000"
 1417 059b 0D       		.byte	0xd
 1418 059c 6F01     		.2byte	0x16f
 1419 059e 68040000 		.4byte	0x468
 1420 05a2 4C       		.byte	0x4c
 1421 05a3 08       		.uleb128 0x8
 1422 05a4 723800   		.ascii	"r8\000"
 1423 05a7 0D       		.byte	0xd
 1424 05a8 7001     		.2byte	0x170
 1425 05aa 68040000 		.4byte	0x468
ARM GAS  /tmp/ccqKJp3m.s 			page 26


 1426 05ae 50       		.byte	0x50
 1427 05af 08       		.uleb128 0x8
 1428 05b0 723900   		.ascii	"r9\000"
 1429 05b3 0D       		.byte	0xd
 1430 05b4 7101     		.2byte	0x171
 1431 05b6 68040000 		.4byte	0x468
 1432 05ba 54       		.byte	0x54
 1433 05bb 08       		.uleb128 0x8
 1434 05bc 72313000 		.ascii	"r10\000"
 1435 05c0 0D       		.byte	0xd
 1436 05c1 7201     		.2byte	0x172
 1437 05c3 68040000 		.4byte	0x468
 1438 05c7 58       		.byte	0x58
 1439 05c8 08       		.uleb128 0x8
 1440 05c9 72313100 		.ascii	"r11\000"
 1441 05cd 0D       		.byte	0xd
 1442 05ce 7301     		.2byte	0x173
 1443 05d0 68040000 		.4byte	0x468
 1444 05d4 5C       		.byte	0x5c
 1445 05d5 08       		.uleb128 0x8
 1446 05d6 6C7200   		.ascii	"lr\000"
 1447 05d9 0D       		.byte	0xd
 1448 05da 7401     		.2byte	0x174
 1449 05dc 68040000 		.4byte	0x468
 1450 05e0 60       		.byte	0x60
 1451 05e1 00       		.byte	0
 1452 05e2 0A       		.uleb128 0xa
 1453 05e3 04       		.byte	0x4
 1454 05e4 96040000 		.4byte	0x496
 1455 05e8 0F       		.uleb128 0xf
 1456 05e9 04       		.byte	0x4
 1457 05ea 0E       		.byte	0xe
 1458 05eb 38       		.byte	0x38
 1459 05ec FD050000 		.4byte	0x5fd
 1460 05f0 06       		.uleb128 0x6
 1461 05f1 57060000 		.4byte	.LASF80
 1462 05f5 0E       		.byte	0xe
 1463 05f6 3C       		.byte	0x3c
 1464 05f7 CA000000 		.4byte	0xca
 1465 05fb 00       		.byte	0
 1466 05fc 00       		.byte	0
 1467 05fd 04       		.uleb128 0x4
 1468 05fe 53040000 		.4byte	.LASF81
 1469 0602 0E       		.byte	0xe
 1470 0603 3D       		.byte	0x3d
 1471 0604 E8050000 		.4byte	0x5e8
 1472 0608 0F       		.uleb128 0xf
 1473 0609 18       		.byte	0x18
 1474 060a 0E       		.byte	0xe
 1475 060b 48       		.byte	0x48
 1476 060c 4B060000 		.4byte	0x64b
 1477 0610 06       		.uleb128 0x6
 1478 0611 09060000 		.4byte	.LASF82
 1479 0615 0E       		.byte	0xe
 1480 0616 49       		.byte	0x49
 1481 0617 CA000000 		.4byte	0xca
 1482 061b 00       		.byte	0
ARM GAS  /tmp/ccqKJp3m.s 			page 27


 1483 061c 06       		.uleb128 0x6
 1484 061d 6A010000 		.4byte	.LASF83
 1485 0621 0E       		.byte	0xe
 1486 0622 4A       		.byte	0x4a
 1487 0623 CA000000 		.4byte	0xca
 1488 0627 04       		.byte	0x4
 1489 0628 06       		.uleb128 0x6
 1490 0629 55030000 		.4byte	.LASF84
 1491 062d 0E       		.byte	0xe
 1492 062e 4B       		.byte	0x4b
 1493 062f CA000000 		.4byte	0xca
 1494 0633 08       		.byte	0x8
 1495 0634 07       		.uleb128 0x7
 1496 0635 6E00     		.ascii	"n\000"
 1497 0637 0E       		.byte	0xe
 1498 0638 4C       		.byte	0x4c
 1499 0639 2D010000 		.4byte	0x12d
 1500 063d 0C       		.byte	0xc
 1501 063e 06       		.uleb128 0x6
 1502 063f 8C040000 		.4byte	.LASF85
 1503 0643 0E       		.byte	0xe
 1504 0644 4D       		.byte	0x4d
 1505 0645 D5000000 		.4byte	0xd5
 1506 0649 10       		.byte	0x10
 1507 064a 00       		.byte	0
 1508 064b 04       		.uleb128 0x4
 1509 064c 70010000 		.4byte	.LASF86
 1510 0650 0E       		.byte	0xe
 1511 0651 4E       		.byte	0x4e
 1512 0652 08060000 		.4byte	0x608
 1513 0656 0F       		.uleb128 0xf
 1514 0657 38       		.byte	0x38
 1515 0658 0F       		.byte	0xf
 1516 0659 38       		.byte	0x38
 1517 065a 8F060000 		.4byte	0x68f
 1518 065e 06       		.uleb128 0x6
 1519 065f 0C030000 		.4byte	.LASF87
 1520 0663 0F       		.byte	0xf
 1521 0664 39       		.byte	0x39
 1522 0665 2D010000 		.4byte	0x12d
 1523 0669 00       		.byte	0
 1524 066a 06       		.uleb128 0x6
 1525 066b 3D040000 		.4byte	.LASF88
 1526 066f 0F       		.byte	0xf
 1527 0670 3A       		.byte	0x3a
 1528 0671 2D010000 		.4byte	0x12d
 1529 0675 04       		.byte	0x4
 1530 0676 06       		.uleb128 0x6
 1531 0677 80070000 		.4byte	.LASF89
 1532 067b 0F       		.byte	0xf
 1533 067c 3B       		.byte	0x3b
 1534 067d 4B060000 		.4byte	0x64b
 1535 0681 08       		.byte	0x8
 1536 0682 06       		.uleb128 0x6
 1537 0683 7E030000 		.4byte	.LASF90
 1538 0687 0F       		.byte	0xf
 1539 0688 3D       		.byte	0x3d
ARM GAS  /tmp/ccqKJp3m.s 			page 28


 1540 0689 4B060000 		.4byte	0x64b
 1541 068d 20       		.byte	0x20
 1542 068e 00       		.byte	0
 1543 068f 04       		.uleb128 0x4
 1544 0690 31030000 		.4byte	.LASF91
 1545 0694 0F       		.byte	0xf
 1546 0695 3F       		.byte	0x3f
 1547 0696 56060000 		.4byte	0x656
 1548 069a 10       		.uleb128 0x10
 1549 069b 04       		.byte	0x4
 1550 069c 01       		.byte	0x1
 1551 069d C6       		.byte	0xc6
 1552 069e FC060000 		.4byte	0x6fc
 1553 06a2 11       		.uleb128 0x11
 1554 06a3 19000000 		.4byte	.LASF92
 1555 06a7 01       		.byte	0x1
 1556 06a8 CD       		.byte	0xcd
 1557 06a9 0C010000 		.4byte	0x10c
 1558 06ad 11       		.uleb128 0x11
 1559 06ae AB010000 		.4byte	.LASF93
 1560 06b2 01       		.byte	0x1
 1561 06b3 D4       		.byte	0xd4
 1562 06b4 0C010000 		.4byte	0x10c
 1563 06b8 11       		.uleb128 0x11
 1564 06b9 12070000 		.4byte	.LASF94
 1565 06bd 01       		.byte	0x1
 1566 06be DB       		.byte	0xdb
 1567 06bf 16030000 		.4byte	0x316
 1568 06c3 11       		.uleb128 0x11
 1569 06c4 0D000000 		.4byte	.LASF95
 1570 06c8 01       		.byte	0x1
 1571 06c9 E2       		.byte	0xe2
 1572 06ca FC060000 		.4byte	0x6fc
 1573 06ce 11       		.uleb128 0x11
 1574 06cf BF010000 		.4byte	.LASF96
 1575 06d3 01       		.byte	0x1
 1576 06d4 E7       		.byte	0xe7
 1577 06d5 0C010000 		.4byte	0x10c
 1578 06d9 11       		.uleb128 0x11
 1579 06da FD020000 		.4byte	.LASF97
 1580 06de 01       		.byte	0x1
 1581 06df F0       		.byte	0xf0
 1582 06e0 27070000 		.4byte	0x727
 1583 06e4 11       		.uleb128 0x11
 1584 06e5 8C050000 		.4byte	.LASF98
 1585 06e9 01       		.byte	0x1
 1586 06ea F9       		.byte	0xf9
 1587 06eb 5E070000 		.4byte	0x75e
 1588 06ef 12       		.uleb128 0x12
 1589 06f0 F9040000 		.4byte	.LASF99
 1590 06f4 01       		.byte	0x1
 1591 06f5 0101     		.2byte	0x101
 1592 06f7 17010000 		.4byte	0x117
 1593 06fb 00       		.byte	0
 1594 06fc 0A       		.uleb128 0xa
 1595 06fd 04       		.byte	0x4
 1596 06fe 2E020000 		.4byte	0x22e
ARM GAS  /tmp/ccqKJp3m.s 			page 29


 1597 0702 05       		.uleb128 0x5
 1598 0703 2E050000 		.4byte	.LASF100
 1599 0707 0C       		.byte	0xc
 1600 0708 10       		.byte	0x10
 1601 0709 34       		.byte	0x34
 1602 070a 27070000 		.4byte	0x727
 1603 070e 06       		.uleb128 0x6
 1604 070f 12030000 		.4byte	.LASF29
 1605 0713 10       		.byte	0x10
 1606 0714 35       		.byte	0x35
 1607 0715 63020000 		.4byte	0x263
 1608 0719 00       		.byte	0
 1609 071a 07       		.uleb128 0x7
 1610 071b 636E7400 		.ascii	"cnt\000"
 1611 071f 10       		.byte	0x10
 1612 0720 37       		.byte	0x37
 1613 0721 22010000 		.4byte	0x122
 1614 0725 08       		.byte	0x8
 1615 0726 00       		.byte	0
 1616 0727 0A       		.uleb128 0xa
 1617 0728 04       		.byte	0x4
 1618 0729 02070000 		.4byte	0x702
 1619 072d 05       		.uleb128 0x5
 1620 072e 97060000 		.4byte	.LASF101
 1621 0732 10       		.byte	0x10
 1622 0733 05       		.byte	0x5
 1623 0734 39       		.byte	0x39
 1624 0735 5E070000 		.4byte	0x75e
 1625 0739 06       		.uleb128 0x6
 1626 073a 12030000 		.4byte	.LASF29
 1627 073e 05       		.byte	0x5
 1628 073f 3A       		.byte	0x3a
 1629 0740 63020000 		.4byte	0x263
 1630 0744 00       		.byte	0
 1631 0745 06       		.uleb128 0x6
 1632 0746 AF050000 		.4byte	.LASF102
 1633 074a 05       		.byte	0x5
 1634 074b 3C       		.byte	0x3c
 1635 074c 39020000 		.4byte	0x239
 1636 0750 08       		.byte	0x8
 1637 0751 06       		.uleb128 0x6
 1638 0752 EA010000 		.4byte	.LASF49
 1639 0756 05       		.byte	0x5
 1640 0757 3E       		.byte	0x3e
 1641 0758 92070000 		.4byte	0x792
 1642 075c 0C       		.byte	0xc
 1643 075d 00       		.byte	0
 1644 075e 0A       		.uleb128 0xa
 1645 075f 04       		.byte	0x4
 1646 0760 2D070000 		.4byte	0x72d
 1647 0764 0A       		.uleb128 0xa
 1648 0765 04       		.byte	0x4
 1649 0766 71070000 		.4byte	0x771
 1650 076a 03       		.uleb128 0x3
 1651 076b 01       		.byte	0x1
 1652 076c 08       		.byte	0x8
 1653 076d E1050000 		.4byte	.LASF103
ARM GAS  /tmp/ccqKJp3m.s 			page 30


 1654 0771 13       		.uleb128 0x13
 1655 0772 6A070000 		.4byte	0x76a
 1656 0776 0A       		.uleb128 0xa
 1657 0777 04       		.byte	0x4
 1658 0778 73040000 		.4byte	0x473
 1659 077c 0A       		.uleb128 0xa
 1660 077d 04       		.byte	0x4
 1661 077e 18030000 		.4byte	0x318
 1662 0782 14       		.uleb128 0x14
 1663 0783 64070000 		.4byte	0x764
 1664 0787 04       		.uleb128 0x4
 1665 0788 BA020000 		.4byte	.LASF104
 1666 078c 05       		.byte	0x5
 1667 078d 34       		.byte	0x34
 1668 078e 2D070000 		.4byte	0x72d
 1669 0792 0A       		.uleb128 0xa
 1670 0793 04       		.byte	0x4
 1671 0794 87070000 		.4byte	0x787
 1672 0798 05       		.uleb128 0x5
 1673 0799 17040000 		.4byte	.LASF105
 1674 079d 08       		.byte	0x8
 1675 079e 11       		.byte	0x11
 1676 079f 3B       		.byte	0x3b
 1677 07a0 B1070000 		.4byte	0x7b1
 1678 07a4 06       		.uleb128 0x6
 1679 07a5 12030000 		.4byte	.LASF29
 1680 07a9 11       		.byte	0x11
 1681 07aa 3C       		.byte	0x3c
 1682 07ab 63020000 		.4byte	0x263
 1683 07af 00       		.byte	0
 1684 07b0 00       		.byte	0
 1685 07b1 04       		.uleb128 0x4
 1686 07b2 12020000 		.4byte	.LASF106
 1687 07b6 11       		.byte	0x11
 1688 07b7 3E       		.byte	0x3e
 1689 07b8 98070000 		.4byte	0x798
 1690 07bc 03       		.uleb128 0x3
 1691 07bd 01       		.byte	0x1
 1692 07be 02       		.byte	0x2
 1693 07bf CA040000 		.4byte	.LASF107
 1694 07c3 15       		.uleb128 0x15
 1695 07c4 3F060000 		.4byte	.LASF110
 1696 07c8 03       		.byte	0x3
 1697 07c9 EB01     		.2byte	0x1eb
 1698 07cb 03       		.byte	0x3
 1699 07cc DD070000 		.4byte	0x7dd
 1700 07d0 16       		.uleb128 0x16
 1701 07d1 27020000 		.4byte	.LASF112
 1702 07d5 03       		.byte	0x3
 1703 07d6 EB01     		.2byte	0x1eb
 1704 07d8 B4000000 		.4byte	0xb4
 1705 07dc 00       		.byte	0
 1706 07dd 17       		.uleb128 0x17
 1707 07de D8060000 		.4byte	.LASF115
 1708 07e2 06       		.byte	0x6
 1709 07e3 1001     		.2byte	0x110
 1710 07e5 39020000 		.4byte	0x239
ARM GAS  /tmp/ccqKJp3m.s 			page 31


 1711 07e9 03       		.byte	0x3
 1712 07ea 18       		.uleb128 0x18
 1713 07eb 60010000 		.4byte	.LASF108
 1714 07ef 0D       		.byte	0xd
 1715 07f0 5A02     		.2byte	0x25a
 1716 07f2 03       		.byte	0x3
 1717 07f3 18       		.uleb128 0x18
 1718 07f4 36020000 		.4byte	.LASF109
 1719 07f8 0D       		.byte	0xd
 1720 07f9 7202     		.2byte	0x272
 1721 07fb 03       		.byte	0x3
 1722 07fc 15       		.uleb128 0x15
 1723 07fd 71000000 		.4byte	.LASF111
 1724 0801 01       		.byte	0x1
 1725 0802 1902     		.2byte	0x219
 1726 0804 03       		.byte	0x3
 1727 0805 16080000 		.4byte	0x816
 1728 0809 19       		.uleb128 0x19
 1729 080a 74717000 		.ascii	"tqp\000"
 1730 080e 01       		.byte	0x1
 1731 080f 1902     		.2byte	0x219
 1732 0811 16080000 		.4byte	0x816
 1733 0815 00       		.byte	0
 1734 0816 0A       		.uleb128 0xa
 1735 0817 04       		.byte	0x4
 1736 0818 63020000 		.4byte	0x263
 1737 081c 1A       		.uleb128 0x1a
 1738 081d 63020000 		.4byte	.LASF113
 1739 0821 01       		.byte	0x1
 1740 0822 3402     		.2byte	0x234
 1741 0824 BC070000 		.4byte	0x7bc
 1742 0828 03       		.byte	0x3
 1743 0829 3A080000 		.4byte	0x83a
 1744 082d 19       		.uleb128 0x19
 1745 082e 74717000 		.ascii	"tqp\000"
 1746 0832 01       		.byte	0x1
 1747 0833 3402     		.2byte	0x234
 1748 0835 3A080000 		.4byte	0x83a
 1749 0839 00       		.byte	0
 1750 083a 0A       		.uleb128 0xa
 1751 083b 04       		.byte	0x4
 1752 083c 40080000 		.4byte	0x840
 1753 0840 13       		.uleb128 0x13
 1754 0841 63020000 		.4byte	0x263
 1755 0845 1A       		.uleb128 0x1a
 1756 0846 1A060000 		.4byte	.LASF114
 1757 084a 01       		.byte	0x1
 1758 084b 5E02     		.2byte	0x25e
 1759 084d 39020000 		.4byte	0x239
 1760 0851 03       		.byte	0x3
 1761 0852 6E080000 		.4byte	0x86e
 1762 0856 19       		.uleb128 0x19
 1763 0857 74717000 		.ascii	"tqp\000"
 1764 085b 01       		.byte	0x1
 1765 085c 5E02     		.2byte	0x25e
 1766 085e 16080000 		.4byte	0x816
 1767 0862 1B       		.uleb128 0x1b
ARM GAS  /tmp/ccqKJp3m.s 			page 32


 1768 0863 747000   		.ascii	"tp\000"
 1769 0866 01       		.byte	0x1
 1770 0867 5F02     		.2byte	0x25f
 1771 0869 39020000 		.4byte	0x239
 1772 086d 00       		.byte	0
 1773 086e 1C       		.uleb128 0x1c
 1774 086f B5050000 		.4byte	.LASF116
 1775 0873 05       		.byte	0x5
 1776 0874 9F       		.byte	0x9f
 1777 0875 92070000 		.4byte	0x792
 1778 0879 03       		.byte	0x3
 1779 087a 1D       		.uleb128 0x1d
 1780 087b 66070000 		.4byte	.LASF143
 1781 087f 01       		.byte	0x1
 1782 0880 4A02     		.2byte	0x24a
 1783 0882 00000000 		.4byte	.LFB172
 1784 0886 20000000 		.4byte	.LFE172-.LFB172
 1785 088a 01       		.uleb128 0x1
 1786 088b 9C       		.byte	0x9c
 1787 088c BB080000 		.4byte	0x8bb
 1788 0890 1E       		.uleb128 0x1e
 1789 0891 747000   		.ascii	"tp\000"
 1790 0894 01       		.byte	0x1
 1791 0895 4A02     		.2byte	0x24a
 1792 0897 39020000 		.4byte	0x239
 1793 089b 01       		.uleb128 0x1
 1794 089c 50       		.byte	0x50
 1795 089d 1E       		.uleb128 0x1e
 1796 089e 74717000 		.ascii	"tqp\000"
 1797 08a2 01       		.byte	0x1
 1798 08a3 4A02     		.2byte	0x24a
 1799 08a5 16080000 		.4byte	0x816
 1800 08a9 01       		.uleb128 0x1
 1801 08aa 51       		.byte	0x51
 1802 08ab 1F       		.uleb128 0x1f
 1803 08ac 637000   		.ascii	"cp\000"
 1804 08af 01       		.byte	0x1
 1805 08b0 4C02     		.2byte	0x24c
 1806 08b2 39020000 		.4byte	0x239
 1807 08b6 00000000 		.4byte	.LLST0
 1808 08ba 00       		.byte	0
 1809 08bb 20       		.uleb128 0x20
 1810 08bc F8050000 		.4byte	.LASF120
 1811 08c0 02       		.byte	0x2
 1812 08c1 4B       		.byte	0x4b
 1813 08c2 00000000 		.4byte	.LFB290
 1814 08c6 06000000 		.4byte	.LFE290-.LFB290
 1815 08ca 01       		.uleb128 0x1
 1816 08cb 9C       		.byte	0x9c
 1817 08cc FF080000 		.4byte	0x8ff
 1818 08d0 21       		.uleb128 0x21
 1819 08d1 637000   		.ascii	"cp\000"
 1820 08d4 02       		.byte	0x2
 1821 08d5 4B       		.byte	0x4b
 1822 08d6 FF080000 		.4byte	0x8ff
 1823 08da 01       		.uleb128 0x1
 1824 08db 50       		.byte	0x50
ARM GAS  /tmp/ccqKJp3m.s 			page 33


 1825 08dc 22       		.uleb128 0x22
 1826 08dd 0A050000 		.4byte	.LASF119
 1827 08e1 15090000 		.4byte	0x915
 1828 08e5 23       		.uleb128 0x23
 1829 08e6 FC070000 		.4byte	0x7fc
 1830 08ea 00000000 		.4byte	.LBB39
 1831 08ee 06000000 		.4byte	.LBE39-.LBB39
 1832 08f2 02       		.byte	0x2
 1833 08f3 4F       		.byte	0x4f
 1834 08f4 24       		.uleb128 0x24
 1835 08f5 09080000 		.4byte	0x809
 1836 08f9 1E000000 		.4byte	.LLST1
 1837 08fd 00       		.byte	0
 1838 08fe 00       		.byte	0
 1839 08ff 0A       		.uleb128 0xa
 1840 0900 04       		.byte	0x4
 1841 0901 B1070000 		.4byte	0x7b1
 1842 0905 25       		.uleb128 0x25
 1843 0906 71070000 		.4byte	0x771
 1844 090a 15090000 		.4byte	0x915
 1845 090e 26       		.uleb128 0x26
 1846 090f 61040000 		.4byte	0x461
 1847 0913 10       		.byte	0x10
 1848 0914 00       		.byte	0
 1849 0915 13       		.uleb128 0x13
 1850 0916 05090000 		.4byte	0x905
 1851 091a 18       		.uleb128 0x18
 1852 091b 13050000 		.4byte	.LASF117
 1853 091f 04       		.byte	0x4
 1854 0920 6101     		.2byte	0x161
 1855 0922 03       		.byte	0x3
 1856 0923 15       		.uleb128 0x15
 1857 0924 4F070000 		.4byte	.LASF118
 1858 0928 04       		.byte	0x4
 1859 0929 6D01     		.2byte	0x16d
 1860 092b 03       		.byte	0x3
 1861 092c 3E090000 		.4byte	0x93e
 1862 0930 27       		.uleb128 0x27
 1863 0931 0A050000 		.4byte	.LASF119
 1864 0935 4E090000 		.4byte	0x94e
 1865 0939 4F070000 		.4byte	.LASF118
 1866 093d 00       		.byte	0
 1867 093e 25       		.uleb128 0x25
 1868 093f 71070000 		.4byte	0x771
 1869 0943 4E090000 		.4byte	0x94e
 1870 0947 26       		.uleb128 0x26
 1871 0948 61040000 		.4byte	0x461
 1872 094c 0B       		.byte	0xb
 1873 094d 00       		.byte	0
 1874 094e 13       		.uleb128 0x13
 1875 094f 3E090000 		.4byte	0x93e
 1876 0953 20       		.uleb128 0x20
 1877 0954 C2020000 		.4byte	.LASF121
 1878 0958 02       		.byte	0x2
 1879 0959 59       		.byte	0x59
 1880 095a 00000000 		.4byte	.LFB291
 1881 095e 2C000000 		.4byte	.LFE291-.LFB291
ARM GAS  /tmp/ccqKJp3m.s 			page 34


 1882 0962 01       		.uleb128 0x1
 1883 0963 9C       		.byte	0x9c
 1884 0964 7F0A0000 		.4byte	0xa7f
 1885 0968 28       		.uleb128 0x28
 1886 0969 637000   		.ascii	"cp\000"
 1887 096c 02       		.byte	0x2
 1888 096d 59       		.byte	0x59
 1889 096e FF080000 		.4byte	0x8ff
 1890 0972 31000000 		.4byte	.LLST2
 1891 0976 22       		.uleb128 0x22
 1892 0977 0A050000 		.4byte	.LASF119
 1893 097b 8F0A0000 		.4byte	0xa8f
 1894 097f 29       		.uleb128 0x29
 1895 0980 1A090000 		.4byte	0x91a
 1896 0984 02000000 		.4byte	.LBB55
 1897 0988 00000000 		.4byte	.Ldebug_ranges0+0
 1898 098c 02       		.byte	0x2
 1899 098d 5D       		.byte	0x5d
 1900 098e CB090000 		.4byte	0x9cb
 1901 0992 2A       		.uleb128 0x2a
 1902 0993 EA070000 		.4byte	0x7ea
 1903 0997 02000000 		.4byte	.LBB57
 1904 099b 18000000 		.4byte	.Ldebug_ranges0+0x18
 1905 099f 04       		.byte	0x4
 1906 09a0 6301     		.2byte	0x163
 1907 09a2 C1090000 		.4byte	0x9c1
 1908 09a6 2B       		.uleb128 0x2b
 1909 09a7 C3070000 		.4byte	0x7c3
 1910 09ab 02000000 		.4byte	.LBB58
 1911 09af 18000000 		.4byte	.Ldebug_ranges0+0x18
 1912 09b3 0D       		.byte	0xd
 1913 09b4 6202     		.2byte	0x262
 1914 09b6 24       		.uleb128 0x24
 1915 09b7 D0070000 		.4byte	0x7d0
 1916 09bb 4F000000 		.4byte	.LLST3
 1917 09bf 00       		.byte	0
 1918 09c0 00       		.byte	0
 1919 09c1 2C       		.uleb128 0x2c
 1920 09c2 0E000000 		.4byte	.LVL7
 1921 09c6 69100000 		.4byte	0x1069
 1922 09ca 00       		.byte	0
 1923 09cb 2D       		.uleb128 0x2d
 1924 09cc 1C080000 		.4byte	0x81c
 1925 09d0 0E000000 		.4byte	.LBB65
 1926 09d4 02000000 		.4byte	.LBE65-.LBB65
 1927 09d8 02       		.byte	0x2
 1928 09d9 5E       		.byte	0x5e
 1929 09da E8090000 		.4byte	0x9e8
 1930 09de 24       		.uleb128 0x24
 1931 09df 2D080000 		.4byte	0x82d
 1932 09e3 64000000 		.4byte	.LLST4
 1933 09e7 00       		.byte	0
 1934 09e8 29       		.uleb128 0x29
 1935 09e9 45080000 		.4byte	0x845
 1936 09ed 14000000 		.4byte	.LBB67
 1937 09f1 30000000 		.4byte	.Ldebug_ranges0+0x30
 1938 09f5 02       		.byte	0x2
ARM GAS  /tmp/ccqKJp3m.s 			page 35


 1939 09f6 5F       		.byte	0x5f
 1940 09f7 140A0000 		.4byte	0xa14
 1941 09fb 24       		.uleb128 0x24
 1942 09fc 56080000 		.4byte	0x856
 1943 0a00 77000000 		.4byte	.LLST5
 1944 0a04 2E       		.uleb128 0x2e
 1945 0a05 30000000 		.4byte	.Ldebug_ranges0+0x30
 1946 0a09 2F       		.uleb128 0x2f
 1947 0a0a 62080000 		.4byte	0x862
 1948 0a0e 8A000000 		.4byte	.LLST6
 1949 0a12 00       		.byte	0
 1950 0a13 00       		.byte	0
 1951 0a14 2D       		.uleb128 0x2d
 1952 0a15 23090000 		.4byte	0x923
 1953 0a19 20000000 		.4byte	.LBB71
 1954 0a1d 0C000000 		.4byte	.LBE71-.LBB71
 1955 0a21 02       		.byte	0x2
 1956 0a22 61       		.byte	0x61
 1957 0a23 6F0A0000 		.4byte	0xa6f
 1958 0a27 30       		.uleb128 0x30
 1959 0a28 20000000 		.4byte	.LBB72
 1960 0a2c 0C000000 		.4byte	.LBE72-.LBB72
 1961 0a30 31       		.uleb128 0x31
 1962 0a31 30090000 		.4byte	0x930
 1963 0a35 32       		.uleb128 0x32
 1964 0a36 F3070000 		.4byte	0x7f3
 1965 0a3a 24000000 		.4byte	.LBB73
 1966 0a3e 08000000 		.4byte	.LBE73-.LBB73
 1967 0a42 04       		.byte	0x4
 1968 0a43 7A01     		.2byte	0x17a
 1969 0a45 640A0000 		.4byte	0xa64
 1970 0a49 33       		.uleb128 0x33
 1971 0a4a C3070000 		.4byte	0x7c3
 1972 0a4e 24000000 		.4byte	.LBB74
 1973 0a52 08000000 		.4byte	.LBE74-.LBB74
 1974 0a56 0D       		.byte	0xd
 1975 0a57 7502     		.2byte	0x275
 1976 0a59 24       		.uleb128 0x24
 1977 0a5a D0070000 		.4byte	0x7d0
 1978 0a5e 9D000000 		.4byte	.LLST7
 1979 0a62 00       		.byte	0
 1980 0a63 00       		.byte	0
 1981 0a64 2C       		.uleb128 0x2c
 1982 0a65 24000000 		.4byte	.LVL12
 1983 0a69 74100000 		.4byte	0x1074
 1984 0a6d 00       		.byte	0
 1985 0a6e 00       		.byte	0
 1986 0a6f 34       		.uleb128 0x34
 1987 0a70 20000000 		.4byte	.LVL11
 1988 0a74 7F100000 		.4byte	0x107f
 1989 0a78 35       		.uleb128 0x35
 1990 0a79 01       		.uleb128 0x1
 1991 0a7a 51       		.byte	0x51
 1992 0a7b 01       		.uleb128 0x1
 1993 0a7c 30       		.byte	0x30
 1994 0a7d 00       		.byte	0
 1995 0a7e 00       		.byte	0
ARM GAS  /tmp/ccqKJp3m.s 			page 36


 1996 0a7f 25       		.uleb128 0x25
 1997 0a80 71070000 		.4byte	0x771
 1998 0a84 8F0A0000 		.4byte	0xa8f
 1999 0a88 26       		.uleb128 0x26
 2000 0a89 61040000 		.4byte	0x461
 2001 0a8d 0C       		.byte	0xc
 2002 0a8e 00       		.byte	0
 2003 0a8f 13       		.uleb128 0x13
 2004 0a90 7F0A0000 		.4byte	0xa7f
 2005 0a94 20       		.uleb128 0x20
 2006 0a95 BC040000 		.4byte	.LASF122
 2007 0a99 02       		.byte	0x2
 2008 0a9a 6F       		.byte	0x6f
 2009 0a9b 00000000 		.4byte	.LFB292
 2010 0a9f 18000000 		.4byte	.LFE292-.LFB292
 2011 0aa3 01       		.uleb128 0x1
 2012 0aa4 9C       		.byte	0x9c
 2013 0aa5 2B0B0000 		.4byte	0xb2b
 2014 0aa9 28       		.uleb128 0x28
 2015 0aaa 637000   		.ascii	"cp\000"
 2016 0aad 02       		.byte	0x2
 2017 0aae 6F       		.byte	0x6f
 2018 0aaf FF080000 		.4byte	0x8ff
 2019 0ab3 B1000000 		.4byte	.LLST8
 2020 0ab7 22       		.uleb128 0x22
 2021 0ab8 0A050000 		.4byte	.LASF119
 2022 0abc 3B0B0000 		.4byte	0xb3b
 2023 0ac0 2D       		.uleb128 0x2d
 2024 0ac1 1C080000 		.4byte	0x81c
 2025 0ac5 00000000 		.4byte	.LBB76
 2026 0ac9 02000000 		.4byte	.LBE76-.LBB76
 2027 0acd 02       		.byte	0x2
 2028 0ace 74       		.byte	0x74
 2029 0acf DD0A0000 		.4byte	0xadd
 2030 0ad3 24       		.uleb128 0x24
 2031 0ad4 2D080000 		.4byte	0x82d
 2032 0ad8 DD000000 		.4byte	.LLST9
 2033 0adc 00       		.byte	0
 2034 0add 30       		.uleb128 0x30
 2035 0ade 06000000 		.4byte	.LBB78
 2036 0ae2 12000000 		.4byte	.LBE78-.LBB78
 2037 0ae6 36       		.uleb128 0x36
 2038 0ae7 747000   		.ascii	"tp\000"
 2039 0aea 02       		.byte	0x2
 2040 0aeb 75       		.byte	0x75
 2041 0aec 39020000 		.4byte	0x239
 2042 0af0 2D       		.uleb128 0x2d
 2043 0af1 45080000 		.4byte	0x845
 2044 0af5 06000000 		.4byte	.LBB79
 2045 0af9 06000000 		.4byte	.LBE79-.LBB79
 2046 0afd 02       		.byte	0x2
 2047 0afe 75       		.byte	0x75
 2048 0aff 200B0000 		.4byte	0xb20
 2049 0b03 24       		.uleb128 0x24
 2050 0b04 56080000 		.4byte	0x856
 2051 0b08 F0000000 		.4byte	.LLST10
 2052 0b0c 30       		.uleb128 0x30
ARM GAS  /tmp/ccqKJp3m.s 			page 37


 2053 0b0d 06000000 		.4byte	.LBB80
 2054 0b11 06000000 		.4byte	.LBE80-.LBB80
 2055 0b15 2F       		.uleb128 0x2f
 2056 0b16 62080000 		.4byte	0x862
 2057 0b1a 03010000 		.4byte	.LLST11
 2058 0b1e 00       		.byte	0
 2059 0b1f 00       		.byte	0
 2060 0b20 37       		.uleb128 0x37
 2061 0b21 16000000 		.4byte	.LVL19
 2062 0b25 8B100000 		.4byte	0x108b
 2063 0b29 00       		.byte	0
 2064 0b2a 00       		.byte	0
 2065 0b2b 25       		.uleb128 0x25
 2066 0b2c 71070000 		.4byte	0x771
 2067 0b30 3B0B0000 		.4byte	0xb3b
 2068 0b34 26       		.uleb128 0x26
 2069 0b35 61040000 		.4byte	0x461
 2070 0b39 0D       		.byte	0xd
 2071 0b3a 00       		.byte	0
 2072 0b3b 13       		.uleb128 0x13
 2073 0b3c 2B0B0000 		.4byte	0xb2b
 2074 0b40 20       		.uleb128 0x20
 2075 0b41 83010000 		.4byte	.LASF123
 2076 0b45 02       		.byte	0x2
 2077 0b46 95       		.byte	0x95
 2078 0b47 00000000 		.4byte	.LFB294
 2079 0b4b 1E000000 		.4byte	.LFE294-.LFB294
 2080 0b4f 01       		.uleb128 0x1
 2081 0b50 9C       		.byte	0x9c
 2082 0b51 C30B0000 		.4byte	0xbc3
 2083 0b55 28       		.uleb128 0x28
 2084 0b56 637000   		.ascii	"cp\000"
 2085 0b59 02       		.byte	0x2
 2086 0b5a 95       		.byte	0x95
 2087 0b5b FF080000 		.4byte	0x8ff
 2088 0b5f 16010000 		.4byte	.LLST12
 2089 0b63 22       		.uleb128 0x22
 2090 0b64 0A050000 		.4byte	.LASF119
 2091 0b68 C30B0000 		.4byte	0xbc3
 2092 0b6c 2D       		.uleb128 0x2d
 2093 0b6d 1C080000 		.4byte	0x81c
 2094 0b71 08000000 		.4byte	.LBB81
 2095 0b75 02000000 		.4byte	.LBE81-.LBB81
 2096 0b79 02       		.byte	0x2
 2097 0b7a 9D       		.byte	0x9d
 2098 0b7b 890B0000 		.4byte	0xb89
 2099 0b7f 24       		.uleb128 0x24
 2100 0b80 2D080000 		.4byte	0x82d
 2101 0b84 34010000 		.4byte	.LLST13
 2102 0b88 00       		.byte	0
 2103 0b89 2D       		.uleb128 0x2d
 2104 0b8a 45080000 		.4byte	0x845
 2105 0b8e 0E000000 		.4byte	.LBB83
 2106 0b92 06000000 		.4byte	.LBE83-.LBB83
 2107 0b96 02       		.byte	0x2
 2108 0b97 9E       		.byte	0x9e
 2109 0b98 B90B0000 		.4byte	0xbb9
ARM GAS  /tmp/ccqKJp3m.s 			page 38


 2110 0b9c 24       		.uleb128 0x24
 2111 0b9d 56080000 		.4byte	0x856
 2112 0ba1 47010000 		.4byte	.LLST14
 2113 0ba5 30       		.uleb128 0x30
 2114 0ba6 0E000000 		.4byte	.LBB84
 2115 0baa 06000000 		.4byte	.LBE84-.LBB84
 2116 0bae 2F       		.uleb128 0x2f
 2117 0baf 62080000 		.4byte	0x862
 2118 0bb3 5A010000 		.4byte	.LLST15
 2119 0bb7 00       		.byte	0
 2120 0bb8 00       		.byte	0
 2121 0bb9 2C       		.uleb128 0x2c
 2122 0bba 18000000 		.4byte	.LVL25
 2123 0bbe 8B100000 		.4byte	0x108b
 2124 0bc2 00       		.byte	0
 2125 0bc3 13       		.uleb128 0x13
 2126 0bc4 05090000 		.4byte	0x905
 2127 0bc8 20       		.uleb128 0x20
 2128 0bc9 69040000 		.4byte	.LASF124
 2129 0bcd 02       		.byte	0x2
 2130 0bce 82       		.byte	0x82
 2131 0bcf 00000000 		.4byte	.LFB293
 2132 0bd3 24000000 		.4byte	.LFE293-.LFB293
 2133 0bd7 01       		.uleb128 0x1
 2134 0bd8 9C       		.byte	0x9c
 2135 0bd9 B00C0000 		.4byte	0xcb0
 2136 0bdd 28       		.uleb128 0x28
 2137 0bde 637000   		.ascii	"cp\000"
 2138 0be1 02       		.byte	0x2
 2139 0be2 82       		.byte	0x82
 2140 0be3 FF080000 		.4byte	0x8ff
 2141 0be7 6D010000 		.4byte	.LLST16
 2142 0beb 29       		.uleb128 0x29
 2143 0bec 1A090000 		.4byte	0x91a
 2144 0bf0 02000000 		.4byte	.LBB95
 2145 0bf4 48000000 		.4byte	.Ldebug_ranges0+0x48
 2146 0bf8 02       		.byte	0x2
 2147 0bf9 84       		.byte	0x84
 2148 0bfa 370C0000 		.4byte	0xc37
 2149 0bfe 2A       		.uleb128 0x2a
 2150 0bff EA070000 		.4byte	0x7ea
 2151 0c03 02000000 		.4byte	.LBB97
 2152 0c07 60000000 		.4byte	.Ldebug_ranges0+0x60
 2153 0c0b 04       		.byte	0x4
 2154 0c0c 6301     		.2byte	0x163
 2155 0c0e 2D0C0000 		.4byte	0xc2d
 2156 0c12 2B       		.uleb128 0x2b
 2157 0c13 C3070000 		.4byte	0x7c3
 2158 0c17 02000000 		.4byte	.LBB98
 2159 0c1b 60000000 		.4byte	.Ldebug_ranges0+0x60
 2160 0c1f 0D       		.byte	0xd
 2161 0c20 6202     		.2byte	0x262
 2162 0c22 24       		.uleb128 0x24
 2163 0c23 D0070000 		.4byte	0x7d0
 2164 0c27 8B010000 		.4byte	.LLST17
 2165 0c2b 00       		.byte	0
 2166 0c2c 00       		.byte	0
ARM GAS  /tmp/ccqKJp3m.s 			page 39


 2167 0c2d 2C       		.uleb128 0x2c
 2168 0c2e 0E000000 		.4byte	.LVL28
 2169 0c32 69100000 		.4byte	0x1069
 2170 0c36 00       		.byte	0
 2171 0c37 2D       		.uleb128 0x2d
 2172 0c38 23090000 		.4byte	0x923
 2173 0c3c 18000000 		.4byte	.LBB105
 2174 0c40 0C000000 		.4byte	.LBE105-.LBB105
 2175 0c44 02       		.byte	0x2
 2176 0c45 87       		.byte	0x87
 2177 0c46 920C0000 		.4byte	0xc92
 2178 0c4a 30       		.uleb128 0x30
 2179 0c4b 18000000 		.4byte	.LBB106
 2180 0c4f 0C000000 		.4byte	.LBE106-.LBB106
 2181 0c53 31       		.uleb128 0x31
 2182 0c54 30090000 		.4byte	0x930
 2183 0c58 32       		.uleb128 0x32
 2184 0c59 F3070000 		.4byte	0x7f3
 2185 0c5d 1C000000 		.4byte	.LBB107
 2186 0c61 08000000 		.4byte	.LBE107-.LBB107
 2187 0c65 04       		.byte	0x4
 2188 0c66 7A01     		.2byte	0x17a
 2189 0c68 870C0000 		.4byte	0xc87
 2190 0c6c 33       		.uleb128 0x33
 2191 0c6d C3070000 		.4byte	0x7c3
 2192 0c71 1C000000 		.4byte	.LBB108
 2193 0c75 08000000 		.4byte	.LBE108-.LBB108
 2194 0c79 0D       		.byte	0xd
 2195 0c7a 7502     		.2byte	0x275
 2196 0c7c 24       		.uleb128 0x24
 2197 0c7d D0070000 		.4byte	0x7d0
 2198 0c81 A0010000 		.4byte	.LLST18
 2199 0c85 00       		.byte	0
 2200 0c86 00       		.byte	0
 2201 0c87 2C       		.uleb128 0x2c
 2202 0c88 1C000000 		.4byte	.LVL31
 2203 0c8c 74100000 		.4byte	0x1074
 2204 0c90 00       		.byte	0
 2205 0c91 00       		.byte	0
 2206 0c92 38       		.uleb128 0x38
 2207 0c93 14000000 		.4byte	.LVL29
 2208 0c97 400B0000 		.4byte	0xb40
 2209 0c9b A60C0000 		.4byte	0xca6
 2210 0c9f 35       		.uleb128 0x35
 2211 0ca0 01       		.uleb128 0x1
 2212 0ca1 50       		.byte	0x50
 2213 0ca2 02       		.uleb128 0x2
 2214 0ca3 74       		.byte	0x74
 2215 0ca4 00       		.sleb128 0
 2216 0ca5 00       		.byte	0
 2217 0ca6 2C       		.uleb128 0x2c
 2218 0ca7 18000000 		.4byte	.LVL30
 2219 0cab 97100000 		.4byte	0x1097
 2220 0caf 00       		.byte	0
 2221 0cb0 39       		.uleb128 0x39
 2222 0cb1 EC050000 		.4byte	.LASF125
 2223 0cb5 02       		.byte	0x2
ARM GAS  /tmp/ccqKJp3m.s 			page 40


 2224 0cb6 CD       		.byte	0xcd
 2225 0cb7 0C010000 		.4byte	0x10c
 2226 0cbb 00000000 		.4byte	.LFB296
 2227 0cbf 30000000 		.4byte	.LFE296-.LFB296
 2228 0cc3 01       		.uleb128 0x1
 2229 0cc4 9C       		.byte	0x9c
 2230 0cc5 690D0000 		.4byte	0xd69
 2231 0cc9 28       		.uleb128 0x28
 2232 0cca 637000   		.ascii	"cp\000"
 2233 0ccd 02       		.byte	0x2
 2234 0cce CD       		.byte	0xcd
 2235 0ccf FF080000 		.4byte	0x8ff
 2236 0cd3 B4010000 		.4byte	.LLST19
 2237 0cd7 3A       		.uleb128 0x3a
 2238 0cd8 63747000 		.ascii	"ctp\000"
 2239 0cdc 02       		.byte	0x2
 2240 0cdd CE       		.byte	0xce
 2241 0cde 39020000 		.4byte	0x239
 2242 0ce2 E0010000 		.4byte	.LLST20
 2243 0ce6 36       		.uleb128 0x36
 2244 0ce7 6D7000   		.ascii	"mp\000"
 2245 0cea 02       		.byte	0x2
 2246 0ceb CF       		.byte	0xcf
 2247 0cec 92070000 		.4byte	0x792
 2248 0cf0 3A       		.uleb128 0x3a
 2249 0cf1 6D736700 		.ascii	"msg\000"
 2250 0cf5 02       		.byte	0x2
 2251 0cf6 D0       		.byte	0xd0
 2252 0cf7 0C010000 		.4byte	0x10c
 2253 0cfb F3010000 		.4byte	.LLST21
 2254 0cff 22       		.uleb128 0x22
 2255 0d00 0A050000 		.4byte	.LASF119
 2256 0d04 690D0000 		.4byte	0xd69
 2257 0d08 3B       		.uleb128 0x3b
 2258 0d09 6E080000 		.4byte	0x86e
 2259 0d0d 06000000 		.4byte	.LBB110
 2260 0d11 02000000 		.4byte	.LBE110-.LBB110
 2261 0d15 02       		.byte	0x2
 2262 0d16 CF       		.byte	0xcf
 2263 0d17 38       		.uleb128 0x38
 2264 0d18 10000000 		.4byte	.LVL36
 2265 0d1c A3100000 		.4byte	0x10a3
 2266 0d20 2B0D0000 		.4byte	0xd2b
 2267 0d24 35       		.uleb128 0x35
 2268 0d25 01       		.uleb128 0x1
 2269 0d26 50       		.byte	0x50
 2270 0d27 02       		.uleb128 0x2
 2271 0d28 75       		.byte	0x75
 2272 0d29 00       		.sleb128 0
 2273 0d2a 00       		.byte	0
 2274 0d2b 38       		.uleb128 0x38
 2275 0d2c 1A000000 		.4byte	.LVL37
 2276 0d30 7A080000 		.4byte	0x87a
 2277 0d34 450D0000 		.4byte	0xd45
 2278 0d38 35       		.uleb128 0x35
 2279 0d39 01       		.uleb128 0x1
 2280 0d3a 50       		.byte	0x50
ARM GAS  /tmp/ccqKJp3m.s 			page 41


 2281 0d3b 02       		.uleb128 0x2
 2282 0d3c 74       		.byte	0x74
 2283 0d3d 00       		.sleb128 0
 2284 0d3e 35       		.uleb128 0x35
 2285 0d3f 01       		.uleb128 0x1
 2286 0d40 51       		.byte	0x51
 2287 0d41 02       		.uleb128 0x2
 2288 0d42 76       		.byte	0x76
 2289 0d43 00       		.sleb128 0
 2290 0d44 00       		.byte	0
 2291 0d45 38       		.uleb128 0x38
 2292 0d46 20000000 		.4byte	.LVL38
 2293 0d4a AE100000 		.4byte	0x10ae
 2294 0d4e 580D0000 		.4byte	0xd58
 2295 0d52 35       		.uleb128 0x35
 2296 0d53 01       		.uleb128 0x1
 2297 0d54 50       		.byte	0x50
 2298 0d55 01       		.uleb128 0x1
 2299 0d56 37       		.byte	0x37
 2300 0d57 00       		.byte	0
 2301 0d58 34       		.uleb128 0x34
 2302 0d59 28000000 		.4byte	.LVL40
 2303 0d5d BA100000 		.4byte	0x10ba
 2304 0d61 35       		.uleb128 0x35
 2305 0d62 01       		.uleb128 0x1
 2306 0d63 50       		.byte	0x50
 2307 0d64 02       		.uleb128 0x2
 2308 0d65 75       		.byte	0x75
 2309 0d66 00       		.sleb128 0
 2310 0d67 00       		.byte	0
 2311 0d68 00       		.byte	0
 2312 0d69 13       		.uleb128 0x13
 2313 0d6a 3E090000 		.4byte	0x93e
 2314 0d6e 39       		.uleb128 0x39
 2315 0d6f 66060000 		.4byte	.LASF126
 2316 0d73 02       		.byte	0x2
 2317 0d74 B3       		.byte	0xb3
 2318 0d75 0C010000 		.4byte	0x10c
 2319 0d79 00000000 		.4byte	.LFB295
 2320 0d7d 24000000 		.4byte	.LFE295-.LFB295
 2321 0d81 01       		.uleb128 0x1
 2322 0d82 9C       		.byte	0x9c
 2323 0d83 5C0E0000 		.4byte	0xe5c
 2324 0d87 28       		.uleb128 0x28
 2325 0d88 637000   		.ascii	"cp\000"
 2326 0d8b 02       		.byte	0x2
 2327 0d8c B3       		.byte	0xb3
 2328 0d8d FF080000 		.4byte	0x8ff
 2329 0d91 11020000 		.4byte	.LLST22
 2330 0d95 3A       		.uleb128 0x3a
 2331 0d96 6D736700 		.ascii	"msg\000"
 2332 0d9a 02       		.byte	0x2
 2333 0d9b B4       		.byte	0xb4
 2334 0d9c 0C010000 		.4byte	0x10c
 2335 0da0 3D020000 		.4byte	.LLST23
 2336 0da4 29       		.uleb128 0x29
 2337 0da5 1A090000 		.4byte	0x91a
ARM GAS  /tmp/ccqKJp3m.s 			page 42


 2338 0da9 02000000 		.4byte	.LBB122
 2339 0dad 78000000 		.4byte	.Ldebug_ranges0+0x78
 2340 0db1 02       		.byte	0x2
 2341 0db2 B6       		.byte	0xb6
 2342 0db3 F00D0000 		.4byte	0xdf0
 2343 0db7 2A       		.uleb128 0x2a
 2344 0db8 EA070000 		.4byte	0x7ea
 2345 0dbc 02000000 		.4byte	.LBB124
 2346 0dc0 90000000 		.4byte	.Ldebug_ranges0+0x90
 2347 0dc4 04       		.byte	0x4
 2348 0dc5 6301     		.2byte	0x163
 2349 0dc7 E60D0000 		.4byte	0xde6
 2350 0dcb 2B       		.uleb128 0x2b
 2351 0dcc C3070000 		.4byte	0x7c3
 2352 0dd0 02000000 		.4byte	.LBB125
 2353 0dd4 90000000 		.4byte	.Ldebug_ranges0+0x90
 2354 0dd8 0D       		.byte	0xd
 2355 0dd9 6202     		.2byte	0x262
 2356 0ddb 24       		.uleb128 0x24
 2357 0ddc D0070000 		.4byte	0x7d0
 2358 0de0 5B020000 		.4byte	.LLST24
 2359 0de4 00       		.byte	0
 2360 0de5 00       		.byte	0
 2361 0de6 2C       		.uleb128 0x2c
 2362 0de7 0E000000 		.4byte	.LVL44
 2363 0deb 69100000 		.4byte	0x1069
 2364 0def 00       		.byte	0
 2365 0df0 2D       		.uleb128 0x2d
 2366 0df1 23090000 		.4byte	0x923
 2367 0df5 16000000 		.4byte	.LBB132
 2368 0df9 0A000000 		.4byte	.LBE132-.LBB132
 2369 0dfd 02       		.byte	0x2
 2370 0dfe B8       		.byte	0xb8
 2371 0dff 4B0E0000 		.4byte	0xe4b
 2372 0e03 30       		.uleb128 0x30
 2373 0e04 16000000 		.4byte	.LBB133
 2374 0e08 0A000000 		.4byte	.LBE133-.LBB133
 2375 0e0c 31       		.uleb128 0x31
 2376 0e0d 30090000 		.4byte	0x930
 2377 0e11 32       		.uleb128 0x32
 2378 0e12 F3070000 		.4byte	0x7f3
 2379 0e16 1A000000 		.4byte	.LBB134
 2380 0e1a 06000000 		.4byte	.LBE134-.LBB134
 2381 0e1e 04       		.byte	0x4
 2382 0e1f 7A01     		.2byte	0x17a
 2383 0e21 400E0000 		.4byte	0xe40
 2384 0e25 33       		.uleb128 0x33
 2385 0e26 C3070000 		.4byte	0x7c3
 2386 0e2a 1A000000 		.4byte	.LBB135
 2387 0e2e 06000000 		.4byte	.LBE135-.LBB135
 2388 0e32 0D       		.byte	0xd
 2389 0e33 7502     		.2byte	0x275
 2390 0e35 24       		.uleb128 0x24
 2391 0e36 D0070000 		.4byte	0x7d0
 2392 0e3a 70020000 		.4byte	.LLST25
 2393 0e3e 00       		.byte	0
 2394 0e3f 00       		.byte	0
ARM GAS  /tmp/ccqKJp3m.s 			page 43


 2395 0e40 2C       		.uleb128 0x2c
 2396 0e41 1A000000 		.4byte	.LVL47
 2397 0e45 74100000 		.4byte	0x1074
 2398 0e49 00       		.byte	0
 2399 0e4a 00       		.byte	0
 2400 0e4b 34       		.uleb128 0x34
 2401 0e4c 14000000 		.4byte	.LVL45
 2402 0e50 B00C0000 		.4byte	0xcb0
 2403 0e54 35       		.uleb128 0x35
 2404 0e55 01       		.uleb128 0x1
 2405 0e56 50       		.byte	0x50
 2406 0e57 02       		.uleb128 0x2
 2407 0e58 74       		.byte	0x74
 2408 0e59 00       		.sleb128 0
 2409 0e5a 00       		.byte	0
 2410 0e5b 00       		.byte	0
 2411 0e5c 3C       		.uleb128 0x3c
 2412 0e5d 2A040000 		.4byte	.LASF127
 2413 0e61 02       		.byte	0x2
 2414 0e62 2701     		.2byte	0x127
 2415 0e64 0C010000 		.4byte	0x10c
 2416 0e68 00000000 		.4byte	.LFB298
 2417 0e6c 38000000 		.4byte	.LFE298-.LFB298
 2418 0e70 01       		.uleb128 0x1
 2419 0e71 9C       		.byte	0x9c
 2420 0e72 2F0F0000 		.4byte	0xf2f
 2421 0e76 3D       		.uleb128 0x3d
 2422 0e77 637000   		.ascii	"cp\000"
 2423 0e7a 02       		.byte	0x2
 2424 0e7b 2701     		.2byte	0x127
 2425 0e7d FF080000 		.4byte	0x8ff
 2426 0e81 84020000 		.4byte	.LLST26
 2427 0e85 3E       		.uleb128 0x3e
 2428 0e86 04030000 		.4byte	.LASF128
 2429 0e8a 02       		.byte	0x2
 2430 0e8b 2701     		.2byte	0x127
 2431 0e8d 56040000 		.4byte	0x456
 2432 0e91 B0020000 		.4byte	.LLST27
 2433 0e95 1B       		.uleb128 0x1b
 2434 0e96 6D7000   		.ascii	"mp\000"
 2435 0e99 02       		.byte	0x2
 2436 0e9a 2801     		.2byte	0x128
 2437 0e9c 92070000 		.4byte	0x792
 2438 0ea0 1F       		.uleb128 0x1f
 2439 0ea1 6D736700 		.ascii	"msg\000"
 2440 0ea5 02       		.byte	0x2
 2441 0ea6 2901     		.2byte	0x129
 2442 0ea8 0C010000 		.4byte	0x10c
 2443 0eac DC020000 		.4byte	.LLST28
 2444 0eb0 22       		.uleb128 0x22
 2445 0eb1 0A050000 		.4byte	.LASF119
 2446 0eb5 3F0F0000 		.4byte	0xf3f
 2447 0eb9 32       		.uleb128 0x32
 2448 0eba 6E080000 		.4byte	0x86e
 2449 0ebe 02000000 		.4byte	.LBB137
 2450 0ec2 06000000 		.4byte	.LBE137-.LBB137
 2451 0ec6 02       		.byte	0x2
ARM GAS  /tmp/ccqKJp3m.s 			page 44


 2452 0ec7 2801     		.2byte	0x128
 2453 0ec9 DD0E0000 		.4byte	0xedd
 2454 0ecd 3B       		.uleb128 0x3b
 2455 0ece DD070000 		.4byte	0x7dd
 2456 0ed2 02000000 		.4byte	.LBB139
 2457 0ed6 02000000 		.4byte	.LBE139-.LBB139
 2458 0eda 05       		.byte	0x5
 2459 0edb A1       		.byte	0xa1
 2460 0edc 00       		.byte	0
 2461 0edd 38       		.uleb128 0x38
 2462 0ede 12000000 		.4byte	.LVL51
 2463 0ee2 A3100000 		.4byte	0x10a3
 2464 0ee6 F10E0000 		.4byte	0xef1
 2465 0eea 35       		.uleb128 0x35
 2466 0eeb 01       		.uleb128 0x1
 2467 0eec 50       		.byte	0x50
 2468 0eed 02       		.uleb128 0x2
 2469 0eee 75       		.byte	0x75
 2470 0eef 00       		.sleb128 0
 2471 0ef0 00       		.byte	0
 2472 0ef1 38       		.uleb128 0x38
 2473 0ef2 1C000000 		.4byte	.LVL52
 2474 0ef6 7A080000 		.4byte	0x87a
 2475 0efa 050F0000 		.4byte	0xf05
 2476 0efe 35       		.uleb128 0x35
 2477 0eff 01       		.uleb128 0x1
 2478 0f00 51       		.byte	0x51
 2479 0f01 02       		.uleb128 0x2
 2480 0f02 74       		.byte	0x74
 2481 0f03 00       		.sleb128 0
 2482 0f04 00       		.byte	0
 2483 0f05 38       		.uleb128 0x38
 2484 0f06 24000000 		.4byte	.LVL53
 2485 0f0a C5100000 		.4byte	0x10c5
 2486 0f0e 1E0F0000 		.4byte	0xf1e
 2487 0f12 35       		.uleb128 0x35
 2488 0f13 01       		.uleb128 0x1
 2489 0f14 50       		.byte	0x50
 2490 0f15 01       		.uleb128 0x1
 2491 0f16 37       		.byte	0x37
 2492 0f17 35       		.uleb128 0x35
 2493 0f18 01       		.uleb128 0x1
 2494 0f19 51       		.byte	0x51
 2495 0f1a 02       		.uleb128 0x2
 2496 0f1b 77       		.byte	0x77
 2497 0f1c 00       		.sleb128 0
 2498 0f1d 00       		.byte	0
 2499 0f1e 34       		.uleb128 0x34
 2500 0f1f 30000000 		.4byte	.LVL56
 2501 0f23 BA100000 		.4byte	0x10ba
 2502 0f27 35       		.uleb128 0x35
 2503 0f28 01       		.uleb128 0x1
 2504 0f29 50       		.byte	0x50
 2505 0f2a 02       		.uleb128 0x2
 2506 0f2b 75       		.byte	0x75
 2507 0f2c 00       		.sleb128 0
 2508 0f2d 00       		.byte	0
ARM GAS  /tmp/ccqKJp3m.s 			page 45


 2509 0f2e 00       		.byte	0
 2510 0f2f 25       		.uleb128 0x25
 2511 0f30 71070000 		.4byte	0x771
 2512 0f34 3F0F0000 		.4byte	0xf3f
 2513 0f38 26       		.uleb128 0x26
 2514 0f39 61040000 		.4byte	0x461
 2515 0f3d 12       		.byte	0x12
 2516 0f3e 00       		.byte	0
 2517 0f3f 13       		.uleb128 0x13
 2518 0f40 2F0F0000 		.4byte	0xf2f
 2519 0f44 3C       		.uleb128 0x3c
 2520 0f45 19070000 		.4byte	.LASF129
 2521 0f49 02       		.byte	0x2
 2522 0f4a 0101     		.2byte	0x101
 2523 0f4c 0C010000 		.4byte	0x10c
 2524 0f50 00000000 		.4byte	.LFB297
 2525 0f54 28000000 		.4byte	.LFE297-.LFB297
 2526 0f58 01       		.uleb128 0x1
 2527 0f59 9C       		.byte	0x9c
 2528 0f5a 4D100000 		.4byte	0x104d
 2529 0f5e 3D       		.uleb128 0x3d
 2530 0f5f 637000   		.ascii	"cp\000"
 2531 0f62 02       		.byte	0x2
 2532 0f63 0101     		.2byte	0x101
 2533 0f65 FF080000 		.4byte	0x8ff
 2534 0f69 05030000 		.4byte	.LLST29
 2535 0f6d 3E       		.uleb128 0x3e
 2536 0f6e 04030000 		.4byte	.LASF128
 2537 0f72 02       		.byte	0x2
 2538 0f73 0101     		.2byte	0x101
 2539 0f75 56040000 		.4byte	0x456
 2540 0f79 31030000 		.4byte	.LLST30
 2541 0f7d 1F       		.uleb128 0x1f
 2542 0f7e 6D736700 		.ascii	"msg\000"
 2543 0f82 02       		.byte	0x2
 2544 0f83 0201     		.2byte	0x102
 2545 0f85 0C010000 		.4byte	0x10c
 2546 0f89 4F030000 		.4byte	.LLST31
 2547 0f8d 32       		.uleb128 0x32
 2548 0f8e 1A090000 		.4byte	0x91a
 2549 0f92 06000000 		.4byte	.LBB151
 2550 0f96 0A000000 		.4byte	.LBE151-.LBB151
 2551 0f9a 02       		.byte	0x2
 2552 0f9b 0401     		.2byte	0x104
 2553 0f9d DA0F0000 		.4byte	0xfda
 2554 0fa1 32       		.uleb128 0x32
 2555 0fa2 EA070000 		.4byte	0x7ea
 2556 0fa6 06000000 		.4byte	.LBB153
 2557 0faa 06000000 		.4byte	.LBE153-.LBB153
 2558 0fae 04       		.byte	0x4
 2559 0faf 6301     		.2byte	0x163
 2560 0fb1 D00F0000 		.4byte	0xfd0
 2561 0fb5 33       		.uleb128 0x33
 2562 0fb6 C3070000 		.4byte	0x7c3
 2563 0fba 06000000 		.4byte	.LBB154
 2564 0fbe 06000000 		.4byte	.LBE154-.LBB154
 2565 0fc2 0D       		.byte	0xd
ARM GAS  /tmp/ccqKJp3m.s 			page 46


 2566 0fc3 6202     		.2byte	0x262
 2567 0fc5 24       		.uleb128 0x24
 2568 0fc6 D0070000 		.4byte	0x7d0
 2569 0fca 6D030000 		.4byte	.LLST32
 2570 0fce 00       		.byte	0
 2571 0fcf 00       		.byte	0
 2572 0fd0 2C       		.uleb128 0x2c
 2573 0fd1 10000000 		.4byte	.LVL60
 2574 0fd5 69100000 		.4byte	0x1069
 2575 0fd9 00       		.byte	0
 2576 0fda 32       		.uleb128 0x32
 2577 0fdb 23090000 		.4byte	0x923
 2578 0fdf 1A000000 		.4byte	.LBB156
 2579 0fe3 0A000000 		.4byte	.LBE156-.LBB156
 2580 0fe7 02       		.byte	0x2
 2581 0fe8 0601     		.2byte	0x106
 2582 0fea 36100000 		.4byte	0x1036
 2583 0fee 30       		.uleb128 0x30
 2584 0fef 1A000000 		.4byte	.LBB157
 2585 0ff3 0A000000 		.4byte	.LBE157-.LBB157
 2586 0ff7 31       		.uleb128 0x31
 2587 0ff8 30090000 		.4byte	0x930
 2588 0ffc 32       		.uleb128 0x32
 2589 0ffd F3070000 		.4byte	0x7f3
 2590 1001 1E000000 		.4byte	.LBB158
 2591 1005 06000000 		.4byte	.LBE158-.LBB158
 2592 1009 04       		.byte	0x4
 2593 100a 7A01     		.2byte	0x17a
 2594 100c 2B100000 		.4byte	0x102b
 2595 1010 33       		.uleb128 0x33
 2596 1011 C3070000 		.4byte	0x7c3
 2597 1015 1E000000 		.4byte	.LBB159
 2598 1019 06000000 		.4byte	.LBE159-.LBB159
 2599 101d 0D       		.byte	0xd
 2600 101e 7502     		.2byte	0x275
 2601 1020 24       		.uleb128 0x24
 2602 1021 D0070000 		.4byte	0x7d0
 2603 1025 82030000 		.4byte	.LLST33
 2604 1029 00       		.byte	0
 2605 102a 00       		.byte	0
 2606 102b 2C       		.uleb128 0x2c
 2607 102c 1E000000 		.4byte	.LVL63
 2608 1030 74100000 		.4byte	0x1074
 2609 1034 00       		.byte	0
 2610 1035 00       		.byte	0
 2611 1036 34       		.uleb128 0x34
 2612 1037 18000000 		.4byte	.LVL61
 2613 103b 5C0E0000 		.4byte	0xe5c
 2614 103f 35       		.uleb128 0x35
 2615 1040 01       		.uleb128 0x1
 2616 1041 50       		.byte	0x50
 2617 1042 02       		.uleb128 0x2
 2618 1043 74       		.byte	0x74
 2619 1044 00       		.sleb128 0
 2620 1045 35       		.uleb128 0x35
 2621 1046 01       		.uleb128 0x1
 2622 1047 51       		.byte	0x51
ARM GAS  /tmp/ccqKJp3m.s 			page 47


 2623 1048 02       		.uleb128 0x2
 2624 1049 75       		.byte	0x75
 2625 104a 00       		.sleb128 0
 2626 104b 00       		.byte	0
 2627 104c 00       		.byte	0
 2628 104d 3F       		.uleb128 0x3f
 2629 104e DD010000 		.4byte	.LASF130
 2630 1052 12       		.byte	0x12
 2631 1053 0408     		.2byte	0x804
 2632 1055 59100000 		.4byte	0x1059
 2633 1059 14       		.uleb128 0x14
 2634 105a A9000000 		.4byte	0xa9
 2635 105e 40       		.uleb128 0x40
 2636 105f 636800   		.ascii	"ch\000"
 2637 1062 01       		.byte	0x1
 2638 1063 C701     		.2byte	0x1c7
 2639 1065 E5030000 		.4byte	0x3e5
 2640 1069 41       		.uleb128 0x41
 2641 106a F4060000 		.4byte	.LASF131
 2642 106e F4060000 		.4byte	.LASF131
 2643 1072 0F       		.byte	0xf
 2644 1073 4F       		.byte	0x4f
 2645 1074 41       		.uleb128 0x41
 2646 1075 C7030000 		.4byte	.LASF132
 2647 1079 C7030000 		.4byte	.LASF132
 2648 107d 0F       		.byte	0xf
 2649 107e 50       		.byte	0x50
 2650 107f 42       		.uleb128 0x42
 2651 1080 71060000 		.4byte	.LASF133
 2652 1084 71060000 		.4byte	.LASF133
 2653 1088 01       		.byte	0x1
 2654 1089 D501     		.2byte	0x1d5
 2655 108b 42       		.uleb128 0x42
 2656 108c 93050000 		.4byte	.LASF134
 2657 1090 93050000 		.4byte	.LASF134
 2658 1094 01       		.byte	0x1
 2659 1095 D101     		.2byte	0x1d1
 2660 1097 42       		.uleb128 0x42
 2661 1098 7D020000 		.4byte	.LASF135
 2662 109c 7D020000 		.4byte	.LASF135
 2663 10a0 01       		.byte	0x1
 2664 10a1 D601     		.2byte	0x1d6
 2665 10a3 41       		.uleb128 0x41
 2666 10a4 E3020000 		.4byte	.LASF136
 2667 10a8 E3020000 		.4byte	.LASF136
 2668 10ac 05       		.byte	0x5
 2669 10ad 6C       		.byte	0x6c
 2670 10ae 42       		.uleb128 0x42
 2671 10af 3B050000 		.4byte	.LASF137
 2672 10b3 3B050000 		.4byte	.LASF137
 2673 10b7 01       		.byte	0x1
 2674 10b8 D301     		.2byte	0x1d3
 2675 10ba 41       		.uleb128 0x41
 2676 10bb 5B070000 		.4byte	.LASF138
 2677 10bf 5B070000 		.4byte	.LASF138
 2678 10c3 05       		.byte	0x5
 2679 10c4 68       		.byte	0x68
ARM GAS  /tmp/ccqKJp3m.s 			page 48


 2680 10c5 42       		.uleb128 0x42
 2681 10c6 3A070000 		.4byte	.LASF139
 2682 10ca 3A070000 		.4byte	.LASF139
 2683 10ce 01       		.byte	0x1
 2684 10cf D401     		.2byte	0x1d4
 2685 10d1 00       		.byte	0
 2686              		.section	.debug_abbrev,"",%progbits
 2687              	.Ldebug_abbrev0:
 2688 0000 01       		.uleb128 0x1
 2689 0001 11       		.uleb128 0x11
 2690 0002 01       		.byte	0x1
 2691 0003 25       		.uleb128 0x25
 2692 0004 0E       		.uleb128 0xe
 2693 0005 13       		.uleb128 0x13
 2694 0006 0B       		.uleb128 0xb
 2695 0007 03       		.uleb128 0x3
 2696 0008 0E       		.uleb128 0xe
 2697 0009 1B       		.uleb128 0x1b
 2698 000a 0E       		.uleb128 0xe
 2699 000b 55       		.uleb128 0x55
 2700 000c 17       		.uleb128 0x17
 2701 000d 11       		.uleb128 0x11
 2702 000e 01       		.uleb128 0x1
 2703 000f 10       		.uleb128 0x10
 2704 0010 17       		.uleb128 0x17
 2705 0011 00       		.byte	0
 2706 0012 00       		.byte	0
 2707 0013 02       		.uleb128 0x2
 2708 0014 24       		.uleb128 0x24
 2709 0015 00       		.byte	0
 2710 0016 0B       		.uleb128 0xb
 2711 0017 0B       		.uleb128 0xb
 2712 0018 3E       		.uleb128 0x3e
 2713 0019 0B       		.uleb128 0xb
 2714 001a 03       		.uleb128 0x3
 2715 001b 08       		.uleb128 0x8
 2716 001c 00       		.byte	0
 2717 001d 00       		.byte	0
 2718 001e 03       		.uleb128 0x3
 2719 001f 24       		.uleb128 0x24
 2720 0020 00       		.byte	0
 2721 0021 0B       		.uleb128 0xb
 2722 0022 0B       		.uleb128 0xb
 2723 0023 3E       		.uleb128 0x3e
 2724 0024 0B       		.uleb128 0xb
 2725 0025 03       		.uleb128 0x3
 2726 0026 0E       		.uleb128 0xe
 2727 0027 00       		.byte	0
 2728 0028 00       		.byte	0
 2729 0029 04       		.uleb128 0x4
 2730 002a 16       		.uleb128 0x16
 2731 002b 00       		.byte	0
 2732 002c 03       		.uleb128 0x3
 2733 002d 0E       		.uleb128 0xe
 2734 002e 3A       		.uleb128 0x3a
 2735 002f 0B       		.uleb128 0xb
 2736 0030 3B       		.uleb128 0x3b
ARM GAS  /tmp/ccqKJp3m.s 			page 49


 2737 0031 0B       		.uleb128 0xb
 2738 0032 49       		.uleb128 0x49
 2739 0033 13       		.uleb128 0x13
 2740 0034 00       		.byte	0
 2741 0035 00       		.byte	0
 2742 0036 05       		.uleb128 0x5
 2743 0037 13       		.uleb128 0x13
 2744 0038 01       		.byte	0x1
 2745 0039 03       		.uleb128 0x3
 2746 003a 0E       		.uleb128 0xe
 2747 003b 0B       		.uleb128 0xb
 2748 003c 0B       		.uleb128 0xb
 2749 003d 3A       		.uleb128 0x3a
 2750 003e 0B       		.uleb128 0xb
 2751 003f 3B       		.uleb128 0x3b
 2752 0040 0B       		.uleb128 0xb
 2753 0041 01       		.uleb128 0x1
 2754 0042 13       		.uleb128 0x13
 2755 0043 00       		.byte	0
 2756 0044 00       		.byte	0
 2757 0045 06       		.uleb128 0x6
 2758 0046 0D       		.uleb128 0xd
 2759 0047 00       		.byte	0
 2760 0048 03       		.uleb128 0x3
 2761 0049 0E       		.uleb128 0xe
 2762 004a 3A       		.uleb128 0x3a
 2763 004b 0B       		.uleb128 0xb
 2764 004c 3B       		.uleb128 0x3b
 2765 004d 0B       		.uleb128 0xb
 2766 004e 49       		.uleb128 0x49
 2767 004f 13       		.uleb128 0x13
 2768 0050 38       		.uleb128 0x38
 2769 0051 0B       		.uleb128 0xb
 2770 0052 00       		.byte	0
 2771 0053 00       		.byte	0
 2772 0054 07       		.uleb128 0x7
 2773 0055 0D       		.uleb128 0xd
 2774 0056 00       		.byte	0
 2775 0057 03       		.uleb128 0x3
 2776 0058 08       		.uleb128 0x8
 2777 0059 3A       		.uleb128 0x3a
 2778 005a 0B       		.uleb128 0xb
 2779 005b 3B       		.uleb128 0x3b
 2780 005c 0B       		.uleb128 0xb
 2781 005d 49       		.uleb128 0x49
 2782 005e 13       		.uleb128 0x13
 2783 005f 38       		.uleb128 0x38
 2784 0060 0B       		.uleb128 0xb
 2785 0061 00       		.byte	0
 2786 0062 00       		.byte	0
 2787 0063 08       		.uleb128 0x8
 2788 0064 0D       		.uleb128 0xd
 2789 0065 00       		.byte	0
 2790 0066 03       		.uleb128 0x3
 2791 0067 08       		.uleb128 0x8
 2792 0068 3A       		.uleb128 0x3a
 2793 0069 0B       		.uleb128 0xb
ARM GAS  /tmp/ccqKJp3m.s 			page 50


 2794 006a 3B       		.uleb128 0x3b
 2795 006b 05       		.uleb128 0x5
 2796 006c 49       		.uleb128 0x49
 2797 006d 13       		.uleb128 0x13
 2798 006e 38       		.uleb128 0x38
 2799 006f 0B       		.uleb128 0xb
 2800 0070 00       		.byte	0
 2801 0071 00       		.byte	0
 2802 0072 09       		.uleb128 0x9
 2803 0073 0D       		.uleb128 0xd
 2804 0074 00       		.byte	0
 2805 0075 03       		.uleb128 0x3
 2806 0076 0E       		.uleb128 0xe
 2807 0077 3A       		.uleb128 0x3a
 2808 0078 0B       		.uleb128 0xb
 2809 0079 3B       		.uleb128 0x3b
 2810 007a 05       		.uleb128 0x5
 2811 007b 49       		.uleb128 0x49
 2812 007c 13       		.uleb128 0x13
 2813 007d 38       		.uleb128 0x38
 2814 007e 0B       		.uleb128 0xb
 2815 007f 00       		.byte	0
 2816 0080 00       		.byte	0
 2817 0081 0A       		.uleb128 0xa
 2818 0082 0F       		.uleb128 0xf
 2819 0083 00       		.byte	0
 2820 0084 0B       		.uleb128 0xb
 2821 0085 0B       		.uleb128 0xb
 2822 0086 49       		.uleb128 0x49
 2823 0087 13       		.uleb128 0x13
 2824 0088 00       		.byte	0
 2825 0089 00       		.byte	0
 2826 008a 0B       		.uleb128 0xb
 2827 008b 13       		.uleb128 0x13
 2828 008c 01       		.byte	0x1
 2829 008d 03       		.uleb128 0x3
 2830 008e 0E       		.uleb128 0xe
 2831 008f 0B       		.uleb128 0xb
 2832 0090 0B       		.uleb128 0xb
 2833 0091 3A       		.uleb128 0x3a
 2834 0092 0B       		.uleb128 0xb
 2835 0093 3B       		.uleb128 0x3b
 2836 0094 05       		.uleb128 0x5
 2837 0095 01       		.uleb128 0x1
 2838 0096 13       		.uleb128 0x13
 2839 0097 00       		.byte	0
 2840 0098 00       		.byte	0
 2841 0099 0C       		.uleb128 0xc
 2842 009a 15       		.uleb128 0x15
 2843 009b 01       		.byte	0x1
 2844 009c 27       		.uleb128 0x27
 2845 009d 19       		.uleb128 0x19
 2846 009e 01       		.uleb128 0x1
 2847 009f 13       		.uleb128 0x13
 2848 00a0 00       		.byte	0
 2849 00a1 00       		.byte	0
 2850 00a2 0D       		.uleb128 0xd
ARM GAS  /tmp/ccqKJp3m.s 			page 51


 2851 00a3 05       		.uleb128 0x5
 2852 00a4 00       		.byte	0
 2853 00a5 49       		.uleb128 0x49
 2854 00a6 13       		.uleb128 0x13
 2855 00a7 00       		.byte	0
 2856 00a8 00       		.byte	0
 2857 00a9 0E       		.uleb128 0xe
 2858 00aa 0F       		.uleb128 0xf
 2859 00ab 00       		.byte	0
 2860 00ac 0B       		.uleb128 0xb
 2861 00ad 0B       		.uleb128 0xb
 2862 00ae 00       		.byte	0
 2863 00af 00       		.byte	0
 2864 00b0 0F       		.uleb128 0xf
 2865 00b1 13       		.uleb128 0x13
 2866 00b2 01       		.byte	0x1
 2867 00b3 0B       		.uleb128 0xb
 2868 00b4 0B       		.uleb128 0xb
 2869 00b5 3A       		.uleb128 0x3a
 2870 00b6 0B       		.uleb128 0xb
 2871 00b7 3B       		.uleb128 0x3b
 2872 00b8 0B       		.uleb128 0xb
 2873 00b9 01       		.uleb128 0x1
 2874 00ba 13       		.uleb128 0x13
 2875 00bb 00       		.byte	0
 2876 00bc 00       		.byte	0
 2877 00bd 10       		.uleb128 0x10
 2878 00be 17       		.uleb128 0x17
 2879 00bf 01       		.byte	0x1
 2880 00c0 0B       		.uleb128 0xb
 2881 00c1 0B       		.uleb128 0xb
 2882 00c2 3A       		.uleb128 0x3a
 2883 00c3 0B       		.uleb128 0xb
 2884 00c4 3B       		.uleb128 0x3b
 2885 00c5 0B       		.uleb128 0xb
 2886 00c6 01       		.uleb128 0x1
 2887 00c7 13       		.uleb128 0x13
 2888 00c8 00       		.byte	0
 2889 00c9 00       		.byte	0
 2890 00ca 11       		.uleb128 0x11
 2891 00cb 0D       		.uleb128 0xd
 2892 00cc 00       		.byte	0
 2893 00cd 03       		.uleb128 0x3
 2894 00ce 0E       		.uleb128 0xe
 2895 00cf 3A       		.uleb128 0x3a
 2896 00d0 0B       		.uleb128 0xb
 2897 00d1 3B       		.uleb128 0x3b
 2898 00d2 0B       		.uleb128 0xb
 2899 00d3 49       		.uleb128 0x49
 2900 00d4 13       		.uleb128 0x13
 2901 00d5 00       		.byte	0
 2902 00d6 00       		.byte	0
 2903 00d7 12       		.uleb128 0x12
 2904 00d8 0D       		.uleb128 0xd
 2905 00d9 00       		.byte	0
 2906 00da 03       		.uleb128 0x3
 2907 00db 0E       		.uleb128 0xe
ARM GAS  /tmp/ccqKJp3m.s 			page 52


 2908 00dc 3A       		.uleb128 0x3a
 2909 00dd 0B       		.uleb128 0xb
 2910 00de 3B       		.uleb128 0x3b
 2911 00df 05       		.uleb128 0x5
 2912 00e0 49       		.uleb128 0x49
 2913 00e1 13       		.uleb128 0x13
 2914 00e2 00       		.byte	0
 2915 00e3 00       		.byte	0
 2916 00e4 13       		.uleb128 0x13
 2917 00e5 26       		.uleb128 0x26
 2918 00e6 00       		.byte	0
 2919 00e7 49       		.uleb128 0x49
 2920 00e8 13       		.uleb128 0x13
 2921 00e9 00       		.byte	0
 2922 00ea 00       		.byte	0
 2923 00eb 14       		.uleb128 0x14
 2924 00ec 35       		.uleb128 0x35
 2925 00ed 00       		.byte	0
 2926 00ee 49       		.uleb128 0x49
 2927 00ef 13       		.uleb128 0x13
 2928 00f0 00       		.byte	0
 2929 00f1 00       		.byte	0
 2930 00f2 15       		.uleb128 0x15
 2931 00f3 2E       		.uleb128 0x2e
 2932 00f4 01       		.byte	0x1
 2933 00f5 03       		.uleb128 0x3
 2934 00f6 0E       		.uleb128 0xe
 2935 00f7 3A       		.uleb128 0x3a
 2936 00f8 0B       		.uleb128 0xb
 2937 00f9 3B       		.uleb128 0x3b
 2938 00fa 05       		.uleb128 0x5
 2939 00fb 27       		.uleb128 0x27
 2940 00fc 19       		.uleb128 0x19
 2941 00fd 20       		.uleb128 0x20
 2942 00fe 0B       		.uleb128 0xb
 2943 00ff 01       		.uleb128 0x1
 2944 0100 13       		.uleb128 0x13
 2945 0101 00       		.byte	0
 2946 0102 00       		.byte	0
 2947 0103 16       		.uleb128 0x16
 2948 0104 05       		.uleb128 0x5
 2949 0105 00       		.byte	0
 2950 0106 03       		.uleb128 0x3
 2951 0107 0E       		.uleb128 0xe
 2952 0108 3A       		.uleb128 0x3a
 2953 0109 0B       		.uleb128 0xb
 2954 010a 3B       		.uleb128 0x3b
 2955 010b 05       		.uleb128 0x5
 2956 010c 49       		.uleb128 0x49
 2957 010d 13       		.uleb128 0x13
 2958 010e 00       		.byte	0
 2959 010f 00       		.byte	0
 2960 0110 17       		.uleb128 0x17
 2961 0111 2E       		.uleb128 0x2e
 2962 0112 00       		.byte	0
 2963 0113 03       		.uleb128 0x3
 2964 0114 0E       		.uleb128 0xe
ARM GAS  /tmp/ccqKJp3m.s 			page 53


 2965 0115 3A       		.uleb128 0x3a
 2966 0116 0B       		.uleb128 0xb
 2967 0117 3B       		.uleb128 0x3b
 2968 0118 05       		.uleb128 0x5
 2969 0119 27       		.uleb128 0x27
 2970 011a 19       		.uleb128 0x19
 2971 011b 49       		.uleb128 0x49
 2972 011c 13       		.uleb128 0x13
 2973 011d 20       		.uleb128 0x20
 2974 011e 0B       		.uleb128 0xb
 2975 011f 00       		.byte	0
 2976 0120 00       		.byte	0
 2977 0121 18       		.uleb128 0x18
 2978 0122 2E       		.uleb128 0x2e
 2979 0123 00       		.byte	0
 2980 0124 03       		.uleb128 0x3
 2981 0125 0E       		.uleb128 0xe
 2982 0126 3A       		.uleb128 0x3a
 2983 0127 0B       		.uleb128 0xb
 2984 0128 3B       		.uleb128 0x3b
 2985 0129 05       		.uleb128 0x5
 2986 012a 27       		.uleb128 0x27
 2987 012b 19       		.uleb128 0x19
 2988 012c 20       		.uleb128 0x20
 2989 012d 0B       		.uleb128 0xb
 2990 012e 00       		.byte	0
 2991 012f 00       		.byte	0
 2992 0130 19       		.uleb128 0x19
 2993 0131 05       		.uleb128 0x5
 2994 0132 00       		.byte	0
 2995 0133 03       		.uleb128 0x3
 2996 0134 08       		.uleb128 0x8
 2997 0135 3A       		.uleb128 0x3a
 2998 0136 0B       		.uleb128 0xb
 2999 0137 3B       		.uleb128 0x3b
 3000 0138 05       		.uleb128 0x5
 3001 0139 49       		.uleb128 0x49
 3002 013a 13       		.uleb128 0x13
 3003 013b 00       		.byte	0
 3004 013c 00       		.byte	0
 3005 013d 1A       		.uleb128 0x1a
 3006 013e 2E       		.uleb128 0x2e
 3007 013f 01       		.byte	0x1
 3008 0140 03       		.uleb128 0x3
 3009 0141 0E       		.uleb128 0xe
 3010 0142 3A       		.uleb128 0x3a
 3011 0143 0B       		.uleb128 0xb
 3012 0144 3B       		.uleb128 0x3b
 3013 0145 05       		.uleb128 0x5
 3014 0146 27       		.uleb128 0x27
 3015 0147 19       		.uleb128 0x19
 3016 0148 49       		.uleb128 0x49
 3017 0149 13       		.uleb128 0x13
 3018 014a 20       		.uleb128 0x20
 3019 014b 0B       		.uleb128 0xb
 3020 014c 01       		.uleb128 0x1
 3021 014d 13       		.uleb128 0x13
ARM GAS  /tmp/ccqKJp3m.s 			page 54


 3022 014e 00       		.byte	0
 3023 014f 00       		.byte	0
 3024 0150 1B       		.uleb128 0x1b
 3025 0151 34       		.uleb128 0x34
 3026 0152 00       		.byte	0
 3027 0153 03       		.uleb128 0x3
 3028 0154 08       		.uleb128 0x8
 3029 0155 3A       		.uleb128 0x3a
 3030 0156 0B       		.uleb128 0xb
 3031 0157 3B       		.uleb128 0x3b
 3032 0158 05       		.uleb128 0x5
 3033 0159 49       		.uleb128 0x49
 3034 015a 13       		.uleb128 0x13
 3035 015b 00       		.byte	0
 3036 015c 00       		.byte	0
 3037 015d 1C       		.uleb128 0x1c
 3038 015e 2E       		.uleb128 0x2e
 3039 015f 00       		.byte	0
 3040 0160 03       		.uleb128 0x3
 3041 0161 0E       		.uleb128 0xe
 3042 0162 3A       		.uleb128 0x3a
 3043 0163 0B       		.uleb128 0xb
 3044 0164 3B       		.uleb128 0x3b
 3045 0165 0B       		.uleb128 0xb
 3046 0166 27       		.uleb128 0x27
 3047 0167 19       		.uleb128 0x19
 3048 0168 49       		.uleb128 0x49
 3049 0169 13       		.uleb128 0x13
 3050 016a 20       		.uleb128 0x20
 3051 016b 0B       		.uleb128 0xb
 3052 016c 00       		.byte	0
 3053 016d 00       		.byte	0
 3054 016e 1D       		.uleb128 0x1d
 3055 016f 2E       		.uleb128 0x2e
 3056 0170 01       		.byte	0x1
 3057 0171 03       		.uleb128 0x3
 3058 0172 0E       		.uleb128 0xe
 3059 0173 3A       		.uleb128 0x3a
 3060 0174 0B       		.uleb128 0xb
 3061 0175 3B       		.uleb128 0x3b
 3062 0176 05       		.uleb128 0x5
 3063 0177 27       		.uleb128 0x27
 3064 0178 19       		.uleb128 0x19
 3065 0179 11       		.uleb128 0x11
 3066 017a 01       		.uleb128 0x1
 3067 017b 12       		.uleb128 0x12
 3068 017c 06       		.uleb128 0x6
 3069 017d 40       		.uleb128 0x40
 3070 017e 18       		.uleb128 0x18
 3071 017f 9742     		.uleb128 0x2117
 3072 0181 19       		.uleb128 0x19
 3073 0182 01       		.uleb128 0x1
 3074 0183 13       		.uleb128 0x13
 3075 0184 00       		.byte	0
 3076 0185 00       		.byte	0
 3077 0186 1E       		.uleb128 0x1e
 3078 0187 05       		.uleb128 0x5
ARM GAS  /tmp/ccqKJp3m.s 			page 55


 3079 0188 00       		.byte	0
 3080 0189 03       		.uleb128 0x3
 3081 018a 08       		.uleb128 0x8
 3082 018b 3A       		.uleb128 0x3a
 3083 018c 0B       		.uleb128 0xb
 3084 018d 3B       		.uleb128 0x3b
 3085 018e 05       		.uleb128 0x5
 3086 018f 49       		.uleb128 0x49
 3087 0190 13       		.uleb128 0x13
 3088 0191 02       		.uleb128 0x2
 3089 0192 18       		.uleb128 0x18
 3090 0193 00       		.byte	0
 3091 0194 00       		.byte	0
 3092 0195 1F       		.uleb128 0x1f
 3093 0196 34       		.uleb128 0x34
 3094 0197 00       		.byte	0
 3095 0198 03       		.uleb128 0x3
 3096 0199 08       		.uleb128 0x8
 3097 019a 3A       		.uleb128 0x3a
 3098 019b 0B       		.uleb128 0xb
 3099 019c 3B       		.uleb128 0x3b
 3100 019d 05       		.uleb128 0x5
 3101 019e 49       		.uleb128 0x49
 3102 019f 13       		.uleb128 0x13
 3103 01a0 02       		.uleb128 0x2
 3104 01a1 17       		.uleb128 0x17
 3105 01a2 00       		.byte	0
 3106 01a3 00       		.byte	0
 3107 01a4 20       		.uleb128 0x20
 3108 01a5 2E       		.uleb128 0x2e
 3109 01a6 01       		.byte	0x1
 3110 01a7 3F       		.uleb128 0x3f
 3111 01a8 19       		.uleb128 0x19
 3112 01a9 03       		.uleb128 0x3
 3113 01aa 0E       		.uleb128 0xe
 3114 01ab 3A       		.uleb128 0x3a
 3115 01ac 0B       		.uleb128 0xb
 3116 01ad 3B       		.uleb128 0x3b
 3117 01ae 0B       		.uleb128 0xb
 3118 01af 27       		.uleb128 0x27
 3119 01b0 19       		.uleb128 0x19
 3120 01b1 11       		.uleb128 0x11
 3121 01b2 01       		.uleb128 0x1
 3122 01b3 12       		.uleb128 0x12
 3123 01b4 06       		.uleb128 0x6
 3124 01b5 40       		.uleb128 0x40
 3125 01b6 18       		.uleb128 0x18
 3126 01b7 9742     		.uleb128 0x2117
 3127 01b9 19       		.uleb128 0x19
 3128 01ba 01       		.uleb128 0x1
 3129 01bb 13       		.uleb128 0x13
 3130 01bc 00       		.byte	0
 3131 01bd 00       		.byte	0
 3132 01be 21       		.uleb128 0x21
 3133 01bf 05       		.uleb128 0x5
 3134 01c0 00       		.byte	0
 3135 01c1 03       		.uleb128 0x3
ARM GAS  /tmp/ccqKJp3m.s 			page 56


 3136 01c2 08       		.uleb128 0x8
 3137 01c3 3A       		.uleb128 0x3a
 3138 01c4 0B       		.uleb128 0xb
 3139 01c5 3B       		.uleb128 0x3b
 3140 01c6 0B       		.uleb128 0xb
 3141 01c7 49       		.uleb128 0x49
 3142 01c8 13       		.uleb128 0x13
 3143 01c9 02       		.uleb128 0x2
 3144 01ca 18       		.uleb128 0x18
 3145 01cb 00       		.byte	0
 3146 01cc 00       		.byte	0
 3147 01cd 22       		.uleb128 0x22
 3148 01ce 34       		.uleb128 0x34
 3149 01cf 00       		.byte	0
 3150 01d0 03       		.uleb128 0x3
 3151 01d1 0E       		.uleb128 0xe
 3152 01d2 49       		.uleb128 0x49
 3153 01d3 13       		.uleb128 0x13
 3154 01d4 34       		.uleb128 0x34
 3155 01d5 19       		.uleb128 0x19
 3156 01d6 00       		.byte	0
 3157 01d7 00       		.byte	0
 3158 01d8 23       		.uleb128 0x23
 3159 01d9 1D       		.uleb128 0x1d
 3160 01da 01       		.byte	0x1
 3161 01db 31       		.uleb128 0x31
 3162 01dc 13       		.uleb128 0x13
 3163 01dd 11       		.uleb128 0x11
 3164 01de 01       		.uleb128 0x1
 3165 01df 12       		.uleb128 0x12
 3166 01e0 06       		.uleb128 0x6
 3167 01e1 58       		.uleb128 0x58
 3168 01e2 0B       		.uleb128 0xb
 3169 01e3 59       		.uleb128 0x59
 3170 01e4 0B       		.uleb128 0xb
 3171 01e5 00       		.byte	0
 3172 01e6 00       		.byte	0
 3173 01e7 24       		.uleb128 0x24
 3174 01e8 05       		.uleb128 0x5
 3175 01e9 00       		.byte	0
 3176 01ea 31       		.uleb128 0x31
 3177 01eb 13       		.uleb128 0x13
 3178 01ec 02       		.uleb128 0x2
 3179 01ed 17       		.uleb128 0x17
 3180 01ee 00       		.byte	0
 3181 01ef 00       		.byte	0
 3182 01f0 25       		.uleb128 0x25
 3183 01f1 01       		.uleb128 0x1
 3184 01f2 01       		.byte	0x1
 3185 01f3 49       		.uleb128 0x49
 3186 01f4 13       		.uleb128 0x13
 3187 01f5 01       		.uleb128 0x1
 3188 01f6 13       		.uleb128 0x13
 3189 01f7 00       		.byte	0
 3190 01f8 00       		.byte	0
 3191 01f9 26       		.uleb128 0x26
 3192 01fa 21       		.uleb128 0x21
ARM GAS  /tmp/ccqKJp3m.s 			page 57


 3193 01fb 00       		.byte	0
 3194 01fc 49       		.uleb128 0x49
 3195 01fd 13       		.uleb128 0x13
 3196 01fe 2F       		.uleb128 0x2f
 3197 01ff 0B       		.uleb128 0xb
 3198 0200 00       		.byte	0
 3199 0201 00       		.byte	0
 3200 0202 27       		.uleb128 0x27
 3201 0203 34       		.uleb128 0x34
 3202 0204 00       		.byte	0
 3203 0205 03       		.uleb128 0x3
 3204 0206 0E       		.uleb128 0xe
 3205 0207 49       		.uleb128 0x49
 3206 0208 13       		.uleb128 0x13
 3207 0209 34       		.uleb128 0x34
 3208 020a 19       		.uleb128 0x19
 3209 020b 1C       		.uleb128 0x1c
 3210 020c 0E       		.uleb128 0xe
 3211 020d 00       		.byte	0
 3212 020e 00       		.byte	0
 3213 020f 28       		.uleb128 0x28
 3214 0210 05       		.uleb128 0x5
 3215 0211 00       		.byte	0
 3216 0212 03       		.uleb128 0x3
 3217 0213 08       		.uleb128 0x8
 3218 0214 3A       		.uleb128 0x3a
 3219 0215 0B       		.uleb128 0xb
 3220 0216 3B       		.uleb128 0x3b
 3221 0217 0B       		.uleb128 0xb
 3222 0218 49       		.uleb128 0x49
 3223 0219 13       		.uleb128 0x13
 3224 021a 02       		.uleb128 0x2
 3225 021b 17       		.uleb128 0x17
 3226 021c 00       		.byte	0
 3227 021d 00       		.byte	0
 3228 021e 29       		.uleb128 0x29
 3229 021f 1D       		.uleb128 0x1d
 3230 0220 01       		.byte	0x1
 3231 0221 31       		.uleb128 0x31
 3232 0222 13       		.uleb128 0x13
 3233 0223 52       		.uleb128 0x52
 3234 0224 01       		.uleb128 0x1
 3235 0225 55       		.uleb128 0x55
 3236 0226 17       		.uleb128 0x17
 3237 0227 58       		.uleb128 0x58
 3238 0228 0B       		.uleb128 0xb
 3239 0229 59       		.uleb128 0x59
 3240 022a 0B       		.uleb128 0xb
 3241 022b 01       		.uleb128 0x1
 3242 022c 13       		.uleb128 0x13
 3243 022d 00       		.byte	0
 3244 022e 00       		.byte	0
 3245 022f 2A       		.uleb128 0x2a
 3246 0230 1D       		.uleb128 0x1d
 3247 0231 01       		.byte	0x1
 3248 0232 31       		.uleb128 0x31
 3249 0233 13       		.uleb128 0x13
ARM GAS  /tmp/ccqKJp3m.s 			page 58


 3250 0234 52       		.uleb128 0x52
 3251 0235 01       		.uleb128 0x1
 3252 0236 55       		.uleb128 0x55
 3253 0237 17       		.uleb128 0x17
 3254 0238 58       		.uleb128 0x58
 3255 0239 0B       		.uleb128 0xb
 3256 023a 59       		.uleb128 0x59
 3257 023b 05       		.uleb128 0x5
 3258 023c 01       		.uleb128 0x1
 3259 023d 13       		.uleb128 0x13
 3260 023e 00       		.byte	0
 3261 023f 00       		.byte	0
 3262 0240 2B       		.uleb128 0x2b
 3263 0241 1D       		.uleb128 0x1d
 3264 0242 01       		.byte	0x1
 3265 0243 31       		.uleb128 0x31
 3266 0244 13       		.uleb128 0x13
 3267 0245 52       		.uleb128 0x52
 3268 0246 01       		.uleb128 0x1
 3269 0247 55       		.uleb128 0x55
 3270 0248 17       		.uleb128 0x17
 3271 0249 58       		.uleb128 0x58
 3272 024a 0B       		.uleb128 0xb
 3273 024b 59       		.uleb128 0x59
 3274 024c 05       		.uleb128 0x5
 3275 024d 00       		.byte	0
 3276 024e 00       		.byte	0
 3277 024f 2C       		.uleb128 0x2c
 3278 0250 898201   		.uleb128 0x4109
 3279 0253 00       		.byte	0
 3280 0254 11       		.uleb128 0x11
 3281 0255 01       		.uleb128 0x1
 3282 0256 31       		.uleb128 0x31
 3283 0257 13       		.uleb128 0x13
 3284 0258 00       		.byte	0
 3285 0259 00       		.byte	0
 3286 025a 2D       		.uleb128 0x2d
 3287 025b 1D       		.uleb128 0x1d
 3288 025c 01       		.byte	0x1
 3289 025d 31       		.uleb128 0x31
 3290 025e 13       		.uleb128 0x13
 3291 025f 11       		.uleb128 0x11
 3292 0260 01       		.uleb128 0x1
 3293 0261 12       		.uleb128 0x12
 3294 0262 06       		.uleb128 0x6
 3295 0263 58       		.uleb128 0x58
 3296 0264 0B       		.uleb128 0xb
 3297 0265 59       		.uleb128 0x59
 3298 0266 0B       		.uleb128 0xb
 3299 0267 01       		.uleb128 0x1
 3300 0268 13       		.uleb128 0x13
 3301 0269 00       		.byte	0
 3302 026a 00       		.byte	0
 3303 026b 2E       		.uleb128 0x2e
 3304 026c 0B       		.uleb128 0xb
 3305 026d 01       		.byte	0x1
 3306 026e 55       		.uleb128 0x55
ARM GAS  /tmp/ccqKJp3m.s 			page 59


 3307 026f 17       		.uleb128 0x17
 3308 0270 00       		.byte	0
 3309 0271 00       		.byte	0
 3310 0272 2F       		.uleb128 0x2f
 3311 0273 34       		.uleb128 0x34
 3312 0274 00       		.byte	0
 3313 0275 31       		.uleb128 0x31
 3314 0276 13       		.uleb128 0x13
 3315 0277 02       		.uleb128 0x2
 3316 0278 17       		.uleb128 0x17
 3317 0279 00       		.byte	0
 3318 027a 00       		.byte	0
 3319 027b 30       		.uleb128 0x30
 3320 027c 0B       		.uleb128 0xb
 3321 027d 01       		.byte	0x1
 3322 027e 11       		.uleb128 0x11
 3323 027f 01       		.uleb128 0x1
 3324 0280 12       		.uleb128 0x12
 3325 0281 06       		.uleb128 0x6
 3326 0282 00       		.byte	0
 3327 0283 00       		.byte	0
 3328 0284 31       		.uleb128 0x31
 3329 0285 34       		.uleb128 0x34
 3330 0286 00       		.byte	0
 3331 0287 31       		.uleb128 0x31
 3332 0288 13       		.uleb128 0x13
 3333 0289 00       		.byte	0
 3334 028a 00       		.byte	0
 3335 028b 32       		.uleb128 0x32
 3336 028c 1D       		.uleb128 0x1d
 3337 028d 01       		.byte	0x1
 3338 028e 31       		.uleb128 0x31
 3339 028f 13       		.uleb128 0x13
 3340 0290 11       		.uleb128 0x11
 3341 0291 01       		.uleb128 0x1
 3342 0292 12       		.uleb128 0x12
 3343 0293 06       		.uleb128 0x6
 3344 0294 58       		.uleb128 0x58
 3345 0295 0B       		.uleb128 0xb
 3346 0296 59       		.uleb128 0x59
 3347 0297 05       		.uleb128 0x5
 3348 0298 01       		.uleb128 0x1
 3349 0299 13       		.uleb128 0x13
 3350 029a 00       		.byte	0
 3351 029b 00       		.byte	0
 3352 029c 33       		.uleb128 0x33
 3353 029d 1D       		.uleb128 0x1d
 3354 029e 01       		.byte	0x1
 3355 029f 31       		.uleb128 0x31
 3356 02a0 13       		.uleb128 0x13
 3357 02a1 11       		.uleb128 0x11
 3358 02a2 01       		.uleb128 0x1
 3359 02a3 12       		.uleb128 0x12
 3360 02a4 06       		.uleb128 0x6
 3361 02a5 58       		.uleb128 0x58
 3362 02a6 0B       		.uleb128 0xb
 3363 02a7 59       		.uleb128 0x59
ARM GAS  /tmp/ccqKJp3m.s 			page 60


 3364 02a8 05       		.uleb128 0x5
 3365 02a9 00       		.byte	0
 3366 02aa 00       		.byte	0
 3367 02ab 34       		.uleb128 0x34
 3368 02ac 898201   		.uleb128 0x4109
 3369 02af 01       		.byte	0x1
 3370 02b0 11       		.uleb128 0x11
 3371 02b1 01       		.uleb128 0x1
 3372 02b2 31       		.uleb128 0x31
 3373 02b3 13       		.uleb128 0x13
 3374 02b4 00       		.byte	0
 3375 02b5 00       		.byte	0
 3376 02b6 35       		.uleb128 0x35
 3377 02b7 8A8201   		.uleb128 0x410a
 3378 02ba 00       		.byte	0
 3379 02bb 02       		.uleb128 0x2
 3380 02bc 18       		.uleb128 0x18
 3381 02bd 9142     		.uleb128 0x2111
 3382 02bf 18       		.uleb128 0x18
 3383 02c0 00       		.byte	0
 3384 02c1 00       		.byte	0
 3385 02c2 36       		.uleb128 0x36
 3386 02c3 34       		.uleb128 0x34
 3387 02c4 00       		.byte	0
 3388 02c5 03       		.uleb128 0x3
 3389 02c6 08       		.uleb128 0x8
 3390 02c7 3A       		.uleb128 0x3a
 3391 02c8 0B       		.uleb128 0xb
 3392 02c9 3B       		.uleb128 0x3b
 3393 02ca 0B       		.uleb128 0xb
 3394 02cb 49       		.uleb128 0x49
 3395 02cc 13       		.uleb128 0x13
 3396 02cd 00       		.byte	0
 3397 02ce 00       		.byte	0
 3398 02cf 37       		.uleb128 0x37
 3399 02d0 898201   		.uleb128 0x4109
 3400 02d3 00       		.byte	0
 3401 02d4 11       		.uleb128 0x11
 3402 02d5 01       		.uleb128 0x1
 3403 02d6 9542     		.uleb128 0x2115
 3404 02d8 19       		.uleb128 0x19
 3405 02d9 31       		.uleb128 0x31
 3406 02da 13       		.uleb128 0x13
 3407 02db 00       		.byte	0
 3408 02dc 00       		.byte	0
 3409 02dd 38       		.uleb128 0x38
 3410 02de 898201   		.uleb128 0x4109
 3411 02e1 01       		.byte	0x1
 3412 02e2 11       		.uleb128 0x11
 3413 02e3 01       		.uleb128 0x1
 3414 02e4 31       		.uleb128 0x31
 3415 02e5 13       		.uleb128 0x13
 3416 02e6 01       		.uleb128 0x1
 3417 02e7 13       		.uleb128 0x13
 3418 02e8 00       		.byte	0
 3419 02e9 00       		.byte	0
 3420 02ea 39       		.uleb128 0x39
ARM GAS  /tmp/ccqKJp3m.s 			page 61


 3421 02eb 2E       		.uleb128 0x2e
 3422 02ec 01       		.byte	0x1
 3423 02ed 3F       		.uleb128 0x3f
 3424 02ee 19       		.uleb128 0x19
 3425 02ef 03       		.uleb128 0x3
 3426 02f0 0E       		.uleb128 0xe
 3427 02f1 3A       		.uleb128 0x3a
 3428 02f2 0B       		.uleb128 0xb
 3429 02f3 3B       		.uleb128 0x3b
 3430 02f4 0B       		.uleb128 0xb
 3431 02f5 27       		.uleb128 0x27
 3432 02f6 19       		.uleb128 0x19
 3433 02f7 49       		.uleb128 0x49
 3434 02f8 13       		.uleb128 0x13
 3435 02f9 11       		.uleb128 0x11
 3436 02fa 01       		.uleb128 0x1
 3437 02fb 12       		.uleb128 0x12
 3438 02fc 06       		.uleb128 0x6
 3439 02fd 40       		.uleb128 0x40
 3440 02fe 18       		.uleb128 0x18
 3441 02ff 9742     		.uleb128 0x2117
 3442 0301 19       		.uleb128 0x19
 3443 0302 01       		.uleb128 0x1
 3444 0303 13       		.uleb128 0x13
 3445 0304 00       		.byte	0
 3446 0305 00       		.byte	0
 3447 0306 3A       		.uleb128 0x3a
 3448 0307 34       		.uleb128 0x34
 3449 0308 00       		.byte	0
 3450 0309 03       		.uleb128 0x3
 3451 030a 08       		.uleb128 0x8
 3452 030b 3A       		.uleb128 0x3a
 3453 030c 0B       		.uleb128 0xb
 3454 030d 3B       		.uleb128 0x3b
 3455 030e 0B       		.uleb128 0xb
 3456 030f 49       		.uleb128 0x49
 3457 0310 13       		.uleb128 0x13
 3458 0311 02       		.uleb128 0x2
 3459 0312 17       		.uleb128 0x17
 3460 0313 00       		.byte	0
 3461 0314 00       		.byte	0
 3462 0315 3B       		.uleb128 0x3b
 3463 0316 1D       		.uleb128 0x1d
 3464 0317 00       		.byte	0
 3465 0318 31       		.uleb128 0x31
 3466 0319 13       		.uleb128 0x13
 3467 031a 11       		.uleb128 0x11
 3468 031b 01       		.uleb128 0x1
 3469 031c 12       		.uleb128 0x12
 3470 031d 06       		.uleb128 0x6
 3471 031e 58       		.uleb128 0x58
 3472 031f 0B       		.uleb128 0xb
 3473 0320 59       		.uleb128 0x59
 3474 0321 0B       		.uleb128 0xb
 3475 0322 00       		.byte	0
 3476 0323 00       		.byte	0
 3477 0324 3C       		.uleb128 0x3c
ARM GAS  /tmp/ccqKJp3m.s 			page 62


 3478 0325 2E       		.uleb128 0x2e
 3479 0326 01       		.byte	0x1
 3480 0327 3F       		.uleb128 0x3f
 3481 0328 19       		.uleb128 0x19
 3482 0329 03       		.uleb128 0x3
 3483 032a 0E       		.uleb128 0xe
 3484 032b 3A       		.uleb128 0x3a
 3485 032c 0B       		.uleb128 0xb
 3486 032d 3B       		.uleb128 0x3b
 3487 032e 05       		.uleb128 0x5
 3488 032f 27       		.uleb128 0x27
 3489 0330 19       		.uleb128 0x19
 3490 0331 49       		.uleb128 0x49
 3491 0332 13       		.uleb128 0x13
 3492 0333 11       		.uleb128 0x11
 3493 0334 01       		.uleb128 0x1
 3494 0335 12       		.uleb128 0x12
 3495 0336 06       		.uleb128 0x6
 3496 0337 40       		.uleb128 0x40
 3497 0338 18       		.uleb128 0x18
 3498 0339 9742     		.uleb128 0x2117
 3499 033b 19       		.uleb128 0x19
 3500 033c 01       		.uleb128 0x1
 3501 033d 13       		.uleb128 0x13
 3502 033e 00       		.byte	0
 3503 033f 00       		.byte	0
 3504 0340 3D       		.uleb128 0x3d
 3505 0341 05       		.uleb128 0x5
 3506 0342 00       		.byte	0
 3507 0343 03       		.uleb128 0x3
 3508 0344 08       		.uleb128 0x8
 3509 0345 3A       		.uleb128 0x3a
 3510 0346 0B       		.uleb128 0xb
 3511 0347 3B       		.uleb128 0x3b
 3512 0348 05       		.uleb128 0x5
 3513 0349 49       		.uleb128 0x49
 3514 034a 13       		.uleb128 0x13
 3515 034b 02       		.uleb128 0x2
 3516 034c 17       		.uleb128 0x17
 3517 034d 00       		.byte	0
 3518 034e 00       		.byte	0
 3519 034f 3E       		.uleb128 0x3e
 3520 0350 05       		.uleb128 0x5
 3521 0351 00       		.byte	0
 3522 0352 03       		.uleb128 0x3
 3523 0353 0E       		.uleb128 0xe
 3524 0354 3A       		.uleb128 0x3a
 3525 0355 0B       		.uleb128 0xb
 3526 0356 3B       		.uleb128 0x3b
 3527 0357 05       		.uleb128 0x5
 3528 0358 49       		.uleb128 0x49
 3529 0359 13       		.uleb128 0x13
 3530 035a 02       		.uleb128 0x2
 3531 035b 17       		.uleb128 0x17
 3532 035c 00       		.byte	0
 3533 035d 00       		.byte	0
 3534 035e 3F       		.uleb128 0x3f
ARM GAS  /tmp/ccqKJp3m.s 			page 63


 3535 035f 34       		.uleb128 0x34
 3536 0360 00       		.byte	0
 3537 0361 03       		.uleb128 0x3
 3538 0362 0E       		.uleb128 0xe
 3539 0363 3A       		.uleb128 0x3a
 3540 0364 0B       		.uleb128 0xb
 3541 0365 3B       		.uleb128 0x3b
 3542 0366 05       		.uleb128 0x5
 3543 0367 49       		.uleb128 0x49
 3544 0368 13       		.uleb128 0x13
 3545 0369 3F       		.uleb128 0x3f
 3546 036a 19       		.uleb128 0x19
 3547 036b 3C       		.uleb128 0x3c
 3548 036c 19       		.uleb128 0x19
 3549 036d 00       		.byte	0
 3550 036e 00       		.byte	0
 3551 036f 40       		.uleb128 0x40
 3552 0370 34       		.uleb128 0x34
 3553 0371 00       		.byte	0
 3554 0372 03       		.uleb128 0x3
 3555 0373 08       		.uleb128 0x8
 3556 0374 3A       		.uleb128 0x3a
 3557 0375 0B       		.uleb128 0xb
 3558 0376 3B       		.uleb128 0x3b
 3559 0377 05       		.uleb128 0x5
 3560 0378 49       		.uleb128 0x49
 3561 0379 13       		.uleb128 0x13
 3562 037a 3F       		.uleb128 0x3f
 3563 037b 19       		.uleb128 0x19
 3564 037c 3C       		.uleb128 0x3c
 3565 037d 19       		.uleb128 0x19
 3566 037e 00       		.byte	0
 3567 037f 00       		.byte	0
 3568 0380 41       		.uleb128 0x41
 3569 0381 2E       		.uleb128 0x2e
 3570 0382 00       		.byte	0
 3571 0383 3F       		.uleb128 0x3f
 3572 0384 19       		.uleb128 0x19
 3573 0385 3C       		.uleb128 0x3c
 3574 0386 19       		.uleb128 0x19
 3575 0387 6E       		.uleb128 0x6e
 3576 0388 0E       		.uleb128 0xe
 3577 0389 03       		.uleb128 0x3
 3578 038a 0E       		.uleb128 0xe
 3579 038b 3A       		.uleb128 0x3a
 3580 038c 0B       		.uleb128 0xb
 3581 038d 3B       		.uleb128 0x3b
 3582 038e 0B       		.uleb128 0xb
 3583 038f 00       		.byte	0
 3584 0390 00       		.byte	0
 3585 0391 42       		.uleb128 0x42
 3586 0392 2E       		.uleb128 0x2e
 3587 0393 00       		.byte	0
 3588 0394 3F       		.uleb128 0x3f
 3589 0395 19       		.uleb128 0x19
 3590 0396 3C       		.uleb128 0x3c
 3591 0397 19       		.uleb128 0x19
ARM GAS  /tmp/ccqKJp3m.s 			page 64


 3592 0398 6E       		.uleb128 0x6e
 3593 0399 0E       		.uleb128 0xe
 3594 039a 03       		.uleb128 0x3
 3595 039b 0E       		.uleb128 0xe
 3596 039c 3A       		.uleb128 0x3a
 3597 039d 0B       		.uleb128 0xb
 3598 039e 3B       		.uleb128 0x3b
 3599 039f 05       		.uleb128 0x5
 3600 03a0 00       		.byte	0
 3601 03a1 00       		.byte	0
 3602 03a2 00       		.byte	0
 3603              		.section	.debug_loc,"",%progbits
 3604              	.Ldebug_loc0:
 3605              	.LLST0:
 3606 0000 00000000 		.4byte	.LVL0
 3607 0004 04000000 		.4byte	.LVL1
 3608 0008 0100     		.2byte	0x1
 3609 000a 51       		.byte	0x51
 3610 000b 04000000 		.4byte	.LVL1
 3611 000f 20000000 		.4byte	.LFE172
 3612 0013 0100     		.2byte	0x1
 3613 0015 53       		.byte	0x53
 3614 0016 00000000 		.4byte	0
 3615 001a 00000000 		.4byte	0
 3616              	.LLST1:
 3617 001e 00000000 		.4byte	.LVL3
 3618 0022 04000000 		.4byte	.LVL4
 3619 0026 0100     		.2byte	0x1
 3620 0028 50       		.byte	0x50
 3621 0029 00000000 		.4byte	0
 3622 002d 00000000 		.4byte	0
 3623              	.LLST2:
 3624 0031 00000000 		.4byte	.LVL5
 3625 0035 0D000000 		.4byte	.LVL7-1
 3626 0039 0100     		.2byte	0x1
 3627 003b 50       		.byte	0x50
 3628 003c 0D000000 		.4byte	.LVL7-1
 3629 0040 2C000000 		.4byte	.LFE291
 3630 0044 0100     		.2byte	0x1
 3631 0046 54       		.byte	0x54
 3632 0047 00000000 		.4byte	0
 3633 004b 00000000 		.4byte	0
 3634              	.LLST3:
 3635 004f 00000000 		.4byte	.LVL5
 3636 0053 0A000000 		.4byte	.LVL6
 3637 0057 0300     		.2byte	0x3
 3638 0059 08       		.byte	0x8
 3639 005a 20       		.byte	0x20
 3640 005b 9F       		.byte	0x9f
 3641 005c 00000000 		.4byte	0
 3642 0060 00000000 		.4byte	0
 3643              	.LLST4:
 3644 0064 0E000000 		.4byte	.LVL7
 3645 0068 10000000 		.4byte	.LVL8
 3646 006c 0100     		.2byte	0x1
 3647 006e 54       		.byte	0x54
 3648 006f 00000000 		.4byte	0
ARM GAS  /tmp/ccqKJp3m.s 			page 65


 3649 0073 00000000 		.4byte	0
 3650              	.LLST5:
 3651 0077 14000000 		.4byte	.LVL9
 3652 007b 1C000000 		.4byte	.LVL10
 3653 007f 0100     		.2byte	0x1
 3654 0081 54       		.byte	0x54
 3655 0082 00000000 		.4byte	0
 3656 0086 00000000 		.4byte	0
 3657              	.LLST6:
 3658 008a 14000000 		.4byte	.LVL9
 3659 008e 1C000000 		.4byte	.LVL10
 3660 0092 0100     		.2byte	0x1
 3661 0094 50       		.byte	0x50
 3662 0095 00000000 		.4byte	0
 3663 0099 00000000 		.4byte	0
 3664              	.LLST7:
 3665 009d 24000000 		.4byte	.LVL12
 3666 00a1 2A000000 		.4byte	.LVL13
 3667 00a5 0200     		.2byte	0x2
 3668 00a7 30       		.byte	0x30
 3669 00a8 9F       		.byte	0x9f
 3670 00a9 00000000 		.4byte	0
 3671 00ad 00000000 		.4byte	0
 3672              	.LLST8:
 3673 00b1 00000000 		.4byte	.LVL14
 3674 00b5 12000000 		.4byte	.LVL18
 3675 00b9 0100     		.2byte	0x1
 3676 00bb 50       		.byte	0x50
 3677 00bc 12000000 		.4byte	.LVL18
 3678 00c0 16000000 		.4byte	.LVL19
 3679 00c4 0400     		.2byte	0x4
 3680 00c6 F3       		.byte	0xf3
 3681 00c7 01       		.uleb128 0x1
 3682 00c8 50       		.byte	0x50
 3683 00c9 9F       		.byte	0x9f
 3684 00ca 16000000 		.4byte	.LVL19
 3685 00ce 18000000 		.4byte	.LFE292
 3686 00d2 0100     		.2byte	0x1
 3687 00d4 50       		.byte	0x50
 3688 00d5 00000000 		.4byte	0
 3689 00d9 00000000 		.4byte	0
 3690              	.LLST9:
 3691 00dd 00000000 		.4byte	.LVL14
 3692 00e1 02000000 		.4byte	.LVL15
 3693 00e5 0100     		.2byte	0x1
 3694 00e7 50       		.byte	0x50
 3695 00e8 00000000 		.4byte	0
 3696 00ec 00000000 		.4byte	0
 3697              	.LLST10:
 3698 00f0 06000000 		.4byte	.LVL16
 3699 00f4 0C000000 		.4byte	.LVL17
 3700 00f8 0100     		.2byte	0x1
 3701 00fa 50       		.byte	0x50
 3702 00fb 00000000 		.4byte	0
 3703 00ff 00000000 		.4byte	0
 3704              	.LLST11:
 3705 0103 06000000 		.4byte	.LVL16
ARM GAS  /tmp/ccqKJp3m.s 			page 66


 3706 0107 0C000000 		.4byte	.LVL17
 3707 010b 0100     		.2byte	0x1
 3708 010d 53       		.byte	0x53
 3709 010e 00000000 		.4byte	0
 3710 0112 00000000 		.4byte	0
 3711              	.LLST12:
 3712 0116 00000000 		.4byte	.LVL20
 3713 011a 08000000 		.4byte	.LVL21
 3714 011e 0100     		.2byte	0x1
 3715 0120 50       		.byte	0x50
 3716 0121 08000000 		.4byte	.LVL21
 3717 0125 1E000000 		.4byte	.LFE294
 3718 0129 0100     		.2byte	0x1
 3719 012b 54       		.byte	0x54
 3720 012c 00000000 		.4byte	0
 3721 0130 00000000 		.4byte	0
 3722              	.LLST13:
 3723 0134 08000000 		.4byte	.LVL21
 3724 0138 0A000000 		.4byte	.LVL22
 3725 013c 0100     		.2byte	0x1
 3726 013e 54       		.byte	0x54
 3727 013f 00000000 		.4byte	0
 3728 0143 00000000 		.4byte	0
 3729              	.LLST14:
 3730 0147 0E000000 		.4byte	.LVL23
 3731 014b 14000000 		.4byte	.LVL24
 3732 014f 0100     		.2byte	0x1
 3733 0151 54       		.byte	0x54
 3734 0152 00000000 		.4byte	0
 3735 0156 00000000 		.4byte	0
 3736              	.LLST15:
 3737 015a 0E000000 		.4byte	.LVL23
 3738 015e 14000000 		.4byte	.LVL24
 3739 0162 0100     		.2byte	0x1
 3740 0164 50       		.byte	0x50
 3741 0165 00000000 		.4byte	0
 3742 0169 00000000 		.4byte	0
 3743              	.LLST16:
 3744 016d 00000000 		.4byte	.LVL26
 3745 0171 0D000000 		.4byte	.LVL28-1
 3746 0175 0100     		.2byte	0x1
 3747 0177 50       		.byte	0x50
 3748 0178 0D000000 		.4byte	.LVL28-1
 3749 017c 24000000 		.4byte	.LFE293
 3750 0180 0100     		.2byte	0x1
 3751 0182 54       		.byte	0x54
 3752 0183 00000000 		.4byte	0
 3753 0187 00000000 		.4byte	0
 3754              	.LLST17:
 3755 018b 00000000 		.4byte	.LVL26
 3756 018f 0A000000 		.4byte	.LVL27
 3757 0193 0300     		.2byte	0x3
 3758 0195 08       		.byte	0x8
 3759 0196 20       		.byte	0x20
 3760 0197 9F       		.byte	0x9f
 3761 0198 00000000 		.4byte	0
 3762 019c 00000000 		.4byte	0
ARM GAS  /tmp/ccqKJp3m.s 			page 67


 3763              	.LLST18:
 3764 01a0 1C000000 		.4byte	.LVL31
 3765 01a4 22000000 		.4byte	.LVL32
 3766 01a8 0200     		.2byte	0x2
 3767 01aa 30       		.byte	0x30
 3768 01ab 9F       		.byte	0x9f
 3769 01ac 00000000 		.4byte	0
 3770 01b0 00000000 		.4byte	0
 3771              	.LLST19:
 3772 01b4 00000000 		.4byte	.LVL33
 3773 01b8 0C000000 		.4byte	.LVL35
 3774 01bc 0100     		.2byte	0x1
 3775 01be 50       		.byte	0x50
 3776 01bf 0C000000 		.4byte	.LVL35
 3777 01c3 2C000000 		.4byte	.LVL41
 3778 01c7 0100     		.2byte	0x1
 3779 01c9 56       		.byte	0x56
 3780 01ca 2C000000 		.4byte	.LVL41
 3781 01ce 30000000 		.4byte	.LFE296
 3782 01d2 0400     		.2byte	0x4
 3783 01d4 F3       		.byte	0xf3
 3784 01d5 01       		.uleb128 0x1
 3785 01d6 50       		.byte	0x50
 3786 01d7 9F       		.byte	0x9f
 3787 01d8 00000000 		.4byte	0
 3788 01dc 00000000 		.4byte	0
 3789              	.LLST20:
 3790 01e0 06000000 		.4byte	.LVL34
 3791 01e4 22000000 		.4byte	.LVL39
 3792 01e8 0100     		.2byte	0x1
 3793 01ea 54       		.byte	0x54
 3794 01eb 00000000 		.4byte	0
 3795 01ef 00000000 		.4byte	0
 3796              	.LLST21:
 3797 01f3 22000000 		.4byte	.LVL39
 3798 01f7 2C000000 		.4byte	.LVL41
 3799 01fb 0100     		.2byte	0x1
 3800 01fd 54       		.byte	0x54
 3801 01fe 2C000000 		.4byte	.LVL41
 3802 0202 30000000 		.4byte	.LFE296
 3803 0206 0100     		.2byte	0x1
 3804 0208 50       		.byte	0x50
 3805 0209 00000000 		.4byte	0
 3806 020d 00000000 		.4byte	0
 3807              	.LLST22:
 3808 0211 00000000 		.4byte	.LVL42
 3809 0215 0D000000 		.4byte	.LVL44-1
 3810 0219 0100     		.2byte	0x1
 3811 021b 50       		.byte	0x50
 3812 021c 0D000000 		.4byte	.LVL44-1
 3813 0220 16000000 		.4byte	.LVL46
 3814 0224 0100     		.2byte	0x1
 3815 0226 54       		.byte	0x54
 3816 0227 16000000 		.4byte	.LVL46
 3817 022b 24000000 		.4byte	.LFE295
 3818 022f 0400     		.2byte	0x4
 3819 0231 F3       		.byte	0xf3
ARM GAS  /tmp/ccqKJp3m.s 			page 68


 3820 0232 01       		.uleb128 0x1
 3821 0233 50       		.byte	0x50
 3822 0234 9F       		.byte	0x9f
 3823 0235 00000000 		.4byte	0
 3824 0239 00000000 		.4byte	0
 3825              	.LLST23:
 3826 023d 16000000 		.4byte	.LVL46
 3827 0241 19000000 		.4byte	.LVL47-1
 3828 0245 0100     		.2byte	0x1
 3829 0247 50       		.byte	0x50
 3830 0248 19000000 		.4byte	.LVL47-1
 3831 024c 24000000 		.4byte	.LFE295
 3832 0250 0100     		.2byte	0x1
 3833 0252 54       		.byte	0x54
 3834 0253 00000000 		.4byte	0
 3835 0257 00000000 		.4byte	0
 3836              	.LLST24:
 3837 025b 00000000 		.4byte	.LVL42
 3838 025f 0A000000 		.4byte	.LVL43
 3839 0263 0300     		.2byte	0x3
 3840 0265 08       		.byte	0x8
 3841 0266 20       		.byte	0x20
 3842 0267 9F       		.byte	0x9f
 3843 0268 00000000 		.4byte	0
 3844 026c 00000000 		.4byte	0
 3845              	.LLST25:
 3846 0270 1A000000 		.4byte	.LVL47
 3847 0274 20000000 		.4byte	.LVL48
 3848 0278 0200     		.2byte	0x2
 3849 027a 30       		.byte	0x30
 3850 027b 9F       		.byte	0x9f
 3851 027c 00000000 		.4byte	0
 3852 0280 00000000 		.4byte	0
 3853              	.LLST26:
 3854 0284 00000000 		.4byte	.LVL49
 3855 0288 0C000000 		.4byte	.LVL50
 3856 028c 0100     		.2byte	0x1
 3857 028e 50       		.byte	0x50
 3858 028f 0C000000 		.4byte	.LVL50
 3859 0293 28000000 		.4byte	.LVL54
 3860 0297 0100     		.2byte	0x1
 3861 0299 54       		.byte	0x54
 3862 029a 28000000 		.4byte	.LVL54
 3863 029e 38000000 		.4byte	.LFE298
 3864 02a2 0400     		.2byte	0x4
 3865 02a4 F3       		.byte	0xf3
 3866 02a5 01       		.uleb128 0x1
 3867 02a6 50       		.byte	0x50
 3868 02a7 9F       		.byte	0x9f
 3869 02a8 00000000 		.4byte	0
 3870 02ac 00000000 		.4byte	0
 3871              	.LLST27:
 3872 02b0 00000000 		.4byte	.LVL49
 3873 02b4 11000000 		.4byte	.LVL51-1
 3874 02b8 0100     		.2byte	0x1
 3875 02ba 51       		.byte	0x51
 3876 02bb 11000000 		.4byte	.LVL51-1
ARM GAS  /tmp/ccqKJp3m.s 			page 69


 3877 02bf 34000000 		.4byte	.LVL57
 3878 02c3 0100     		.2byte	0x1
 3879 02c5 57       		.byte	0x57
 3880 02c6 34000000 		.4byte	.LVL57
 3881 02ca 38000000 		.4byte	.LFE298
 3882 02ce 0400     		.2byte	0x4
 3883 02d0 F3       		.byte	0xf3
 3884 02d1 01       		.uleb128 0x1
 3885 02d2 51       		.byte	0x51
 3886 02d3 9F       		.byte	0x9f
 3887 02d4 00000000 		.4byte	0
 3888 02d8 00000000 		.4byte	0
 3889              	.LLST28:
 3890 02dc 28000000 		.4byte	.LVL54
 3891 02e0 2C000000 		.4byte	.LVL55
 3892 02e4 0100     		.2byte	0x1
 3893 02e6 50       		.byte	0x50
 3894 02e7 2C000000 		.4byte	.LVL55
 3895 02eb 34000000 		.4byte	.LVL57
 3896 02ef 0100     		.2byte	0x1
 3897 02f1 54       		.byte	0x54
 3898 02f2 34000000 		.4byte	.LVL57
 3899 02f6 38000000 		.4byte	.LFE298
 3900 02fa 0100     		.2byte	0x1
 3901 02fc 50       		.byte	0x50
 3902 02fd 00000000 		.4byte	0
 3903 0301 00000000 		.4byte	0
 3904              	.LLST29:
 3905 0305 00000000 		.4byte	.LVL58
 3906 0309 0F000000 		.4byte	.LVL60-1
 3907 030d 0100     		.2byte	0x1
 3908 030f 50       		.byte	0x50
 3909 0310 0F000000 		.4byte	.LVL60-1
 3910 0314 1A000000 		.4byte	.LVL62
 3911 0318 0100     		.2byte	0x1
 3912 031a 54       		.byte	0x54
 3913 031b 1A000000 		.4byte	.LVL62
 3914 031f 28000000 		.4byte	.LFE297
 3915 0323 0400     		.2byte	0x4
 3916 0325 F3       		.byte	0xf3
 3917 0326 01       		.uleb128 0x1
 3918 0327 50       		.byte	0x50
 3919 0328 9F       		.byte	0x9f
 3920 0329 00000000 		.4byte	0
 3921 032d 00000000 		.4byte	0
 3922              	.LLST30:
 3923 0331 00000000 		.4byte	.LVL58
 3924 0335 0F000000 		.4byte	.LVL60-1
 3925 0339 0100     		.2byte	0x1
 3926 033b 51       		.byte	0x51
 3927 033c 0F000000 		.4byte	.LVL60-1
 3928 0340 28000000 		.4byte	.LFE297
 3929 0344 0100     		.2byte	0x1
 3930 0346 55       		.byte	0x55
 3931 0347 00000000 		.4byte	0
 3932 034b 00000000 		.4byte	0
 3933              	.LLST31:
ARM GAS  /tmp/ccqKJp3m.s 			page 70


 3934 034f 1A000000 		.4byte	.LVL62
 3935 0353 1D000000 		.4byte	.LVL63-1
 3936 0357 0100     		.2byte	0x1
 3937 0359 50       		.byte	0x50
 3938 035a 1D000000 		.4byte	.LVL63-1
 3939 035e 28000000 		.4byte	.LFE297
 3940 0362 0100     		.2byte	0x1
 3941 0364 54       		.byte	0x54
 3942 0365 00000000 		.4byte	0
 3943 0369 00000000 		.4byte	0
 3944              	.LLST32:
 3945 036d 00000000 		.4byte	.LVL58
 3946 0371 0C000000 		.4byte	.LVL59
 3947 0375 0300     		.2byte	0x3
 3948 0377 08       		.byte	0x8
 3949 0378 20       		.byte	0x20
 3950 0379 9F       		.byte	0x9f
 3951 037a 00000000 		.4byte	0
 3952 037e 00000000 		.4byte	0
 3953              	.LLST33:
 3954 0382 1E000000 		.4byte	.LVL63
 3955 0386 24000000 		.4byte	.LVL64
 3956 038a 0200     		.2byte	0x2
 3957 038c 30       		.byte	0x30
 3958 038d 9F       		.byte	0x9f
 3959 038e 00000000 		.4byte	0
 3960 0392 00000000 		.4byte	0
 3961              		.section	.debug_aranges,"",%progbits
 3962 0000 64000000 		.4byte	0x64
 3963 0004 0200     		.2byte	0x2
 3964 0006 00000000 		.4byte	.Ldebug_info0
 3965 000a 04       		.byte	0x4
 3966 000b 00       		.byte	0
 3967 000c 0000     		.2byte	0
 3968 000e 0000     		.2byte	0
 3969 0010 00000000 		.4byte	.LFB172
 3970 0014 20000000 		.4byte	.LFE172-.LFB172
 3971 0018 00000000 		.4byte	.LFB290
 3972 001c 06000000 		.4byte	.LFE290-.LFB290
 3973 0020 00000000 		.4byte	.LFB291
 3974 0024 2C000000 		.4byte	.LFE291-.LFB291
 3975 0028 00000000 		.4byte	.LFB292
 3976 002c 18000000 		.4byte	.LFE292-.LFB292
 3977 0030 00000000 		.4byte	.LFB294
 3978 0034 1E000000 		.4byte	.LFE294-.LFB294
 3979 0038 00000000 		.4byte	.LFB293
 3980 003c 24000000 		.4byte	.LFE293-.LFB293
 3981 0040 00000000 		.4byte	.LFB296
 3982 0044 30000000 		.4byte	.LFE296-.LFB296
 3983 0048 00000000 		.4byte	.LFB295
 3984 004c 24000000 		.4byte	.LFE295-.LFB295
 3985 0050 00000000 		.4byte	.LFB298
 3986 0054 38000000 		.4byte	.LFE298-.LFB298
 3987 0058 00000000 		.4byte	.LFB297
 3988 005c 28000000 		.4byte	.LFE297-.LFB297
 3989 0060 00000000 		.4byte	0
 3990 0064 00000000 		.4byte	0
ARM GAS  /tmp/ccqKJp3m.s 			page 71


 3991              		.section	.debug_ranges,"",%progbits
 3992              	.Ldebug_ranges0:
 3993 0000 02000000 		.4byte	.LBB55
 3994 0004 04000000 		.4byte	.LBE55
 3995 0008 06000000 		.4byte	.LBB64
 3996 000c 0E000000 		.4byte	.LBE64
 3997 0010 00000000 		.4byte	0
 3998 0014 00000000 		.4byte	0
 3999 0018 02000000 		.4byte	.LBB57
 4000 001c 04000000 		.4byte	.LBE57
 4001 0020 06000000 		.4byte	.LBB62
 4002 0024 0A000000 		.4byte	.LBE62
 4003 0028 00000000 		.4byte	0
 4004 002c 00000000 		.4byte	0
 4005 0030 14000000 		.4byte	.LBB67
 4006 0034 18000000 		.4byte	.LBE67
 4007 0038 1A000000 		.4byte	.LBB70
 4008 003c 1C000000 		.4byte	.LBE70
 4009 0040 00000000 		.4byte	0
 4010 0044 00000000 		.4byte	0
 4011 0048 02000000 		.4byte	.LBB95
 4012 004c 04000000 		.4byte	.LBE95
 4013 0050 06000000 		.4byte	.LBB104
 4014 0054 0E000000 		.4byte	.LBE104
 4015 0058 00000000 		.4byte	0
 4016 005c 00000000 		.4byte	0
 4017 0060 02000000 		.4byte	.LBB97
 4018 0064 04000000 		.4byte	.LBE97
 4019 0068 06000000 		.4byte	.LBB102
 4020 006c 0A000000 		.4byte	.LBE102
 4021 0070 00000000 		.4byte	0
 4022 0074 00000000 		.4byte	0
 4023 0078 02000000 		.4byte	.LBB122
 4024 007c 04000000 		.4byte	.LBE122
 4025 0080 06000000 		.4byte	.LBB131
 4026 0084 0E000000 		.4byte	.LBE131
 4027 0088 00000000 		.4byte	0
 4028 008c 00000000 		.4byte	0
 4029 0090 02000000 		.4byte	.LBB124
 4030 0094 04000000 		.4byte	.LBE124
 4031 0098 06000000 		.4byte	.LBB129
 4032 009c 0A000000 		.4byte	.LBE129
 4033 00a0 00000000 		.4byte	0
 4034 00a4 00000000 		.4byte	0
 4035 00a8 00000000 		.4byte	.LFB172
 4036 00ac 20000000 		.4byte	.LFE172
 4037 00b0 00000000 		.4byte	.LFB290
 4038 00b4 06000000 		.4byte	.LFE290
 4039 00b8 00000000 		.4byte	.LFB291
 4040 00bc 2C000000 		.4byte	.LFE291
 4041 00c0 00000000 		.4byte	.LFB292
 4042 00c4 18000000 		.4byte	.LFE292
 4043 00c8 00000000 		.4byte	.LFB294
 4044 00cc 1E000000 		.4byte	.LFE294
 4045 00d0 00000000 		.4byte	.LFB293
 4046 00d4 24000000 		.4byte	.LFE293
 4047 00d8 00000000 		.4byte	.LFB296
ARM GAS  /tmp/ccqKJp3m.s 			page 72


 4048 00dc 30000000 		.4byte	.LFE296
 4049 00e0 00000000 		.4byte	.LFB295
 4050 00e4 24000000 		.4byte	.LFE295
 4051 00e8 00000000 		.4byte	.LFB298
 4052 00ec 38000000 		.4byte	.LFE298
 4053 00f0 00000000 		.4byte	.LFB297
 4054 00f4 28000000 		.4byte	.LFE297
 4055 00f8 00000000 		.4byte	0
 4056 00fc 00000000 		.4byte	0
 4057              		.section	.debug_line,"",%progbits
 4058              	.Ldebug_line0:
 4059 0000 2C040000 		.section	.debug_str,"MS",%progbits,1
 4059      02001C02 
 4059      00000201 
 4059      FB0E0D00 
 4059      01010101 
 4060              	.LASF53:
 4061 0000 72656164 		.ascii	"ready_list_t\000"
 4061      795F6C69 
 4061      73745F74 
 4061      00
 4062              	.LASF95:
 4063 000d 77747472 		.ascii	"wttrp\000"
 4063      7000
 4064              	.LASF59:
 4065 0013 64656C74 		.ascii	"delta\000"
 4065      6100
 4066              	.LASF92:
 4067 0019 7264796D 		.ascii	"rdymsg\000"
 4067      736700
 4068              	.LASF17:
 4069 0020 75696E74 		.ascii	"uint64_t\000"
 4069      36345F74 
 4069      00
 4070              	.LASF72:
 4071 0029 6B65726E 		.ascii	"kernel_stats\000"
 4071      656C5F73 
 4071      74617473 
 4071      00
 4072              	.LASF7:
 4073 0036 5F5F7569 		.ascii	"__uint8_t\000"
 4073      6E74385F 
 4073      7400
 4074              	.LASF52:
 4075 0040 70726576 		.ascii	"prev\000"
 4075      00
 4076              	.LASF79:
 4077 0045 706F7274 		.ascii	"port_intctx\000"
 4077      5F696E74 
 4077      63747800 
 4078              	.LASF51:
 4079 0051 63685F74 		.ascii	"ch_threads_queue\000"
 4079      68726561 
 4079      64735F71 
 4079      75657565 
 4079      00
 4080              	.LASF64:
ARM GAS  /tmp/ccqKJp3m.s 			page 73


 4081 0062 73797374 		.ascii	"system_debug_t\000"
 4081      656D5F64 
 4081      65627567 
 4081      5F7400
 4082              	.LASF111:
 4083 0071 71756575 		.ascii	"queue_init\000"
 4083      655F696E 
 4083      697400
 4084              	.LASF140:
 4085 007c 474E5520 		.ascii	"GNU C11 5.4.1 20160919 -mcpu=cortex-m4 -mfloat-abi="
 4085      43313120 
 4085      352E342E 
 4085      31203230 
 4085      31363039 
 4086 00af 68617264 		.ascii	"hard -mfpu=fpv4-sp-d16 -mno-thumb-interwork -mthumb"
 4086      202D6D66 
 4086      70753D66 
 4086      7076342D 
 4086      73702D64 
 4087 00e2 202D6720 		.ascii	" -g -Os -fomit-frame-pointer -falign-functions=16 -"
 4087      2D4F7320 
 4087      2D666F6D 
 4087      69742D66 
 4087      72616D65 
 4088 0115 6666756E 		.ascii	"ffunction-sections -fdata-sections -fno-common -fsi"
 4088      6374696F 
 4088      6E2D7365 
 4088      6374696F 
 4088      6E73202D 
 4089 0148 6E676C65 		.ascii	"ngle-precision-constant\000"
 4089      2D707265 
 4089      63697369 
 4089      6F6E2D63 
 4089      6F6E7374 
 4090              	.LASF108:
 4091 0160 706F7274 		.ascii	"port_lock\000"
 4091      5F6C6F63 
 4091      6B00
 4092              	.LASF83:
 4093 016a 776F7273 		.ascii	"worst\000"
 4093      7400
 4094              	.LASF86:
 4095 0170 74696D65 		.ascii	"time_measurement_t\000"
 4095      5F6D6561 
 4095      73757265 
 4095      6D656E74 
 4095      5F7400
 4096              	.LASF123:
 4097 0183 6368436F 		.ascii	"chCondBroadcastI\000"
 4097      6E644272 
 4097      6F616463 
 4097      61737449 
 4097      00
 4098              	.LASF13:
 4099 0194 6C6F6E67 		.ascii	"long long unsigned int\000"
 4099      206C6F6E 
 4099      6720756E 
ARM GAS  /tmp/ccqKJp3m.s 			page 74


 4099      7369676E 
 4099      65642069 
 4100              	.LASF93:
 4101 01ab 65786974 		.ascii	"exitcode\000"
 4101      636F6465 
 4101      00
 4102              	.LASF71:
 4103 01b4 6D61696E 		.ascii	"mainthread\000"
 4103      74687265 
 4103      616400
 4104              	.LASF96:
 4105 01bf 73656E74 		.ascii	"sentmsg\000"
 4105      6D736700 
 4106              	.LASF61:
 4107 01c7 76697274 		.ascii	"virtual_timers_list_t\000"
 4107      75616C5F 
 4107      74696D65 
 4107      72735F6C 
 4107      6973745F 
 4108              	.LASF130:
 4109 01dd 49544D5F 		.ascii	"ITM_RxBuffer\000"
 4109      52784275 
 4109      66666572 
 4109      00
 4110              	.LASF49:
 4111 01ea 6E657874 		.ascii	"next\000"
 4111      00
 4112              	.LASF19:
 4113 01ef 72747469 		.ascii	"rttime_t\000"
 4113      6D655F74 
 4113      00
 4114              	.LASF1:
 4115 01f8 6C6F6E67 		.ascii	"long long int\000"
 4115      206C6F6E 
 4115      6720696E 
 4115      7400
 4116              	.LASF3:
 4117 0206 7369676E 		.ascii	"signed char\000"
 4117      65642063 
 4117      68617200 
 4118              	.LASF106:
 4119 0212 636F6E64 		.ascii	"condition_variable_t\000"
 4119      6974696F 
 4119      6E5F7661 
 4119      72696162 
 4119      6C655F74 
 4120              	.LASF112:
 4121 0227 62617365 		.ascii	"basePri\000"
 4121      50726900 
 4122              	.LASF70:
 4123 022f 76746C69 		.ascii	"vtlist\000"
 4123      737400
 4124              	.LASF109:
 4125 0236 706F7274 		.ascii	"port_unlock\000"
 4125      5F756E6C 
 4125      6F636B00 
 4126              	.LASF39:
ARM GAS  /tmp/ccqKJp3m.s 			page 75


 4127 0242 6D736771 		.ascii	"msgqueue\000"
 4127      75657565 
 4127      00
 4128              	.LASF35:
 4129 024b 73746174 		.ascii	"state\000"
 4129      6500
 4130              	.LASF9:
 4131 0251 6C6F6E67 		.ascii	"long int\000"
 4131      20696E74 
 4131      00
 4132              	.LASF21:
 4133 025a 74737461 		.ascii	"tstate_t\000"
 4133      74655F74 
 4133      00
 4134              	.LASF113:
 4135 0263 71756575 		.ascii	"queue_notempty\000"
 4135      655F6E6F 
 4135      74656D70 
 4135      747900
 4136              	.LASF60:
 4137 0272 66756E63 		.ascii	"func\000"
 4137      00
 4138              	.LASF44:
 4139 0277 73746174 		.ascii	"stats\000"
 4139      7300
 4140              	.LASF135:
 4141 027d 63685363 		.ascii	"chSchRescheduleS\000"
 4141      68526573 
 4141      63686564 
 4141      756C6553 
 4141      00
 4142              	.LASF10:
 4143 028e 5F5F7569 		.ascii	"__uint32_t\000"
 4143      6E743332 
 4143      5F7400
 4144              	.LASF76:
 4145 0299 72656761 		.ascii	"regarm_t\000"
 4145      726D5F74 
 4145      00
 4146              	.LASF65:
 4147 02a2 63685F73 		.ascii	"ch_system_debug\000"
 4147      79737465 
 4147      6D5F6465 
 4147      62756700 
 4148              	.LASF38:
 4149 02b2 77616974 		.ascii	"waiting\000"
 4149      696E6700 
 4150              	.LASF104:
 4151 02ba 6D757465 		.ascii	"mutex_t\000"
 4151      785F7400 
 4152              	.LASF121:
 4153 02c2 6368436F 		.ascii	"chCondSignal\000"
 4153      6E645369 
 4153      676E616C 
 4153      00
 4154              	.LASF74:
 4155 02cf 73797369 		.ascii	"sysinterval_t\000"
ARM GAS  /tmp/ccqKJp3m.s 			page 76


 4155      6E746572 
 4155      76616C5F 
 4155      7400
 4156              	.LASF26:
 4157 02dd 636E745F 		.ascii	"cnt_t\000"
 4157      7400
 4158              	.LASF136:
 4159 02e3 63684D74 		.ascii	"chMtxUnlockS\000"
 4159      78556E6C 
 4159      6F636B53 
 4159      00
 4160              	.LASF0:
 4161 02f0 756E7369 		.ascii	"unsigned int\000"
 4161      676E6564 
 4161      20696E74 
 4161      00
 4162              	.LASF97:
 4163 02fd 77747365 		.ascii	"wtsemp\000"
 4163      6D7000
 4164              	.LASF128:
 4165 0304 74696D65 		.ascii	"timeout\000"
 4165      6F757400 
 4166              	.LASF87:
 4167 030c 6E5F6972 		.ascii	"n_irq\000"
 4167      7100
 4168              	.LASF29:
 4169 0312 71756575 		.ascii	"queue\000"
 4169      6500
 4170              	.LASF43:
 4171 0318 6D706F6F 		.ascii	"mpool\000"
 4171      6C00
 4172              	.LASF6:
 4173 031e 73686F72 		.ascii	"short unsigned int\000"
 4173      7420756E 
 4173      7369676E 
 4173      65642069 
 4173      6E7400
 4174              	.LASF91:
 4175 0331 6B65726E 		.ascii	"kernel_stats_t\000"
 4175      656C5F73 
 4175      74617473 
 4175      5F7400
 4176              	.LASF47:
 4177 0340 63685F74 		.ascii	"ch_thread\000"
 4177      68726561 
 4177      6400
 4178              	.LASF33:
 4179 034a 6E616D65 		.ascii	"name\000"
 4179      00
 4180              	.LASF24:
 4181 034f 6D73675F 		.ascii	"msg_t\000"
 4181      7400
 4182              	.LASF84:
 4183 0355 6C617374 		.ascii	"last\000"
 4183      00
 4184              	.LASF27:
 4185 035a 75636E74 		.ascii	"ucnt_t\000"
ARM GAS  /tmp/ccqKJp3m.s 			page 77


 4185      5F7400
 4186              	.LASF40:
 4187 0361 6570656E 		.ascii	"epending\000"
 4187      64696E67 
 4187      00
 4188              	.LASF67:
 4189 036a 63685F73 		.ascii	"ch_system_t\000"
 4189      79737465 
 4189      6D5F7400 
 4190              	.LASF20:
 4191 0376 746D6F64 		.ascii	"tmode_t\000"
 4191      655F7400 
 4192              	.LASF90:
 4193 037e 6D5F6372 		.ascii	"m_crit_isr\000"
 4193      69745F69 
 4193      737200
 4194              	.LASF54:
 4195 0389 63685F72 		.ascii	"ch_ready_list\000"
 4195      65616479 
 4195      5F6C6973 
 4195      7400
 4196              	.LASF25:
 4197 0397 6576656E 		.ascii	"eventmask_t\000"
 4197      746D6173 
 4197      6B5F7400 
 4198              	.LASF8:
 4199 03a3 5F5F696E 		.ascii	"__int32_t\000"
 4199      7433325F 
 4199      7400
 4200              	.LASF77:
 4201 03ad 73746B61 		.ascii	"stkalign_t\000"
 4201      6C69676E 
 4201      5F7400
 4202              	.LASF31:
 4203 03b8 6E657765 		.ascii	"newer\000"
 4203      7200
 4204              	.LASF42:
 4205 03be 7265616C 		.ascii	"realprio\000"
 4205      7072696F 
 4205      00
 4206              	.LASF132:
 4207 03c7 5F737461 		.ascii	"_stats_stop_measure_crit_thd\000"
 4207      74735F73 
 4207      746F705F 
 4207      6D656173 
 4207      7572655F 
 4208              	.LASF75:
 4209 03e4 73697A65 		.ascii	"sizetype\000"
 4209      74797065 
 4209      00
 4210              	.LASF45:
 4211 03ed 74687265 		.ascii	"thread_reference_t\000"
 4211      61645F72 
 4211      65666572 
 4211      656E6365 
 4211      5F7400
 4212              	.LASF62:
ARM GAS  /tmp/ccqKJp3m.s 			page 78


 4213 0400 63685F76 		.ascii	"ch_virtual_timers_list\000"
 4213      69727475 
 4213      616C5F74 
 4213      696D6572 
 4213      735F6C69 
 4214              	.LASF105:
 4215 0417 636F6E64 		.ascii	"condition_variable\000"
 4215      6974696F 
 4215      6E5F7661 
 4215      72696162 
 4215      6C6500
 4216              	.LASF127:
 4217 042a 6368436F 		.ascii	"chCondWaitTimeoutS\000"
 4217      6E645761 
 4217      69745469 
 4217      6D656F75 
 4217      745300
 4218              	.LASF88:
 4219 043d 6E5F6374 		.ascii	"n_ctxswc\000"
 4219      78737763 
 4219      00
 4220              	.LASF78:
 4221 0446 706F7274 		.ascii	"port_context\000"
 4221      5F636F6E 
 4221      74657874 
 4221      00
 4222              	.LASF81:
 4223 0453 746D5F63 		.ascii	"tm_calibration_t\000"
 4223      616C6962 
 4223      72617469 
 4223      6F6E5F74 
 4223      00
 4224              	.LASF30:
 4225 0464 7072696F 		.ascii	"prio\000"
 4225      00
 4226              	.LASF124:
 4227 0469 6368436F 		.ascii	"chCondBroadcast\000"
 4227      6E644272 
 4227      6F616463 
 4227      61737400 
 4228              	.LASF55:
 4229 0479 63757272 		.ascii	"current\000"
 4229      656E7400 
 4230              	.LASF12:
 4231 0481 5F5F7569 		.ascii	"__uint64_t\000"
 4231      6E743634 
 4231      5F7400
 4232              	.LASF85:
 4233 048c 63756D75 		.ascii	"cumulative\000"
 4233      6C617469 
 4233      766500
 4234              	.LASF22:
 4235 0497 74726566 		.ascii	"trefs_t\000"
 4235      735F7400 
 4236              	.LASF37:
 4237 049f 72656673 		.ascii	"refs\000"
 4237      00
ARM GAS  /tmp/ccqKJp3m.s 			page 79


 4238              	.LASF57:
 4239 04a4 76697274 		.ascii	"virtual_timer_t\000"
 4239      75616C5F 
 4239      74696D65 
 4239      725F7400 
 4240              	.LASF23:
 4241 04b4 74707269 		.ascii	"tprio_t\000"
 4241      6F5F7400 
 4242              	.LASF122:
 4243 04bc 6368436F 		.ascii	"chCondSignalI\000"
 4243      6E645369 
 4243      676E616C 
 4243      4900
 4244              	.LASF107:
 4245 04ca 5F426F6F 		.ascii	"_Bool\000"
 4245      6C00
 4246              	.LASF15:
 4247 04d0 696E7433 		.ascii	"int32_t\000"
 4247      325F7400 
 4248              	.LASF4:
 4249 04d8 756E7369 		.ascii	"unsigned char\000"
 4249      676E6564 
 4249      20636861 
 4249      7200
 4250              	.LASF5:
 4251 04e6 73686F72 		.ascii	"short int\000"
 4251      7420696E 
 4251      7400
 4252              	.LASF63:
 4253 04f0 6C617374 		.ascii	"lasttime\000"
 4253      74696D65 
 4253      00
 4254              	.LASF99:
 4255 04f9 65776D61 		.ascii	"ewmask\000"
 4255      736B00
 4256              	.LASF68:
 4257 0500 63685F73 		.ascii	"ch_system\000"
 4257      79737465 
 4257      6D00
 4258              	.LASF119:
 4259 050a 5F5F6675 		.ascii	"__func__\000"
 4259      6E635F5F 
 4259      00
 4260              	.LASF117:
 4261 0513 63685379 		.ascii	"chSysLock\000"
 4261      734C6F63 
 4261      6B00
 4262              	.LASF58:
 4263 051d 63685F76 		.ascii	"ch_virtual_timer\000"
 4263      69727475 
 4263      616C5F74 
 4263      696D6572 
 4263      00
 4264              	.LASF100:
 4265 052e 63685F73 		.ascii	"ch_semaphore\000"
 4265      656D6170 
 4265      686F7265 
ARM GAS  /tmp/ccqKJp3m.s 			page 80


 4265      00
 4266              	.LASF137:
 4267 053b 63685363 		.ascii	"chSchGoSleepS\000"
 4267      68476F53 
 4267      6C656570 
 4267      5300
 4268              	.LASF142:
 4269 0549 2F686F6D 		.ascii	"/home/user/csse4011/project/4011-surfbee/ardupilot/"
 4269      652F7573 
 4269      65722F63 
 4269      73736534 
 4269      3031312F 
 4270 057c 6275696C 		.ascii	"build/stm32l475\000"
 4270      642F7374 
 4270      6D33326C 
 4270      34373500 
 4271              	.LASF98:
 4272 058c 77746D74 		.ascii	"wtmtxp\000"
 4272      787000
 4273              	.LASF134:
 4274 0593 63685363 		.ascii	"chSchReadyI\000"
 4274      68526561 
 4274      64794900 
 4275              	.LASF48:
 4276 059f 63685F74 		.ascii	"ch_threads_list\000"
 4276      68726561 
 4276      64735F6C 
 4276      69737400 
 4277              	.LASF102:
 4278 05af 6F776E65 		.ascii	"owner\000"
 4278      7200
 4279              	.LASF116:
 4280 05b5 63684D74 		.ascii	"chMtxGetNextMutexX\000"
 4280      78476574 
 4280      4E657874 
 4280      4D757465 
 4280      785800
 4281              	.LASF11:
 4282 05c8 6C6F6E67 		.ascii	"long unsigned int\000"
 4282      20756E73 
 4282      69676E65 
 4282      6420696E 
 4282      7400
 4283              	.LASF34:
 4284 05da 77616261 		.ascii	"wabase\000"
 4284      736500
 4285              	.LASF103:
 4286 05e1 63686172 		.ascii	"char\000"
 4286      00
 4287              	.LASF32:
 4288 05e6 6F6C6465 		.ascii	"older\000"
 4288      7200
 4289              	.LASF125:
 4290 05ec 6368436F 		.ascii	"chCondWaitS\000"
 4290      6E645761 
 4290      69745300 
 4291              	.LASF120:
ARM GAS  /tmp/ccqKJp3m.s 			page 81


 4292 05f8 6368436F 		.ascii	"chCondObjectInit\000"
 4292      6E644F62 
 4292      6A656374 
 4292      496E6974 
 4292      00
 4293              	.LASF82:
 4294 0609 62657374 		.ascii	"best\000"
 4294      00
 4295              	.LASF2:
 4296 060e 6C6F6E67 		.ascii	"long double\000"
 4296      20646F75 
 4296      626C6500 
 4297              	.LASF114:
 4298 061a 71756575 		.ascii	"queue_fifo_remove\000"
 4298      655F6669 
 4298      666F5F72 
 4298      656D6F76 
 4298      6500
 4299              	.LASF73:
 4300 062c 73797374 		.ascii	"systime_t\000"
 4300      696D655F 
 4300      7400
 4301              	.LASF56:
 4302 0636 76746675 		.ascii	"vtfunc_t\000"
 4302      6E635F74 
 4302      00
 4303              	.LASF110:
 4304 063f 5F5F7365 		.ascii	"__set_BASEPRI\000"
 4304      745F4241 
 4304      53455052 
 4304      4900
 4305              	.LASF66:
 4306 064d 70616E69 		.ascii	"panic_msg\000"
 4306      635F6D73 
 4306      6700
 4307              	.LASF80:
 4308 0657 6F666673 		.ascii	"offset\000"
 4308      657400
 4309              	.LASF18:
 4310 065e 7274636E 		.ascii	"rtcnt_t\000"
 4310      745F7400 
 4311              	.LASF126:
 4312 0666 6368436F 		.ascii	"chCondWait\000"
 4312      6E645761 
 4312      697400
 4313              	.LASF133:
 4314 0671 63685363 		.ascii	"chSchWakeupS\000"
 4314      6857616B 
 4314      65757053 
 4314      00
 4315              	.LASF16:
 4316 067e 75696E74 		.ascii	"uint32_t\000"
 4316      33325F74 
 4316      00
 4317              	.LASF50:
 4318 0687 74687265 		.ascii	"threads_queue_t\000"
 4318      6164735F 
ARM GAS  /tmp/ccqKJp3m.s 			page 82


 4318      71756575 
 4318      655F7400 
 4319              	.LASF101:
 4320 0697 63685F6D 		.ascii	"ch_mutex\000"
 4320      75746578 
 4320      00
 4321              	.LASF141:
 4322 06a0 2E2E2F2E 		.ascii	"../../modules/ChibiOS/os/rt/src/chcond.c\000"
 4322      2E2F6D6F 
 4322      64756C65 
 4322      732F4368 
 4322      6962694F 
 4323              	.LASF28:
 4324 06c9 74687265 		.ascii	"thread_t\000"
 4324      61645F74 
 4324      00
 4325              	.LASF69:
 4326 06d2 726C6973 		.ascii	"rlist\000"
 4326      7400
 4327              	.LASF115:
 4328 06d8 63685468 		.ascii	"chThdGetSelfX\000"
 4328      64476574 
 4328      53656C66 
 4328      5800
 4329              	.LASF14:
 4330 06e6 75696E74 		.ascii	"uint8_t\000"
 4330      385F7400 
 4331              	.LASF36:
 4332 06ee 666C6167 		.ascii	"flags\000"
 4332      7300
 4333              	.LASF131:
 4334 06f4 5F737461 		.ascii	"_stats_start_measure_crit_thd\000"
 4334      74735F73 
 4334      74617274 
 4334      5F6D6561 
 4334      73757265 
 4335              	.LASF94:
 4336 0712 77746F62 		.ascii	"wtobjp\000"
 4336      6A7000
 4337              	.LASF129:
 4338 0719 6368436F 		.ascii	"chCondWaitTimeout\000"
 4338      6E645761 
 4338      69745469 
 4338      6D656F75 
 4338      7400
 4339              	.LASF46:
 4340 072b 74687265 		.ascii	"threads_list_t\000"
 4340      6164735F 
 4340      6C697374 
 4340      5F7400
 4341              	.LASF139:
 4342 073a 63685363 		.ascii	"chSchGoSleepTimeoutS\000"
 4342      68476F53 
 4342      6C656570 
 4342      54696D65 
 4342      6F757453 
 4343              	.LASF118:
ARM GAS  /tmp/ccqKJp3m.s 			page 83


 4344 074f 63685379 		.ascii	"chSysUnlock\000"
 4344      73556E6C 
 4344      6F636B00 
 4345              	.LASF138:
 4346 075b 63684D74 		.ascii	"chMtxLockS\000"
 4346      784C6F63 
 4346      6B5300
 4347              	.LASF143:
 4348 0766 71756575 		.ascii	"queue_prio_insert\000"
 4348      655F7072 
 4348      696F5F69 
 4348      6E736572 
 4348      7400
 4349              	.LASF41:
 4350 0778 6D74786C 		.ascii	"mtxlist\000"
 4350      69737400 
 4351              	.LASF89:
 4352 0780 6D5F6372 		.ascii	"m_crit_thd\000"
 4352      69745F74 
 4352      686400
 4353              		.ident	"GCC: (15:5.4.1+svn241155-1) 5.4.1 20160919"
ARM GAS  /tmp/ccqKJp3m.s 			page 84


DEFINED SYMBOLS
                            *ABS*:0000000000000000 chcond.c
     /tmp/ccqKJp3m.s:22     .text.queue_prio_insert:0000000000000000 $t
     /tmp/ccqKJp3m.s:26     .text.queue_prio_insert:0000000000000000 queue_prio_insert
     /tmp/ccqKJp3m.s:72     .text.chCondObjectInit:0000000000000000 $t
     /tmp/ccqKJp3m.s:77     .text.chCondObjectInit:0000000000000000 chCondObjectInit
     /tmp/ccqKJp3m.s:100    .text.chCondSignal:0000000000000000 $t
     /tmp/ccqKJp3m.s:105    .text.chCondSignal:0000000000000000 chCondSignal
     /tmp/ccqKJp3m.s:211    .text.chCondSignalI:0000000000000000 $t
     /tmp/ccqKJp3m.s:216    .text.chCondSignalI:0000000000000000 chCondSignalI
     /tmp/ccqKJp3m.s:261    .text.chCondBroadcastI:0000000000000000 $t
     /tmp/ccqKJp3m.s:266    .text.chCondBroadcastI:0000000000000000 chCondBroadcastI
     /tmp/ccqKJp3m.s:318    .text.chCondBroadcast:0000000000000000 $t
     /tmp/ccqKJp3m.s:323    .text.chCondBroadcast:0000000000000000 chCondBroadcast
     /tmp/ccqKJp3m.s:403    .text.chCondWaitS:0000000000000000 $t
     /tmp/ccqKJp3m.s:408    .text.chCondWaitS:0000000000000000 chCondWaitS
     /tmp/ccqKJp3m.s:467    .text.chCondWaitS:000000000000002c $d
     /tmp/ccqKJp3m.s:472    .text.chCondWait:0000000000000000 $t
     /tmp/ccqKJp3m.s:477    .text.chCondWait:0000000000000000 chCondWait
     /tmp/ccqKJp3m.s:558    .text.chCondWaitTimeoutS:0000000000000000 $t
     /tmp/ccqKJp3m.s:563    .text.chCondWaitTimeoutS:0000000000000000 chCondWaitTimeoutS
     /tmp/ccqKJp3m.s:636    .text.chCondWaitTimeoutS:0000000000000034 $d
     /tmp/ccqKJp3m.s:641    .text.chCondWaitTimeout:0000000000000000 $t
     /tmp/ccqKJp3m.s:646    .text.chCondWaitTimeout:0000000000000000 chCondWaitTimeout
                     .debug_frame:0000000000000010 $d

UNDEFINED SYMBOLS
_stats_start_measure_crit_thd
chSchWakeupS
_stats_stop_measure_crit_thd
chSchReadyI
chSchRescheduleS
chMtxUnlockS
chSchGoSleepS
chMtxLockS
ch
chSchGoSleepTimeoutS
