ARM GAS  /tmp/ccqKJp3m.s 			page 1


   1              		.syntax unified
   2              		.cpu cortex-m4
   3              		.eabi_attribute 27, 1
   4              		.eabi_attribute 28, 1
   5              		.fpu fpv4-sp-d16
   6              		.eabi_attribute 20, 1
   7              		.eabi_attribute 21, 1
   8              		.eabi_attribute 23, 3
   9              		.eabi_attribute 24, 1
  10              		.eabi_attribute 25, 1
  11              		.eabi_attribute 26, 1
  12              		.eabi_attribute 30, 4
  13              		.eabi_attribute 34, 1
  14              		.eabi_attribute 18, 4
  15              		.thumb
  16              		.syntax unified
  17              		.file	"chcond.c"
  18              		.text
  19              	.Ltext0:
  20              		.cfi_sections	.debug_frame
  21              		.section	.text.queue_prio_insert,"ax",%progbits
  22              		.align	1
  23              		.thumb
  24              		.thumb_func
  25              		.type	queue_prio_insert, %function
  26              	queue_prio_insert:
  27              	.LFB172:
  28              		.file 1 "../../modules/ChibiOS/os/rt/include/chschd.h"
  29              		.loc 1 586 0
  30              		.cfi_startproc
  31              		@ args = 0, pretend = 0, frame = 0
  32              		@ frame_needed = 0, uses_anonymous_args = 0
  33              	.LVL0:
  34 0000 10B5     		push	{r4, lr}
  35              		.cfi_def_cfa_offset 8
  36              		.cfi_offset 4, -8
  37              		.cfi_offset 14, -4
  38              		.loc 1 588 0
  39 0002 0B46     		mov	r3, r1
  40              	.LVL1:
  41              	.L3:
  42              		.loc 1 590 0 discriminator 2
  43 0004 1B68     		ldr	r3, [r3]
  44              	.LVL2:
  45              		.loc 1 591 0 discriminator 2
  46 0006 9942     		cmp	r1, r3
  47 0008 05D1     		bne	.L2
  48              	.L4:
  49              		.loc 1 593 0
  50 000a 5A68     		ldr	r2, [r3, #4]
  51              		.loc 1 592 0
  52 000c 0360     		str	r3, [r0]
  53              		.loc 1 593 0
  54 000e 4260     		str	r2, [r0, #4]
  55              		.loc 1 594 0
  56 0010 1060     		str	r0, [r2]
  57              		.loc 1 595 0
ARM GAS  /tmp/ccqKJp3m.s 			page 2


  58 0012 5860     		str	r0, [r3, #4]
  59              		.loc 1 596 0
  60 0014 10BD     		pop	{r4, pc}
  61              	.L2:
  62              		.loc 1 591 0 discriminator 1
  63 0016 9C68     		ldr	r4, [r3, #8]
  64 0018 8268     		ldr	r2, [r0, #8]
  65 001a 9442     		cmp	r4, r2
  66 001c F2D2     		bcs	.L3
  67 001e F4E7     		b	.L4
  68              		.cfi_endproc
  69              	.LFE172:
  70              		.size	queue_prio_insert, .-queue_prio_insert
  71              		.section	.text.chCondObjectInit,"ax",%progbits
  72              		.align	1
  73              		.global	chCondObjectInit
  74              		.thumb
  75              		.thumb_func
  76              		.type	chCondObjectInit, %function
  77              	chCondObjectInit:
  78              	.LFB290:
  79              		.file 2 "../../modules/ChibiOS/os/rt/src/chcond.c"
  80              		.loc 2 75 0
  81              		.cfi_startproc
  82              		@ args = 0, pretend = 0, frame = 0
  83              		@ frame_needed = 0, uses_anonymous_args = 0
  84              		@ link register save eliminated.
  85              	.LVL3:
  86              	.LBB39:
  87              	.LBB40:
  88              		.loc 1 539 0
  89 0000 0060     		str	r0, [r0]
  90              		.loc 1 540 0
  91 0002 4060     		str	r0, [r0, #4]
  92              	.LVL4:
  93 0004 7047     		bx	lr
  94              	.LBE40:
  95              	.LBE39:
  96              		.cfi_endproc
  97              	.LFE290:
  98              		.size	chCondObjectInit, .-chCondObjectInit
  99              		.section	.text.chCondSignal,"ax",%progbits
 100              		.align	1
 101              		.global	chCondSignal
 102              		.thumb
 103              		.thumb_func
 104              		.type	chCondSignal, %function
 105              	chCondSignal:
 106              	.LFB291:
 107              		.loc 2 89 0
 108              		.cfi_startproc
 109              		@ args = 0, pretend = 0, frame = 0
 110              		@ frame_needed = 0, uses_anonymous_args = 0
 111              	.LVL5:
 112 0000 10B5     		push	{r4, lr}
 113              		.cfi_def_cfa_offset 8
 114              		.cfi_offset 4, -8
ARM GAS  /tmp/ccqKJp3m.s 			page 3


 115              		.cfi_offset 14, -4
 116              	.LBB55:
 117              	.LBB56:
 118              	.LBB57:
 119              	.LBB58:
 120              	.LBB59:
 121              		.file 3 "../../modules/ChibiOS/os/common/ext/ARM/CMSIS/Core/Include/cmsis_gcc.h"
 122              		.loc 3 493 0
 123 0002 2023     		movs	r3, #32
 124              	.LBE59:
 125              	.LBE58:
 126              	.LBE57:
 127              	.LBE56:
 128              	.LBE55:
 129              		.loc 2 89 0
 130 0004 0446     		mov	r4, r0
 131              	.LBB64:
 132              	.LBB63:
 133              	.LBB62:
 134              	.LBB61:
 135              	.LBB60:
 136              		.loc 3 493 0
 137              		.syntax unified
 138              	@ 493 "../../modules/ChibiOS/os/common/ext/ARM/CMSIS/Core/Include/cmsis_gcc.h" 1
 139 0006 83F31188 		MSR basepri, r3
 140              	@ 0 "" 2
 141              	.LVL6:
 142              		.thumb
 143              		.syntax unified
 144              	.LBE60:
 145              	.LBE61:
 146              	.LBE62:
 147              		.file 4 "../../modules/ChibiOS/os/rt/include/chsys.h"
 148              		.loc 4 356 0
 149 000a FFF7FEFF 		bl	_stats_start_measure_crit_thd
 150              	.LVL7:
 151              	.LBE63:
 152              	.LBE64:
 153              	.LBB65:
 154              	.LBB66:
 155              		.loc 1 566 0
 156 000e 2068     		ldr	r0, [r4]
 157              	.LVL8:
 158              	.LBE66:
 159              	.LBE65:
 160              		.loc 2 94 0
 161 0010 8442     		cmp	r4, r0
 162 0012 05D0     		beq	.L10
 163              	.LVL9:
 164              	.LBB67:
 165              	.LBB68:
 166              		.loc 1 609 0
 167 0014 0368     		ldr	r3, [r0]
 168 0016 2360     		str	r3, [r4]
 169              	.LBE68:
 170              	.LBE67:
 171              		.loc 2 95 0
ARM GAS  /tmp/ccqKJp3m.s 			page 4


 172 0018 0021     		movs	r1, #0
 173              	.LBB70:
 174              	.LBB69:
 175              		.loc 1 610 0
 176 001a 5C60     		str	r4, [r3, #4]
 177              	.LVL10:
 178              	.LBE69:
 179              	.LBE70:
 180              		.loc 2 95 0
 181 001c FFF7FEFF 		bl	chSchWakeupS
 182              	.LVL11:
 183              	.L10:
 184              	.LBB71:
 185              	.LBB72:
 186              		.loc 4 368 0
 187 0020 FFF7FEFF 		bl	_stats_stop_measure_crit_thd
 188              	.LVL12:
 189              	.LBB73:
 190              	.LBB74:
 191              	.LBB75:
 192              		.loc 3 493 0
 193 0024 0023     		movs	r3, #0
 194              		.syntax unified
 195              	@ 493 "../../modules/ChibiOS/os/common/ext/ARM/CMSIS/Core/Include/cmsis_gcc.h" 1
 196 0026 83F31188 		MSR basepri, r3
 197              	@ 0 "" 2
 198              	.LVL13:
 199              		.thumb
 200              		.syntax unified
 201 002a 10BD     		pop	{r4, pc}
 202              	.LBE75:
 203              	.LBE74:
 204              	.LBE73:
 205              	.LBE72:
 206              	.LBE71:
 207              		.cfi_endproc
 208              	.LFE291:
 209              		.size	chCondSignal, .-chCondSignal
 210              		.section	.text.chCondSignalI,"ax",%progbits
 211              		.align	1
 212              		.global	chCondSignalI
 213              		.thumb
 214              		.thumb_func
 215              		.type	chCondSignalI, %function
 216              	chCondSignalI:
 217              	.LFB292:
 218              		.loc 2 111 0
 219              		.cfi_startproc
 220              		@ args = 0, pretend = 0, frame = 0
 221              		@ frame_needed = 0, uses_anonymous_args = 0
 222              		@ link register save eliminated.
 223              	.LVL14:
 224              	.LBB76:
 225              	.LBB77:
 226              		.loc 1 566 0
 227 0000 0368     		ldr	r3, [r0]
 228              	.LVL15:
ARM GAS  /tmp/ccqKJp3m.s 			page 5


 229              	.LBE77:
 230              	.LBE76:
 231              		.loc 2 116 0
 232 0002 9842     		cmp	r0, r3
 233 0004 07D0     		beq	.L11
 234              	.LVL16:
 235              	.LBB78:
 236              	.LBB79:
 237              	.LBB80:
 238              		.loc 1 609 0
 239 0006 1A68     		ldr	r2, [r3]
 240 0008 0260     		str	r2, [r0]
 241              		.loc 1 610 0
 242 000a 5060     		str	r0, [r2, #4]
 243              	.LVL17:
 244              	.LBE80:
 245              	.LBE79:
 246              		.loc 2 118 0
 247 000c 0022     		movs	r2, #0
 248 000e 5A62     		str	r2, [r3, #36]
 249              		.loc 2 119 0
 250 0010 1846     		mov	r0, r3
 251              	.LVL18:
 252 0012 FFF7FEBF 		b	chSchReadyI
 253              	.LVL19:
 254              	.L11:
 255 0016 7047     		bx	lr
 256              	.LBE78:
 257              		.cfi_endproc
 258              	.LFE292:
 259              		.size	chCondSignalI, .-chCondSignalI
 260              		.section	.text.chCondBroadcastI,"ax",%progbits
 261              		.align	1
 262              		.global	chCondBroadcastI
 263              		.thumb
 264              		.thumb_func
 265              		.type	chCondBroadcastI, %function
 266              	chCondBroadcastI:
 267              	.LFB294:
 268              		.loc 2 149 0
 269              		.cfi_startproc
 270              		@ args = 0, pretend = 0, frame = 0
 271              		@ frame_needed = 0, uses_anonymous_args = 0
 272              	.LVL20:
 273 0000 38B5     		push	{r3, r4, r5, lr}
 274              		.cfi_def_cfa_offset 16
 275              		.cfi_offset 3, -16
 276              		.cfi_offset 4, -12
 277              		.cfi_offset 5, -8
 278              		.cfi_offset 14, -4
 279              		.loc 2 149 0
 280 0002 0446     		mov	r4, r0
 281              		.loc 2 158 0
 282 0004 6FF00105 		mvn	r5, #1
 283              	.LVL21:
 284              	.L14:
 285              	.LBB81:
ARM GAS  /tmp/ccqKJp3m.s 			page 6


 286              	.LBB82:
 287              		.loc 1 566 0
 288 0008 2068     		ldr	r0, [r4]
 289              	.LVL22:
 290              	.LBE82:
 291              	.LBE81:
 292              		.loc 2 157 0
 293 000a 8442     		cmp	r4, r0
 294 000c 06D0     		beq	.L16
 295              	.LVL23:
 296              	.LBB83:
 297              	.LBB84:
 298              		.loc 1 609 0
 299 000e 0368     		ldr	r3, [r0]
 300 0010 2360     		str	r3, [r4]
 301              		.loc 1 610 0
 302 0012 5C60     		str	r4, [r3, #4]
 303              	.LVL24:
 304              	.LBE84:
 305              	.LBE83:
 306              		.loc 2 158 0
 307 0014 FFF7FEFF 		bl	chSchReadyI
 308              	.LVL25:
 309 0018 4562     		str	r5, [r0, #36]
 310 001a F5E7     		b	.L14
 311              	.L16:
 312              		.loc 2 160 0
 313 001c 38BD     		pop	{r3, r4, r5, pc}
 314              		.cfi_endproc
 315              	.LFE294:
 316              		.size	chCondBroadcastI, .-chCondBroadcastI
 317              		.section	.text.chCondBroadcast,"ax",%progbits
 318              		.align	1
 319              		.global	chCondBroadcast
 320              		.thumb
 321              		.thumb_func
 322              		.type	chCondBroadcast, %function
 323              	chCondBroadcast:
 324              	.LFB293:
 325              		.loc 2 130 0
 326              		.cfi_startproc
 327              		@ args = 0, pretend = 0, frame = 0
 328              		@ frame_needed = 0, uses_anonymous_args = 0
 329              	.LVL26:
 330 0000 10B5     		push	{r4, lr}
 331              		.cfi_def_cfa_offset 8
 332              		.cfi_offset 4, -8
 333              		.cfi_offset 14, -4
 334              	.LBB95:
 335              	.LBB96:
 336              	.LBB97:
 337              	.LBB98:
 338              	.LBB99:
 339              		.loc 3 493 0
 340 0002 2023     		movs	r3, #32
 341              	.LBE99:
 342              	.LBE98:
ARM GAS  /tmp/ccqKJp3m.s 			page 7


 343              	.LBE97:
 344              	.LBE96:
 345              	.LBE95:
 346              		.loc 2 130 0
 347 0004 0446     		mov	r4, r0
 348              	.LBB104:
 349              	.LBB103:
 350              	.LBB102:
 351              	.LBB101:
 352              	.LBB100:
 353              		.loc 3 493 0
 354              		.syntax unified
 355              	@ 493 "../../modules/ChibiOS/os/common/ext/ARM/CMSIS/Core/Include/cmsis_gcc.h" 1
 356 0006 83F31188 		MSR basepri, r3
 357              	@ 0 "" 2
 358              	.LVL27:
 359              		.thumb
 360              		.syntax unified
 361              	.LBE100:
 362              	.LBE101:
 363              	.LBE102:
 364              		.loc 4 356 0
 365 000a FFF7FEFF 		bl	_stats_start_measure_crit_thd
 366              	.LVL28:
 367              	.LBE103:
 368              	.LBE104:
 369              		.loc 2 133 0
 370 000e 2046     		mov	r0, r4
 371 0010 FFF7FEFF 		bl	chCondBroadcastI
 372              	.LVL29:
 373              		.loc 2 134 0
 374 0014 FFF7FEFF 		bl	chSchRescheduleS
 375              	.LVL30:
 376              	.LBB105:
 377              	.LBB106:
 378              		.loc 4 368 0
 379 0018 FFF7FEFF 		bl	_stats_stop_measure_crit_thd
 380              	.LVL31:
 381              	.LBB107:
 382              	.LBB108:
 383              	.LBB109:
 384              		.loc 3 493 0
 385 001c 0023     		movs	r3, #0
 386              		.syntax unified
 387              	@ 493 "../../modules/ChibiOS/os/common/ext/ARM/CMSIS/Core/Include/cmsis_gcc.h" 1
 388 001e 83F31188 		MSR basepri, r3
 389              	@ 0 "" 2
 390              	.LVL32:
 391              		.thumb
 392              		.syntax unified
 393 0022 10BD     		pop	{r4, pc}
 394              	.LBE109:
 395              	.LBE108:
 396              	.LBE107:
 397              	.LBE106:
 398              	.LBE105:
 399              		.cfi_endproc
ARM GAS  /tmp/ccqKJp3m.s 			page 8


 400              	.LFE293:
 401              		.size	chCondBroadcast, .-chCondBroadcast
 402              		.section	.text.chCondWaitS,"ax",%progbits
 403              		.align	1
 404              		.global	chCondWaitS
 405              		.thumb
 406              		.thumb_func
 407              		.type	chCondWaitS, %function
 408              	chCondWaitS:
 409              	.LFB296:
 410              		.loc 2 205 0
 411              		.cfi_startproc
 412              		@ args = 0, pretend = 0, frame = 0
 413              		@ frame_needed = 0, uses_anonymous_args = 0
 414              	.LVL33:
 415              		.loc 2 206 0
 416 0000 0A4B     		ldr	r3, .L19
 417              		.loc 2 205 0
 418 0002 70B5     		push	{r4, r5, r6, lr}
 419              		.cfi_def_cfa_offset 16
 420              		.cfi_offset 4, -16
 421              		.cfi_offset 5, -12
 422              		.cfi_offset 6, -8
 423              		.cfi_offset 14, -4
 424              		.loc 2 206 0
 425 0004 9C69     		ldr	r4, [r3, #24]
 426              	.LVL34:
 427              	.LBB110:
 428              	.LBB111:
 429              		.file 5 "../../modules/ChibiOS/os/rt/include/chmtx.h"
 430              		.loc 5 161 0
 431 0006 A56B     		ldr	r5, [r4, #56]
 432              	.LBE111:
 433              	.LBE110:
 434              		.loc 2 205 0
 435 0008 0646     		mov	r6, r0
 436              		.loc 2 215 0
 437 000a 2846     		mov	r0, r5
 438              	.LVL35:
 439 000c FFF7FEFF 		bl	chMtxUnlockS
 440              	.LVL36:
 441              		.loc 2 220 0
 442 0010 3146     		mov	r1, r6
 443              		.loc 2 219 0
 444 0012 6662     		str	r6, [r4, #36]
 445              		.loc 2 220 0
 446 0014 2046     		mov	r0, r4
 447 0016 FFF7FEFF 		bl	queue_prio_insert
 448              	.LVL37:
 449              		.loc 2 221 0
 450 001a 0720     		movs	r0, #7
 451 001c FFF7FEFF 		bl	chSchGoSleepS
 452              	.LVL38:
 453              		.loc 2 222 0
 454 0020 646A     		ldr	r4, [r4, #36]
 455              	.LVL39:
 456              		.loc 2 223 0
ARM GAS  /tmp/ccqKJp3m.s 			page 9


 457 0022 2846     		mov	r0, r5
 458 0024 FFF7FEFF 		bl	chMtxLockS
 459              	.LVL40:
 460              		.loc 2 226 0
 461 0028 2046     		mov	r0, r4
 462 002a 70BD     		pop	{r4, r5, r6, pc}
 463              	.LVL41:
 464              	.L20:
 465              		.align	2
 466              	.L19:
 467 002c 00000000 		.word	ch
 468              		.cfi_endproc
 469              	.LFE296:
 470              		.size	chCondWaitS, .-chCondWaitS
 471              		.section	.text.chCondWait,"ax",%progbits
 472              		.align	1
 473              		.global	chCondWait
 474              		.thumb
 475              		.thumb_func
 476              		.type	chCondWait, %function
 477              	chCondWait:
 478              	.LFB295:
 479              		.loc 2 179 0
 480              		.cfi_startproc
 481              		@ args = 0, pretend = 0, frame = 0
 482              		@ frame_needed = 0, uses_anonymous_args = 0
 483              	.LVL42:
 484 0000 10B5     		push	{r4, lr}
 485              		.cfi_def_cfa_offset 8
 486              		.cfi_offset 4, -8
 487              		.cfi_offset 14, -4
 488              	.LBB122:
 489              	.LBB123:
 490              	.LBB124:
 491              	.LBB125:
 492              	.LBB126:
 493              		.loc 3 493 0
 494 0002 2023     		movs	r3, #32
 495              	.LBE126:
 496              	.LBE125:
 497              	.LBE124:
 498              	.LBE123:
 499              	.LBE122:
 500              		.loc 2 179 0
 501 0004 0446     		mov	r4, r0
 502              	.LBB131:
 503              	.LBB130:
 504              	.LBB129:
 505              	.LBB128:
 506              	.LBB127:
 507              		.loc 3 493 0
 508              		.syntax unified
 509              	@ 493 "../../modules/ChibiOS/os/common/ext/ARM/CMSIS/Core/Include/cmsis_gcc.h" 1
 510 0006 83F31188 		MSR basepri, r3
 511              	@ 0 "" 2
 512              	.LVL43:
 513              		.thumb
ARM GAS  /tmp/ccqKJp3m.s 			page 10


 514              		.syntax unified
 515              	.LBE127:
 516              	.LBE128:
 517              	.LBE129:
 518              		.loc 4 356 0
 519 000a FFF7FEFF 		bl	_stats_start_measure_crit_thd
 520              	.LVL44:
 521              	.LBE130:
 522              	.LBE131:
 523              		.loc 2 183 0
 524 000e 2046     		mov	r0, r4
 525 0010 FFF7FEFF 		bl	chCondWaitS
 526              	.LVL45:
 527 0014 0446     		mov	r4, r0
 528              	.LVL46:
 529              	.LBB132:
 530              	.LBB133:
 531              		.loc 4 368 0
 532 0016 FFF7FEFF 		bl	_stats_stop_measure_crit_thd
 533              	.LVL47:
 534              	.LBB134:
 535              	.LBB135:
 536              	.LBB136:
 537              		.loc 3 493 0
 538 001a 0023     		movs	r3, #0
 539              		.syntax unified
 540              	@ 493 "../../modules/ChibiOS/os/common/ext/ARM/CMSIS/Core/Include/cmsis_gcc.h" 1
 541 001c 83F31188 		MSR basepri, r3
 542              	@ 0 "" 2
 543              	.LVL48:
 544              		.thumb
 545              		.syntax unified
 546              	.LBE136:
 547              	.LBE135:
 548              	.LBE134:
 549              	.LBE133:
 550              	.LBE132:
 551              		.loc 2 186 0
 552 0020 2046     		mov	r0, r4
 553 0022 10BD     		pop	{r4, pc}
 554              		.cfi_endproc
 555              	.LFE295:
 556              		.size	chCondWait, .-chCondWait
 557              		.section	.text.chCondWaitTimeoutS,"ax",%progbits
 558              		.align	1
 559              		.global	chCondWaitTimeoutS
 560              		.thumb
 561              		.thumb_func
 562              		.type	chCondWaitTimeoutS, %function
 563              	chCondWaitTimeoutS:
 564              	.LFB298:
 565              		.loc 2 295 0
 566              		.cfi_startproc
 567              		@ args = 0, pretend = 0, frame = 0
 568              		@ frame_needed = 0, uses_anonymous_args = 0
 569              	.LVL49:
 570 0000 F8B5     		push	{r3, r4, r5, r6, r7, lr}
ARM GAS  /tmp/ccqKJp3m.s 			page 11


 571              		.cfi_def_cfa_offset 24
 572              		.cfi_offset 3, -24
 573              		.cfi_offset 4, -20
 574              		.cfi_offset 5, -16
 575              		.cfi_offset 6, -12
 576              		.cfi_offset 7, -8
 577              		.cfi_offset 14, -4
 578              	.LBB137:
 579              	.LBB138:
 580              	.LBB139:
 581              	.LBB140:
 582              		.file 6 "../../modules/ChibiOS/os/rt/include/chthreads.h"
 583              		.loc 6 274 0
 584 0002 0C4E     		ldr	r6, .L27
 585              	.LBE140:
 586              	.LBE139:
 587              		.loc 5 161 0
 588 0004 B369     		ldr	r3, [r6, #24]
 589 0006 9D6B     		ldr	r5, [r3, #56]
 590              	.LBE138:
 591              	.LBE137:
 592              		.loc 2 295 0
 593 0008 0446     		mov	r4, r0
 594              		.loc 2 304 0
 595 000a 2846     		mov	r0, r5
 596              	.LVL50:
 597              		.loc 2 295 0
 598 000c 0F46     		mov	r7, r1
 599              		.loc 2 304 0
 600 000e FFF7FEFF 		bl	chMtxUnlockS
 601              	.LVL51:
 602              		.loc 2 308 0
 603 0012 B069     		ldr	r0, [r6, #24]
 604              		.loc 2 309 0
 605 0014 2146     		mov	r1, r4
 606              		.loc 2 308 0
 607 0016 4462     		str	r4, [r0, #36]
 608              		.loc 2 309 0
 609 0018 FFF7FEFF 		bl	queue_prio_insert
 610              	.LVL52:
 611              		.loc 2 310 0
 612 001c 3946     		mov	r1, r7
 613 001e 0720     		movs	r0, #7
 614 0020 FFF7FEFF 		bl	chSchGoSleepTimeoutS
 615              	.LVL53:
 616              		.loc 2 311 0
 617 0024 431C     		adds	r3, r0, #1
 618              		.loc 2 310 0
 619 0026 0446     		mov	r4, r0
 620              	.LVL54:
 621              		.loc 2 311 0
 622 0028 02D0     		beq	.L23
 623              		.loc 2 312 0
 624 002a 2846     		mov	r0, r5
 625              	.LVL55:
 626 002c FFF7FEFF 		bl	chMtxLockS
 627              	.LVL56:
ARM GAS  /tmp/ccqKJp3m.s 			page 12


 628              	.L23:
 629              		.loc 2 316 0
 630 0030 2046     		mov	r0, r4
 631 0032 F8BD     		pop	{r3, r4, r5, r6, r7, pc}
 632              	.LVL57:
 633              	.L28:
 634              		.align	2
 635              	.L27:
 636 0034 00000000 		.word	ch
 637              		.cfi_endproc
 638              	.LFE298:
 639              		.size	chCondWaitTimeoutS, .-chCondWaitTimeoutS
 640              		.section	.text.chCondWaitTimeout,"ax",%progbits
 641              		.align	1
 642              		.global	chCondWaitTimeout
 643              		.thumb
 644              		.thumb_func
 645              		.type	chCondWaitTimeout, %function
 646              	chCondWaitTimeout:
 647              	.LFB297:
 648              		.loc 2 257 0
 649              		.cfi_startproc
 650              		@ args = 0, pretend = 0, frame = 0
 651              		@ frame_needed = 0, uses_anonymous_args = 0
 652              	.LVL58:
 653 0000 38B5     		push	{r3, r4, r5, lr}
 654              		.cfi_def_cfa_offset 16
 655              		.cfi_offset 3, -16
 656              		.cfi_offset 4, -12
 657              		.cfi_offset 5, -8
 658              		.cfi_offset 14, -4
 659              		.loc 2 257 0
 660 0002 0446     		mov	r4, r0
 661 0004 0D46     		mov	r5, r1
 662              	.LBB151:
 663              	.LBB152:
 664              	.LBB153:
 665              	.LBB154:
 666              	.LBB155:
 667              		.loc 3 493 0
 668 0006 2023     		movs	r3, #32
 669              		.syntax unified
 670              	@ 493 "../../modules/ChibiOS/os/common/ext/ARM/CMSIS/Core/Include/cmsis_gcc.h" 1
 671 0008 83F31188 		MSR basepri, r3
 672              	@ 0 "" 2
 673              	.LVL59:
 674              		.thumb
 675              		.syntax unified
 676              	.LBE155:
 677              	.LBE154:
 678              	.LBE153:
 679              		.loc 4 356 0
 680 000c FFF7FEFF 		bl	_stats_start_measure_crit_thd
 681              	.LVL60:
 682              	.LBE152:
 683              	.LBE151:
 684              		.loc 2 261 0
ARM GAS  /tmp/ccqKJp3m.s 			page 13


 685 0010 2946     		mov	r1, r5
 686 0012 2046     		mov	r0, r4
 687 0014 FFF7FEFF 		bl	chCondWaitTimeoutS
 688              	.LVL61:
 689 0018 0446     		mov	r4, r0
 690              	.LVL62:
 691              	.LBB156:
 692              	.LBB157:
 693              		.loc 4 368 0
 694 001a FFF7FEFF 		bl	_stats_stop_measure_crit_thd
 695              	.LVL63:
 696              	.LBB158:
 697              	.LBB159:
 698              	.LBB160:
 699              		.loc 3 493 0
 700 001e 0023     		movs	r3, #0
 701              		.syntax unified
 702              	@ 493 "../../modules/ChibiOS/os/common/ext/ARM/CMSIS/Core/Include/cmsis_gcc.h" 1
 703 0020 83F31188 		MSR basepri, r3
 704              	@ 0 "" 2
 705              	.LVL64:
 706              		.thumb
 707              		.syntax unified
 708              	.LBE160:
 709              	.LBE159:
 710              	.LBE158:
 711              	.LBE157:
 712              	.LBE156:
 713              		.loc 2 265 0
 714 0024 2046     		mov	r0, r4
 715 0026 38BD     		pop	{r3, r4, r5, pc}
 716              		.cfi_endproc
 717              	.LFE297:
 718              		.size	chCondWaitTimeout, .-chCondWaitTimeout
 719              		.text
 720              	.Letext0:
 721              		.file 7 "/usr/include/newlib/machine/_default_types.h"
 722              		.file 8 "/usr/include/newlib/sys/_stdint.h"
 723              		.file 9 "../../modules/ChibiOS/os/common/ports/ARMCMx/compilers/GCC/chtypes.h"
 724              		.file 10 "../../modules/ChibiOS/os/rt/include/chsystypes.h"
 725              		.file 11 "../../modules/ChibiOS/os/rt/include/chtime.h"
 726              		.file 12 "../../modules/ChibiOS/os/common/ports/ARMCMx/chcore.h"
 727              		.file 13 "../../modules/ChibiOS/os/common/ports/ARMCMx/chcore_v7m.h"
 728              		.file 14 "../../modules/ChibiOS/os/rt/include/chtm.h"
 729              		.file 15 "../../modules/ChibiOS/os/rt/include/chstats.h"
 730              		.file 16 "../../modules/ChibiOS/os/rt/include/chsem.h"
 731              		.file 17 "../../modules/ChibiOS/os/rt/include/chcond.h"
 732              		.file 18 "../../modules/ChibiOS/os/common/ext/ARM/CMSIS/Core/Include/core_cm4.h"