ARM GAS  /tmp/ccDU5ieD.s 			page 1


   1              		.syntax unified
   2              		.cpu cortex-m4
   3              		.eabi_attribute 27, 1
   4              		.eabi_attribute 28, 1
   5              		.fpu fpv4-sp-d16
   6              		.eabi_attribute 20, 1
   7              		.eabi_attribute 21, 1
   8              		.eabi_attribute 23, 3
   9              		.eabi_attribute 24, 1
  10              		.eabi_attribute 25, 1
  11              		.eabi_attribute 26, 1
  12              		.eabi_attribute 30, 4
  13              		.eabi_attribute 34, 1
  14              		.eabi_attribute 18, 4
  15              		.thumb
  16              		.syntax unified
  17              		.file	"chdynamic.c"
  18              		.text
  19              	.Ltext0:
  20              		.cfi_sections	.debug_frame
  21              		.section	.text.chThdCreateFromHeap,"ax",%progbits
  22              		.align	1
  23              		.global	chThdCreateFromHeap
  24              		.thumb
  25              		.thumb_func
  26              		.type	chThdCreateFromHeap, %function
  27              	chThdCreateFromHeap:
  28              	.LFB290:
  29              		.file 1 "../../modules/ChibiOS/os/rt/src/chdynamic.c"
  30              		.loc 1 84 0
  31              		.cfi_startproc
  32              		@ args = 8, pretend = 0, frame = 24
  33              		@ frame_needed = 0, uses_anonymous_args = 0
  34              	.LVL0:
  35 0000 70B5     		push	{r4, r5, r6, lr}
  36              		.cfi_def_cfa_offset 16
  37              		.cfi_offset 4, -16
  38              		.cfi_offset 5, -12
  39              		.cfi_offset 6, -8
  40              		.cfi_offset 14, -4
  41 0002 1646     		mov	r6, r2
  42 0004 86B0     		sub	sp, sp, #24
  43              		.cfi_def_cfa_offset 40
  44              		.loc 1 88 0
  45 0006 0822     		movs	r2, #8
  46              	.LVL1:
  47              		.loc 1 84 0
  48 0008 0C46     		mov	r4, r1
  49 000a 1D46     		mov	r5, r3
  50              		.loc 1 88 0
  51 000c FFF7FEFF 		bl	chHeapAllocAligned
  52              	.LVL2:
  53              		.loc 1 89 0
  54 0010 0146     		mov	r1, r0
  55 0012 08B3     		cbz	r0, .L3
  56              		.loc 1 93 0
  57 0014 0A9B     		ldr	r3, [sp, #40]
ARM GAS  /tmp/ccDU5ieD.s 			page 2


  58 0016 0493     		str	r3, [sp, #16]
  59              		.loc 1 96 0
  60 0018 2144     		add	r1, r1, r4
  61              		.loc 1 93 0
  62 001a 0B9B     		ldr	r3, [sp, #44]
  63 001c 0593     		str	r3, [sp, #20]
  64              		.loc 1 103 0
  65 001e 5522     		movs	r2, #85
  66              		.loc 1 93 0
  67 0020 0096     		str	r6, [sp]
  68 0022 0190     		str	r0, [sp, #4]
  69 0024 0291     		str	r1, [sp, #8]
  70 0026 0395     		str	r5, [sp, #12]
  71              		.loc 1 103 0
  72 0028 FFF7FEFF 		bl	_thread_memfill
  73              	.LVL3:
  74              	.LBB24:
  75              	.LBB25:
  76              	.LBB26:
  77              	.LBB27:
  78              	.LBB28:
  79              		.file 2 "../../modules/ChibiOS/os/common/ext/ARM/CMSIS/Core/Include/cmsis_gcc.h"
  80              		.loc 2 493 0
  81 002c 2023     		movs	r3, #32
  82              		.syntax unified
  83              	@ 493 "../../modules/ChibiOS/os/common/ext/ARM/CMSIS/Core/Include/cmsis_gcc.h" 1
  84 002e 83F31188 		MSR basepri, r3
  85              	@ 0 "" 2
  86              	.LVL4:
  87              		.thumb
  88              		.syntax unified
  89              	.LBE28:
  90              	.LBE27:
  91              	.LBE26:
  92              		.file 3 "../../modules/ChibiOS/os/rt/include/chsys.h"
  93              		.loc 3 356 0
  94 0032 FFF7FEFF 		bl	_stats_start_measure_crit_thd
  95              	.LVL5:
  96              	.LBE25:
  97              	.LBE24:
  98              		.loc 1 109 0
  99 0036 6846     		mov	r0, sp
 100 0038 FFF7FEFF 		bl	chThdCreateSuspendedI
 101              	.LVL6:
 102              		.loc 1 110 0
 103 003c 0123     		movs	r3, #1
 104 003e 80F82130 		strb	r3, [r0, #33]
 105              		.loc 1 111 0
 106 0042 0021     		movs	r1, #0
 107              		.loc 1 109 0
 108 0044 0446     		mov	r4, r0
 109              	.LVL7:
 110              		.loc 1 111 0
 111 0046 FFF7FEFF 		bl	chSchWakeupS
 112              	.LVL8:
 113              	.LBB29:
 114              	.LBB30:
ARM GAS  /tmp/ccDU5ieD.s 			page 3


 115              		.loc 3 368 0
 116 004a FFF7FEFF 		bl	_stats_stop_measure_crit_thd
 117              	.LVL9:
 118              	.LBB31:
 119              	.LBB32:
 120              	.LBB33:
 121              		.loc 2 493 0
 122 004e 0023     		movs	r3, #0
 123              		.syntax unified
 124              	@ 493 "../../modules/ChibiOS/os/common/ext/ARM/CMSIS/Core/Include/cmsis_gcc.h" 1
 125 0050 83F31188 		MSR basepri, r3
 126              	@ 0 "" 2
 127              	.LVL10:
 128              		.thumb
 129              		.syntax unified
 130 0054 2046     		mov	r0, r4
 131 0056 FFE7     		b	.L2
 132              	.LVL11:
 133              	.L3:
 134              	.L2:
 135              	.LBE33:
 136              	.LBE32:
 137              	.LBE31:
 138              	.LBE30:
 139              	.LBE29:
 140              		.loc 1 115 0
 141 0058 06B0     		add	sp, sp, #24
 142              		.cfi_def_cfa_offset 16
 143              		@ sp needed
 144 005a 70BD     		pop	{r4, r5, r6, pc}
 145              		.cfi_endproc
 146              	.LFE290:
 147              		.size	chThdCreateFromHeap, .-chThdCreateFromHeap
 148              		.section	.text.chThdCreateFromMemoryPool,"ax",%progbits
 149              		.align	1
 150              		.global	chThdCreateFromMemoryPool
 151              		.thumb
 152              		.thumb_func
 153              		.type	chThdCreateFromMemoryPool, %function
 154              	chThdCreateFromMemoryPool:
 155              	.LFB291:
 156              		.loc 1 146 0
 157              		.cfi_startproc
 158              		@ args = 4, pretend = 0, frame = 24
 159              		@ frame_needed = 0, uses_anonymous_args = 0
 160              	.LVL12:
 161 0000 2DE9F041 		push	{r4, r5, r6, r7, r8, lr}
 162              		.cfi_def_cfa_offset 24
 163              		.cfi_offset 4, -24
 164              		.cfi_offset 5, -20
 165              		.cfi_offset 6, -16
 166              		.cfi_offset 7, -12
 167              		.cfi_offset 8, -8
 168              		.cfi_offset 14, -4
 169 0004 86B0     		sub	sp, sp, #24
 170              		.cfi_def_cfa_offset 48
 171              		.loc 1 146 0
ARM GAS  /tmp/ccDU5ieD.s 			page 4


 172 0006 0546     		mov	r5, r0
 173 0008 8846     		mov	r8, r1
 174 000a 1746     		mov	r7, r2
 175 000c 1E46     		mov	r6, r3
 176              		.loc 1 152 0
 177 000e FFF7FEFF 		bl	chPoolAlloc
 178              	.LVL13:
 179              		.loc 1 153 0
 180 0012 0446     		mov	r4, r0
 181 0014 08B3     		cbz	r0, .L7
 182              		.loc 1 160 0
 183 0016 6968     		ldr	r1, [r5, #4]
 184              		.loc 1 157 0
 185 0018 0C9B     		ldr	r3, [sp, #48]
 186 001a 0593     		str	r3, [sp, #20]
 187              		.loc 1 160 0
 188 001c 0144     		add	r1, r1, r0
 189              		.loc 1 167 0
 190 001e 5522     		movs	r2, #85
 191              		.loc 1 157 0
 192 0020 CDF80080 		str	r8, [sp]
 193 0024 0190     		str	r0, [sp, #4]
 194 0026 0291     		str	r1, [sp, #8]
 195 0028 0397     		str	r7, [sp, #12]
 196 002a 0496     		str	r6, [sp, #16]
 197              		.loc 1 167 0
 198 002c FFF7FEFF 		bl	_thread_memfill
 199              	.LVL14:
 200              	.LBB44:
 201              	.LBB45:
 202              	.LBB46:
 203              	.LBB47:
 204              	.LBB48:
 205              		.loc 2 493 0
 206 0030 2023     		movs	r3, #32
 207              		.syntax unified
 208              	@ 493 "../../modules/ChibiOS/os/common/ext/ARM/CMSIS/Core/Include/cmsis_gcc.h" 1
 209 0032 83F31188 		MSR basepri, r3
 210              	@ 0 "" 2
 211              	.LVL15:
 212              		.thumb
 213              		.syntax unified
 214              	.LBE48:
 215              	.LBE47:
 216              	.LBE46:
 217              		.loc 3 356 0
 218 0036 FFF7FEFF 		bl	_stats_start_measure_crit_thd
 219              	.LVL16:
 220              	.LBE45:
 221              	.LBE44:
 222              		.loc 1 173 0
 223 003a 6846     		mov	r0, sp
 224 003c FFF7FEFF 		bl	chThdCreateSuspendedI
 225              	.LVL17:
 226              		.loc 1 174 0
 227 0040 0223     		movs	r3, #2
 228 0042 80F82130 		strb	r3, [r0, #33]
ARM GAS  /tmp/ccDU5ieD.s 			page 5


 229              		.loc 1 175 0
 230 0046 0564     		str	r5, [r0, #64]
 231              		.loc 1 176 0
 232 0048 0021     		movs	r1, #0
 233              		.loc 1 173 0
 234 004a 0446     		mov	r4, r0
 235              	.LVL18:
 236              		.loc 1 176 0
 237 004c FFF7FEFF 		bl	chSchWakeupS
 238              	.LVL19:
 239              	.LBB49:
 240              	.LBB50:
 241              		.loc 3 368 0
 242 0050 FFF7FEFF 		bl	_stats_stop_measure_crit_thd
 243              	.LVL20:
 244              	.LBB51:
 245              	.LBB52:
 246              	.LBB53:
 247              		.loc 2 493 0
 248 0054 0023     		movs	r3, #0
 249              		.syntax unified
 250              	@ 493 "../../modules/ChibiOS/os/common/ext/ARM/CMSIS/Core/Include/cmsis_gcc.h" 1
 251 0056 83F31188 		MSR basepri, r3
 252              	@ 0 "" 2
 253              	.LVL21:
 254              		.thumb
 255              		.syntax unified
 256              	.L7:
 257              	.LBE53:
 258              	.LBE52:
 259              	.LBE51:
 260              	.LBE50:
 261              	.LBE49:
 262              		.loc 1 154 0
 263 005a 2046     		mov	r0, r4
 264              		.loc 1 180 0
 265 005c 06B0     		add	sp, sp, #24
 266              		.cfi_def_cfa_offset 24
 267              		@ sp needed
 268 005e BDE8F081 		pop	{r4, r5, r6, r7, r8, pc}
 269              		.cfi_endproc
 270              	.LFE291:
 271              		.size	chThdCreateFromMemoryPool, .-chThdCreateFromMemoryPool
 272              		.text
 273              	.Letext0:
 274              		.file 4 "/usr/lib/gcc/arm-none-eabi/5.4.1/include/stddef.h"
 275              		.file 5 "/usr/include/newlib/machine/_default_types.h"
 276              		.file 6 "/usr/include/newlib/sys/_stdint.h"
 277              		.file 7 "../../modules/ChibiOS/os/common/ports/ARMCMx/compilers/GCC/chtypes.h"
 278              		.file 8 "../../modules/ChibiOS/os/rt/include/chsystypes.h"
 279              		.file 9 "../../modules/ChibiOS/os/rt/include/chschd.h"
 280              		.file 10 "../../modules/ChibiOS/os/rt/include/chtime.h"
 281              		.file 11 "../../modules/ChibiOS/os/common/ports/ARMCMx/chcore.h"
 282              		.file 12 "../../modules/ChibiOS/os/common/ports/ARMCMx/chcore_v7m.h"
 283              		.file 13 "../../modules/ChibiOS/os/rt/include/chtm.h"
 284              		.file 14 "../../modules/ChibiOS/os/rt/include/chstats.h"
 285              		.file 15 "../../modules/ChibiOS/os/rt/include/chsem.h"
ARM GAS  /tmp/ccDU5ieD.s 			page 6


 286              		.file 16 "../../modules/ChibiOS/os/rt/include/chmtx.h"
 287              		.file 17 "../../modules/ChibiOS/os/rt/include/chthreads.h"
 288              		.file 18 "../../modules/ChibiOS/os/oslib/include/chmemcore.h"
 289              		.file 19 "../../modules/ChibiOS/os/oslib/include/chmemheaps.h"
 290              		.file 20 "../../modules/ChibiOS/os/oslib/include/chmempools.h"
 291              		.file 21 "../../modules/ChibiOS/os/common/ext/ARM/CMSIS/Core/Include/core_cm4.h"
 292              		.section	.debug_info,"",%progbits
 293              	.Ldebug_info0:
 294 0000 940D0000 		.4byte	0xd94
 295 0004 0400     		.2byte	0x4
 296 0006 00000000 		.4byte	.Ldebug_abbrev0
 297 000a 04       		.byte	0x4
 298 000b 01       		.uleb128 0x1
 299 000c 97000000 		.4byte	.LASF144
 300 0010 0C       		.byte	0xc
 301 0011 2B050000 		.4byte	.LASF145
 302 0015 8F050000 		.4byte	.LASF146
 303 0019 00000000 		.4byte	.Ldebug_ranges0+0
 304 001d 00000000 		.4byte	0
 305 0021 00000000 		.4byte	.Ldebug_line0
 306 0025 02       		.uleb128 0x2
 307 0026 04       		.byte	0x4
 308 0027 05       		.byte	0x5
 309 0028 696E7400 		.ascii	"int\000"
 310 002c 03       		.uleb128 0x3
 311 002d 15000000 		.4byte	.LASF4
 312 0031 04       		.byte	0x4
 313 0032 D8       		.byte	0xd8
 314 0033 37000000 		.4byte	0x37
 315 0037 04       		.uleb128 0x4
 316 0038 04       		.byte	0x4
 317 0039 07       		.byte	0x7
 318 003a 06030000 		.4byte	.LASF0
 319 003e 04       		.uleb128 0x4
 320 003f 08       		.byte	0x8
 321 0040 05       		.byte	0x5
 322 0041 1A020000 		.4byte	.LASF1
 323 0045 04       		.uleb128 0x4
 324 0046 08       		.byte	0x8
 325 0047 04       		.byte	0x4
 326 0048 35040000 		.4byte	.LASF2
 327 004c 04       		.uleb128 0x4
 328 004d 01       		.byte	0x1
 329 004e 06       		.byte	0x6
 330 004f 28020000 		.4byte	.LASF3
 331 0053 03       		.uleb128 0x3
 332 0054 4A000000 		.4byte	.LASF5
 333 0058 05       		.byte	0x5
 334 0059 1D       		.byte	0x1d
 335 005a 5E000000 		.4byte	0x5e
 336 005e 04       		.uleb128 0x4
 337 005f 01       		.byte	0x1
 338 0060 08       		.byte	0x8
 339 0061 E4040000 		.4byte	.LASF6
 340 0065 04       		.uleb128 0x4
 341 0066 02       		.byte	0x2
 342 0067 05       		.byte	0x5
ARM GAS  /tmp/ccDU5ieD.s 			page 7


 343 0068 FE040000 		.4byte	.LASF7
 344 006c 04       		.uleb128 0x4
 345 006d 02       		.byte	0x2
 346 006e 07       		.byte	0x7
 347 006f 3A030000 		.4byte	.LASF8
 348 0073 03       		.uleb128 0x3
 349 0074 C1030000 		.4byte	.LASF9
 350 0078 05       		.byte	0x5
 351 0079 3F       		.byte	0x3f
 352 007a 7E000000 		.4byte	0x7e
 353 007e 04       		.uleb128 0x4
 354 007f 04       		.byte	0x4
 355 0080 05       		.byte	0x5
 356 0081 79020000 		.4byte	.LASF10
 357 0085 03       		.uleb128 0x3
 358 0086 B8020000 		.4byte	.LASF11
 359 008a 05       		.byte	0x5
 360 008b 41       		.byte	0x41
 361 008c 90000000 		.4byte	0x90
 362 0090 04       		.uleb128 0x4
 363 0091 04       		.byte	0x4
 364 0092 07       		.byte	0x7
 365 0093 F4050000 		.4byte	.LASF12
 366 0097 03       		.uleb128 0x3
 367 0098 8D040000 		.4byte	.LASF13
 368 009c 05       		.byte	0x5
 369 009d 5B       		.byte	0x5b
 370 009e A2000000 		.4byte	0xa2
 371 00a2 04       		.uleb128 0x4
 372 00a3 08       		.byte	0x8
 373 00a4 07       		.byte	0x7
 374 00a5 B0010000 		.4byte	.LASF14
 375 00a9 03       		.uleb128 0x3
 376 00aa D9060000 		.4byte	.LASF15
 377 00ae 06       		.byte	0x6
 378 00af 18       		.byte	0x18
 379 00b0 53000000 		.4byte	0x53
 380 00b4 03       		.uleb128 0x3
 381 00b5 DC040000 		.4byte	.LASF16
 382 00b9 06       		.byte	0x6
 383 00ba 2C       		.byte	0x2c
 384 00bb 73000000 		.4byte	0x73
 385 00bf 03       		.uleb128 0x3
 386 00c0 AE060000 		.4byte	.LASF17
 387 00c4 06       		.byte	0x6
 388 00c5 30       		.byte	0x30
 389 00c6 85000000 		.4byte	0x85
 390 00ca 03       		.uleb128 0x3
 391 00cb 34000000 		.4byte	.LASF18
 392 00cf 06       		.byte	0x6
 393 00d0 3C       		.byte	0x3c
 394 00d1 97000000 		.4byte	0x97
 395 00d5 03       		.uleb128 0x3
 396 00d6 80060000 		.4byte	.LASF19
 397 00da 07       		.byte	0x7
 398 00db 27       		.byte	0x27
 399 00dc BF000000 		.4byte	0xbf
ARM GAS  /tmp/ccDU5ieD.s 			page 8


 400 00e0 03       		.uleb128 0x3
 401 00e1 11020000 		.4byte	.LASF20
 402 00e5 07       		.byte	0x7
 403 00e6 28       		.byte	0x28
 404 00e7 CA000000 		.4byte	0xca
 405 00eb 03       		.uleb128 0x3
 406 00ec 94030000 		.4byte	.LASF21
 407 00f0 07       		.byte	0x7
 408 00f1 2A       		.byte	0x2a
 409 00f2 A9000000 		.4byte	0xa9
 410 00f6 03       		.uleb128 0x3
 411 00f7 96020000 		.4byte	.LASF22
 412 00fb 07       		.byte	0x7
 413 00fc 2B       		.byte	0x2b
 414 00fd A9000000 		.4byte	0xa9
 415 0101 03       		.uleb128 0x3
 416 0102 A8040000 		.4byte	.LASF23
 417 0106 07       		.byte	0x7
 418 0107 2C       		.byte	0x2c
 419 0108 A9000000 		.4byte	0xa9
 420 010c 03       		.uleb128 0x3
 421 010d C5040000 		.4byte	.LASF24
 422 0111 07       		.byte	0x7
 423 0112 2E       		.byte	0x2e
 424 0113 BF000000 		.4byte	0xbf
 425 0117 03       		.uleb128 0x3
 426 0118 6B030000 		.4byte	.LASF25
 427 011c 07       		.byte	0x7
 428 011d 2F       		.byte	0x2f
 429 011e B4000000 		.4byte	0xb4
 430 0122 03       		.uleb128 0x3
 431 0123 B5030000 		.4byte	.LASF26
 432 0127 07       		.byte	0x7
 433 0128 31       		.byte	0x31
 434 0129 BF000000 		.4byte	0xbf
 435 012d 03       		.uleb128 0x3
 436 012e 00030000 		.4byte	.LASF27
 437 0132 07       		.byte	0x7
 438 0133 33       		.byte	0x33
 439 0134 B4000000 		.4byte	0xb4
 440 0138 03       		.uleb128 0x3
 441 0139 76030000 		.4byte	.LASF28
 442 013d 07       		.byte	0x7
 443 013e 34       		.byte	0x34
 444 013f BF000000 		.4byte	0xbf
 445 0143 03       		.uleb128 0x3
 446 0144 18060000 		.4byte	.LASF29
 447 0148 08       		.byte	0x8
 448 0149 34       		.byte	0x34
 449 014a 4E010000 		.4byte	0x14e
 450 014e 05       		.uleb128 0x5
 451 014f 5C030000 		.4byte	.LASF48
 452 0153 60       		.byte	0x60
 453 0154 09       		.byte	0x9
 454 0155 8E       		.byte	0x8e
 455 0156 39020000 		.4byte	0x239
 456 015a 06       		.uleb128 0x6
ARM GAS  /tmp/ccDU5ieD.s 			page 9


 457 015b 2E030000 		.4byte	.LASF30
 458 015f 09       		.byte	0x9
 459 0160 8F       		.byte	0x8f
 460 0161 6E020000 		.4byte	0x26e
 461 0165 00       		.byte	0
 462 0166 06       		.uleb128 0x6
 463 0167 80040000 		.4byte	.LASF31
 464 016b 09       		.byte	0x9
 465 016c 90       		.byte	0x90
 466 016d 0C010000 		.4byte	0x10c
 467 0171 08       		.byte	0x8
 468 0172 07       		.uleb128 0x7
 469 0173 63747800 		.ascii	"ctx\000"
 470 0177 09       		.byte	0x9
 471 0178 91       		.byte	0x91
 472 0179 89040000 		.4byte	0x489
 473 017d 0C       		.byte	0xc
 474 017e 06       		.uleb128 0x6
 475 017f D6030000 		.4byte	.LASF32
 476 0183 09       		.byte	0x9
 477 0184 93       		.byte	0x93
 478 0185 44020000 		.4byte	0x244
 479 0189 10       		.byte	0x10
 480 018a 06       		.uleb128 0x6
 481 018b 12060000 		.4byte	.LASF33
 482 018f 09       		.byte	0x9
 483 0190 94       		.byte	0x94
 484 0191 44020000 		.4byte	0x244
 485 0195 14       		.byte	0x14
 486 0196 06       		.uleb128 0x6
 487 0197 66030000 		.4byte	.LASF34
 488 019b 09       		.byte	0x9
 489 019c 9B       		.byte	0x9b
 490 019d 6F070000 		.4byte	0x76f
 491 01a1 18       		.byte	0x18
 492 01a2 06       		.uleb128 0x6
 493 01a3 06060000 		.4byte	.LASF35
 494 01a7 09       		.byte	0x9
 495 01a8 A4       		.byte	0xa4
 496 01a9 81070000 		.4byte	0x781
 497 01ad 1C       		.byte	0x1c
 498 01ae 06       		.uleb128 0x6
 499 01af 73020000 		.4byte	.LASF36
 500 01b3 09       		.byte	0x9
 501 01b4 A9       		.byte	0xa9
 502 01b5 F6000000 		.4byte	0xf6
 503 01b9 20       		.byte	0x20
 504 01ba 06       		.uleb128 0x6
 505 01bb ED060000 		.4byte	.LASF37
 506 01bf 09       		.byte	0x9
 507 01c0 AD       		.byte	0xad
 508 01c1 EB000000 		.4byte	0xeb
 509 01c5 21       		.byte	0x21
 510 01c6 06       		.uleb128 0x6
 511 01c7 B0040000 		.4byte	.LASF38
 512 01cb 09       		.byte	0x9
 513 01cc B2       		.byte	0xb2
ARM GAS  /tmp/ccDU5ieD.s 			page 10


 514 01cd 01010000 		.4byte	0x101
 515 01d1 22       		.byte	0x22
 516 01d2 08       		.uleb128 0x8
 517 01d3 7500     		.ascii	"u\000"
 518 01d5 09       		.byte	0x9
 519 01d6 0301     		.2byte	0x103
 520 01d8 A5060000 		.4byte	0x6a5
 521 01dc 24       		.byte	0x24
 522 01dd 09       		.uleb128 0x9
 523 01de DC020000 		.4byte	.LASF39
 524 01e2 09       		.byte	0x9
 525 01e3 0801     		.2byte	0x108
 526 01e5 4A020000 		.4byte	0x24a
 527 01e9 28       		.byte	0x28
 528 01ea 09       		.uleb128 0x9
 529 01eb 6A020000 		.4byte	.LASF40
 530 01ef 09       		.byte	0x9
 531 01f0 0E01     		.2byte	0x10e
 532 01f2 6E020000 		.4byte	0x26e
 533 01f6 2C       		.byte	0x2c
 534 01f7 09       		.uleb128 0x9
 535 01f8 7D030000 		.4byte	.LASF41
 536 01fc 09       		.byte	0x9
 537 01fd 1401     		.2byte	0x114
 538 01ff 22010000 		.4byte	0x122
 539 0203 34       		.byte	0x34
 540 0204 09       		.uleb128 0x9
 541 0205 33070000 		.4byte	.LASF42
 542 0209 09       		.byte	0x9
 543 020a 1B01     		.2byte	0x11b
 544 020c 69070000 		.4byte	0x769
 545 0210 38       		.byte	0x38
 546 0211 09       		.uleb128 0x9
 547 0212 DC030000 		.4byte	.LASF43
 548 0216 09       		.byte	0x9
 549 0217 1F01     		.2byte	0x11f
 550 0219 0C010000 		.4byte	0x10c
 551 021d 3C       		.byte	0x3c
 552 021e 09       		.uleb128 0x9
 553 021f 34030000 		.4byte	.LASF44
 554 0223 09       		.byte	0x9
 555 0224 2601     		.2byte	0x126
 556 0226 21030000 		.4byte	0x321
 557 022a 40       		.byte	0x40
 558 022b 09       		.uleb128 0x9
 559 022c A4020000 		.4byte	.LASF45
 560 0230 09       		.byte	0x9
 561 0231 2C01     		.2byte	0x12c
 562 0233 56060000 		.4byte	0x656
 563 0237 48       		.byte	0x48
 564 0238 00       		.byte	0
 565 0239 03       		.uleb128 0x3
 566 023a 0B040000 		.4byte	.LASF46
 567 023e 08       		.byte	0x8
 568 023f 39       		.byte	0x39
 569 0240 44020000 		.4byte	0x244
 570 0244 0A       		.uleb128 0xa
ARM GAS  /tmp/ccDU5ieD.s 			page 11


 571 0245 04       		.byte	0x4
 572 0246 43010000 		.4byte	0x143
 573 024a 03       		.uleb128 0x3
 574 024b 18070000 		.4byte	.LASF47
 575 024f 08       		.byte	0x8
 576 0250 3E       		.byte	0x3e
 577 0251 55020000 		.4byte	0x255
 578 0255 05       		.uleb128 0x5
 579 0256 D9050000 		.4byte	.LASF49
 580 025a 04       		.byte	0x4
 581 025b 09       		.byte	0x9
 582 025c 7C       		.byte	0x7c
 583 025d 6E020000 		.4byte	0x26e
 584 0261 06       		.uleb128 0x6
 585 0262 1C000000 		.4byte	.LASF50
 586 0266 09       		.byte	0x9
 587 0267 7D       		.byte	0x7d
 588 0268 44020000 		.4byte	0x244
 589 026c 00       		.byte	0
 590 026d 00       		.byte	0
 591 026e 03       		.uleb128 0x3
 592 026f B7060000 		.4byte	.LASF51
 593 0273 08       		.byte	0x8
 594 0274 45       		.byte	0x45
 595 0275 79020000 		.4byte	0x279
 596 0279 05       		.uleb128 0x5
 597 027a 53070000 		.4byte	.LASF52
 598 027e 08       		.byte	0x8
 599 027f 09       		.byte	0x9
 600 0280 83       		.byte	0x83
 601 0281 9E020000 		.4byte	0x29e
 602 0285 06       		.uleb128 0x6
 603 0286 1C000000 		.4byte	.LASF50
 604 028a 09       		.byte	0x9
 605 028b 84       		.byte	0x84
 606 028c 44020000 		.4byte	0x244
 607 0290 00       		.byte	0
 608 0291 06       		.uleb128 0x6
 609 0292 54000000 		.4byte	.LASF53
 610 0296 09       		.byte	0x9
 611 0297 85       		.byte	0x85
 612 0298 44020000 		.4byte	0x244
 613 029c 04       		.byte	0x4
 614 029d 00       		.byte	0
 615 029e 03       		.uleb128 0x3
 616 029f 08000000 		.4byte	.LASF54
 617 02a3 08       		.byte	0x8
 618 02a4 4C       		.byte	0x4c
 619 02a5 A9020000 		.4byte	0x2a9
 620 02a9 0B       		.uleb128 0xb
 621 02aa A7030000 		.4byte	.LASF55
 622 02ae 1C       		.byte	0x1c
 623 02af 09       		.byte	0x9
 624 02b0 5E01     		.2byte	0x15e
 625 02b2 05030000 		.4byte	0x305
 626 02b6 09       		.uleb128 0x9
 627 02b7 2E030000 		.4byte	.LASF30
ARM GAS  /tmp/ccDU5ieD.s 			page 12


 628 02bb 09       		.byte	0x9
 629 02bc 5F01     		.2byte	0x15f
 630 02be 6E020000 		.4byte	0x26e
 631 02c2 00       		.byte	0
 632 02c3 09       		.uleb128 0x9
 633 02c4 80040000 		.4byte	.LASF31
 634 02c8 09       		.byte	0x9
 635 02c9 6001     		.2byte	0x160
 636 02cb 0C010000 		.4byte	0x10c
 637 02cf 08       		.byte	0x8
 638 02d0 08       		.uleb128 0x8
 639 02d1 63747800 		.ascii	"ctx\000"
 640 02d5 09       		.byte	0x9
 641 02d6 6201     		.2byte	0x162
 642 02d8 89040000 		.4byte	0x489
 643 02dc 0C       		.byte	0xc
 644 02dd 09       		.uleb128 0x9
 645 02de D6030000 		.4byte	.LASF32
 646 02e2 09       		.byte	0x9
 647 02e3 6501     		.2byte	0x165
 648 02e5 44020000 		.4byte	0x244
 649 02e9 10       		.byte	0x10
 650 02ea 09       		.uleb128 0x9
 651 02eb 12060000 		.4byte	.LASF33
 652 02ef 09       		.byte	0x9
 653 02f0 6601     		.2byte	0x166
 654 02f2 44020000 		.4byte	0x244
 655 02f6 14       		.byte	0x14
 656 02f7 09       		.uleb128 0x9
 657 02f8 85040000 		.4byte	.LASF56
 658 02fc 09       		.byte	0x9
 659 02fd 6901     		.2byte	0x169
 660 02ff 44020000 		.4byte	0x244
 661 0303 18       		.byte	0x18
 662 0304 00       		.byte	0
 663 0305 03       		.uleb128 0x3
 664 0306 30060000 		.4byte	.LASF57
 665 030a 08       		.byte	0x8
 666 030b 51       		.byte	0x51
 667 030c 10030000 		.4byte	0x310
 668 0310 0A       		.uleb128 0xa
 669 0311 04       		.byte	0x4
 670 0312 16030000 		.4byte	0x316
 671 0316 0C       		.uleb128 0xc
 672 0317 21030000 		.4byte	0x321
 673 031b 0D       		.uleb128 0xd
 674 031c 21030000 		.4byte	0x321
 675 0320 00       		.byte	0
 676 0321 0E       		.uleb128 0xe
 677 0322 04       		.byte	0x4
 678 0323 03       		.uleb128 0x3
 679 0324 B5040000 		.4byte	.LASF58
 680 0328 08       		.byte	0x8
 681 0329 56       		.byte	0x56
 682 032a 2E030000 		.4byte	0x32e
 683 032e 0B       		.uleb128 0xb
 684 032f 71050000 		.4byte	.LASF59
ARM GAS  /tmp/ccDU5ieD.s 			page 13


 685 0333 14       		.byte	0x14
 686 0334 09       		.byte	0x9
 687 0335 3901     		.2byte	0x139
 688 0337 7D030000 		.4byte	0x37d
 689 033b 09       		.uleb128 0x9
 690 033c 1C000000 		.4byte	.LASF50
 691 0340 09       		.byte	0x9
 692 0341 3A01     		.2byte	0x13a
 693 0343 87070000 		.4byte	0x787
 694 0347 00       		.byte	0
 695 0348 09       		.uleb128 0x9
 696 0349 54000000 		.4byte	.LASF53
 697 034d 09       		.byte	0x9
 698 034e 3B01     		.2byte	0x13b
 699 0350 87070000 		.4byte	0x787
 700 0354 04       		.byte	0x4
 701 0355 09       		.uleb128 0x9
 702 0356 21000000 		.4byte	.LASF60
 703 035a 09       		.byte	0x9
 704 035b 3C01     		.2byte	0x13c
 705 035d 61040000 		.4byte	0x461
 706 0361 08       		.byte	0x8
 707 0362 09       		.uleb128 0x9
 708 0363 9F020000 		.4byte	.LASF61
 709 0367 09       		.byte	0x9
 710 0368 3D01     		.2byte	0x13d
 711 036a 05030000 		.4byte	0x305
 712 036e 0C       		.byte	0xc
 713 036f 08       		.uleb128 0x8
 714 0370 70617200 		.ascii	"par\000"
 715 0374 09       		.byte	0x9
 716 0375 3F01     		.2byte	0x13f
 717 0377 21030000 		.4byte	0x321
 718 037b 10       		.byte	0x10
 719 037c 00       		.byte	0
 720 037d 03       		.uleb128 0x3
 721 037e E3010000 		.4byte	.LASF62
 722 0382 08       		.byte	0x8
 723 0383 5B       		.byte	0x5b
 724 0384 88030000 		.4byte	0x388
 725 0388 0B       		.uleb128 0xb
 726 0389 1E040000 		.4byte	.LASF63
 727 038d 10       		.byte	0x10
 728 038e 09       		.byte	0x9
 729 038f 4901     		.2byte	0x149
 730 0391 CA030000 		.4byte	0x3ca
 731 0395 09       		.uleb128 0x9
 732 0396 1C000000 		.4byte	.LASF50
 733 039a 09       		.byte	0x9
 734 039b 4A01     		.2byte	0x14a
 735 039d 87070000 		.4byte	0x787
 736 03a1 00       		.byte	0
 737 03a2 09       		.uleb128 0x9
 738 03a3 54000000 		.4byte	.LASF53
 739 03a7 09       		.byte	0x9
 740 03a8 4C01     		.2byte	0x14c
 741 03aa 87070000 		.4byte	0x787
ARM GAS  /tmp/ccDU5ieD.s 			page 14


 742 03ae 04       		.byte	0x4
 743 03af 09       		.uleb128 0x9
 744 03b0 21000000 		.4byte	.LASF60
 745 03b4 09       		.byte	0x9
 746 03b5 4E01     		.2byte	0x14e
 747 03b7 61040000 		.4byte	0x461
 748 03bb 08       		.byte	0x8
 749 03bc 09       		.uleb128 0x9
 750 03bd 08050000 		.4byte	.LASF64
 751 03c1 09       		.byte	0x9
 752 03c2 5601     		.2byte	0x156
 753 03c4 56040000 		.4byte	0x456
 754 03c8 0C       		.byte	0xc
 755 03c9 00       		.byte	0
 756 03ca 03       		.uleb128 0x3
 757 03cb 6B000000 		.4byte	.LASF65
 758 03cf 08       		.byte	0x8
 759 03d0 60       		.byte	0x60
 760 03d1 D5030000 		.4byte	0x3d5
 761 03d5 0B       		.uleb128 0xb
 762 03d6 CC020000 		.4byte	.LASF66
 763 03da 04       		.byte	0x4
 764 03db 09       		.byte	0x9
 765 03dc 7001     		.2byte	0x170
 766 03de F0030000 		.4byte	0x3f0
 767 03e2 09       		.uleb128 0x9
 768 03e3 47060000 		.4byte	.LASF67
 769 03e7 09       		.byte	0x9
 770 03e8 7801     		.2byte	0x178
 771 03ea 8D070000 		.4byte	0x78d
 772 03ee 00       		.byte	0
 773 03ef 00       		.byte	0
 774 03f0 03       		.uleb128 0x3
 775 03f1 74060000 		.4byte	.LASF68
 776 03f5 08       		.byte	0x8
 777 03f6 65       		.byte	0x65
 778 03f7 FB030000 		.4byte	0x3fb
 779 03fb 0B       		.uleb128 0xb
 780 03fc 18050000 		.4byte	.LASF69
 781 0400 D0       		.byte	0xd0
 782 0401 09       		.byte	0x9
 783 0402 9001     		.2byte	0x190
 784 0404 56040000 		.4byte	0x456
 785 0408 09       		.uleb128 0x9
 786 0409 D3060000 		.4byte	.LASF70
 787 040d 09       		.byte	0x9
 788 040e 9401     		.2byte	0x194
 789 0410 9E020000 		.4byte	0x29e
 790 0414 00       		.byte	0
 791 0415 09       		.uleb128 0x9
 792 0416 57020000 		.4byte	.LASF71
 793 041a 09       		.byte	0x9
 794 041b 9801     		.2byte	0x198
 795 041d 7D030000 		.4byte	0x37d
 796 0421 1C       		.byte	0x1c
 797 0422 08       		.uleb128 0x8
 798 0423 64626700 		.ascii	"dbg\000"
ARM GAS  /tmp/ccDU5ieD.s 			page 15


 799 0427 09       		.byte	0x9
 800 0428 9C01     		.2byte	0x19c
 801 042a CA030000 		.4byte	0x3ca
 802 042e 2C       		.byte	0x2c
 803 042f 09       		.uleb128 0x9
 804 0430 D0010000 		.4byte	.LASF72
 805 0434 09       		.byte	0x9
 806 0435 A001     		.2byte	0x1a0
 807 0437 43010000 		.4byte	0x143
 808 043b 30       		.byte	0x30
 809 043c 08       		.uleb128 0x8
 810 043d 746D00   		.ascii	"tm\000"
 811 0440 09       		.byte	0x9
 812 0441 A501     		.2byte	0x1a5
 813 0443 08060000 		.4byte	0x608
 814 0447 90       		.byte	0x90
 815 0448 09       		.uleb128 0x9
 816 0449 3D000000 		.4byte	.LASF73
 817 044d 09       		.byte	0x9
 818 044e AB01     		.2byte	0x1ab
 819 0450 9A060000 		.4byte	0x69a
 820 0454 98       		.byte	0x98
 821 0455 00       		.byte	0
 822 0456 03       		.uleb128 0x3
 823 0457 26060000 		.4byte	.LASF74
 824 045b 0A       		.byte	0xa
 825 045c 6D       		.byte	0x6d
 826 045d BF000000 		.4byte	0xbf
 827 0461 03       		.uleb128 0x3
 828 0462 F2020000 		.4byte	.LASF75
 829 0466 0A       		.byte	0xa
 830 0467 79       		.byte	0x79
 831 0468 BF000000 		.4byte	0xbf
 832 046c 04       		.uleb128 0x4
 833 046d 04       		.byte	0x4
 834 046e 07       		.byte	0x7
 835 046f 02040000 		.4byte	.LASF76
 836 0473 03       		.uleb128 0x3
 837 0474 C3020000 		.4byte	.LASF77
 838 0478 0B       		.byte	0xb
 839 0479 65       		.byte	0x65
 840 047a 21030000 		.4byte	0x321
 841 047e 03       		.uleb128 0x3
 842 047f CB030000 		.4byte	.LASF78
 843 0483 0B       		.byte	0xb
 844 0484 6D       		.byte	0x6d
 845 0485 CA000000 		.4byte	0xca
 846 0489 05       		.uleb128 0x5
 847 048a 85010000 		.4byte	.LASF79
 848 048e 04       		.byte	0x4
 849 048f 0B       		.byte	0xb
 850 0490 89       		.byte	0x89
 851 0491 A1040000 		.4byte	0x4a1
 852 0495 07       		.uleb128 0x7
 853 0496 737000   		.ascii	"sp\000"
 854 0499 0B       		.byte	0xb
 855 049a 8A       		.byte	0x8a
ARM GAS  /tmp/ccDU5ieD.s 			page 16


 856 049b ED050000 		.4byte	0x5ed
 857 049f 00       		.byte	0
 858 04a0 00       		.byte	0
 859 04a1 0B       		.uleb128 0xb
 860 04a2 59000000 		.4byte	.LASF80
 861 04a6 64       		.byte	0x64
 862 04a7 0C       		.byte	0xc
 863 04a8 5901     		.2byte	0x159
 864 04aa ED050000 		.4byte	0x5ed
 865 04ae 08       		.uleb128 0x8
 866 04af 73313600 		.ascii	"s16\000"
 867 04b3 0C       		.byte	0xc
 868 04b4 5B01     		.2byte	0x15b
 869 04b6 73040000 		.4byte	0x473
 870 04ba 00       		.byte	0
 871 04bb 08       		.uleb128 0x8
 872 04bc 73313700 		.ascii	"s17\000"
 873 04c0 0C       		.byte	0xc
 874 04c1 5C01     		.2byte	0x15c
 875 04c3 73040000 		.4byte	0x473
 876 04c7 04       		.byte	0x4
 877 04c8 08       		.uleb128 0x8
 878 04c9 73313800 		.ascii	"s18\000"
 879 04cd 0C       		.byte	0xc
 880 04ce 5D01     		.2byte	0x15d
 881 04d0 73040000 		.4byte	0x473
 882 04d4 08       		.byte	0x8
 883 04d5 08       		.uleb128 0x8
 884 04d6 73313900 		.ascii	"s19\000"
 885 04da 0C       		.byte	0xc
 886 04db 5E01     		.2byte	0x15e
 887 04dd 73040000 		.4byte	0x473
 888 04e1 0C       		.byte	0xc
 889 04e2 08       		.uleb128 0x8
 890 04e3 73323000 		.ascii	"s20\000"
 891 04e7 0C       		.byte	0xc
 892 04e8 5F01     		.2byte	0x15f
 893 04ea 73040000 		.4byte	0x473
 894 04ee 10       		.byte	0x10
 895 04ef 08       		.uleb128 0x8
 896 04f0 73323100 		.ascii	"s21\000"
 897 04f4 0C       		.byte	0xc
 898 04f5 6001     		.2byte	0x160
 899 04f7 73040000 		.4byte	0x473
 900 04fb 14       		.byte	0x14
 901 04fc 08       		.uleb128 0x8
 902 04fd 73323200 		.ascii	"s22\000"
 903 0501 0C       		.byte	0xc
 904 0502 6101     		.2byte	0x161
 905 0504 73040000 		.4byte	0x473
 906 0508 18       		.byte	0x18
 907 0509 08       		.uleb128 0x8
 908 050a 73323300 		.ascii	"s23\000"
 909 050e 0C       		.byte	0xc
 910 050f 6201     		.2byte	0x162
 911 0511 73040000 		.4byte	0x473
 912 0515 1C       		.byte	0x1c
ARM GAS  /tmp/ccDU5ieD.s 			page 17


 913 0516 08       		.uleb128 0x8
 914 0517 73323400 		.ascii	"s24\000"
 915 051b 0C       		.byte	0xc
 916 051c 6301     		.2byte	0x163
 917 051e 73040000 		.4byte	0x473
 918 0522 20       		.byte	0x20
 919 0523 08       		.uleb128 0x8
 920 0524 73323500 		.ascii	"s25\000"
 921 0528 0C       		.byte	0xc
 922 0529 6401     		.2byte	0x164
 923 052b 73040000 		.4byte	0x473
 924 052f 24       		.byte	0x24
 925 0530 08       		.uleb128 0x8
 926 0531 73323600 		.ascii	"s26\000"
 927 0535 0C       		.byte	0xc
 928 0536 6501     		.2byte	0x165
 929 0538 73040000 		.4byte	0x473
 930 053c 28       		.byte	0x28
 931 053d 08       		.uleb128 0x8
 932 053e 73323700 		.ascii	"s27\000"
 933 0542 0C       		.byte	0xc
 934 0543 6601     		.2byte	0x166
 935 0545 73040000 		.4byte	0x473
 936 0549 2C       		.byte	0x2c
 937 054a 08       		.uleb128 0x8
 938 054b 73323800 		.ascii	"s28\000"
 939 054f 0C       		.byte	0xc
 940 0550 6701     		.2byte	0x167
 941 0552 73040000 		.4byte	0x473
 942 0556 30       		.byte	0x30
 943 0557 08       		.uleb128 0x8
 944 0558 73323900 		.ascii	"s29\000"
 945 055c 0C       		.byte	0xc
 946 055d 6801     		.2byte	0x168
 947 055f 73040000 		.4byte	0x473
 948 0563 34       		.byte	0x34
 949 0564 08       		.uleb128 0x8
 950 0565 73333000 		.ascii	"s30\000"
 951 0569 0C       		.byte	0xc
 952 056a 6901     		.2byte	0x169
 953 056c 73040000 		.4byte	0x473
 954 0570 38       		.byte	0x38
 955 0571 08       		.uleb128 0x8
 956 0572 73333100 		.ascii	"s31\000"
 957 0576 0C       		.byte	0xc
 958 0577 6A01     		.2byte	0x16a
 959 0579 73040000 		.4byte	0x473
 960 057d 3C       		.byte	0x3c
 961 057e 08       		.uleb128 0x8
 962 057f 723400   		.ascii	"r4\000"
 963 0582 0C       		.byte	0xc
 964 0583 6C01     		.2byte	0x16c
 965 0585 73040000 		.4byte	0x473
 966 0589 40       		.byte	0x40
 967 058a 08       		.uleb128 0x8
 968 058b 723500   		.ascii	"r5\000"
 969 058e 0C       		.byte	0xc
ARM GAS  /tmp/ccDU5ieD.s 			page 18


 970 058f 6D01     		.2byte	0x16d
 971 0591 73040000 		.4byte	0x473
 972 0595 44       		.byte	0x44
 973 0596 08       		.uleb128 0x8
 974 0597 723600   		.ascii	"r6\000"
 975 059a 0C       		.byte	0xc
 976 059b 6E01     		.2byte	0x16e
 977 059d 73040000 		.4byte	0x473
 978 05a1 48       		.byte	0x48
 979 05a2 08       		.uleb128 0x8
 980 05a3 723700   		.ascii	"r7\000"
 981 05a6 0C       		.byte	0xc
 982 05a7 6F01     		.2byte	0x16f
 983 05a9 73040000 		.4byte	0x473
 984 05ad 4C       		.byte	0x4c
 985 05ae 08       		.uleb128 0x8
 986 05af 723800   		.ascii	"r8\000"
 987 05b2 0C       		.byte	0xc
 988 05b3 7001     		.2byte	0x170
 989 05b5 73040000 		.4byte	0x473
 990 05b9 50       		.byte	0x50
 991 05ba 08       		.uleb128 0x8
 992 05bb 723900   		.ascii	"r9\000"
 993 05be 0C       		.byte	0xc
 994 05bf 7101     		.2byte	0x171
 995 05c1 73040000 		.4byte	0x473
 996 05c5 54       		.byte	0x54
 997 05c6 08       		.uleb128 0x8
 998 05c7 72313000 		.ascii	"r10\000"
 999 05cb 0C       		.byte	0xc
 1000 05cc 7201     		.2byte	0x172
 1001 05ce 73040000 		.4byte	0x473
 1002 05d2 58       		.byte	0x58
 1003 05d3 08       		.uleb128 0x8
 1004 05d4 72313100 		.ascii	"r11\000"
 1005 05d8 0C       		.byte	0xc
 1006 05d9 7301     		.2byte	0x173
 1007 05db 73040000 		.4byte	0x473
 1008 05df 5C       		.byte	0x5c
 1009 05e0 08       		.uleb128 0x8
 1010 05e1 6C7200   		.ascii	"lr\000"
 1011 05e4 0C       		.byte	0xc
 1012 05e5 7401     		.2byte	0x174
 1013 05e7 73040000 		.4byte	0x473
 1014 05eb 60       		.byte	0x60
 1015 05ec 00       		.byte	0
 1016 05ed 0A       		.uleb128 0xa
 1017 05ee 04       		.byte	0x4
 1018 05ef A1040000 		.4byte	0x4a1
 1019 05f3 0F       		.uleb128 0xf
 1020 05f4 04       		.byte	0x4
 1021 05f5 0D       		.byte	0xd
 1022 05f6 38       		.byte	0x38
 1023 05f7 08060000 		.4byte	0x608
 1024 05fb 06       		.uleb128 0x6
 1025 05fc 51060000 		.4byte	.LASF81
 1026 0600 0D       		.byte	0xd
ARM GAS  /tmp/ccDU5ieD.s 			page 19


 1027 0601 3C       		.byte	0x3c
 1028 0602 D5000000 		.4byte	0xd5
 1029 0606 00       		.byte	0
 1030 0607 00       		.byte	0
 1031 0608 03       		.uleb128 0x3
 1032 0609 61040000 		.4byte	.LASF82
 1033 060d 0D       		.byte	0xd
 1034 060e 3D       		.byte	0x3d
 1035 060f F3050000 		.4byte	0x5f3
 1036 0613 0F       		.uleb128 0xf
 1037 0614 18       		.byte	0x18
 1038 0615 0D       		.byte	0xd
 1039 0616 48       		.byte	0x48
 1040 0617 56060000 		.4byte	0x656
 1041 061b 06       		.uleb128 0x6
 1042 061c 21060000 		.4byte	.LASF83
 1043 0620 0D       		.byte	0xd
 1044 0621 49       		.byte	0x49
 1045 0622 D5000000 		.4byte	0xd5
 1046 0626 00       		.byte	0
 1047 0627 06       		.uleb128 0x6
 1048 0628 92010000 		.4byte	.LASF84
 1049 062c 0D       		.byte	0xd
 1050 062d 4A       		.byte	0x4a
 1051 062e D5000000 		.4byte	0xd5
 1052 0632 04       		.byte	0x4
 1053 0633 06       		.uleb128 0x6
 1054 0634 71030000 		.4byte	.LASF85
 1055 0638 0D       		.byte	0xd
 1056 0639 4B       		.byte	0x4b
 1057 063a D5000000 		.4byte	0xd5
 1058 063e 08       		.byte	0x8
 1059 063f 07       		.uleb128 0x7
 1060 0640 6E00     		.ascii	"n\000"
 1061 0642 0D       		.byte	0xd
 1062 0643 4C       		.byte	0x4c
 1063 0644 38010000 		.4byte	0x138
 1064 0648 0C       		.byte	0xc
 1065 0649 06       		.uleb128 0x6
 1066 064a 98040000 		.4byte	.LASF86
 1067 064e 0D       		.byte	0xd
 1068 064f 4D       		.byte	0x4d
 1069 0650 E0000000 		.4byte	0xe0
 1070 0654 10       		.byte	0x10
 1071 0655 00       		.byte	0
 1072 0656 03       		.uleb128 0x3
 1073 0657 98010000 		.4byte	.LASF87
 1074 065b 0D       		.byte	0xd
 1075 065c 4E       		.byte	0x4e
 1076 065d 13060000 		.4byte	0x613
 1077 0661 0F       		.uleb128 0xf
 1078 0662 38       		.byte	0x38
 1079 0663 0E       		.byte	0xe
 1080 0664 38       		.byte	0x38
 1081 0665 9A060000 		.4byte	0x69a
 1082 0669 06       		.uleb128 0x6
 1083 066a 4D070000 		.4byte	.LASF88
ARM GAS  /tmp/ccDU5ieD.s 			page 20


 1084 066e 0E       		.byte	0xe
 1085 066f 39       		.byte	0x39
 1086 0670 38010000 		.4byte	0x138
 1087 0674 00       		.byte	0
 1088 0675 06       		.uleb128 0x6
 1089 0676 CD040000 		.4byte	.LASF89
 1090 067a 0E       		.byte	0xe
 1091 067b 3A       		.byte	0x3a
 1092 067c 38010000 		.4byte	0x138
 1093 0680 04       		.byte	0x4
 1094 0681 06       		.uleb128 0x6
 1095 0682 3B070000 		.4byte	.LASF90
 1096 0686 0E       		.byte	0xe
 1097 0687 3B       		.byte	0x3b
 1098 0688 56060000 		.4byte	0x656
 1099 068c 08       		.byte	0x8
 1100 068d 06       		.uleb128 0x6
 1101 068e 9C030000 		.4byte	.LASF91
 1102 0692 0E       		.byte	0xe
 1103 0693 3D       		.byte	0x3d
 1104 0694 56060000 		.4byte	0x656
 1105 0698 20       		.byte	0x20
 1106 0699 00       		.byte	0
 1107 069a 03       		.uleb128 0x3
 1108 069b 4D030000 		.4byte	.LASF92
 1109 069f 0E       		.byte	0xe
 1110 06a0 3F       		.byte	0x3f
 1111 06a1 61060000 		.4byte	0x661
 1112 06a5 10       		.uleb128 0x10
 1113 06a6 04       		.byte	0x4
 1114 06a7 09       		.byte	0x9
 1115 06a8 C6       		.byte	0xc6
 1116 06a9 07070000 		.4byte	0x707
 1117 06ad 11       		.uleb128 0x11
 1118 06ae 27000000 		.4byte	.LASF93
 1119 06b2 09       		.byte	0x9
 1120 06b3 CD       		.byte	0xcd
 1121 06b4 17010000 		.4byte	0x117
 1122 06b8 11       		.uleb128 0x11
 1123 06b9 C7010000 		.4byte	.LASF94
 1124 06bd 09       		.byte	0x9
 1125 06be D4       		.byte	0xd4
 1126 06bf 17010000 		.4byte	0x117
 1127 06c3 11       		.uleb128 0x11
 1128 06c4 11070000 		.4byte	.LASF95
 1129 06c8 09       		.byte	0x9
 1130 06c9 DB       		.byte	0xdb
 1131 06ca 21030000 		.4byte	0x321
 1132 06ce 11       		.uleb128 0x11
 1133 06cf 1A030000 		.4byte	.LASF96
 1134 06d3 09       		.byte	0x9
 1135 06d4 E2       		.byte	0xe2
 1136 06d5 07070000 		.4byte	0x707
 1137 06d9 11       		.uleb128 0x11
 1138 06da DB010000 		.4byte	.LASF97
 1139 06de 09       		.byte	0x9
 1140 06df E7       		.byte	0xe7
ARM GAS  /tmp/ccDU5ieD.s 			page 21


 1141 06e0 17010000 		.4byte	0x117
 1142 06e4 11       		.uleb128 0x11
 1143 06e5 13030000 		.4byte	.LASF98
 1144 06e9 09       		.byte	0x9
 1145 06ea F0       		.byte	0xf0
 1146 06eb 32070000 		.4byte	0x732
 1147 06ef 11       		.uleb128 0x11
 1148 06f0 D2050000 		.4byte	.LASF99
 1149 06f4 09       		.byte	0x9
 1150 06f5 F9       		.byte	0xf9
 1151 06f6 69070000 		.4byte	0x769
 1152 06fa 12       		.uleb128 0x12
 1153 06fb 11050000 		.4byte	.LASF100
 1154 06ff 09       		.byte	0x9
 1155 0700 0101     		.2byte	0x101
 1156 0702 22010000 		.4byte	0x122
 1157 0706 00       		.byte	0
 1158 0707 0A       		.uleb128 0xa
 1159 0708 04       		.byte	0x4
 1160 0709 39020000 		.4byte	0x239
 1161 070d 05       		.uleb128 0x5
 1162 070e 82050000 		.4byte	.LASF101
 1163 0712 0C       		.byte	0xc
 1164 0713 0F       		.byte	0xf
 1165 0714 34       		.byte	0x34
 1166 0715 32070000 		.4byte	0x732
 1167 0719 06       		.uleb128 0x6
 1168 071a 2E030000 		.4byte	.LASF30
 1169 071e 0F       		.byte	0xf
 1170 071f 35       		.byte	0x35
 1171 0720 6E020000 		.4byte	0x26e
 1172 0724 00       		.byte	0
 1173 0725 07       		.uleb128 0x7
 1174 0726 636E7400 		.ascii	"cnt\000"
 1175 072a 0F       		.byte	0xf
 1176 072b 37       		.byte	0x37
 1177 072c 2D010000 		.4byte	0x12d
 1178 0730 08       		.byte	0x8
 1179 0731 00       		.byte	0
 1180 0732 0A       		.uleb128 0xa
 1181 0733 04       		.byte	0x4
 1182 0734 0D070000 		.4byte	0x70d
 1183 0738 05       		.uleb128 0x5
 1184 0739 6B060000 		.4byte	.LASF102
 1185 073d 10       		.byte	0x10
 1186 073e 10       		.byte	0x10
 1187 073f 39       		.byte	0x39
 1188 0740 69070000 		.4byte	0x769
 1189 0744 06       		.uleb128 0x6
 1190 0745 2E030000 		.4byte	.LASF30
 1191 0749 10       		.byte	0x10
 1192 074a 3A       		.byte	0x3a
 1193 074b 6E020000 		.4byte	0x26e
 1194 074f 00       		.byte	0
 1195 0750 06       		.uleb128 0x6
 1196 0751 E9050000 		.4byte	.LASF103
 1197 0755 10       		.byte	0x10
ARM GAS  /tmp/ccDU5ieD.s 			page 22


 1198 0756 3C       		.byte	0x3c
 1199 0757 44020000 		.4byte	0x244
 1200 075b 08       		.byte	0x8
 1201 075c 06       		.uleb128 0x6
 1202 075d 1C000000 		.4byte	.LASF50
 1203 0761 10       		.byte	0x10
 1204 0762 3E       		.byte	0x3e
 1205 0763 04080000 		.4byte	0x804
 1206 0767 0C       		.byte	0xc
 1207 0768 00       		.byte	0
 1208 0769 0A       		.uleb128 0xa
 1209 076a 04       		.byte	0x4
 1210 076b 38070000 		.4byte	0x738
 1211 076f 0A       		.uleb128 0xa
 1212 0770 04       		.byte	0x4
 1213 0771 7C070000 		.4byte	0x77c
 1214 0775 04       		.uleb128 0x4
 1215 0776 01       		.byte	0x1
 1216 0777 08       		.byte	0x8
 1217 0778 0D060000 		.4byte	.LASF104
 1218 077c 13       		.uleb128 0x13
 1219 077d 75070000 		.4byte	0x775
 1220 0781 0A       		.uleb128 0xa
 1221 0782 04       		.byte	0x4
 1222 0783 7E040000 		.4byte	0x47e
 1223 0787 0A       		.uleb128 0xa
 1224 0788 04       		.byte	0x4
 1225 0789 23030000 		.4byte	0x323
 1226 078d 14       		.uleb128 0x14
 1227 078e 6F070000 		.4byte	0x76f
 1228 0792 03       		.uleb128 0x3
 1229 0793 00000000 		.4byte	.LASF105
 1230 0797 11       		.byte	0x11
 1231 0798 34       		.byte	0x34
 1232 0799 10030000 		.4byte	0x310
 1233 079d 0F       		.uleb128 0xf
 1234 079e 18       		.byte	0x18
 1235 079f 11       		.byte	0x11
 1236 07a0 39       		.byte	0x39
 1237 07a1 EE070000 		.4byte	0x7ee
 1238 07a5 06       		.uleb128 0x6
 1239 07a6 66030000 		.4byte	.LASF34
 1240 07aa 11       		.byte	0x11
 1241 07ab 3D       		.byte	0x3d
 1242 07ac 6F070000 		.4byte	0x76f
 1243 07b0 00       		.byte	0
 1244 07b1 06       		.uleb128 0x6
 1245 07b2 5B040000 		.4byte	.LASF106
 1246 07b6 11       		.byte	0x11
 1247 07b7 41       		.byte	0x41
 1248 07b8 81070000 		.4byte	0x781
 1249 07bc 04       		.byte	0x4
 1250 07bd 06       		.uleb128 0x6
 1251 07be AB010000 		.4byte	.LASF107
 1252 07c2 11       		.byte	0x11
 1253 07c3 45       		.byte	0x45
 1254 07c4 81070000 		.4byte	0x781
ARM GAS  /tmp/ccDU5ieD.s 			page 23


 1255 07c8 08       		.byte	0x8
 1256 07c9 06       		.uleb128 0x6
 1257 07ca 80040000 		.4byte	.LASF31
 1258 07ce 11       		.byte	0x11
 1259 07cf 49       		.byte	0x49
 1260 07d0 0C010000 		.4byte	0x10c
 1261 07d4 0C       		.byte	0xc
 1262 07d5 06       		.uleb128 0x6
 1263 07d6 2E000000 		.4byte	.LASF108
 1264 07da 11       		.byte	0x11
 1265 07db 4D       		.byte	0x4d
 1266 07dc 92070000 		.4byte	0x792
 1267 07e0 10       		.byte	0x10
 1268 07e1 07       		.uleb128 0x7
 1269 07e2 61726700 		.ascii	"arg\000"
 1270 07e6 11       		.byte	0x11
 1271 07e7 51       		.byte	0x51
 1272 07e8 21030000 		.4byte	0x321
 1273 07ec 14       		.byte	0x14
 1274 07ed 00       		.byte	0
 1275 07ee 03       		.uleb128 0x3
 1276 07ef 83000000 		.4byte	.LASF109
 1277 07f3 11       		.byte	0x11
 1278 07f4 52       		.byte	0x52
 1279 07f5 9D070000 		.4byte	0x79d
 1280 07f9 03       		.uleb128 0x3
 1281 07fa E4020000 		.4byte	.LASF110
 1282 07fe 10       		.byte	0x10
 1283 07ff 34       		.byte	0x34
 1284 0800 38070000 		.4byte	0x738
 1285 0804 0A       		.uleb128 0xa
 1286 0805 04       		.byte	0x4
 1287 0806 F9070000 		.4byte	0x7f9
 1288 080a 04       		.uleb128 0x4
 1289 080b 01       		.byte	0x1
 1290 080c 02       		.byte	0x2
 1291 080d D6040000 		.4byte	.LASF111
 1292 0811 03       		.uleb128 0x3
 1293 0812 88060000 		.4byte	.LASF112
 1294 0816 12       		.byte	0x12
 1295 0817 47       		.byte	0x47
 1296 0818 1C080000 		.4byte	0x81c
 1297 081c 0A       		.uleb128 0xa
 1298 081d 04       		.byte	0x4
 1299 081e 22080000 		.4byte	0x822
 1300 0822 15       		.uleb128 0x15
 1301 0823 21030000 		.4byte	0x321
 1302 0827 36080000 		.4byte	0x836
 1303 082b 0D       		.uleb128 0xd
 1304 082c 2C000000 		.4byte	0x2c
 1305 0830 0D       		.uleb128 0xd
 1306 0831 37000000 		.4byte	0x37
 1307 0835 00       		.byte	0
 1308 0836 03       		.uleb128 0x3
 1309 0837 72040000 		.4byte	.LASF113
 1310 083b 12       		.byte	0x12
 1311 083c 4C       		.byte	0x4c
ARM GAS  /tmp/ccDU5ieD.s 			page 24


 1312 083d 41080000 		.4byte	0x841
 1313 0841 0A       		.uleb128 0xa
 1314 0842 04       		.byte	0x4
 1315 0843 47080000 		.4byte	0x847
 1316 0847 15       		.uleb128 0x15
 1317 0848 21030000 		.4byte	0x321
 1318 084c 60080000 		.4byte	0x860
 1319 0850 0D       		.uleb128 0xd
 1320 0851 2C000000 		.4byte	0x2c
 1321 0855 0D       		.uleb128 0xd
 1322 0856 37000000 		.4byte	0x37
 1323 085a 0D       		.uleb128 0xd
 1324 085b 2C000000 		.4byte	0x2c
 1325 085f 00       		.byte	0
 1326 0860 03       		.uleb128 0x3
 1327 0861 86030000 		.4byte	.LASF114
 1328 0865 13       		.byte	0x13
 1329 0866 48       		.byte	0x48
 1330 0867 6B080000 		.4byte	0x86b
 1331 086b 05       		.uleb128 0x5
 1332 086c 64070000 		.4byte	.LASF115
 1333 0870 1C       		.byte	0x1c
 1334 0871 13       		.byte	0x13
 1335 0872 60       		.byte	0x60
 1336 0873 9C080000 		.4byte	0x89c
 1337 0877 06       		.uleb128 0x6
 1338 0878 7A000000 		.4byte	.LASF116
 1339 087c 13       		.byte	0x13
 1340 087d 61       		.byte	0x61
 1341 087e 36080000 		.4byte	0x836
 1342 0882 00       		.byte	0
 1343 0883 06       		.uleb128 0x6
 1344 0884 46070000 		.4byte	.LASF117
 1345 0888 13       		.byte	0x13
 1346 0889 63       		.byte	0x63
 1347 088a 9C080000 		.4byte	0x89c
 1348 088e 04       		.byte	0x4
 1349 088f 07       		.uleb128 0x7
 1350 0890 6D747800 		.ascii	"mtx\000"
 1351 0894 13       		.byte	0x13
 1352 0895 65       		.byte	0x65
 1353 0896 F9070000 		.4byte	0x7f9
 1354 089a 0C       		.byte	0xc
 1355 089b 00       		.byte	0
 1356 089c 03       		.uleb128 0x3
 1357 089d AA020000 		.4byte	.LASF118
 1358 08a1 13       		.byte	0x13
 1359 08a2 4D       		.byte	0x4d
 1360 08a3 A7080000 		.4byte	0x8a7
 1361 08a7 16       		.uleb128 0x16
 1362 08a8 F2040000 		.4byte	.LASF147
 1363 08ac 08       		.byte	0x8
 1364 08ad 13       		.byte	0x13
 1365 08ae 52       		.byte	0x52
 1366 08af CA080000 		.4byte	0x8ca
 1367 08b3 11       		.uleb128 0x11
 1368 08b4 0C020000 		.4byte	.LASF119
ARM GAS  /tmp/ccDU5ieD.s 			page 25


 1369 08b8 13       		.byte	0x13
 1370 08b9 56       		.byte	0x56
 1371 08ba CA080000 		.4byte	0x8ca
 1372 08be 11       		.uleb128 0x11
 1373 08bf A3040000 		.4byte	.LASF120
 1374 08c3 13       		.byte	0x13
 1375 08c4 5A       		.byte	0x5a
 1376 08c5 F1080000 		.4byte	0x8f1
 1377 08c9 00       		.byte	0
 1378 08ca 0F       		.uleb128 0xf
 1379 08cb 08       		.byte	0x8
 1380 08cc 13       		.byte	0x13
 1381 08cd 53       		.byte	0x53
 1382 08ce EB080000 		.4byte	0x8eb
 1383 08d2 06       		.uleb128 0x6
 1384 08d3 1C000000 		.4byte	.LASF50
 1385 08d7 13       		.byte	0x13
 1386 08d8 54       		.byte	0x54
 1387 08d9 EB080000 		.4byte	0x8eb
 1388 08dd 00       		.byte	0
 1389 08de 06       		.uleb128 0x6
 1390 08df 65000000 		.4byte	.LASF121
 1391 08e3 13       		.byte	0x13
 1392 08e4 55       		.byte	0x55
 1393 08e5 2C000000 		.4byte	0x2c
 1394 08e9 04       		.byte	0x4
 1395 08ea 00       		.byte	0
 1396 08eb 0A       		.uleb128 0xa
 1397 08ec 04       		.byte	0x4
 1398 08ed 9C080000 		.4byte	0x89c
 1399 08f1 0F       		.uleb128 0xf
 1400 08f2 08       		.byte	0x8
 1401 08f3 13       		.byte	0x13
 1402 08f4 57       		.byte	0x57
 1403 08f5 12090000 		.4byte	0x912
 1404 08f9 06       		.uleb128 0x6
 1405 08fa EF050000 		.4byte	.LASF122
 1406 08fe 13       		.byte	0x13
 1407 08ff 58       		.byte	0x58
 1408 0900 12090000 		.4byte	0x912
 1409 0904 00       		.byte	0
 1410 0905 06       		.uleb128 0x6
 1411 0906 34020000 		.4byte	.LASF123
 1412 090a 13       		.byte	0x13
 1413 090b 59       		.byte	0x59
 1414 090c 2C000000 		.4byte	0x2c
 1415 0910 04       		.byte	0x4
 1416 0911 00       		.byte	0
 1417 0912 0A       		.uleb128 0xa
 1418 0913 04       		.byte	0x4
 1419 0914 60080000 		.4byte	0x860
 1420 0918 05       		.uleb128 0x5
 1421 0919 C7060000 		.4byte	.LASF124
 1422 091d 04       		.byte	0x4
 1423 091e 14       		.byte	0x14
 1424 091f 38       		.byte	0x38
 1425 0920 31090000 		.4byte	0x931
ARM GAS  /tmp/ccDU5ieD.s 			page 26


 1426 0924 06       		.uleb128 0x6
 1427 0925 1C000000 		.4byte	.LASF50
 1428 0929 14       		.byte	0x14
 1429 092a 39       		.byte	0x39
 1430 092b 31090000 		.4byte	0x931
 1431 092f 00       		.byte	0
 1432 0930 00       		.byte	0
 1433 0931 0A       		.uleb128 0xa
 1434 0932 04       		.byte	0x4
 1435 0933 18090000 		.4byte	0x918
 1436 0937 0F       		.uleb128 0xf
 1437 0938 10       		.byte	0x10
 1438 0939 14       		.byte	0x14
 1439 093a 40       		.byte	0x40
 1440 093b 70090000 		.4byte	0x970
 1441 093f 06       		.uleb128 0x6
 1442 0940 1C000000 		.4byte	.LASF50
 1443 0944 14       		.byte	0x14
 1444 0945 41       		.byte	0x41
 1445 0946 31090000 		.4byte	0x931
 1446 094a 00       		.byte	0
 1447 094b 06       		.uleb128 0x6
 1448 094c A2060000 		.4byte	.LASF125
 1449 0950 14       		.byte	0x14
 1450 0951 42       		.byte	0x42
 1451 0952 2C000000 		.4byte	0x2c
 1452 0956 04       		.byte	0x4
 1453 0957 06       		.uleb128 0x6
 1454 0958 EC020000 		.4byte	.LASF126
 1455 095c 14       		.byte	0x14
 1456 095d 44       		.byte	0x44
 1457 095e 37000000 		.4byte	0x37
 1458 0962 08       		.byte	0x8
 1459 0963 06       		.uleb128 0x6
 1460 0964 7A000000 		.4byte	.LASF116
 1461 0968 14       		.byte	0x14
 1462 0969 45       		.byte	0x45
 1463 096a 11080000 		.4byte	0x811
 1464 096e 0C       		.byte	0xc
 1465 096f 00       		.byte	0
 1466 0970 03       		.uleb128 0x3
 1467 0971 20030000 		.4byte	.LASF127
 1468 0975 14       		.byte	0x14
 1469 0976 47       		.byte	0x47
 1470 0977 37090000 		.4byte	0x937
 1471 097b 17       		.uleb128 0x17
 1472 097c 39060000 		.4byte	.LASF130
 1473 0980 02       		.byte	0x2
 1474 0981 EB01     		.2byte	0x1eb
 1475 0983 03       		.byte	0x3
 1476 0984 95090000 		.4byte	0x995
 1477 0988 18       		.uleb128 0x18
 1478 0989 4F020000 		.4byte	.LASF148
 1479 098d 02       		.byte	0x2
 1480 098e EB01     		.2byte	0x1eb
 1481 0990 BF000000 		.4byte	0xbf
 1482 0994 00       		.byte	0
ARM GAS  /tmp/ccDU5ieD.s 			page 27


 1483 0995 19       		.uleb128 0x19
 1484 0996 7B010000 		.4byte	.LASF128
 1485 099a 0C       		.byte	0xc
 1486 099b 5A02     		.2byte	0x25a
 1487 099d 03       		.byte	0x3
 1488 099e 19       		.uleb128 0x19
 1489 099f 5E020000 		.4byte	.LASF129
 1490 09a3 0C       		.byte	0xc
 1491 09a4 7202     		.2byte	0x272
 1492 09a6 03       		.byte	0x3
 1493 09a7 17       		.uleb128 0x17
 1494 09a8 27070000 		.4byte	.LASF131
 1495 09ac 03       		.byte	0x3
 1496 09ad 6D01     		.2byte	0x16d
 1497 09af 03       		.byte	0x3
 1498 09b0 C2090000 		.4byte	0x9c2
 1499 09b4 1A       		.uleb128 0x1a
 1500 09b5 22050000 		.4byte	.LASF149
 1501 09b9 D2090000 		.4byte	0x9d2
 1502 09bd 27070000 		.4byte	.LASF131
 1503 09c1 00       		.byte	0
 1504 09c2 1B       		.uleb128 0x1b
 1505 09c3 7C070000 		.4byte	0x77c
 1506 09c7 D2090000 		.4byte	0x9d2
 1507 09cb 1C       		.uleb128 0x1c
 1508 09cc 6C040000 		.4byte	0x46c
 1509 09d0 0B       		.byte	0xb
 1510 09d1 00       		.byte	0
 1511 09d2 13       		.uleb128 0x13
 1512 09d3 C2090000 		.4byte	0x9c2
 1513 09d7 19       		.uleb128 0x19
 1514 09d8 57050000 		.4byte	.LASF132
 1515 09dc 03       		.byte	0x3
 1516 09dd 6101     		.2byte	0x161
 1517 09df 03       		.byte	0x3
 1518 09e0 1D       		.uleb128 0x1d
 1519 09e1 82020000 		.4byte	.LASF134
 1520 09e5 01       		.byte	0x1
 1521 09e6 52       		.byte	0x52
 1522 09e7 44020000 		.4byte	0x244
 1523 09eb 00000000 		.4byte	.LFB290
 1524 09ef 5C000000 		.4byte	.LFE290-.LFB290
 1525 09f3 01       		.uleb128 0x1
 1526 09f4 9C       		.byte	0x9c
 1527 09f5 7F0B0000 		.4byte	0xb7f
 1528 09f9 1E       		.uleb128 0x1e
 1529 09fa 06020000 		.4byte	.LASF133
 1530 09fe 01       		.byte	0x1
 1531 09ff 52       		.byte	0x52
 1532 0a00 12090000 		.4byte	0x912
 1533 0a04 00000000 		.4byte	.LLST0
 1534 0a08 1E       		.uleb128 0x1e
 1535 0a09 34020000 		.4byte	.LASF123
 1536 0a0d 01       		.byte	0x1
 1537 0a0e 52       		.byte	0x52
 1538 0a0f 2C000000 		.4byte	0x2c
 1539 0a13 21000000 		.4byte	.LLST1
ARM GAS  /tmp/ccDU5ieD.s 			page 28


 1540 0a17 1E       		.uleb128 0x1e
 1541 0a18 66030000 		.4byte	.LASF34
 1542 0a1c 01       		.byte	0x1
 1543 0a1d 53       		.byte	0x53
 1544 0a1e 6F070000 		.4byte	0x76f
 1545 0a22 4D000000 		.4byte	.LLST2
 1546 0a26 1E       		.uleb128 0x1e
 1547 0a27 80040000 		.4byte	.LASF31
 1548 0a2b 01       		.byte	0x1
 1549 0a2c 53       		.byte	0x53
 1550 0a2d 0C010000 		.4byte	0x10c
 1551 0a31 6B000000 		.4byte	.LLST3
 1552 0a35 1F       		.uleb128 0x1f
 1553 0a36 706600   		.ascii	"pf\000"
 1554 0a39 01       		.byte	0x1
 1555 0a3a 54       		.byte	0x54
 1556 0a3b 92070000 		.4byte	0x792
 1557 0a3f 02       		.uleb128 0x2
 1558 0a40 91       		.byte	0x91
 1559 0a41 00       		.sleb128 0
 1560 0a42 1F       		.uleb128 0x1f
 1561 0a43 61726700 		.ascii	"arg\000"
 1562 0a47 01       		.byte	0x1
 1563 0a48 54       		.byte	0x54
 1564 0a49 21030000 		.4byte	0x321
 1565 0a4d 02       		.uleb128 0x2
 1566 0a4e 91       		.byte	0x91
 1567 0a4f 04       		.sleb128 4
 1568 0a50 20       		.uleb128 0x20
 1569 0a51 747000   		.ascii	"tp\000"
 1570 0a54 01       		.byte	0x1
 1571 0a55 55       		.byte	0x55
 1572 0a56 44020000 		.4byte	0x244
 1573 0a5a 89000000 		.4byte	.LLST4
 1574 0a5e 20       		.uleb128 0x20
 1575 0a5f 77737000 		.ascii	"wsp\000"
 1576 0a63 01       		.byte	0x1
 1577 0a64 56       		.byte	0x56
 1578 0a65 21030000 		.4byte	0x321
 1579 0a69 A7000000 		.4byte	.LLST5
 1580 0a6d 21       		.uleb128 0x21
 1581 0a6e 746400   		.ascii	"td\000"
 1582 0a71 01       		.byte	0x1
 1583 0a72 5D       		.byte	0x5d
 1584 0a73 EE070000 		.4byte	0x7ee
 1585 0a77 02       		.uleb128 0x2
 1586 0a78 91       		.byte	0x91
 1587 0a79 58       		.sleb128 -40
 1588 0a7a 22       		.uleb128 0x22
 1589 0a7b D7090000 		.4byte	0x9d7
 1590 0a7f 2C000000 		.4byte	.LBB24
 1591 0a83 0A000000 		.4byte	.LBE24-.LBB24
 1592 0a87 01       		.byte	0x1
 1593 0a88 6C       		.byte	0x6c
 1594 0a89 C60A0000 		.4byte	0xac6
 1595 0a8d 23       		.uleb128 0x23
 1596 0a8e 95090000 		.4byte	0x995
ARM GAS  /tmp/ccDU5ieD.s 			page 29


 1597 0a92 2C000000 		.4byte	.LBB26
 1598 0a96 06000000 		.4byte	.LBE26-.LBB26
 1599 0a9a 03       		.byte	0x3
 1600 0a9b 6301     		.2byte	0x163
 1601 0a9d BC0A0000 		.4byte	0xabc
 1602 0aa1 24       		.uleb128 0x24
 1603 0aa2 7B090000 		.4byte	0x97b
 1604 0aa6 2C000000 		.4byte	.LBB27
 1605 0aaa 06000000 		.4byte	.LBE27-.LBB27
 1606 0aae 0C       		.byte	0xc
 1607 0aaf 6202     		.2byte	0x262
 1608 0ab1 25       		.uleb128 0x25
 1609 0ab2 88090000 		.4byte	0x988
 1610 0ab6 BA000000 		.4byte	.LLST6
 1611 0aba 00       		.byte	0
 1612 0abb 00       		.byte	0
 1613 0abc 26       		.uleb128 0x26
 1614 0abd 36000000 		.4byte	.LVL5
 1615 0ac1 490D0000 		.4byte	0xd49
 1616 0ac5 00       		.byte	0
 1617 0ac6 22       		.uleb128 0x22
 1618 0ac7 A7090000 		.4byte	0x9a7
 1619 0acb 4A000000 		.4byte	.LBB29
 1620 0acf 0E000000 		.4byte	.LBE29-.LBB29
 1621 0ad3 01       		.byte	0x1
 1622 0ad4 70       		.byte	0x70
 1623 0ad5 210B0000 		.4byte	0xb21
 1624 0ad9 27       		.uleb128 0x27
 1625 0ada 4A000000 		.4byte	.LBB30
 1626 0ade 0E000000 		.4byte	.LBE30-.LBB30
 1627 0ae2 28       		.uleb128 0x28
 1628 0ae3 B4090000 		.4byte	0x9b4
 1629 0ae7 23       		.uleb128 0x23
 1630 0ae8 9E090000 		.4byte	0x99e
 1631 0aec 4E000000 		.4byte	.LBB31
 1632 0af0 0A000000 		.4byte	.LBE31-.LBB31
 1633 0af4 03       		.byte	0x3
 1634 0af5 7A01     		.2byte	0x17a
 1635 0af7 160B0000 		.4byte	0xb16
 1636 0afb 24       		.uleb128 0x24
 1637 0afc 7B090000 		.4byte	0x97b
 1638 0b00 4E000000 		.4byte	.LBB32
 1639 0b04 0A000000 		.4byte	.LBE32-.LBB32
 1640 0b08 0C       		.byte	0xc
 1641 0b09 7502     		.2byte	0x275
 1642 0b0b 25       		.uleb128 0x25
 1643 0b0c 88090000 		.4byte	0x988
 1644 0b10 CF000000 		.4byte	.LLST7
 1645 0b14 00       		.byte	0
 1646 0b15 00       		.byte	0
 1647 0b16 26       		.uleb128 0x26
 1648 0b17 4E000000 		.4byte	.LVL9
 1649 0b1b 540D0000 		.4byte	0xd54
 1650 0b1f 00       		.byte	0
 1651 0b20 00       		.byte	0
 1652 0b21 29       		.uleb128 0x29
 1653 0b22 10000000 		.4byte	.LVL2
ARM GAS  /tmp/ccDU5ieD.s 			page 30


 1654 0b26 5F0D0000 		.4byte	0xd5f
 1655 0b2a 410B0000 		.4byte	0xb41
 1656 0b2e 2A       		.uleb128 0x2a
 1657 0b2f 01       		.uleb128 0x1
 1658 0b30 50       		.byte	0x50
 1659 0b31 03       		.uleb128 0x3
 1660 0b32 F3       		.byte	0xf3
 1661 0b33 01       		.uleb128 0x1
 1662 0b34 50       		.byte	0x50
 1663 0b35 2A       		.uleb128 0x2a
 1664 0b36 01       		.uleb128 0x1
 1665 0b37 51       		.byte	0x51
 1666 0b38 02       		.uleb128 0x2
 1667 0b39 74       		.byte	0x74
 1668 0b3a 00       		.sleb128 0
 1669 0b3b 2A       		.uleb128 0x2a
 1670 0b3c 01       		.uleb128 0x1
 1671 0b3d 52       		.byte	0x52
 1672 0b3e 01       		.uleb128 0x1
 1673 0b3f 38       		.byte	0x38
 1674 0b40 00       		.byte	0
 1675 0b41 29       		.uleb128 0x29
 1676 0b42 2C000000 		.4byte	.LVL3
 1677 0b46 6A0D0000 		.4byte	0xd6a
 1678 0b4a 550B0000 		.4byte	0xb55
 1679 0b4e 2A       		.uleb128 0x2a
 1680 0b4f 01       		.uleb128 0x1
 1681 0b50 52       		.byte	0x52
 1682 0b51 02       		.uleb128 0x2
 1683 0b52 08       		.byte	0x8
 1684 0b53 55       		.byte	0x55
 1685 0b54 00       		.byte	0
 1686 0b55 29       		.uleb128 0x29
 1687 0b56 3C000000 		.4byte	.LVL6
 1688 0b5a 750D0000 		.4byte	0xd75
 1689 0b5e 690B0000 		.4byte	0xb69
 1690 0b62 2A       		.uleb128 0x2a
 1691 0b63 01       		.uleb128 0x1
 1692 0b64 50       		.byte	0x50
 1693 0b65 02       		.uleb128 0x2
 1694 0b66 7D       		.byte	0x7d
 1695 0b67 00       		.sleb128 0
 1696 0b68 00       		.byte	0
 1697 0b69 2B       		.uleb128 0x2b
 1698 0b6a 4A000000 		.4byte	.LVL8
 1699 0b6e 800D0000 		.4byte	0xd80
 1700 0b72 2A       		.uleb128 0x2a
 1701 0b73 01       		.uleb128 0x1
 1702 0b74 50       		.byte	0x50
 1703 0b75 02       		.uleb128 0x2
 1704 0b76 74       		.byte	0x74
 1705 0b77 00       		.sleb128 0
 1706 0b78 2A       		.uleb128 0x2a
 1707 0b79 01       		.uleb128 0x1
 1708 0b7a 51       		.byte	0x51
 1709 0b7b 01       		.uleb128 0x1
 1710 0b7c 30       		.byte	0x30
ARM GAS  /tmp/ccDU5ieD.s 			page 31


 1711 0b7d 00       		.byte	0
 1712 0b7e 00       		.byte	0
 1713 0b7f 1D       		.uleb128 0x1d
 1714 0b80 41040000 		.4byte	.LASF135
 1715 0b84 01       		.byte	0x1
 1716 0b85 91       		.byte	0x91
 1717 0b86 44020000 		.4byte	0x244
 1718 0b8a 00000000 		.4byte	.LFB291
 1719 0b8e 62000000 		.4byte	.LFE291-.LFB291
 1720 0b92 01       		.uleb128 0x1
 1721 0b93 9C       		.byte	0x9c
 1722 0b94 120D0000 		.4byte	0xd12
 1723 0b98 2C       		.uleb128 0x2c
 1724 0b99 6D7000   		.ascii	"mp\000"
 1725 0b9c 01       		.byte	0x1
 1726 0b9d 91       		.byte	0x91
 1727 0b9e 120D0000 		.4byte	0xd12
 1728 0ba2 E3000000 		.4byte	.LLST8
 1729 0ba6 1E       		.uleb128 0x1e
 1730 0ba7 66030000 		.4byte	.LASF34
 1731 0bab 01       		.byte	0x1
 1732 0bac 91       		.byte	0x91
 1733 0bad 6F070000 		.4byte	0x76f
 1734 0bb1 01010000 		.4byte	.LLST9
 1735 0bb5 1E       		.uleb128 0x1e
 1736 0bb6 80040000 		.4byte	.LASF31
 1737 0bba 01       		.byte	0x1
 1738 0bbb 92       		.byte	0x92
 1739 0bbc 0C010000 		.4byte	0x10c
 1740 0bc0 1F010000 		.4byte	.LLST10
 1741 0bc4 2C       		.uleb128 0x2c
 1742 0bc5 706600   		.ascii	"pf\000"
 1743 0bc8 01       		.byte	0x1
 1744 0bc9 92       		.byte	0x92
 1745 0bca 92070000 		.4byte	0x792
 1746 0bce 3D010000 		.4byte	.LLST11
 1747 0bd2 1F       		.uleb128 0x1f
 1748 0bd3 61726700 		.ascii	"arg\000"
 1749 0bd7 01       		.byte	0x1
 1750 0bd8 92       		.byte	0x92
 1751 0bd9 21030000 		.4byte	0x321
 1752 0bdd 02       		.uleb128 0x2
 1753 0bde 91       		.byte	0x91
 1754 0bdf 00       		.sleb128 0
 1755 0be0 20       		.uleb128 0x20
 1756 0be1 747000   		.ascii	"tp\000"
 1757 0be4 01       		.byte	0x1
 1758 0be5 93       		.byte	0x93
 1759 0be6 44020000 		.4byte	0x244
 1760 0bea 5B010000 		.4byte	.LLST12
 1761 0bee 20       		.uleb128 0x20
 1762 0bef 77737000 		.ascii	"wsp\000"
 1763 0bf3 01       		.byte	0x1
 1764 0bf4 94       		.byte	0x94
 1765 0bf5 21030000 		.4byte	0x321
 1766 0bf9 79010000 		.4byte	.LLST13
 1767 0bfd 2D       		.uleb128 0x2d
ARM GAS  /tmp/ccDU5ieD.s 			page 32


 1768 0bfe 22050000 		.4byte	.LASF149
 1769 0c02 280D0000 		.4byte	0xd28
 1770 0c06 21       		.uleb128 0x21
 1771 0c07 746400   		.ascii	"td\000"
 1772 0c0a 01       		.byte	0x1
 1773 0c0b 9D       		.byte	0x9d
 1774 0c0c EE070000 		.4byte	0x7ee
 1775 0c10 02       		.uleb128 0x2
 1776 0c11 91       		.byte	0x91
 1777 0c12 50       		.sleb128 -48
 1778 0c13 22       		.uleb128 0x22
 1779 0c14 D7090000 		.4byte	0x9d7
 1780 0c18 30000000 		.4byte	.LBB44
 1781 0c1c 0A000000 		.4byte	.LBE44-.LBB44
 1782 0c20 01       		.byte	0x1
 1783 0c21 AC       		.byte	0xac
 1784 0c22 5F0C0000 		.4byte	0xc5f
 1785 0c26 23       		.uleb128 0x23
 1786 0c27 95090000 		.4byte	0x995
 1787 0c2b 30000000 		.4byte	.LBB46
 1788 0c2f 06000000 		.4byte	.LBE46-.LBB46
 1789 0c33 03       		.byte	0x3
 1790 0c34 6301     		.2byte	0x163
 1791 0c36 550C0000 		.4byte	0xc55
 1792 0c3a 24       		.uleb128 0x24
 1793 0c3b 7B090000 		.4byte	0x97b
 1794 0c3f 30000000 		.4byte	.LBB47
 1795 0c43 06000000 		.4byte	.LBE47-.LBB47
 1796 0c47 0C       		.byte	0xc
 1797 0c48 6202     		.2byte	0x262
 1798 0c4a 25       		.uleb128 0x25
 1799 0c4b 88090000 		.4byte	0x988
 1800 0c4f 97010000 		.4byte	.LLST14
 1801 0c53 00       		.byte	0
 1802 0c54 00       		.byte	0
 1803 0c55 26       		.uleb128 0x26
 1804 0c56 3A000000 		.4byte	.LVL16
 1805 0c5a 490D0000 		.4byte	0xd49
 1806 0c5e 00       		.byte	0
 1807 0c5f 22       		.uleb128 0x22
 1808 0c60 A7090000 		.4byte	0x9a7
 1809 0c64 50000000 		.4byte	.LBB49
 1810 0c68 0A000000 		.4byte	.LBE49-.LBB49
 1811 0c6c 01       		.byte	0x1
 1812 0c6d B1       		.byte	0xb1
 1813 0c6e BA0C0000 		.4byte	0xcba
 1814 0c72 27       		.uleb128 0x27
 1815 0c73 50000000 		.4byte	.LBB50
 1816 0c77 0A000000 		.4byte	.LBE50-.LBB50
 1817 0c7b 28       		.uleb128 0x28
 1818 0c7c B4090000 		.4byte	0x9b4
 1819 0c80 23       		.uleb128 0x23
 1820 0c81 9E090000 		.4byte	0x99e
 1821 0c85 54000000 		.4byte	.LBB51
 1822 0c89 06000000 		.4byte	.LBE51-.LBB51
 1823 0c8d 03       		.byte	0x3
 1824 0c8e 7A01     		.2byte	0x17a
ARM GAS  /tmp/ccDU5ieD.s 			page 33


 1825 0c90 AF0C0000 		.4byte	0xcaf
 1826 0c94 24       		.uleb128 0x24
 1827 0c95 7B090000 		.4byte	0x97b
 1828 0c99 54000000 		.4byte	.LBB52
 1829 0c9d 06000000 		.4byte	.LBE52-.LBB52
 1830 0ca1 0C       		.byte	0xc
 1831 0ca2 7502     		.2byte	0x275
 1832 0ca4 25       		.uleb128 0x25
 1833 0ca5 88090000 		.4byte	0x988
 1834 0ca9 AC010000 		.4byte	.LLST15
 1835 0cad 00       		.byte	0
 1836 0cae 00       		.byte	0
 1837 0caf 26       		.uleb128 0x26
 1838 0cb0 54000000 		.4byte	.LVL20
 1839 0cb4 540D0000 		.4byte	0xd54
 1840 0cb8 00       		.byte	0
 1841 0cb9 00       		.byte	0
 1842 0cba 29       		.uleb128 0x29
 1843 0cbb 12000000 		.4byte	.LVL13
 1844 0cbf 8C0D0000 		.4byte	0xd8c
 1845 0cc3 CE0C0000 		.4byte	0xcce
 1846 0cc7 2A       		.uleb128 0x2a
 1847 0cc8 01       		.uleb128 0x1
 1848 0cc9 50       		.byte	0x50
 1849 0cca 02       		.uleb128 0x2
 1850 0ccb 75       		.byte	0x75
 1851 0ccc 00       		.sleb128 0
 1852 0ccd 00       		.byte	0
 1853 0cce 29       		.uleb128 0x29
 1854 0ccf 30000000 		.4byte	.LVL14
 1855 0cd3 6A0D0000 		.4byte	0xd6a
 1856 0cd7 E80C0000 		.4byte	0xce8
 1857 0cdb 2A       		.uleb128 0x2a
 1858 0cdc 01       		.uleb128 0x1
 1859 0cdd 50       		.byte	0x50
 1860 0cde 02       		.uleb128 0x2
 1861 0cdf 74       		.byte	0x74
 1862 0ce0 00       		.sleb128 0
 1863 0ce1 2A       		.uleb128 0x2a
 1864 0ce2 01       		.uleb128 0x1
 1865 0ce3 52       		.byte	0x52
 1866 0ce4 02       		.uleb128 0x2
 1867 0ce5 08       		.byte	0x8
 1868 0ce6 55       		.byte	0x55
 1869 0ce7 00       		.byte	0
 1870 0ce8 29       		.uleb128 0x29
 1871 0ce9 40000000 		.4byte	.LVL17
 1872 0ced 750D0000 		.4byte	0xd75
 1873 0cf1 FC0C0000 		.4byte	0xcfc
 1874 0cf5 2A       		.uleb128 0x2a
 1875 0cf6 01       		.uleb128 0x1
 1876 0cf7 50       		.byte	0x50
 1877 0cf8 02       		.uleb128 0x2
 1878 0cf9 7D       		.byte	0x7d
 1879 0cfa 00       		.sleb128 0
 1880 0cfb 00       		.byte	0
 1881 0cfc 2B       		.uleb128 0x2b
ARM GAS  /tmp/ccDU5ieD.s 			page 34


 1882 0cfd 50000000 		.4byte	.LVL19
 1883 0d01 800D0000 		.4byte	0xd80
 1884 0d05 2A       		.uleb128 0x2a
 1885 0d06 01       		.uleb128 0x1
 1886 0d07 50       		.byte	0x50
 1887 0d08 02       		.uleb128 0x2
 1888 0d09 74       		.byte	0x74
 1889 0d0a 00       		.sleb128 0
 1890 0d0b 2A       		.uleb128 0x2a
 1891 0d0c 01       		.uleb128 0x1
 1892 0d0d 51       		.byte	0x51
 1893 0d0e 01       		.uleb128 0x1
 1894 0d0f 30       		.byte	0x30
 1895 0d10 00       		.byte	0
 1896 0d11 00       		.byte	0
 1897 0d12 0A       		.uleb128 0xa
 1898 0d13 04       		.byte	0x4
 1899 0d14 70090000 		.4byte	0x970
 1900 0d18 1B       		.uleb128 0x1b
 1901 0d19 7C070000 		.4byte	0x77c
 1902 0d1d 280D0000 		.4byte	0xd28
 1903 0d21 1C       		.uleb128 0x1c
 1904 0d22 6C040000 		.4byte	0x46c
 1905 0d26 19       		.byte	0x19
 1906 0d27 00       		.byte	0
 1907 0d28 13       		.uleb128 0x13
 1908 0d29 180D0000 		.4byte	0xd18
 1909 0d2d 2E       		.uleb128 0x2e
 1910 0d2e F9010000 		.4byte	.LASF136
 1911 0d32 15       		.byte	0x15
 1912 0d33 0408     		.2byte	0x804
 1913 0d35 390D0000 		.4byte	0xd39
 1914 0d39 14       		.uleb128 0x14
 1915 0d3a B4000000 		.4byte	0xb4
 1916 0d3e 2F       		.uleb128 0x2f
 1917 0d3f 636800   		.ascii	"ch\000"
 1918 0d42 09       		.byte	0x9
 1919 0d43 C701     		.2byte	0x1c7
 1920 0d45 F0030000 		.4byte	0x3f0
 1921 0d49 30       		.uleb128 0x30
 1922 0d4a F3060000 		.4byte	.LASF137
 1923 0d4e F3060000 		.4byte	.LASF137
 1924 0d52 0E       		.byte	0xe
 1925 0d53 4F       		.byte	0x4f
 1926 0d54 30       		.uleb128 0x30
 1927 0d55 E5030000 		.4byte	.LASF138
 1928 0d59 E5030000 		.4byte	.LASF138
 1929 0d5d 0E       		.byte	0xe
 1930 0d5e 50       		.byte	0x50
 1931 0d5f 30       		.uleb128 0x30
 1932 0d60 58060000 		.4byte	.LASF139
 1933 0d64 58060000 		.4byte	.LASF139
 1934 0d68 13       		.byte	0x13
 1935 0d69 7F       		.byte	0x7f
 1936 0d6a 30       		.uleb128 0x30
 1937 0d6b 61050000 		.4byte	.LASF140
 1938 0d6f 61050000 		.4byte	.LASF140
ARM GAS  /tmp/ccDU5ieD.s 			page 35


 1939 0d73 11       		.byte	0x11
 1940 0d74 E1       		.byte	0xe1
 1941 0d75 30       		.uleb128 0x30
 1942 0d76 39020000 		.4byte	.LASF141
 1943 0d7a 39020000 		.4byte	.LASF141
 1944 0d7e 11       		.byte	0x11
 1945 0d7f E3       		.byte	0xe3
 1946 0d80 31       		.uleb128 0x31
 1947 0d81 95060000 		.4byte	.LASF142
 1948 0d85 95060000 		.4byte	.LASF142
 1949 0d89 09       		.byte	0x9
 1950 0d8a D501     		.2byte	0x1d5
 1951 0d8c 30       		.uleb128 0x30
 1952 0d8d E1060000 		.4byte	.LASF143
 1953 0d91 E1060000 		.4byte	.LASF143
 1954 0d95 14       		.byte	0x14
 1955 0d96 9A       		.byte	0x9a
 1956 0d97 00       		.byte	0
 1957              		.section	.debug_abbrev,"",%progbits
 1958              	.Ldebug_abbrev0:
 1959 0000 01       		.uleb128 0x1
 1960 0001 11       		.uleb128 0x11
 1961 0002 01       		.byte	0x1
 1962 0003 25       		.uleb128 0x25
 1963 0004 0E       		.uleb128 0xe
 1964 0005 13       		.uleb128 0x13
 1965 0006 0B       		.uleb128 0xb
 1966 0007 03       		.uleb128 0x3
 1967 0008 0E       		.uleb128 0xe
 1968 0009 1B       		.uleb128 0x1b
 1969 000a 0E       		.uleb128 0xe
 1970 000b 55       		.uleb128 0x55
 1971 000c 17       		.uleb128 0x17
 1972 000d 11       		.uleb128 0x11
 1973 000e 01       		.uleb128 0x1
 1974 000f 10       		.uleb128 0x10
 1975 0010 17       		.uleb128 0x17
 1976 0011 00       		.byte	0
 1977 0012 00       		.byte	0
 1978 0013 02       		.uleb128 0x2
 1979 0014 24       		.uleb128 0x24
 1980 0015 00       		.byte	0
 1981 0016 0B       		.uleb128 0xb
 1982 0017 0B       		.uleb128 0xb
 1983 0018 3E       		.uleb128 0x3e
 1984 0019 0B       		.uleb128 0xb
 1985 001a 03       		.uleb128 0x3
 1986 001b 08       		.uleb128 0x8
 1987 001c 00       		.byte	0
 1988 001d 00       		.byte	0
 1989 001e 03       		.uleb128 0x3
 1990 001f 16       		.uleb128 0x16
 1991 0020 00       		.byte	0
 1992 0021 03       		.uleb128 0x3
 1993 0022 0E       		.uleb128 0xe
 1994 0023 3A       		.uleb128 0x3a
 1995 0024 0B       		.uleb128 0xb
ARM GAS  /tmp/ccDU5ieD.s 			page 36


 1996 0025 3B       		.uleb128 0x3b
 1997 0026 0B       		.uleb128 0xb
 1998 0027 49       		.uleb128 0x49
 1999 0028 13       		.uleb128 0x13
 2000 0029 00       		.byte	0
 2001 002a 00       		.byte	0
 2002 002b 04       		.uleb128 0x4
 2003 002c 24       		.uleb128 0x24
 2004 002d 00       		.byte	0
 2005 002e 0B       		.uleb128 0xb
 2006 002f 0B       		.uleb128 0xb
 2007 0030 3E       		.uleb128 0x3e
 2008 0031 0B       		.uleb128 0xb
 2009 0032 03       		.uleb128 0x3
 2010 0033 0E       		.uleb128 0xe
 2011 0034 00       		.byte	0
 2012 0035 00       		.byte	0
 2013 0036 05       		.uleb128 0x5
 2014 0037 13       		.uleb128 0x13
 2015 0038 01       		.byte	0x1
 2016 0039 03       		.uleb128 0x3
 2017 003a 0E       		.uleb128 0xe
 2018 003b 0B       		.uleb128 0xb
 2019 003c 0B       		.uleb128 0xb
 2020 003d 3A       		.uleb128 0x3a
 2021 003e 0B       		.uleb128 0xb
 2022 003f 3B       		.uleb128 0x3b
 2023 0040 0B       		.uleb128 0xb
 2024 0041 01       		.uleb128 0x1
 2025 0042 13       		.uleb128 0x13
 2026 0043 00       		.byte	0
 2027 0044 00       		.byte	0
 2028 0045 06       		.uleb128 0x6
 2029 0046 0D       		.uleb128 0xd
 2030 0047 00       		.byte	0
 2031 0048 03       		.uleb128 0x3
 2032 0049 0E       		.uleb128 0xe
 2033 004a 3A       		.uleb128 0x3a
 2034 004b 0B       		.uleb128 0xb
 2035 004c 3B       		.uleb128 0x3b
 2036 004d 0B       		.uleb128 0xb
 2037 004e 49       		.uleb128 0x49
 2038 004f 13       		.uleb128 0x13
 2039 0050 38       		.uleb128 0x38
 2040 0051 0B       		.uleb128 0xb
 2041 0052 00       		.byte	0
 2042 0053 00       		.byte	0
 2043 0054 07       		.uleb128 0x7
 2044 0055 0D       		.uleb128 0xd
 2045 0056 00       		.byte	0
 2046 0057 03       		.uleb128 0x3
 2047 0058 08       		.uleb128 0x8
 2048 0059 3A       		.uleb128 0x3a
 2049 005a 0B       		.uleb128 0xb
 2050 005b 3B       		.uleb128 0x3b
 2051 005c 0B       		.uleb128 0xb
 2052 005d 49       		.uleb128 0x49
ARM GAS  /tmp/ccDU5ieD.s 			page 37


 2053 005e 13       		.uleb128 0x13
 2054 005f 38       		.uleb128 0x38
 2055 0060 0B       		.uleb128 0xb
 2056 0061 00       		.byte	0
 2057 0062 00       		.byte	0
 2058 0063 08       		.uleb128 0x8
 2059 0064 0D       		.uleb128 0xd
 2060 0065 00       		.byte	0
 2061 0066 03       		.uleb128 0x3
 2062 0067 08       		.uleb128 0x8
 2063 0068 3A       		.uleb128 0x3a
 2064 0069 0B       		.uleb128 0xb
 2065 006a 3B       		.uleb128 0x3b
 2066 006b 05       		.uleb128 0x5
 2067 006c 49       		.uleb128 0x49
 2068 006d 13       		.uleb128 0x13
 2069 006e 38       		.uleb128 0x38
 2070 006f 0B       		.uleb128 0xb
 2071 0070 00       		.byte	0
 2072 0071 00       		.byte	0
 2073 0072 09       		.uleb128 0x9
 2074 0073 0D       		.uleb128 0xd
 2075 0074 00       		.byte	0
 2076 0075 03       		.uleb128 0x3
 2077 0076 0E       		.uleb128 0xe
 2078 0077 3A       		.uleb128 0x3a
 2079 0078 0B       		.uleb128 0xb
 2080 0079 3B       		.uleb128 0x3b
 2081 007a 05       		.uleb128 0x5
 2082 007b 49       		.uleb128 0x49
 2083 007c 13       		.uleb128 0x13
 2084 007d 38       		.uleb128 0x38
 2085 007e 0B       		.uleb128 0xb
 2086 007f 00       		.byte	0
 2087 0080 00       		.byte	0
 2088 0081 0A       		.uleb128 0xa
 2089 0082 0F       		.uleb128 0xf
 2090 0083 00       		.byte	0
 2091 0084 0B       		.uleb128 0xb
 2092 0085 0B       		.uleb128 0xb
 2093 0086 49       		.uleb128 0x49
 2094 0087 13       		.uleb128 0x13
 2095 0088 00       		.byte	0
 2096 0089 00       		.byte	0
 2097 008a 0B       		.uleb128 0xb
 2098 008b 13       		.uleb128 0x13
 2099 008c 01       		.byte	0x1
 2100 008d 03       		.uleb128 0x3
 2101 008e 0E       		.uleb128 0xe
 2102 008f 0B       		.uleb128 0xb
 2103 0090 0B       		.uleb128 0xb
 2104 0091 3A       		.uleb128 0x3a
 2105 0092 0B       		.uleb128 0xb
 2106 0093 3B       		.uleb128 0x3b
 2107 0094 05       		.uleb128 0x5
 2108 0095 01       		.uleb128 0x1
 2109 0096 13       		.uleb128 0x13
ARM GAS  /tmp/ccDU5ieD.s 			page 38


 2110 0097 00       		.byte	0
 2111 0098 00       		.byte	0
 2112 0099 0C       		.uleb128 0xc
 2113 009a 15       		.uleb128 0x15
 2114 009b 01       		.byte	0x1
 2115 009c 27       		.uleb128 0x27
 2116 009d 19       		.uleb128 0x19
 2117 009e 01       		.uleb128 0x1
 2118 009f 13       		.uleb128 0x13
 2119 00a0 00       		.byte	0
 2120 00a1 00       		.byte	0
 2121 00a2 0D       		.uleb128 0xd
 2122 00a3 05       		.uleb128 0x5
 2123 00a4 00       		.byte	0
 2124 00a5 49       		.uleb128 0x49
 2125 00a6 13       		.uleb128 0x13
 2126 00a7 00       		.byte	0
 2127 00a8 00       		.byte	0
 2128 00a9 0E       		.uleb128 0xe
 2129 00aa 0F       		.uleb128 0xf
 2130 00ab 00       		.byte	0
 2131 00ac 0B       		.uleb128 0xb
 2132 00ad 0B       		.uleb128 0xb
 2133 00ae 00       		.byte	0
 2134 00af 00       		.byte	0
 2135 00b0 0F       		.uleb128 0xf
 2136 00b1 13       		.uleb128 0x13
 2137 00b2 01       		.byte	0x1
 2138 00b3 0B       		.uleb128 0xb
 2139 00b4 0B       		.uleb128 0xb
 2140 00b5 3A       		.uleb128 0x3a
 2141 00b6 0B       		.uleb128 0xb
 2142 00b7 3B       		.uleb128 0x3b
 2143 00b8 0B       		.uleb128 0xb
 2144 00b9 01       		.uleb128 0x1
 2145 00ba 13       		.uleb128 0x13
 2146 00bb 00       		.byte	0
 2147 00bc 00       		.byte	0
 2148 00bd 10       		.uleb128 0x10
 2149 00be 17       		.uleb128 0x17
 2150 00bf 01       		.byte	0x1
 2151 00c0 0B       		.uleb128 0xb
 2152 00c1 0B       		.uleb128 0xb
 2153 00c2 3A       		.uleb128 0x3a
 2154 00c3 0B       		.uleb128 0xb
 2155 00c4 3B       		.uleb128 0x3b
 2156 00c5 0B       		.uleb128 0xb
 2157 00c6 01       		.uleb128 0x1
 2158 00c7 13       		.uleb128 0x13
 2159 00c8 00       		.byte	0
 2160 00c9 00       		.byte	0
 2161 00ca 11       		.uleb128 0x11
 2162 00cb 0D       		.uleb128 0xd
 2163 00cc 00       		.byte	0
 2164 00cd 03       		.uleb128 0x3
 2165 00ce 0E       		.uleb128 0xe
 2166 00cf 3A       		.uleb128 0x3a
ARM GAS  /tmp/ccDU5ieD.s 			page 39


 2167 00d0 0B       		.uleb128 0xb
 2168 00d1 3B       		.uleb128 0x3b
 2169 00d2 0B       		.uleb128 0xb
 2170 00d3 49       		.uleb128 0x49
 2171 00d4 13       		.uleb128 0x13
 2172 00d5 00       		.byte	0
 2173 00d6 00       		.byte	0
 2174 00d7 12       		.uleb128 0x12
 2175 00d8 0D       		.uleb128 0xd
 2176 00d9 00       		.byte	0
 2177 00da 03       		.uleb128 0x3
 2178 00db 0E       		.uleb128 0xe
 2179 00dc 3A       		.uleb128 0x3a
 2180 00dd 0B       		.uleb128 0xb
 2181 00de 3B       		.uleb128 0x3b
 2182 00df 05       		.uleb128 0x5
 2183 00e0 49       		.uleb128 0x49
 2184 00e1 13       		.uleb128 0x13
 2185 00e2 00       		.byte	0
 2186 00e3 00       		.byte	0
 2187 00e4 13       		.uleb128 0x13
 2188 00e5 26       		.uleb128 0x26
 2189 00e6 00       		.byte	0
 2190 00e7 49       		.uleb128 0x49
 2191 00e8 13       		.uleb128 0x13
 2192 00e9 00       		.byte	0
 2193 00ea 00       		.byte	0
 2194 00eb 14       		.uleb128 0x14
 2195 00ec 35       		.uleb128 0x35
 2196 00ed 00       		.byte	0
 2197 00ee 49       		.uleb128 0x49
 2198 00ef 13       		.uleb128 0x13
 2199 00f0 00       		.byte	0
 2200 00f1 00       		.byte	0
 2201 00f2 15       		.uleb128 0x15
 2202 00f3 15       		.uleb128 0x15
 2203 00f4 01       		.byte	0x1
 2204 00f5 27       		.uleb128 0x27
 2205 00f6 19       		.uleb128 0x19
 2206 00f7 49       		.uleb128 0x49
 2207 00f8 13       		.uleb128 0x13
 2208 00f9 01       		.uleb128 0x1
 2209 00fa 13       		.uleb128 0x13
 2210 00fb 00       		.byte	0
 2211 00fc 00       		.byte	0
 2212 00fd 16       		.uleb128 0x16
 2213 00fe 17       		.uleb128 0x17
 2214 00ff 01       		.byte	0x1
 2215 0100 03       		.uleb128 0x3
 2216 0101 0E       		.uleb128 0xe
 2217 0102 0B       		.uleb128 0xb
 2218 0103 0B       		.uleb128 0xb
 2219 0104 3A       		.uleb128 0x3a
 2220 0105 0B       		.uleb128 0xb
 2221 0106 3B       		.uleb128 0x3b
 2222 0107 0B       		.uleb128 0xb
 2223 0108 01       		.uleb128 0x1
ARM GAS  /tmp/ccDU5ieD.s 			page 40


 2224 0109 13       		.uleb128 0x13
 2225 010a 00       		.byte	0
 2226 010b 00       		.byte	0
 2227 010c 17       		.uleb128 0x17
 2228 010d 2E       		.uleb128 0x2e
 2229 010e 01       		.byte	0x1
 2230 010f 03       		.uleb128 0x3
 2231 0110 0E       		.uleb128 0xe
 2232 0111 3A       		.uleb128 0x3a
 2233 0112 0B       		.uleb128 0xb
 2234 0113 3B       		.uleb128 0x3b
 2235 0114 05       		.uleb128 0x5
 2236 0115 27       		.uleb128 0x27
 2237 0116 19       		.uleb128 0x19
 2238 0117 20       		.uleb128 0x20
 2239 0118 0B       		.uleb128 0xb
 2240 0119 01       		.uleb128 0x1
 2241 011a 13       		.uleb128 0x13
 2242 011b 00       		.byte	0
 2243 011c 00       		.byte	0
 2244 011d 18       		.uleb128 0x18
 2245 011e 05       		.uleb128 0x5
 2246 011f 00       		.byte	0
 2247 0120 03       		.uleb128 0x3
 2248 0121 0E       		.uleb128 0xe
 2249 0122 3A       		.uleb128 0x3a
 2250 0123 0B       		.uleb128 0xb
 2251 0124 3B       		.uleb128 0x3b
 2252 0125 05       		.uleb128 0x5
 2253 0126 49       		.uleb128 0x49
 2254 0127 13       		.uleb128 0x13
 2255 0128 00       		.byte	0
 2256 0129 00       		.byte	0
 2257 012a 19       		.uleb128 0x19
 2258 012b 2E       		.uleb128 0x2e
 2259 012c 00       		.byte	0
 2260 012d 03       		.uleb128 0x3
 2261 012e 0E       		.uleb128 0xe
 2262 012f 3A       		.uleb128 0x3a
 2263 0130 0B       		.uleb128 0xb
 2264 0131 3B       		.uleb128 0x3b
 2265 0132 05       		.uleb128 0x5
 2266 0133 27       		.uleb128 0x27
 2267 0134 19       		.uleb128 0x19
 2268 0135 20       		.uleb128 0x20
 2269 0136 0B       		.uleb128 0xb
 2270 0137 00       		.byte	0
 2271 0138 00       		.byte	0
 2272 0139 1A       		.uleb128 0x1a
 2273 013a 34       		.uleb128 0x34
 2274 013b 00       		.byte	0
 2275 013c 03       		.uleb128 0x3
 2276 013d 0E       		.uleb128 0xe
 2277 013e 49       		.uleb128 0x49
 2278 013f 13       		.uleb128 0x13
 2279 0140 34       		.uleb128 0x34
 2280 0141 19       		.uleb128 0x19
ARM GAS  /tmp/ccDU5ieD.s 			page 41


 2281 0142 1C       		.uleb128 0x1c
 2282 0143 0E       		.uleb128 0xe
 2283 0144 00       		.byte	0
 2284 0145 00       		.byte	0
 2285 0146 1B       		.uleb128 0x1b
 2286 0147 01       		.uleb128 0x1
 2287 0148 01       		.byte	0x1
 2288 0149 49       		.uleb128 0x49
 2289 014a 13       		.uleb128 0x13
 2290 014b 01       		.uleb128 0x1
 2291 014c 13       		.uleb128 0x13
 2292 014d 00       		.byte	0
 2293 014e 00       		.byte	0
 2294 014f 1C       		.uleb128 0x1c
 2295 0150 21       		.uleb128 0x21
 2296 0151 00       		.byte	0
 2297 0152 49       		.uleb128 0x49
 2298 0153 13       		.uleb128 0x13
 2299 0154 2F       		.uleb128 0x2f
 2300 0155 0B       		.uleb128 0xb
 2301 0156 00       		.byte	0
 2302 0157 00       		.byte	0
 2303 0158 1D       		.uleb128 0x1d
 2304 0159 2E       		.uleb128 0x2e
 2305 015a 01       		.byte	0x1
 2306 015b 3F       		.uleb128 0x3f
 2307 015c 19       		.uleb128 0x19
 2308 015d 03       		.uleb128 0x3
 2309 015e 0E       		.uleb128 0xe
 2310 015f 3A       		.uleb128 0x3a
 2311 0160 0B       		.uleb128 0xb
 2312 0161 3B       		.uleb128 0x3b
 2313 0162 0B       		.uleb128 0xb
 2314 0163 27       		.uleb128 0x27
 2315 0164 19       		.uleb128 0x19
 2316 0165 49       		.uleb128 0x49
 2317 0166 13       		.uleb128 0x13
 2318 0167 11       		.uleb128 0x11
 2319 0168 01       		.uleb128 0x1
 2320 0169 12       		.uleb128 0x12
 2321 016a 06       		.uleb128 0x6
 2322 016b 40       		.uleb128 0x40
 2323 016c 18       		.uleb128 0x18
 2324 016d 9742     		.uleb128 0x2117
 2325 016f 19       		.uleb128 0x19
 2326 0170 01       		.uleb128 0x1
 2327 0171 13       		.uleb128 0x13
 2328 0172 00       		.byte	0
 2329 0173 00       		.byte	0
 2330 0174 1E       		.uleb128 0x1e
 2331 0175 05       		.uleb128 0x5
 2332 0176 00       		.byte	0
 2333 0177 03       		.uleb128 0x3
 2334 0178 0E       		.uleb128 0xe
 2335 0179 3A       		.uleb128 0x3a
 2336 017a 0B       		.uleb128 0xb
 2337 017b 3B       		.uleb128 0x3b
ARM GAS  /tmp/ccDU5ieD.s 			page 42


 2338 017c 0B       		.uleb128 0xb
 2339 017d 49       		.uleb128 0x49
 2340 017e 13       		.uleb128 0x13
 2341 017f 02       		.uleb128 0x2
 2342 0180 17       		.uleb128 0x17
 2343 0181 00       		.byte	0
 2344 0182 00       		.byte	0
 2345 0183 1F       		.uleb128 0x1f
 2346 0184 05       		.uleb128 0x5
 2347 0185 00       		.byte	0
 2348 0186 03       		.uleb128 0x3
 2349 0187 08       		.uleb128 0x8
 2350 0188 3A       		.uleb128 0x3a
 2351 0189 0B       		.uleb128 0xb
 2352 018a 3B       		.uleb128 0x3b
 2353 018b 0B       		.uleb128 0xb
 2354 018c 49       		.uleb128 0x49
 2355 018d 13       		.uleb128 0x13
 2356 018e 02       		.uleb128 0x2
 2357 018f 18       		.uleb128 0x18
 2358 0190 00       		.byte	0
 2359 0191 00       		.byte	0
 2360 0192 20       		.uleb128 0x20
 2361 0193 34       		.uleb128 0x34
 2362 0194 00       		.byte	0
 2363 0195 03       		.uleb128 0x3
 2364 0196 08       		.uleb128 0x8
 2365 0197 3A       		.uleb128 0x3a
 2366 0198 0B       		.uleb128 0xb
 2367 0199 3B       		.uleb128 0x3b
 2368 019a 0B       		.uleb128 0xb
 2369 019b 49       		.uleb128 0x49
 2370 019c 13       		.uleb128 0x13
 2371 019d 02       		.uleb128 0x2
 2372 019e 17       		.uleb128 0x17
 2373 019f 00       		.byte	0
 2374 01a0 00       		.byte	0
 2375 01a1 21       		.uleb128 0x21
 2376 01a2 34       		.uleb128 0x34
 2377 01a3 00       		.byte	0
 2378 01a4 03       		.uleb128 0x3
 2379 01a5 08       		.uleb128 0x8
 2380 01a6 3A       		.uleb128 0x3a
 2381 01a7 0B       		.uleb128 0xb
 2382 01a8 3B       		.uleb128 0x3b
 2383 01a9 0B       		.uleb128 0xb
 2384 01aa 49       		.uleb128 0x49
 2385 01ab 13       		.uleb128 0x13
 2386 01ac 02       		.uleb128 0x2
 2387 01ad 18       		.uleb128 0x18
 2388 01ae 00       		.byte	0
 2389 01af 00       		.byte	0
 2390 01b0 22       		.uleb128 0x22
 2391 01b1 1D       		.uleb128 0x1d
 2392 01b2 01       		.byte	0x1
 2393 01b3 31       		.uleb128 0x31
 2394 01b4 13       		.uleb128 0x13
ARM GAS  /tmp/ccDU5ieD.s 			page 43


 2395 01b5 11       		.uleb128 0x11
 2396 01b6 01       		.uleb128 0x1
 2397 01b7 12       		.uleb128 0x12
 2398 01b8 06       		.uleb128 0x6
 2399 01b9 58       		.uleb128 0x58
 2400 01ba 0B       		.uleb128 0xb
 2401 01bb 59       		.uleb128 0x59
 2402 01bc 0B       		.uleb128 0xb
 2403 01bd 01       		.uleb128 0x1
 2404 01be 13       		.uleb128 0x13
 2405 01bf 00       		.byte	0
 2406 01c0 00       		.byte	0
 2407 01c1 23       		.uleb128 0x23
 2408 01c2 1D       		.uleb128 0x1d
 2409 01c3 01       		.byte	0x1
 2410 01c4 31       		.uleb128 0x31
 2411 01c5 13       		.uleb128 0x13
 2412 01c6 11       		.uleb128 0x11
 2413 01c7 01       		.uleb128 0x1
 2414 01c8 12       		.uleb128 0x12
 2415 01c9 06       		.uleb128 0x6
 2416 01ca 58       		.uleb128 0x58
 2417 01cb 0B       		.uleb128 0xb
 2418 01cc 59       		.uleb128 0x59
 2419 01cd 05       		.uleb128 0x5
 2420 01ce 01       		.uleb128 0x1
 2421 01cf 13       		.uleb128 0x13
 2422 01d0 00       		.byte	0
 2423 01d1 00       		.byte	0
 2424 01d2 24       		.uleb128 0x24
 2425 01d3 1D       		.uleb128 0x1d
 2426 01d4 01       		.byte	0x1
 2427 01d5 31       		.uleb128 0x31
 2428 01d6 13       		.uleb128 0x13
 2429 01d7 11       		.uleb128 0x11
 2430 01d8 01       		.uleb128 0x1
 2431 01d9 12       		.uleb128 0x12
 2432 01da 06       		.uleb128 0x6
 2433 01db 58       		.uleb128 0x58
 2434 01dc 0B       		.uleb128 0xb
 2435 01dd 59       		.uleb128 0x59
 2436 01de 05       		.uleb128 0x5
 2437 01df 00       		.byte	0
 2438 01e0 00       		.byte	0
 2439 01e1 25       		.uleb128 0x25
 2440 01e2 05       		.uleb128 0x5
 2441 01e3 00       		.byte	0
 2442 01e4 31       		.uleb128 0x31
 2443 01e5 13       		.uleb128 0x13
 2444 01e6 02       		.uleb128 0x2
 2445 01e7 17       		.uleb128 0x17
 2446 01e8 00       		.byte	0
 2447 01e9 00       		.byte	0
 2448 01ea 26       		.uleb128 0x26
 2449 01eb 898201   		.uleb128 0x4109
 2450 01ee 00       		.byte	0
 2451 01ef 11       		.uleb128 0x11
ARM GAS  /tmp/ccDU5ieD.s 			page 44


 2452 01f0 01       		.uleb128 0x1
 2453 01f1 31       		.uleb128 0x31
 2454 01f2 13       		.uleb128 0x13
 2455 01f3 00       		.byte	0
 2456 01f4 00       		.byte	0
 2457 01f5 27       		.uleb128 0x27
 2458 01f6 0B       		.uleb128 0xb
 2459 01f7 01       		.byte	0x1
 2460 01f8 11       		.uleb128 0x11
 2461 01f9 01       		.uleb128 0x1
 2462 01fa 12       		.uleb128 0x12
 2463 01fb 06       		.uleb128 0x6
 2464 01fc 00       		.byte	0
 2465 01fd 00       		.byte	0
 2466 01fe 28       		.uleb128 0x28
 2467 01ff 34       		.uleb128 0x34
 2468 0200 00       		.byte	0
 2469 0201 31       		.uleb128 0x31
 2470 0202 13       		.uleb128 0x13
 2471 0203 00       		.byte	0
 2472 0204 00       		.byte	0
 2473 0205 29       		.uleb128 0x29
 2474 0206 898201   		.uleb128 0x4109
 2475 0209 01       		.byte	0x1
 2476 020a 11       		.uleb128 0x11
 2477 020b 01       		.uleb128 0x1
 2478 020c 31       		.uleb128 0x31
 2479 020d 13       		.uleb128 0x13
 2480 020e 01       		.uleb128 0x1
 2481 020f 13       		.uleb128 0x13
 2482 0210 00       		.byte	0
 2483 0211 00       		.byte	0
 2484 0212 2A       		.uleb128 0x2a
 2485 0213 8A8201   		.uleb128 0x410a
 2486 0216 00       		.byte	0
 2487 0217 02       		.uleb128 0x2
 2488 0218 18       		.uleb128 0x18
 2489 0219 9142     		.uleb128 0x2111
 2490 021b 18       		.uleb128 0x18
 2491 021c 00       		.byte	0
 2492 021d 00       		.byte	0
 2493 021e 2B       		.uleb128 0x2b
 2494 021f 898201   		.uleb128 0x4109
 2495 0222 01       		.byte	0x1
 2496 0223 11       		.uleb128 0x11
 2497 0224 01       		.uleb128 0x1
 2498 0225 31       		.uleb128 0x31
 2499 0226 13       		.uleb128 0x13
 2500 0227 00       		.byte	0
 2501 0228 00       		.byte	0
 2502 0229 2C       		.uleb128 0x2c
 2503 022a 05       		.uleb128 0x5
 2504 022b 00       		.byte	0
 2505 022c 03       		.uleb128 0x3
 2506 022d 08       		.uleb128 0x8
 2507 022e 3A       		.uleb128 0x3a
 2508 022f 0B       		.uleb128 0xb
ARM GAS  /tmp/ccDU5ieD.s 			page 45


 2509 0230 3B       		.uleb128 0x3b
 2510 0231 0B       		.uleb128 0xb
 2511 0232 49       		.uleb128 0x49
 2512 0233 13       		.uleb128 0x13
 2513 0234 02       		.uleb128 0x2
 2514 0235 17       		.uleb128 0x17
 2515 0236 00       		.byte	0
 2516 0237 00       		.byte	0
 2517 0238 2D       		.uleb128 0x2d
 2518 0239 34       		.uleb128 0x34
 2519 023a 00       		.byte	0
 2520 023b 03       		.uleb128 0x3
 2521 023c 0E       		.uleb128 0xe
 2522 023d 49       		.uleb128 0x49
 2523 023e 13       		.uleb128 0x13
 2524 023f 34       		.uleb128 0x34
 2525 0240 19       		.uleb128 0x19
 2526 0241 00       		.byte	0
 2527 0242 00       		.byte	0
 2528 0243 2E       		.uleb128 0x2e
 2529 0244 34       		.uleb128 0x34
 2530 0245 00       		.byte	0
 2531 0246 03       		.uleb128 0x3
 2532 0247 0E       		.uleb128 0xe
 2533 0248 3A       		.uleb128 0x3a
 2534 0249 0B       		.uleb128 0xb
 2535 024a 3B       		.uleb128 0x3b
 2536 024b 05       		.uleb128 0x5
 2537 024c 49       		.uleb128 0x49
 2538 024d 13       		.uleb128 0x13
 2539 024e 3F       		.uleb128 0x3f
 2540 024f 19       		.uleb128 0x19
 2541 0250 3C       		.uleb128 0x3c
 2542 0251 19       		.uleb128 0x19
 2543 0252 00       		.byte	0
 2544 0253 00       		.byte	0
 2545 0254 2F       		.uleb128 0x2f
 2546 0255 34       		.uleb128 0x34
 2547 0256 00       		.byte	0
 2548 0257 03       		.uleb128 0x3
 2549 0258 08       		.uleb128 0x8
 2550 0259 3A       		.uleb128 0x3a
 2551 025a 0B       		.uleb128 0xb
 2552 025b 3B       		.uleb128 0x3b
 2553 025c 05       		.uleb128 0x5
 2554 025d 49       		.uleb128 0x49
 2555 025e 13       		.uleb128 0x13
 2556 025f 3F       		.uleb128 0x3f
 2557 0260 19       		.uleb128 0x19
 2558 0261 3C       		.uleb128 0x3c
 2559 0262 19       		.uleb128 0x19
 2560 0263 00       		.byte	0
 2561 0264 00       		.byte	0
 2562 0265 30       		.uleb128 0x30
 2563 0266 2E       		.uleb128 0x2e
 2564 0267 00       		.byte	0
 2565 0268 3F       		.uleb128 0x3f
ARM GAS  /tmp/ccDU5ieD.s 			page 46


 2566 0269 19       		.uleb128 0x19
 2567 026a 3C       		.uleb128 0x3c
 2568 026b 19       		.uleb128 0x19
 2569 026c 6E       		.uleb128 0x6e
 2570 026d 0E       		.uleb128 0xe
 2571 026e 03       		.uleb128 0x3
 2572 026f 0E       		.uleb128 0xe
 2573 0270 3A       		.uleb128 0x3a
 2574 0271 0B       		.uleb128 0xb
 2575 0272 3B       		.uleb128 0x3b
 2576 0273 0B       		.uleb128 0xb
 2577 0274 00       		.byte	0
 2578 0275 00       		.byte	0
 2579 0276 31       		.uleb128 0x31
 2580 0277 2E       		.uleb128 0x2e
 2581 0278 00       		.byte	0
 2582 0279 3F       		.uleb128 0x3f
 2583 027a 19       		.uleb128 0x19
 2584 027b 3C       		.uleb128 0x3c
 2585 027c 19       		.uleb128 0x19
 2586 027d 6E       		.uleb128 0x6e
 2587 027e 0E       		.uleb128 0xe
 2588 027f 03       		.uleb128 0x3
 2589 0280 0E       		.uleb128 0xe
 2590 0281 3A       		.uleb128 0x3a
 2591 0282 0B       		.uleb128 0xb
 2592 0283 3B       		.uleb128 0x3b
 2593 0284 05       		.uleb128 0x5
 2594 0285 00       		.byte	0
 2595 0286 00       		.byte	0
 2596 0287 00       		.byte	0
 2597              		.section	.debug_loc,"",%progbits
 2598              	.Ldebug_loc0:
 2599              	.LLST0:
 2600 0000 00000000 		.4byte	.LVL0
 2601 0004 0F000000 		.4byte	.LVL2-1
 2602 0008 0100     		.2byte	0x1
 2603 000a 50       		.byte	0x50
 2604 000b 0F000000 		.4byte	.LVL2-1
 2605 000f 5C000000 		.4byte	.LFE290
 2606 0013 0400     		.2byte	0x4
 2607 0015 F3       		.byte	0xf3
 2608 0016 01       		.uleb128 0x1
 2609 0017 50       		.byte	0x50
 2610 0018 9F       		.byte	0x9f
 2611 0019 00000000 		.4byte	0
 2612 001d 00000000 		.4byte	0
 2613              	.LLST1:
 2614 0021 00000000 		.4byte	.LVL0
 2615 0025 0F000000 		.4byte	.LVL2-1
 2616 0029 0100     		.2byte	0x1
 2617 002b 51       		.byte	0x51
 2618 002c 0F000000 		.4byte	.LVL2-1
 2619 0030 46000000 		.4byte	.LVL7
 2620 0034 0100     		.2byte	0x1
 2621 0036 54       		.byte	0x54
 2622 0037 46000000 		.4byte	.LVL7
ARM GAS  /tmp/ccDU5ieD.s 			page 47


 2623 003b 5C000000 		.4byte	.LFE290
 2624 003f 0400     		.2byte	0x4
 2625 0041 F3       		.byte	0xf3
 2626 0042 01       		.uleb128 0x1
 2627 0043 51       		.byte	0x51
 2628 0044 9F       		.byte	0x9f
 2629 0045 00000000 		.4byte	0
 2630 0049 00000000 		.4byte	0
 2631              	.LLST2:
 2632 004d 00000000 		.4byte	.LVL0
 2633 0051 08000000 		.4byte	.LVL1
 2634 0055 0100     		.2byte	0x1
 2635 0057 52       		.byte	0x52
 2636 0058 08000000 		.4byte	.LVL1
 2637 005c 5C000000 		.4byte	.LFE290
 2638 0060 0100     		.2byte	0x1
 2639 0062 56       		.byte	0x56
 2640 0063 00000000 		.4byte	0
 2641 0067 00000000 		.4byte	0
 2642              	.LLST3:
 2643 006b 00000000 		.4byte	.LVL0
 2644 006f 0F000000 		.4byte	.LVL2-1
 2645 0073 0100     		.2byte	0x1
 2646 0075 53       		.byte	0x53
 2647 0076 0F000000 		.4byte	.LVL2-1
 2648 007a 5C000000 		.4byte	.LFE290
 2649 007e 0100     		.2byte	0x1
 2650 0080 55       		.byte	0x55
 2651 0081 00000000 		.4byte	0
 2652 0085 00000000 		.4byte	0
 2653              	.LLST4:
 2654 0089 46000000 		.4byte	.LVL7
 2655 008d 49000000 		.4byte	.LVL8-1
 2656 0091 0100     		.2byte	0x1
 2657 0093 50       		.byte	0x50
 2658 0094 49000000 		.4byte	.LVL8-1
 2659 0098 58000000 		.4byte	.LVL11
 2660 009c 0100     		.2byte	0x1
 2661 009e 54       		.byte	0x54
 2662 009f 00000000 		.4byte	0
 2663 00a3 00000000 		.4byte	0
 2664              	.LLST5:
 2665 00a7 10000000 		.4byte	.LVL2
 2666 00ab 2B000000 		.4byte	.LVL3-1
 2667 00af 0100     		.2byte	0x1
 2668 00b1 50       		.byte	0x50
 2669 00b2 00000000 		.4byte	0
 2670 00b6 00000000 		.4byte	0
 2671              	.LLST6:
 2672 00ba 2C000000 		.4byte	.LVL3
 2673 00be 32000000 		.4byte	.LVL4
 2674 00c2 0300     		.2byte	0x3
 2675 00c4 08       		.byte	0x8
 2676 00c5 20       		.byte	0x20
 2677 00c6 9F       		.byte	0x9f
 2678 00c7 00000000 		.4byte	0
 2679 00cb 00000000 		.4byte	0
ARM GAS  /tmp/ccDU5ieD.s 			page 48


 2680              	.LLST7:
 2681 00cf 4E000000 		.4byte	.LVL9
 2682 00d3 54000000 		.4byte	.LVL10
 2683 00d7 0200     		.2byte	0x2
 2684 00d9 30       		.byte	0x30
 2685 00da 9F       		.byte	0x9f
 2686 00db 00000000 		.4byte	0
 2687 00df 00000000 		.4byte	0
 2688              	.LLST8:
 2689 00e3 00000000 		.4byte	.LVL12
 2690 00e7 11000000 		.4byte	.LVL13-1
 2691 00eb 0100     		.2byte	0x1
 2692 00ed 50       		.byte	0x50
 2693 00ee 11000000 		.4byte	.LVL13-1
 2694 00f2 62000000 		.4byte	.LFE291
 2695 00f6 0100     		.2byte	0x1
 2696 00f8 55       		.byte	0x55
 2697 00f9 00000000 		.4byte	0
 2698 00fd 00000000 		.4byte	0
 2699              	.LLST9:
 2700 0101 00000000 		.4byte	.LVL12
 2701 0105 11000000 		.4byte	.LVL13-1
 2702 0109 0100     		.2byte	0x1
 2703 010b 51       		.byte	0x51
 2704 010c 11000000 		.4byte	.LVL13-1
 2705 0110 62000000 		.4byte	.LFE291
 2706 0114 0100     		.2byte	0x1
 2707 0116 58       		.byte	0x58
 2708 0117 00000000 		.4byte	0
 2709 011b 00000000 		.4byte	0
 2710              	.LLST10:
 2711 011f 00000000 		.4byte	.LVL12
 2712 0123 11000000 		.4byte	.LVL13-1
 2713 0127 0100     		.2byte	0x1
 2714 0129 52       		.byte	0x52
 2715 012a 11000000 		.4byte	.LVL13-1
 2716 012e 62000000 		.4byte	.LFE291
 2717 0132 0100     		.2byte	0x1
 2718 0134 57       		.byte	0x57
 2719 0135 00000000 		.4byte	0
 2720 0139 00000000 		.4byte	0
 2721              	.LLST11:
 2722 013d 00000000 		.4byte	.LVL12
 2723 0141 11000000 		.4byte	.LVL13-1
 2724 0145 0100     		.2byte	0x1
 2725 0147 53       		.byte	0x53
 2726 0148 11000000 		.4byte	.LVL13-1
 2727 014c 62000000 		.4byte	.LFE291
 2728 0150 0100     		.2byte	0x1
 2729 0152 56       		.byte	0x56
 2730 0153 00000000 		.4byte	0
 2731 0157 00000000 		.4byte	0
 2732              	.LLST12:
 2733 015b 4C000000 		.4byte	.LVL18
 2734 015f 4F000000 		.4byte	.LVL19-1
 2735 0163 0100     		.2byte	0x1
 2736 0165 50       		.byte	0x50
ARM GAS  /tmp/ccDU5ieD.s 			page 49


 2737 0166 4F000000 		.4byte	.LVL19-1
 2738 016a 5A000000 		.4byte	.LVL21
 2739 016e 0100     		.2byte	0x1
 2740 0170 54       		.byte	0x54
 2741 0171 00000000 		.4byte	0
 2742 0175 00000000 		.4byte	0
 2743              	.LLST13:
 2744 0179 12000000 		.4byte	.LVL13
 2745 017d 2F000000 		.4byte	.LVL14-1
 2746 0181 0100     		.2byte	0x1
 2747 0183 50       		.byte	0x50
 2748 0184 2F000000 		.4byte	.LVL14-1
 2749 0188 4C000000 		.4byte	.LVL18
 2750 018c 0100     		.2byte	0x1
 2751 018e 54       		.byte	0x54
 2752 018f 00000000 		.4byte	0
 2753 0193 00000000 		.4byte	0
 2754              	.LLST14:
 2755 0197 30000000 		.4byte	.LVL14
 2756 019b 36000000 		.4byte	.LVL15
 2757 019f 0300     		.2byte	0x3
 2758 01a1 08       		.byte	0x8
 2759 01a2 20       		.byte	0x20
 2760 01a3 9F       		.byte	0x9f
 2761 01a4 00000000 		.4byte	0
 2762 01a8 00000000 		.4byte	0
 2763              	.LLST15:
 2764 01ac 54000000 		.4byte	.LVL20
 2765 01b0 5A000000 		.4byte	.LVL21
 2766 01b4 0200     		.2byte	0x2
 2767 01b6 30       		.byte	0x30
 2768 01b7 9F       		.byte	0x9f
 2769 01b8 00000000 		.4byte	0
 2770 01bc 00000000 		.4byte	0
 2771              		.section	.debug_aranges,"",%progbits
 2772 0000 24000000 		.4byte	0x24
 2773 0004 0200     		.2byte	0x2
 2774 0006 00000000 		.4byte	.Ldebug_info0
 2775 000a 04       		.byte	0x4
 2776 000b 00       		.byte	0
 2777 000c 0000     		.2byte	0
 2778 000e 0000     		.2byte	0
 2779 0010 00000000 		.4byte	.LFB290
 2780 0014 5C000000 		.4byte	.LFE290-.LFB290
 2781 0018 00000000 		.4byte	.LFB291
 2782 001c 62000000 		.4byte	.LFE291-.LFB291
 2783 0020 00000000 		.4byte	0
 2784 0024 00000000 		.4byte	0
 2785              		.section	.debug_ranges,"",%progbits
 2786              	.Ldebug_ranges0:
 2787 0000 00000000 		.4byte	.LFB290
 2788 0004 5C000000 		.4byte	.LFE290
 2789 0008 00000000 		.4byte	.LFB291
 2790 000c 62000000 		.4byte	.LFE291
 2791 0010 00000000 		.4byte	0
 2792 0014 00000000 		.4byte	0
 2793              		.section	.debug_line,"",%progbits
ARM GAS  /tmp/ccDU5ieD.s 			page 50


 2794              	.Ldebug_line0:
 2795 0000 35030000 		.section	.debug_str,"MS",%progbits,1
 2795      02009E02 
 2795      00000201 
 2795      FB0E0D00 
 2795      01010101 
 2796              	.LASF105:
 2797 0000 7466756E 		.ascii	"tfunc_t\000"
 2797      635F7400 
 2798              	.LASF54:
 2799 0008 72656164 		.ascii	"ready_list_t\000"
 2799      795F6C69 
 2799      73745F74 
 2799      00
 2800              	.LASF4:
 2801 0015 73697A65 		.ascii	"size_t\000"
 2801      5F7400
 2802              	.LASF50:
 2803 001c 6E657874 		.ascii	"next\000"
 2803      00
 2804              	.LASF60:
 2805 0021 64656C74 		.ascii	"delta\000"
 2805      6100
 2806              	.LASF93:
 2807 0027 7264796D 		.ascii	"rdymsg\000"
 2807      736700
 2808              	.LASF108:
 2809 002e 66756E63 		.ascii	"funcp\000"
 2809      7000
 2810              	.LASF18:
 2811 0034 75696E74 		.ascii	"uint64_t\000"
 2811      36345F74 
 2811      00
 2812              	.LASF73:
 2813 003d 6B65726E 		.ascii	"kernel_stats\000"
 2813      656C5F73 
 2813      74617473 
 2813      00
 2814              	.LASF5:
 2815 004a 5F5F7569 		.ascii	"__uint8_t\000"
 2815      6E74385F 
 2815      7400
 2816              	.LASF53:
 2817 0054 70726576 		.ascii	"prev\000"
 2817      00
 2818              	.LASF80:
 2819 0059 706F7274 		.ascii	"port_intctx\000"
 2819      5F696E74 
 2819      63747800 
 2820              	.LASF121:
 2821 0065 70616765 		.ascii	"pages\000"
 2821      7300
 2822              	.LASF65:
 2823 006b 73797374 		.ascii	"system_debug_t\000"
 2823      656D5F64 
 2823      65627567 
 2823      5F7400
ARM GAS  /tmp/ccDU5ieD.s 			page 51


 2824              	.LASF116:
 2825 007a 70726F76 		.ascii	"provider\000"
 2825      69646572 
 2825      00
 2826              	.LASF109:
 2827 0083 74687265 		.ascii	"thread_descriptor_t\000"
 2827      61645F64 
 2827      65736372 
 2827      6970746F 
 2827      725F7400 
 2828              	.LASF144:
 2829 0097 474E5520 		.ascii	"GNU C11 5.4.1 20160919 -mcpu=cortex-m4 -mfloat-abi="
 2829      43313120 
 2829      352E342E 
 2829      31203230 
 2829      31363039 
 2830 00ca 68617264 		.ascii	"hard -mfpu=fpv4-sp-d16 -mno-thumb-interwork -mthumb"
 2830      202D6D66 
 2830      70753D66 
 2830      7076342D 
 2830      73702D64 
 2831 00fd 202D6720 		.ascii	" -g -Os -fomit-frame-pointer -falign-functions=16 -"
 2831      2D4F7320 
 2831      2D666F6D 
 2831      69742D66 
 2831      72616D65 
 2832 0130 6666756E 		.ascii	"ffunction-sections -fdata-sections -fno-common -fsi"
 2832      6374696F 
 2832      6E2D7365 
 2832      6374696F 
 2832      6E73202D 
 2833 0163 6E676C65 		.ascii	"ngle-precision-constant\000"
 2833      2D707265 
 2833      63697369 
 2833      6F6E2D63 
 2833      6F6E7374 
 2834              	.LASF128:
 2835 017b 706F7274 		.ascii	"port_lock\000"
 2835      5F6C6F63 
 2835      6B00
 2836              	.LASF79:
 2837 0185 706F7274 		.ascii	"port_context\000"
 2837      5F636F6E 
 2837      74657874 
 2837      00
 2838              	.LASF84:
 2839 0192 776F7273 		.ascii	"worst\000"
 2839      7400
 2840              	.LASF87:
 2841 0198 74696D65 		.ascii	"time_measurement_t\000"
 2841      5F6D6561 
 2841      73757265 
 2841      6D656E74 
 2841      5F7400
 2842              	.LASF107:
 2843 01ab 77656E64 		.ascii	"wend\000"
 2843      00
ARM GAS  /tmp/ccDU5ieD.s 			page 52


 2844              	.LASF14:
 2845 01b0 6C6F6E67 		.ascii	"long long unsigned int\000"
 2845      206C6F6E 
 2845      6720756E 
 2845      7369676E 
 2845      65642069 
 2846              	.LASF94:
 2847 01c7 65786974 		.ascii	"exitcode\000"
 2847      636F6465 
 2847      00
 2848              	.LASF72:
 2849 01d0 6D61696E 		.ascii	"mainthread\000"
 2849      74687265 
 2849      616400
 2850              	.LASF97:
 2851 01db 73656E74 		.ascii	"sentmsg\000"
 2851      6D736700 
 2852              	.LASF62:
 2853 01e3 76697274 		.ascii	"virtual_timers_list_t\000"
 2853      75616C5F 
 2853      74696D65 
 2853      72735F6C 
 2853      6973745F 
 2854              	.LASF136:
 2855 01f9 49544D5F 		.ascii	"ITM_RxBuffer\000"
 2855      52784275 
 2855      66666572 
 2855      00
 2856              	.LASF133:
 2857 0206 68656170 		.ascii	"heapp\000"
 2857      7000
 2858              	.LASF119:
 2859 020c 66726565 		.ascii	"free\000"
 2859      00
 2860              	.LASF20:
 2861 0211 72747469 		.ascii	"rttime_t\000"
 2861      6D655F74 
 2861      00
 2862              	.LASF1:
 2863 021a 6C6F6E67 		.ascii	"long long int\000"
 2863      206C6F6E 
 2863      6720696E 
 2863      7400
 2864              	.LASF3:
 2865 0228 7369676E 		.ascii	"signed char\000"
 2865      65642063 
 2865      68617200 
 2866              	.LASF123:
 2867 0234 73697A65 		.ascii	"size\000"
 2867      00
 2868              	.LASF141:
 2869 0239 63685468 		.ascii	"chThdCreateSuspendedI\000"
 2869      64437265 
 2869      61746553 
 2869      75737065 
 2869      6E646564 
 2870              	.LASF148:
ARM GAS  /tmp/ccDU5ieD.s 			page 53


 2871 024f 62617365 		.ascii	"basePri\000"
 2871      50726900 
 2872              	.LASF71:
 2873 0257 76746C69 		.ascii	"vtlist\000"
 2873      737400
 2874              	.LASF129:
 2875 025e 706F7274 		.ascii	"port_unlock\000"
 2875      5F756E6C 
 2875      6F636B00 
 2876              	.LASF40:
 2877 026a 6D736771 		.ascii	"msgqueue\000"
 2877      75657565 
 2877      00
 2878              	.LASF36:
 2879 0273 73746174 		.ascii	"state\000"
 2879      6500
 2880              	.LASF10:
 2881 0279 6C6F6E67 		.ascii	"long int\000"
 2881      20696E74 
 2881      00
 2882              	.LASF134:
 2883 0282 63685468 		.ascii	"chThdCreateFromHeap\000"
 2883      64437265 
 2883      61746546 
 2883      726F6D48 
 2883      65617000 
 2884              	.LASF22:
 2885 0296 74737461 		.ascii	"tstate_t\000"
 2885      74655F74 
 2885      00
 2886              	.LASF61:
 2887 029f 66756E63 		.ascii	"func\000"
 2887      00
 2888              	.LASF45:
 2889 02a4 73746174 		.ascii	"stats\000"
 2889      7300
 2890              	.LASF118:
 2891 02aa 68656170 		.ascii	"heap_header_t\000"
 2891      5F686561 
 2891      6465725F 
 2891      7400
 2892              	.LASF11:
 2893 02b8 5F5F7569 		.ascii	"__uint32_t\000"
 2893      6E743332 
 2893      5F7400
 2894              	.LASF77:
 2895 02c3 72656761 		.ascii	"regarm_t\000"
 2895      726D5F74 
 2895      00
 2896              	.LASF66:
 2897 02cc 63685F73 		.ascii	"ch_system_debug\000"
 2897      79737465 
 2897      6D5F6465 
 2897      62756700 
 2898              	.LASF39:
 2899 02dc 77616974 		.ascii	"waiting\000"
 2899      696E6700 
ARM GAS  /tmp/ccDU5ieD.s 			page 54


 2900              	.LASF110:
 2901 02e4 6D757465 		.ascii	"mutex_t\000"
 2901      785F7400 
 2902              	.LASF126:
 2903 02ec 616C6967 		.ascii	"align\000"
 2903      6E00
 2904              	.LASF75:
 2905 02f2 73797369 		.ascii	"sysinterval_t\000"
 2905      6E746572 
 2905      76616C5F 
 2905      7400
 2906              	.LASF27:
 2907 0300 636E745F 		.ascii	"cnt_t\000"
 2907      7400
 2908              	.LASF0:
 2909 0306 756E7369 		.ascii	"unsigned int\000"
 2909      676E6564 
 2909      20696E74 
 2909      00
 2910              	.LASF98:
 2911 0313 77747365 		.ascii	"wtsemp\000"
 2911      6D7000
 2912              	.LASF96:
 2913 031a 77747472 		.ascii	"wttrp\000"
 2913      7000
 2914              	.LASF127:
 2915 0320 6D656D6F 		.ascii	"memory_pool_t\000"
 2915      72795F70 
 2915      6F6F6C5F 
 2915      7400
 2916              	.LASF30:
 2917 032e 71756575 		.ascii	"queue\000"
 2917      6500
 2918              	.LASF44:
 2919 0334 6D706F6F 		.ascii	"mpool\000"
 2919      6C00
 2920              	.LASF8:
 2921 033a 73686F72 		.ascii	"short unsigned int\000"
 2921      7420756E 
 2921      7369676E 
 2921      65642069 
 2921      6E7400
 2922              	.LASF92:
 2923 034d 6B65726E 		.ascii	"kernel_stats_t\000"
 2923      656C5F73 
 2923      74617473 
 2923      5F7400
 2924              	.LASF48:
 2925 035c 63685F74 		.ascii	"ch_thread\000"
 2925      68726561 
 2925      6400
 2926              	.LASF34:
 2927 0366 6E616D65 		.ascii	"name\000"
 2927      00
 2928              	.LASF25:
 2929 036b 6D73675F 		.ascii	"msg_t\000"
 2929      7400
ARM GAS  /tmp/ccDU5ieD.s 			page 55


 2930              	.LASF85:
 2931 0371 6C617374 		.ascii	"last\000"
 2931      00
 2932              	.LASF28:
 2933 0376 75636E74 		.ascii	"ucnt_t\000"
 2933      5F7400
 2934              	.LASF41:
 2935 037d 6570656E 		.ascii	"epending\000"
 2935      64696E67 
 2935      00
 2936              	.LASF114:
 2937 0386 6D656D6F 		.ascii	"memory_heap_t\000"
 2937      72795F68 
 2937      6561705F 
 2937      7400
 2938              	.LASF21:
 2939 0394 746D6F64 		.ascii	"tmode_t\000"
 2939      655F7400 
 2940              	.LASF91:
 2941 039c 6D5F6372 		.ascii	"m_crit_isr\000"
 2941      69745F69 
 2941      737200
 2942              	.LASF55:
 2943 03a7 63685F72 		.ascii	"ch_ready_list\000"
 2943      65616479 
 2943      5F6C6973 
 2943      7400
 2944              	.LASF26:
 2945 03b5 6576656E 		.ascii	"eventmask_t\000"
 2945      746D6173 
 2945      6B5F7400 
 2946              	.LASF9:
 2947 03c1 5F5F696E 		.ascii	"__int32_t\000"
 2947      7433325F 
 2947      7400
 2948              	.LASF78:
 2949 03cb 73746B61 		.ascii	"stkalign_t\000"
 2949      6C69676E 
 2949      5F7400
 2950              	.LASF32:
 2951 03d6 6E657765 		.ascii	"newer\000"
 2951      7200
 2952              	.LASF43:
 2953 03dc 7265616C 		.ascii	"realprio\000"
 2953      7072696F 
 2953      00
 2954              	.LASF138:
 2955 03e5 5F737461 		.ascii	"_stats_stop_measure_crit_thd\000"
 2955      74735F73 
 2955      746F705F 
 2955      6D656173 
 2955      7572655F 
 2956              	.LASF76:
 2957 0402 73697A65 		.ascii	"sizetype\000"
 2957      74797065 
 2957      00
 2958              	.LASF46:
ARM GAS  /tmp/ccDU5ieD.s 			page 56


 2959 040b 74687265 		.ascii	"thread_reference_t\000"
 2959      61645F72 
 2959      65666572 
 2959      656E6365 
 2959      5F7400
 2960              	.LASF63:
 2961 041e 63685F76 		.ascii	"ch_virtual_timers_list\000"
 2961      69727475 
 2961      616C5F74 
 2961      696D6572 
 2961      735F6C69 
 2962              	.LASF2:
 2963 0435 6C6F6E67 		.ascii	"long double\000"
 2963      20646F75 
 2963      626C6500 
 2964              	.LASF135:
 2965 0441 63685468 		.ascii	"chThdCreateFromMemoryPool\000"
 2965      64437265 
 2965      61746546 
 2965      726F6D4D 
 2965      656D6F72 
 2966              	.LASF106:
 2967 045b 77626173 		.ascii	"wbase\000"
 2967      6500
 2968              	.LASF82:
 2969 0461 746D5F63 		.ascii	"tm_calibration_t\000"
 2969      616C6962 
 2969      72617469 
 2969      6F6E5F74 
 2969      00
 2970              	.LASF113:
 2971 0472 6D656D67 		.ascii	"memgetfunc2_t\000"
 2971      65746675 
 2971      6E63325F 
 2971      7400
 2972              	.LASF31:
 2973 0480 7072696F 		.ascii	"prio\000"
 2973      00
 2974              	.LASF56:
 2975 0485 63757272 		.ascii	"current\000"
 2975      656E7400 
 2976              	.LASF13:
 2977 048d 5F5F7569 		.ascii	"__uint64_t\000"
 2977      6E743634 
 2977      5F7400
 2978              	.LASF86:
 2979 0498 63756D75 		.ascii	"cumulative\000"
 2979      6C617469 
 2979      766500
 2980              	.LASF120:
 2981 04a3 75736564 		.ascii	"used\000"
 2981      00
 2982              	.LASF23:
 2983 04a8 74726566 		.ascii	"trefs_t\000"
 2983      735F7400 
 2984              	.LASF38:
 2985 04b0 72656673 		.ascii	"refs\000"
ARM GAS  /tmp/ccDU5ieD.s 			page 57


 2985      00
 2986              	.LASF58:
 2987 04b5 76697274 		.ascii	"virtual_timer_t\000"
 2987      75616C5F 
 2987      74696D65 
 2987      725F7400 
 2988              	.LASF24:
 2989 04c5 74707269 		.ascii	"tprio_t\000"
 2989      6F5F7400 
 2990              	.LASF89:
 2991 04cd 6E5F6374 		.ascii	"n_ctxswc\000"
 2991      78737763 
 2991      00
 2992              	.LASF111:
 2993 04d6 5F426F6F 		.ascii	"_Bool\000"
 2993      6C00
 2994              	.LASF16:
 2995 04dc 696E7433 		.ascii	"int32_t\000"
 2995      325F7400 
 2996              	.LASF6:
 2997 04e4 756E7369 		.ascii	"unsigned char\000"
 2997      676E6564 
 2997      20636861 
 2997      7200
 2998              	.LASF147:
 2999 04f2 68656170 		.ascii	"heap_header\000"
 2999      5F686561 
 2999      64657200 
 3000              	.LASF7:
 3001 04fe 73686F72 		.ascii	"short int\000"
 3001      7420696E 
 3001      7400
 3002              	.LASF64:
 3003 0508 6C617374 		.ascii	"lasttime\000"
 3003      74696D65 
 3003      00
 3004              	.LASF100:
 3005 0511 65776D61 		.ascii	"ewmask\000"
 3005      736B00
 3006              	.LASF69:
 3007 0518 63685F73 		.ascii	"ch_system\000"
 3007      79737465 
 3007      6D00
 3008              	.LASF149:
 3009 0522 5F5F6675 		.ascii	"__func__\000"
 3009      6E635F5F 
 3009      00
 3010              	.LASF145:
 3011 052b 2E2E2F2E 		.ascii	"../../modules/ChibiOS/os/rt/src/chdynamic.c\000"
 3011      2E2F6D6F 
 3011      64756C65 
 3011      732F4368 
 3011      6962694F 
 3012              	.LASF132:
 3013 0557 63685379 		.ascii	"chSysLock\000"
 3013      734C6F63 
 3013      6B00
ARM GAS  /tmp/ccDU5ieD.s 			page 58


 3014              	.LASF140:
 3015 0561 5F746872 		.ascii	"_thread_memfill\000"
 3015      6561645F 
 3015      6D656D66 
 3015      696C6C00 
 3016              	.LASF59:
 3017 0571 63685F76 		.ascii	"ch_virtual_timer\000"
 3017      69727475 
 3017      616C5F74 
 3017      696D6572 
 3017      00
 3018              	.LASF101:
 3019 0582 63685F73 		.ascii	"ch_semaphore\000"
 3019      656D6170 
 3019      686F7265 
 3019      00
 3020              	.LASF146:
 3021 058f 2F686F6D 		.ascii	"/home/user/csse4011/project/4011-surfbee/ardupilot/"
 3021      652F7573 
 3021      65722F63 
 3021      73736534 
 3021      3031312F 
 3022 05c2 6275696C 		.ascii	"build/stm32l475\000"
 3022      642F7374 
 3022      6D33326C 
 3022      34373500 
 3023              	.LASF99:
 3024 05d2 77746D74 		.ascii	"wtmtxp\000"
 3024      787000
 3025              	.LASF49:
 3026 05d9 63685F74 		.ascii	"ch_threads_list\000"
 3026      68726561 
 3026      64735F6C 
 3026      69737400 
 3027              	.LASF103:
 3028 05e9 6F776E65 		.ascii	"owner\000"
 3028      7200
 3029              	.LASF122:
 3030 05ef 68656170 		.ascii	"heap\000"
 3030      00
 3031              	.LASF12:
 3032 05f4 6C6F6E67 		.ascii	"long unsigned int\000"
 3032      20756E73 
 3032      69676E65 
 3032      6420696E 
 3032      7400
 3033              	.LASF35:
 3034 0606 77616261 		.ascii	"wabase\000"
 3034      736500
 3035              	.LASF104:
 3036 060d 63686172 		.ascii	"char\000"
 3036      00
 3037              	.LASF33:
 3038 0612 6F6C6465 		.ascii	"older\000"
 3038      7200
 3039              	.LASF29:
 3040 0618 74687265 		.ascii	"thread_t\000"
ARM GAS  /tmp/ccDU5ieD.s 			page 59


 3040      61645F74 
 3040      00
 3041              	.LASF83:
 3042 0621 62657374 		.ascii	"best\000"
 3042      00
 3043              	.LASF74:
 3044 0626 73797374 		.ascii	"systime_t\000"
 3044      696D655F 
 3044      7400
 3045              	.LASF57:
 3046 0630 76746675 		.ascii	"vtfunc_t\000"
 3046      6E635F74 
 3046      00
 3047              	.LASF130:
 3048 0639 5F5F7365 		.ascii	"__set_BASEPRI\000"
 3048      745F4241 
 3048      53455052 
 3048      4900
 3049              	.LASF67:
 3050 0647 70616E69 		.ascii	"panic_msg\000"
 3050      635F6D73 
 3050      6700
 3051              	.LASF81:
 3052 0651 6F666673 		.ascii	"offset\000"
 3052      657400
 3053              	.LASF139:
 3054 0658 63684865 		.ascii	"chHeapAllocAligned\000"
 3054      6170416C 
 3054      6C6F6341 
 3054      6C69676E 
 3054      656400
 3055              	.LASF102:
 3056 066b 63685F6D 		.ascii	"ch_mutex\000"
 3056      75746578 
 3056      00
 3057              	.LASF68:
 3058 0674 63685F73 		.ascii	"ch_system_t\000"
 3058      79737465 
 3058      6D5F7400 
 3059              	.LASF19:
 3060 0680 7274636E 		.ascii	"rtcnt_t\000"
 3060      745F7400 
 3061              	.LASF112:
 3062 0688 6D656D67 		.ascii	"memgetfunc_t\000"
 3062      65746675 
 3062      6E635F74 
 3062      00
 3063              	.LASF142:
 3064 0695 63685363 		.ascii	"chSchWakeupS\000"
 3064      6857616B 
 3064      65757053 
 3064      00
 3065              	.LASF125:
 3066 06a2 6F626A65 		.ascii	"object_size\000"
 3066      63745F73 
 3066      697A6500 
 3067              	.LASF17:
ARM GAS  /tmp/ccDU5ieD.s 			page 60


 3068 06ae 75696E74 		.ascii	"uint32_t\000"
 3068      33325F74 
 3068      00
 3069              	.LASF51:
 3070 06b7 74687265 		.ascii	"threads_queue_t\000"
 3070      6164735F 
 3070      71756575 
 3070      655F7400 
 3071              	.LASF124:
 3072 06c7 706F6F6C 		.ascii	"pool_header\000"
 3072      5F686561 
 3072      64657200 
 3073              	.LASF70:
 3074 06d3 726C6973 		.ascii	"rlist\000"
 3074      7400
 3075              	.LASF15:
 3076 06d9 75696E74 		.ascii	"uint8_t\000"
 3076      385F7400 
 3077              	.LASF143:
 3078 06e1 6368506F 		.ascii	"chPoolAlloc\000"
 3078      6F6C416C 
 3078      6C6F6300 
 3079              	.LASF37:
 3080 06ed 666C6167 		.ascii	"flags\000"
 3080      7300
 3081              	.LASF137:
 3082 06f3 5F737461 		.ascii	"_stats_start_measure_crit_thd\000"
 3082      74735F73 
 3082      74617274 
 3082      5F6D6561 
 3082      73757265 
 3083              	.LASF95:
 3084 0711 77746F62 		.ascii	"wtobjp\000"
 3084      6A7000
 3085              	.LASF47:
 3086 0718 74687265 		.ascii	"threads_list_t\000"
 3086      6164735F 
 3086      6C697374 
 3086      5F7400
 3087              	.LASF131:
 3088 0727 63685379 		.ascii	"chSysUnlock\000"
 3088      73556E6C 
 3088      6F636B00 
 3089              	.LASF42:
 3090 0733 6D74786C 		.ascii	"mtxlist\000"
 3090      69737400 
 3091              	.LASF90:
 3092 073b 6D5F6372 		.ascii	"m_crit_thd\000"
 3092      69745F74 
 3092      686400
 3093              	.LASF117:
 3094 0746 68656164 		.ascii	"header\000"
 3094      657200
 3095              	.LASF88:
 3096 074d 6E5F6972 		.ascii	"n_irq\000"
 3096      7100
 3097              	.LASF52:
ARM GAS  /tmp/ccDU5ieD.s 			page 61


 3098 0753 63685F74 		.ascii	"ch_threads_queue\000"
 3098      68726561 
 3098      64735F71 
 3098      75657565 
 3098      00
 3099              	.LASF115:
 3100 0764 6D656D6F 		.ascii	"memory_heap\000"
 3100      72795F68 
 3100      65617000 
 3101              		.ident	"GCC: (15:5.4.1+svn241155-1) 5.4.1 20160919"
ARM GAS  /tmp/ccDU5ieD.s 			page 62


DEFINED SYMBOLS
                            *ABS*:0000000000000000 chdynamic.c
     /tmp/ccDU5ieD.s:22     .text.chThdCreateFromHeap:0000000000000000 $t
     /tmp/ccDU5ieD.s:27     .text.chThdCreateFromHeap:0000000000000000 chThdCreateFromHeap
     /tmp/ccDU5ieD.s:149    .text.chThdCreateFromMemoryPool:0000000000000000 $t
     /tmp/ccDU5ieD.s:154    .text.chThdCreateFromMemoryPool:0000000000000000 chThdCreateFromMemoryPool
                     .debug_frame:0000000000000010 $d

UNDEFINED SYMBOLS
chHeapAllocAligned
_thread_memfill
_stats_start_measure_crit_thd
chThdCreateSuspendedI
chSchWakeupS
_stats_stop_measure_crit_thd
chPoolAlloc
