ARM GAS  /tmp/ccDU5ieD.s 			page 1


   1              		.syntax unified
   2              		.cpu cortex-m4
   3              		.eabi_attribute 27, 1
   4              		.eabi_attribute 28, 1
   5              		.fpu fpv4-sp-d16
   6              		.eabi_attribute 20, 1
   7              		.eabi_attribute 21, 1
   8              		.eabi_attribute 23, 3
   9              		.eabi_attribute 24, 1
  10              		.eabi_attribute 25, 1
  11              		.eabi_attribute 26, 1
  12              		.eabi_attribute 30, 4
  13              		.eabi_attribute 34, 1
  14              		.eabi_attribute 18, 4
  15              		.thumb
  16              		.syntax unified
  17              		.file	"chdynamic.c"
  18              		.text
  19              	.Ltext0:
  20              		.cfi_sections	.debug_frame
  21              		.section	.text.chThdCreateFromHeap,"ax",%progbits
  22              		.align	1
  23              		.global	chThdCreateFromHeap
  24              		.thumb
  25              		.thumb_func
  26              		.type	chThdCreateFromHeap, %function
  27              	chThdCreateFromHeap:
  28              	.LFB290:
  29              		.file 1 "../../modules/ChibiOS/os/rt/src/chdynamic.c"
  30              		.loc 1 84 0
  31              		.cfi_startproc
  32              		@ args = 8, pretend = 0, frame = 24
  33              		@ frame_needed = 0, uses_anonymous_args = 0
  34              	.LVL0:
  35 0000 70B5     		push	{r4, r5, r6, lr}
  36              		.cfi_def_cfa_offset 16
  37              		.cfi_offset 4, -16
  38              		.cfi_offset 5, -12
  39              		.cfi_offset 6, -8
  40              		.cfi_offset 14, -4
  41 0002 1646     		mov	r6, r2
  42 0004 86B0     		sub	sp, sp, #24
  43              		.cfi_def_cfa_offset 40
  44              		.loc 1 88 0
  45 0006 0822     		movs	r2, #8
  46              	.LVL1:
  47              		.loc 1 84 0
  48 0008 0C46     		mov	r4, r1
  49 000a 1D46     		mov	r5, r3
  50              		.loc 1 88 0
  51 000c FFF7FEFF 		bl	chHeapAllocAligned
  52              	.LVL2:
  53              		.loc 1 89 0
  54 0010 0146     		mov	r1, r0
  55 0012 08B3     		cbz	r0, .L3
  56              		.loc 1 93 0
  57 0014 0A9B     		ldr	r3, [sp, #40]
ARM GAS  /tmp/ccDU5ieD.s 			page 2


  58 0016 0493     		str	r3, [sp, #16]
  59              		.loc 1 96 0
  60 0018 2144     		add	r1, r1, r4
  61              		.loc 1 93 0
  62 001a 0B9B     		ldr	r3, [sp, #44]
  63 001c 0593     		str	r3, [sp, #20]
  64              		.loc 1 103 0
  65 001e 5522     		movs	r2, #85
  66              		.loc 1 93 0
  67 0020 0096     		str	r6, [sp]
  68 0022 0190     		str	r0, [sp, #4]
  69 0024 0291     		str	r1, [sp, #8]
  70 0026 0395     		str	r5, [sp, #12]
  71              		.loc 1 103 0
  72 0028 FFF7FEFF 		bl	_thread_memfill
  73              	.LVL3:
  74              	.LBB24:
  75              	.LBB25:
  76              	.LBB26:
  77              	.LBB27:
  78              	.LBB28:
  79              		.file 2 "../../modules/ChibiOS/os/common/ext/ARM/CMSIS/Core/Include/cmsis_gcc.h"
  80              		.loc 2 493 0
  81 002c 2023     		movs	r3, #32
  82              		.syntax unified
  83              	@ 493 "../../modules/ChibiOS/os/common/ext/ARM/CMSIS/Core/Include/cmsis_gcc.h" 1
  84 002e 83F31188 		MSR basepri, r3
  85              	@ 0 "" 2
  86              	.LVL4:
  87              		.thumb
  88              		.syntax unified
  89              	.LBE28:
  90              	.LBE27:
  91              	.LBE26:
  92              		.file 3 "../../modules/ChibiOS/os/rt/include/chsys.h"
  93              		.loc 3 356 0
  94 0032 FFF7FEFF 		bl	_stats_start_measure_crit_thd
  95              	.LVL5:
  96              	.LBE25:
  97              	.LBE24:
  98              		.loc 1 109 0
  99 0036 6846     		mov	r0, sp
 100 0038 FFF7FEFF 		bl	chThdCreateSuspendedI
 101              	.LVL6:
 102              		.loc 1 110 0
 103 003c 0123     		movs	r3, #1
 104 003e 80F82130 		strb	r3, [r0, #33]
 105              		.loc 1 111 0
 106 0042 0021     		movs	r1, #0
 107              		.loc 1 109 0
 108 0044 0446     		mov	r4, r0
 109              	.LVL7:
 110              		.loc 1 111 0
 111 0046 FFF7FEFF 		bl	chSchWakeupS
 112              	.LVL8:
 113              	.LBB29:
 114              	.LBB30:
ARM GAS  /tmp/ccDU5ieD.s 			page 3


 115              		.loc 3 368 0
 116 004a FFF7FEFF 		bl	_stats_stop_measure_crit_thd
 117              	.LVL9:
 118              	.LBB31:
 119              	.LBB32:
 120              	.LBB33:
 121              		.loc 2 493 0
 122 004e 0023     		movs	r3, #0
 123              		.syntax unified
 124              	@ 493 "../../modules/ChibiOS/os/common/ext/ARM/CMSIS/Core/Include/cmsis_gcc.h" 1
 125 0050 83F31188 		MSR basepri, r3
 126              	@ 0 "" 2
 127              	.LVL10:
 128              		.thumb
 129              		.syntax unified
 130 0054 2046     		mov	r0, r4
 131 0056 FFE7     		b	.L2
 132              	.LVL11:
 133              	.L3:
 134              	.L2:
 135              	.LBE33:
 136              	.LBE32:
 137              	.LBE31:
 138              	.LBE30:
 139              	.LBE29:
 140              		.loc 1 115 0
 141 0058 06B0     		add	sp, sp, #24
 142              		.cfi_def_cfa_offset 16
 143              		@ sp needed
 144 005a 70BD     		pop	{r4, r5, r6, pc}
 145              		.cfi_endproc
 146              	.LFE290:
 147              		.size	chThdCreateFromHeap, .-chThdCreateFromHeap
 148              		.section	.text.chThdCreateFromMemoryPool,"ax",%progbits
 149              		.align	1
 150              		.global	chThdCreateFromMemoryPool
 151              		.thumb
 152              		.thumb_func
 153              		.type	chThdCreateFromMemoryPool, %function
 154              	chThdCreateFromMemoryPool:
 155              	.LFB291:
 156              		.loc 1 146 0
 157              		.cfi_startproc
 158              		@ args = 4, pretend = 0, frame = 24
 159              		@ frame_needed = 0, uses_anonymous_args = 0
 160              	.LVL12:
 161 0000 2DE9F041 		push	{r4, r5, r6, r7, r8, lr}
 162              		.cfi_def_cfa_offset 24
 163              		.cfi_offset 4, -24
 164              		.cfi_offset 5, -20
 165              		.cfi_offset 6, -16
 166              		.cfi_offset 7, -12
 167              		.cfi_offset 8, -8
 168              		.cfi_offset 14, -4
 169 0004 86B0     		sub	sp, sp, #24
 170              		.cfi_def_cfa_offset 48
 171              		.loc 1 146 0
ARM GAS  /tmp/ccDU5ieD.s 			page 4


 172 0006 0546     		mov	r5, r0
 173 0008 8846     		mov	r8, r1
 174 000a 1746     		mov	r7, r2
 175 000c 1E46     		mov	r6, r3
 176              		.loc 1 152 0
 177 000e FFF7FEFF 		bl	chPoolAlloc
 178              	.LVL13:
 179              		.loc 1 153 0
 180 0012 0446     		mov	r4, r0
 181 0014 08B3     		cbz	r0, .L7
 182              		.loc 1 160 0
 183 0016 6968     		ldr	r1, [r5, #4]
 184              		.loc 1 157 0
 185 0018 0C9B     		ldr	r3, [sp, #48]
 186 001a 0593     		str	r3, [sp, #20]
 187              		.loc 1 160 0
 188 001c 0144     		add	r1, r1, r0
 189              		.loc 1 167 0
 190 001e 5522     		movs	r2, #85
 191              		.loc 1 157 0
 192 0020 CDF80080 		str	r8, [sp]
 193 0024 0190     		str	r0, [sp, #4]
 194 0026 0291     		str	r1, [sp, #8]
 195 0028 0397     		str	r7, [sp, #12]
 196 002a 0496     		str	r6, [sp, #16]
 197              		.loc 1 167 0
 198 002c FFF7FEFF 		bl	_thread_memfill
 199              	.LVL14:
 200              	.LBB44:
 201              	.LBB45:
 202              	.LBB46:
 203              	.LBB47:
 204              	.LBB48:
 205              		.loc 2 493 0
 206 0030 2023     		movs	r3, #32
 207              		.syntax unified
 208              	@ 493 "../../modules/ChibiOS/os/common/ext/ARM/CMSIS/Core/Include/cmsis_gcc.h" 1
 209 0032 83F31188 		MSR basepri, r3
 210              	@ 0 "" 2
 211              	.LVL15:
 212              		.thumb
 213              		.syntax unified
 214              	.LBE48:
 215              	.LBE47:
 216              	.LBE46:
 217              		.loc 3 356 0
 218 0036 FFF7FEFF 		bl	_stats_start_measure_crit_thd
 219              	.LVL16:
 220              	.LBE45:
 221              	.LBE44:
 222              		.loc 1 173 0
 223 003a 6846     		mov	r0, sp
 224 003c FFF7FEFF 		bl	chThdCreateSuspendedI
 225              	.LVL17:
 226              		.loc 1 174 0
 227 0040 0223     		movs	r3, #2
 228 0042 80F82130 		strb	r3, [r0, #33]
ARM GAS  /tmp/ccDU5ieD.s 			page 5


 229              		.loc 1 175 0
 230 0046 0564     		str	r5, [r0, #64]
 231              		.loc 1 176 0
 232 0048 0021     		movs	r1, #0
 233              		.loc 1 173 0
 234 004a 0446     		mov	r4, r0
 235              	.LVL18:
 236              		.loc 1 176 0
 237 004c FFF7FEFF 		bl	chSchWakeupS
 238              	.LVL19:
 239              	.LBB49:
 240              	.LBB50:
 241              		.loc 3 368 0
 242 0050 FFF7FEFF 		bl	_stats_stop_measure_crit_thd
 243              	.LVL20:
 244              	.LBB51:
 245              	.LBB52:
 246              	.LBB53:
 247              		.loc 2 493 0
 248 0054 0023     		movs	r3, #0
 249              		.syntax unified
 250              	@ 493 "../../modules/ChibiOS/os/common/ext/ARM/CMSIS/Core/Include/cmsis_gcc.h" 1
 251 0056 83F31188 		MSR basepri, r3
 252              	@ 0 "" 2
 253              	.LVL21:
 254              		.thumb
 255              		.syntax unified
 256              	.L7:
 257              	.LBE53:
 258              	.LBE52:
 259              	.LBE51:
 260              	.LBE50:
 261              	.LBE49:
 262              		.loc 1 154 0
 263 005a 2046     		mov	r0, r4
 264              		.loc 1 180 0
 265 005c 06B0     		add	sp, sp, #24
 266              		.cfi_def_cfa_offset 24
 267              		@ sp needed
 268 005e BDE8F081 		pop	{r4, r5, r6, r7, r8, pc}
 269              		.cfi_endproc
 270              	.LFE291:
 271              		.size	chThdCreateFromMemoryPool, .-chThdCreateFromMemoryPool
 272              		.text
 273              	.Letext0:
 274              		.file 4 "/usr/lib/gcc/arm-none-eabi/5.4.1/include/stddef.h"
 275              		.file 5 "/usr/include/newlib/machine/_default_types.h"
 276              		.file 6 "/usr/include/newlib/sys/_stdint.h"
 277              		.file 7 "../../modules/ChibiOS/os/common/ports/ARMCMx/compilers/GCC/chtypes.h"
 278              		.file 8 "../../modules/ChibiOS/os/rt/include/chsystypes.h"
 279              		.file 9 "../../modules/ChibiOS/os/rt/include/chschd.h"
 280              		.file 10 "../../modules/ChibiOS/os/rt/include/chtime.h"
 281              		.file 11 "../../modules/ChibiOS/os/common/ports/ARMCMx/chcore.h"
 282              		.file 12 "../../modules/ChibiOS/os/common/ports/ARMCMx/chcore_v7m.h"
 283              		.file 13 "../../modules/ChibiOS/os/rt/include/chtm.h"
 284              		.file 14 "../../modules/ChibiOS/os/rt/include/chstats.h"
 285              		.file 15 "../../modules/ChibiOS/os/rt/include/chsem.h"
ARM GAS  /tmp/ccDU5ieD.s 			page 6


 286              		.file 16 "../../modules/ChibiOS/os/rt/include/chmtx.h"
 287              		.file 17 "../../modules/ChibiOS/os/rt/include/chthreads.h"
 288              		.file 18 "../../modules/ChibiOS/os/oslib/include/chmemcore.h"
 289              		.file 19 "../../modules/ChibiOS/os/oslib/include/chmemheaps.h"
 290              		.file 20 "../../modules/ChibiOS/os/oslib/include/chmempools.h"
 291              		.file 21 "../../modules/ChibiOS/os/common/ext/ARM/CMSIS/Core/Include/core_cm4.h"