ARM GAS  /tmp/cc82YYuL.s 			page 1


   1              		.syntax unified
   2              		.cpu cortex-m4
   3              		.eabi_attribute 27, 1
   4              		.eabi_attribute 28, 1
   5              		.fpu fpv4-sp-d16
   6              		.eabi_attribute 20, 1
   7              		.eabi_attribute 21, 1
   8              		.eabi_attribute 23, 3
   9              		.eabi_attribute 24, 1
  10              		.eabi_attribute 25, 1
  11              		.eabi_attribute 26, 1
  12              		.eabi_attribute 30, 4
  13              		.eabi_attribute 34, 1
  14              		.eabi_attribute 18, 4
  15              		.thumb
  16              		.syntax unified
  17              		.file	"chmboxes.c"
  18              		.text
  19              	.Ltext0:
  20              		.cfi_sections	.debug_frame
  21              		.section	.text.chMBObjectInit,"ax",%progbits
  22              		.align	1
  23              		.global	chMBObjectInit
  24              		.thumb
  25              		.thumb_func
  26              		.type	chMBObjectInit, %function
  27              	chMBObjectInit:
  28              	.LFB290:
  29              		.file 1 "../../modules/ChibiOS/os/oslib/src/chmboxes.c"
  30              		.loc 1 87 0
  31              		.cfi_startproc
  32              		@ args = 0, pretend = 0, frame = 0
  33              		@ frame_needed = 0, uses_anonymous_args = 0
  34              		@ link register save eliminated.
  35              	.LVL0:
  36              		.loc 1 95 0
  37 0000 0023     		movs	r3, #0
  38 0002 0361     		str	r3, [r0, #16]
  39              		.loc 1 96 0
  40 0004 0375     		strb	r3, [r0, #20]
  41              		.loc 1 97 0
  42 0006 00F11803 		add	r3, r0, #24
  43              	.LVL1:
  44              		.loc 1 94 0
  45 000a 01EB8202 		add	r2, r1, r2, lsl #2
  46              	.LVL2:
  47              	.LBB32:
  48              	.LBB33:
  49              	.LBB34:
  50              		.file 2 "../../modules/ChibiOS/os/rt/include/chschd.h"
  51              		.loc 2 539 0
  52 000e 8361     		str	r3, [r0, #24]
  53              		.loc 2 540 0
  54 0010 C361     		str	r3, [r0, #28]
  55              	.LVL3:
  56              	.LBE34:
  57              	.LBE33:
ARM GAS  /tmp/cc82YYuL.s 			page 2


  58              	.LBE32:
  59              		.loc 1 98 0
  60 0012 00F12003 		add	r3, r0, #32
  61              	.LVL4:
  62              		.loc 1 91 0
  63 0016 0160     		str	r1, [r0]
  64              		.loc 1 92 0
  65 0018 C160     		str	r1, [r0, #12]
  66              		.loc 1 93 0
  67 001a 8160     		str	r1, [r0, #8]
  68              		.loc 1 94 0
  69 001c 4260     		str	r2, [r0, #4]
  70              	.LBB35:
  71              	.LBB36:
  72              	.LBB37:
  73              		.loc 2 539 0
  74 001e 0362     		str	r3, [r0, #32]
  75              		.loc 2 540 0
  76 0020 4362     		str	r3, [r0, #36]
  77              	.LVL5:
  78 0022 7047     		bx	lr
  79              	.LBE37:
  80              	.LBE36:
  81              	.LBE35:
  82              		.cfi_endproc
  83              	.LFE290:
  84              		.size	chMBObjectInit, .-chMBObjectInit
  85              		.section	.text.chMBResetI,"ax",%progbits
  86              		.align	1
  87              		.global	chMBResetI
  88              		.thumb
  89              		.thumb_func
  90              		.type	chMBResetI, %function
  91              	chMBResetI:
  92              	.LFB292:
  93              		.loc 1 133 0
  94              		.cfi_startproc
  95              		@ args = 0, pretend = 0, frame = 0
  96              		@ frame_needed = 0, uses_anonymous_args = 0
  97              	.LVL6:
  98 0000 10B5     		push	{r4, lr}
  99              		.cfi_def_cfa_offset 8
 100              		.cfi_offset 4, -8
 101              		.cfi_offset 14, -4
 102              		.loc 1 138 0
 103 0002 0368     		ldr	r3, [r0]
 104 0004 8360     		str	r3, [r0, #8]
 105              		.loc 1 139 0
 106 0006 C360     		str	r3, [r0, #12]
 107              		.loc 1 140 0
 108 0008 0023     		movs	r3, #0
 109 000a 0361     		str	r3, [r0, #16]
 110              		.loc 1 141 0
 111 000c 0123     		movs	r3, #1
 112              		.loc 1 133 0
 113 000e 0446     		mov	r4, r0
 114              		.loc 1 141 0
ARM GAS  /tmp/cc82YYuL.s 			page 3


 115 0010 0375     		strb	r3, [r0, #20]
 116              		.loc 1 142 0
 117 0012 6FF00101 		mvn	r1, #1
 118 0016 1830     		adds	r0, r0, #24
 119              	.LVL7:
 120 0018 FFF7FEFF 		bl	chThdDequeueAllI
 121              	.LVL8:
 122              		.loc 1 143 0
 123 001c 04F12000 		add	r0, r4, #32
 124 0020 6FF00101 		mvn	r1, #1
 125              		.loc 1 144 0
 126 0024 BDE81040 		pop	{r4, lr}
 127              		.cfi_restore 14
 128              		.cfi_restore 4
 129              		.cfi_def_cfa_offset 0
 130              	.LVL9:
 131              		.loc 1 143 0
 132 0028 FFF7FEBF 		b	chThdDequeueAllI
 133              	.LVL10:
 134              		.cfi_endproc
 135              	.LFE292:
 136              		.size	chMBResetI, .-chMBResetI
 137              		.section	.text.chMBReset,"ax",%progbits
 138              		.align	1
 139              		.global	chMBReset
 140              		.thumb
 141              		.thumb_func
 142              		.type	chMBReset, %function
 143              	chMBReset:
 144              	.LFB291:
 145              		.loc 1 113 0
 146              		.cfi_startproc
 147              		@ args = 0, pretend = 0, frame = 0
 148              		@ frame_needed = 0, uses_anonymous_args = 0
 149              	.LVL11:
 150 0000 10B5     		push	{r4, lr}
 151              		.cfi_def_cfa_offset 8
 152              		.cfi_offset 4, -8
 153              		.cfi_offset 14, -4
 154              	.LBB48:
 155              	.LBB49:
 156              	.LBB50:
 157              	.LBB51:
 158              	.LBB52:
 159              		.file 3 "../../modules/ChibiOS/os/common/ext/ARM/CMSIS/Core/Include/cmsis_gcc.h"
 160              		.loc 3 493 0
 161 0002 2023     		movs	r3, #32
 162              	.LBE52:
 163              	.LBE51:
 164              	.LBE50:
 165              	.LBE49:
 166              	.LBE48:
 167              		.loc 1 113 0
 168 0004 0446     		mov	r4, r0
 169              	.LBB57:
 170              	.LBB56:
 171              	.LBB55:
ARM GAS  /tmp/cc82YYuL.s 			page 4


 172              	.LBB54:
 173              	.LBB53:
 174              		.loc 3 493 0
 175              		.syntax unified
 176              	@ 493 "../../modules/ChibiOS/os/common/ext/ARM/CMSIS/Core/Include/cmsis_gcc.h" 1
 177 0006 83F31188 		MSR basepri, r3
 178              	@ 0 "" 2
 179              	.LVL12:
 180              		.thumb
 181              		.syntax unified
 182              	.LBE53:
 183              	.LBE54:
 184              	.LBE55:
 185              		.file 4 "../../modules/ChibiOS/os/rt/include/chsys.h"
 186              		.loc 4 356 0
 187 000a FFF7FEFF 		bl	_stats_start_measure_crit_thd
 188              	.LVL13:
 189              	.LBE56:
 190              	.LBE57:
 191              		.loc 1 116 0
 192 000e 2046     		mov	r0, r4
 193 0010 FFF7FEFF 		bl	chMBResetI
 194              	.LVL14:
 195              		.loc 1 117 0
 196 0014 FFF7FEFF 		bl	chSchRescheduleS
 197              	.LVL15:
 198              	.LBB58:
 199              	.LBB59:
 200              		.loc 4 368 0
 201 0018 FFF7FEFF 		bl	_stats_stop_measure_crit_thd
 202              	.LVL16:
 203              	.LBB60:
 204              	.LBB61:
 205              	.LBB62:
 206              		.loc 3 493 0
 207 001c 0023     		movs	r3, #0
 208              		.syntax unified
 209              	@ 493 "../../modules/ChibiOS/os/common/ext/ARM/CMSIS/Core/Include/cmsis_gcc.h" 1
 210 001e 83F31188 		MSR basepri, r3
 211              	@ 0 "" 2
 212              	.LVL17:
 213              		.thumb
 214              		.syntax unified
 215 0022 10BD     		pop	{r4, pc}
 216              	.LBE62:
 217              	.LBE61:
 218              	.LBE60:
 219              	.LBE59:
 220              	.LBE58:
 221              		.cfi_endproc
 222              	.LFE291:
 223              		.size	chMBReset, .-chMBReset
 224              		.section	.text.chMBPostTimeoutS,"ax",%progbits
 225              		.align	1
 226              		.global	chMBPostTimeoutS
 227              		.thumb
 228              		.thumb_func
ARM GAS  /tmp/cc82YYuL.s 			page 5


 229              		.type	chMBPostTimeoutS, %function
 230              	chMBPostTimeoutS:
 231              	.LFB294:
 232              		.loc 1 194 0
 233              		.cfi_startproc
 234              		@ args = 0, pretend = 0, frame = 0
 235              		@ frame_needed = 0, uses_anonymous_args = 0
 236              	.LVL18:
 237 0000 F8B5     		push	{r3, r4, r5, r6, r7, lr}
 238              		.cfi_def_cfa_offset 24
 239              		.cfi_offset 3, -24
 240              		.cfi_offset 4, -20
 241              		.cfi_offset 5, -16
 242              		.cfi_offset 6, -12
 243              		.cfi_offset 7, -8
 244              		.cfi_offset 14, -4
 245              		.loc 1 194 0
 246 0002 0446     		mov	r4, r0
 247 0004 0E46     		mov	r6, r1
 248 0006 1746     		mov	r7, r2
 249              		.loc 1 222 0
 250 0008 00F11805 		add	r5, r0, #24
 251              	.LVL19:
 252              	.L8:
 253              		.loc 1 202 0
 254 000c 237D     		ldrb	r3, [r4, #20]	@ zero_extendqisi2
 255 000e 03BB     		cbnz	r3, .L9
 256              	.LVL20:
 257              	.LBB69:
 258              	.LBB70:
 259              	.LBB71:
 260              		.file 5 "../../modules/ChibiOS/os/oslib/include/chmboxes.h"
 261              		.loc 5 140 0
 262 0010 6068     		ldr	r0, [r4, #4]
 263 0012 2168     		ldr	r1, [r4]
 264              	.LVL21:
 265 0014 2369     		ldr	r3, [r4, #16]
 266              	.LVL22:
 267              	.LBE71:
 268              	.LBE70:
 269              	.LBE69:
 270              		.loc 1 207 0
 271 0016 421A     		subs	r2, r0, r1
 272 0018 B3EBA20F 		cmp	r3, r2, asr #2
 273 001c 12D0     		beq	.L6
 274              	.LVL23:
 275              	.LBB72:
 276              	.LBB73:
 277              		.loc 1 208 0
 278 001e A568     		ldr	r5, [r4, #8]
 279 0020 2A1D     		adds	r2, r5, #4
 280              		.loc 1 209 0
 281 0022 9042     		cmp	r0, r2
 282              		.loc 1 212 0
 283 0024 03F10103 		add	r3, r3, #1
 284              		.loc 1 208 0
 285 0028 A260     		str	r2, [r4, #8]
ARM GAS  /tmp/cc82YYuL.s 			page 6


 286              		.loc 1 215 0
 287 002a 04F12000 		add	r0, r4, #32
 288              		.loc 1 208 0
 289 002e 2E60     		str	r6, [r5]
 290              		.loc 1 210 0
 291 0030 98BF     		it	ls
 292 0032 A160     		strls	r1, [r4, #8]
 293              		.loc 1 212 0
 294 0034 2361     		str	r3, [r4, #16]
 295              		.loc 1 215 0
 296 0036 0021     		movs	r1, #0
 297 0038 FFF7FEFF 		bl	chThdDequeueNextI
 298              	.LVL24:
 299              		.loc 1 216 0
 300 003c FFF7FEFF 		bl	chSchRescheduleS
 301              	.LVL25:
 302 0040 0020     		movs	r0, #0
 303 0042 F8BD     		pop	{r3, r4, r5, r6, r7, pc}
 304              	.LVL26:
 305              	.L6:
 306              	.LBE73:
 307              	.LBE72:
 308              		.loc 1 222 0
 309 0044 3946     		mov	r1, r7
 310 0046 2846     		mov	r0, r5
 311 0048 FFF7FEFF 		bl	chThdEnqueueTimeoutS
 312              	.LVL27:
 313              		.loc 1 223 0
 314 004c 0028     		cmp	r0, #0
 315 004e DDD0     		beq	.L8
 316 0050 F8BD     		pop	{r3, r4, r5, r6, r7, pc}
 317              	.LVL28:
 318              	.L9:
 319              		.loc 1 203 0
 320 0052 6FF00100 		mvn	r0, #1
 321              		.loc 1 226 0
 322 0056 F8BD     		pop	{r3, r4, r5, r6, r7, pc}
 323              		.cfi_endproc
 324              	.LFE294:
 325              		.size	chMBPostTimeoutS, .-chMBPostTimeoutS
 326              		.section	.text.chMBPostTimeout,"ax",%progbits
 327              		.align	1
 328              		.global	chMBPostTimeout
 329              		.thumb
 330              		.thumb_func
 331              		.type	chMBPostTimeout, %function
 332              	chMBPostTimeout:
 333              	.LFB293:
 334              		.loc 1 165 0
 335              		.cfi_startproc
 336              		@ args = 0, pretend = 0, frame = 0
 337              		@ frame_needed = 0, uses_anonymous_args = 0
 338              	.LVL29:
 339 0000 70B5     		push	{r4, r5, r6, lr}
 340              		.cfi_def_cfa_offset 16
 341              		.cfi_offset 4, -16
 342              		.cfi_offset 5, -12
ARM GAS  /tmp/cc82YYuL.s 			page 7


 343              		.cfi_offset 6, -8
 344              		.cfi_offset 14, -4
 345              	.LBB84:
 346              	.LBB85:
 347              	.LBB86:
 348              	.LBB87:
 349              	.LBB88:
 350              		.loc 3 493 0
 351 0002 2023     		movs	r3, #32
 352              	.LBE88:
 353              	.LBE87:
 354              	.LBE86:
 355              	.LBE85:
 356              	.LBE84:
 357              		.loc 1 165 0
 358 0004 0446     		mov	r4, r0
 359 0006 0D46     		mov	r5, r1
 360 0008 1646     		mov	r6, r2
 361              	.LBB93:
 362              	.LBB92:
 363              	.LBB91:
 364              	.LBB90:
 365              	.LBB89:
 366              		.loc 3 493 0
 367              		.syntax unified
 368              	@ 493 "../../modules/ChibiOS/os/common/ext/ARM/CMSIS/Core/Include/cmsis_gcc.h" 1
 369 000a 83F31188 		MSR basepri, r3
 370              	@ 0 "" 2
 371              	.LVL30:
 372              		.thumb
 373              		.syntax unified
 374              	.LBE89:
 375              	.LBE90:
 376              	.LBE91:
 377              		.loc 4 356 0
 378 000e FFF7FEFF 		bl	_stats_start_measure_crit_thd
 379              	.LVL31:
 380              	.LBE92:
 381              	.LBE93:
 382              		.loc 1 169 0
 383 0012 3246     		mov	r2, r6
 384 0014 2946     		mov	r1, r5
 385 0016 2046     		mov	r0, r4
 386 0018 FFF7FEFF 		bl	chMBPostTimeoutS
 387              	.LVL32:
 388 001c 0446     		mov	r4, r0
 389              	.LVL33:
 390              	.LBB94:
 391              	.LBB95:
 392              		.loc 4 368 0
 393 001e FFF7FEFF 		bl	_stats_stop_measure_crit_thd
 394              	.LVL34:
 395              	.LBB96:
 396              	.LBB97:
 397              	.LBB98:
 398              		.loc 3 493 0
 399 0022 0023     		movs	r3, #0
ARM GAS  /tmp/cc82YYuL.s 			page 8


 400              		.syntax unified
 401              	@ 493 "../../modules/ChibiOS/os/common/ext/ARM/CMSIS/Core/Include/cmsis_gcc.h" 1
 402 0024 83F31188 		MSR basepri, r3
 403              	@ 0 "" 2
 404              	.LVL35:
 405              		.thumb
 406              		.syntax unified
 407              	.LBE98:
 408              	.LBE97:
 409              	.LBE96:
 410              	.LBE95:
 411              	.LBE94:
 412              		.loc 1 173 0
 413 0028 2046     		mov	r0, r4
 414 002a 70BD     		pop	{r4, r5, r6, pc}
 415              		.cfi_endproc
 416              	.LFE293:
 417              		.size	chMBPostTimeout, .-chMBPostTimeout
 418              		.section	.text.chMBPostI,"ax",%progbits
 419              		.align	1
 420              		.global	chMBPostI
 421              		.thumb
 422              		.thumb_func
 423              		.type	chMBPostI, %function
 424              	chMBPostI:
 425              	.LFB295:
 426              		.loc 1 243 0
 427              		.cfi_startproc
 428              		@ args = 0, pretend = 0, frame = 0
 429              		@ frame_needed = 0, uses_anonymous_args = 0
 430              	.LVL36:
 431              		.loc 1 249 0
 432 0000 037D     		ldrb	r3, [r0, #20]	@ zero_extendqisi2
 433              		.loc 1 243 0
 434 0002 70B5     		push	{r4, r5, r6, lr}
 435              		.cfi_def_cfa_offset 16
 436              		.cfi_offset 4, -16
 437              		.cfi_offset 5, -12
 438              		.cfi_offset 6, -8
 439              		.cfi_offset 14, -4
 440              		.loc 1 249 0
 441 0004 CBB9     		cbnz	r3, .L17
 442              	.LVL37:
 443              	.LBB103:
 444              	.LBB104:
 445              	.LBB105:
 446              		.loc 5 140 0
 447 0006 90E81400 		ldmia	r0, {r2, r4}
 448              	.LVL38:
 449 000a 0369     		ldr	r3, [r0, #16]
 450              	.LVL39:
 451              	.LBE105:
 452              	.LBE104:
 453              	.LBE103:
 454              		.loc 1 254 0
 455 000c A51A     		subs	r5, r4, r2
 456 000e B3EBA50F 		cmp	r3, r5, asr #2
ARM GAS  /tmp/cc82YYuL.s 			page 9


 457 0012 15D0     		beq	.L18
 458              		.loc 1 255 0
 459 0014 8668     		ldr	r6, [r0, #8]
 460 0016 351D     		adds	r5, r6, #4
 461              		.loc 1 256 0
 462 0018 A542     		cmp	r5, r4
 463              		.loc 1 259 0
 464 001a 03F10103 		add	r3, r3, #1
 465              		.loc 1 255 0
 466 001e 8560     		str	r5, [r0, #8]
 467 0020 3160     		str	r1, [r6]
 468              		.loc 1 262 0
 469 0022 00F12000 		add	r0, r0, #32
 470              	.LVL40:
 471              		.loc 1 257 0
 472 0026 28BF     		it	cs
 473 0028 40F8182C 		strcs	r2, [r0, #-24]
 474              		.loc 1 259 0
 475 002c 40F8103C 		str	r3, [r0, #-16]
 476              		.loc 1 262 0
 477 0030 0021     		movs	r1, #0
 478              	.LVL41:
 479 0032 FFF7FEFF 		bl	chThdDequeueNextI
 480              	.LVL42:
 481              		.loc 1 264 0
 482 0036 0020     		movs	r0, #0
 483 0038 70BD     		pop	{r4, r5, r6, pc}
 484              	.LVL43:
 485              	.L17:
 486              		.loc 1 250 0
 487 003a 6FF00100 		mvn	r0, #1
 488              	.LVL44:
 489 003e 70BD     		pop	{r4, r5, r6, pc}
 490              	.LVL45:
 491              	.L18:
 492              		.loc 1 268 0
 493 0040 4FF0FF30 		mov	r0, #-1
 494              	.LVL46:
 495              		.loc 1 269 0
 496 0044 70BD     		pop	{r4, r5, r6, pc}
 497              		.cfi_endproc
 498              	.LFE295:
 499              		.size	chMBPostI, .-chMBPostI
 500              		.section	.text.chMBPostAheadTimeoutS,"ax",%progbits
 501              		.align	1
 502              		.global	chMBPostAheadTimeoutS
 503              		.thumb
 504              		.thumb_func
 505              		.type	chMBPostAheadTimeoutS, %function
 506              	chMBPostAheadTimeoutS:
 507              	.LFB297:
 508              		.loc 1 319 0
 509              		.cfi_startproc
 510              		@ args = 0, pretend = 0, frame = 0
 511              		@ frame_needed = 0, uses_anonymous_args = 0
 512              	.LVL47:
 513 0000 F8B5     		push	{r3, r4, r5, r6, r7, lr}
ARM GAS  /tmp/cc82YYuL.s 			page 10


 514              		.cfi_def_cfa_offset 24
 515              		.cfi_offset 3, -24
 516              		.cfi_offset 4, -20
 517              		.cfi_offset 5, -16
 518              		.cfi_offset 6, -12
 519              		.cfi_offset 7, -8
 520              		.cfi_offset 14, -4
 521              		.loc 1 319 0
 522 0002 0446     		mov	r4, r0
 523 0004 0D46     		mov	r5, r1
 524 0006 1746     		mov	r7, r2
 525              		.loc 1 347 0
 526 0008 00F11806 		add	r6, r0, #24
 527              	.LVL48:
 528              	.L24:
 529              		.loc 1 327 0
 530 000c 237D     		ldrb	r3, [r4, #20]	@ zero_extendqisi2
 531 000e 0BBB     		cbnz	r3, .L25
 532              	.LVL49:
 533              	.LBB112:
 534              	.LBB113:
 535              	.LBB114:
 536              		.loc 5 140 0
 537 0010 94E80300 		ldmia	r4, {r0, r1}
 538              	.LVL50:
 539 0014 2369     		ldr	r3, [r4, #16]
 540              	.LVL51:
 541              	.LBE114:
 542              	.LBE113:
 543              	.LBE112:
 544              		.loc 1 332 0
 545 0016 0A1A     		subs	r2, r1, r0
 546 0018 B3EBA20F 		cmp	r3, r2, asr #2
 547 001c 13D0     		beq	.L21
 548              	.LVL52:
 549              	.LBB115:
 550              	.LBB116:
 551              		.loc 1 333 0
 552 001e E268     		ldr	r2, [r4, #12]
 553 0020 043A     		subs	r2, r2, #4
 554 0022 9042     		cmp	r0, r2
 555              		.loc 1 334 0
 556 0024 86BF     		itte	hi
 557 0026 0439     		subhi	r1, r1, #4
 558 0028 E160     		strhi	r1, [r4, #12]
 559              		.loc 1 333 0
 560 002a E260     		strls	r2, [r4, #12]
 561              		.loc 1 336 0
 562 002c E268     		ldr	r2, [r4, #12]
 563              		.loc 1 337 0
 564 002e 0133     		adds	r3, r3, #1
 565              		.loc 1 336 0
 566 0030 1560     		str	r5, [r2]
 567              		.loc 1 340 0
 568 0032 04F12000 		add	r0, r4, #32
 569              		.loc 1 337 0
 570 0036 2361     		str	r3, [r4, #16]
ARM GAS  /tmp/cc82YYuL.s 			page 11


 571              		.loc 1 340 0
 572 0038 0021     		movs	r1, #0
 573 003a FFF7FEFF 		bl	chThdDequeueNextI
 574              	.LVL53:
 575              		.loc 1 341 0
 576 003e FFF7FEFF 		bl	chSchRescheduleS
 577              	.LVL54:
 578 0042 0020     		movs	r0, #0
 579 0044 F8BD     		pop	{r3, r4, r5, r6, r7, pc}
 580              	.LVL55:
 581              	.L21:
 582              	.LBE116:
 583              	.LBE115:
 584              		.loc 1 347 0
 585 0046 3946     		mov	r1, r7
 586 0048 3046     		mov	r0, r6
 587 004a FFF7FEFF 		bl	chThdEnqueueTimeoutS
 588              	.LVL56:
 589              		.loc 1 348 0
 590 004e 0028     		cmp	r0, #0
 591 0050 DCD0     		beq	.L24
 592 0052 F8BD     		pop	{r3, r4, r5, r6, r7, pc}
 593              	.LVL57:
 594              	.L25:
 595              		.loc 1 328 0
 596 0054 6FF00100 		mvn	r0, #1
 597              		.loc 1 351 0
 598 0058 F8BD     		pop	{r3, r4, r5, r6, r7, pc}
 599              		.cfi_endproc
 600              	.LFE297:
 601              		.size	chMBPostAheadTimeoutS, .-chMBPostAheadTimeoutS
 602              		.section	.text.chMBPostAheadTimeout,"ax",%progbits
 603              		.align	1
 604              		.global	chMBPostAheadTimeout
 605              		.thumb
 606              		.thumb_func
 607              		.type	chMBPostAheadTimeout, %function
 608              	chMBPostAheadTimeout:
 609              	.LFB296:
 610              		.loc 1 290 0
 611              		.cfi_startproc
 612              		@ args = 0, pretend = 0, frame = 0
 613              		@ frame_needed = 0, uses_anonymous_args = 0
 614              	.LVL58:
 615 0000 70B5     		push	{r4, r5, r6, lr}
 616              		.cfi_def_cfa_offset 16
 617              		.cfi_offset 4, -16
 618              		.cfi_offset 5, -12
 619              		.cfi_offset 6, -8
 620              		.cfi_offset 14, -4
 621              	.LBB127:
 622              	.LBB128:
 623              	.LBB129:
 624              	.LBB130:
 625              	.LBB131:
 626              		.loc 3 493 0
 627 0002 2023     		movs	r3, #32
ARM GAS  /tmp/cc82YYuL.s 			page 12


 628              	.LBE131:
 629              	.LBE130:
 630              	.LBE129:
 631              	.LBE128:
 632              	.LBE127:
 633              		.loc 1 290 0
 634 0004 0446     		mov	r4, r0
 635 0006 0D46     		mov	r5, r1
 636 0008 1646     		mov	r6, r2
 637              	.LBB136:
 638              	.LBB135:
 639              	.LBB134:
 640              	.LBB133:
 641              	.LBB132:
 642              		.loc 3 493 0
 643              		.syntax unified
 644              	@ 493 "../../modules/ChibiOS/os/common/ext/ARM/CMSIS/Core/Include/cmsis_gcc.h" 1
 645 000a 83F31188 		MSR basepri, r3
 646              	@ 0 "" 2
 647              	.LVL59:
 648              		.thumb
 649              		.syntax unified
 650              	.LBE132:
 651              	.LBE133:
 652              	.LBE134:
 653              		.loc 4 356 0
 654 000e FFF7FEFF 		bl	_stats_start_measure_crit_thd
 655              	.LVL60:
 656              	.LBE135:
 657              	.LBE136:
 658              		.loc 1 294 0
 659 0012 3246     		mov	r2, r6
 660 0014 2946     		mov	r1, r5
 661 0016 2046     		mov	r0, r4
 662 0018 FFF7FEFF 		bl	chMBPostAheadTimeoutS
 663              	.LVL61:
 664 001c 0446     		mov	r4, r0
 665              	.LVL62:
 666              	.LBB137:
 667              	.LBB138:
 668              		.loc 4 368 0
 669 001e FFF7FEFF 		bl	_stats_stop_measure_crit_thd
 670              	.LVL63:
 671              	.LBB139:
 672              	.LBB140:
 673              	.LBB141:
 674              		.loc 3 493 0
 675 0022 0023     		movs	r3, #0
 676              		.syntax unified
 677              	@ 493 "../../modules/ChibiOS/os/common/ext/ARM/CMSIS/Core/Include/cmsis_gcc.h" 1
 678 0024 83F31188 		MSR basepri, r3
 679              	@ 0 "" 2
 680              	.LVL64:
 681              		.thumb
 682              		.syntax unified
 683              	.LBE141:
 684              	.LBE140:
ARM GAS  /tmp/cc82YYuL.s 			page 13


 685              	.LBE139:
 686              	.LBE138:
 687              	.LBE137:
 688              		.loc 1 298 0
 689 0028 2046     		mov	r0, r4
 690 002a 70BD     		pop	{r4, r5, r6, pc}
 691              		.cfi_endproc
 692              	.LFE296:
 693              		.size	chMBPostAheadTimeout, .-chMBPostAheadTimeout
 694              		.section	.text.chMBPostAheadI,"ax",%progbits
 695              		.align	1
 696              		.global	chMBPostAheadI
 697              		.thumb
 698              		.thumb_func
 699              		.type	chMBPostAheadI, %function
 700              	chMBPostAheadI:
 701              	.LFB298:
 702              		.loc 1 368 0
 703              		.cfi_startproc
 704              		@ args = 0, pretend = 0, frame = 0
 705              		@ frame_needed = 0, uses_anonymous_args = 0
 706              	.LVL65:
 707 0000 38B5     		push	{r3, r4, r5, lr}
 708              		.cfi_def_cfa_offset 16
 709              		.cfi_offset 3, -16
 710              		.cfi_offset 4, -12
 711              		.cfi_offset 5, -8
 712              		.cfi_offset 14, -4
 713              		.loc 1 374 0
 714 0002 037D     		ldrb	r3, [r0, #20]	@ zero_extendqisi2
 715 0004 C3B9     		cbnz	r3, .L33
 716              	.LVL66:
 717              	.LBB146:
 718              	.LBB147:
 719              	.LBB148:
 720              		.loc 5 140 0
 721 0006 4268     		ldr	r2, [r0, #4]
 722 0008 0568     		ldr	r5, [r0]
 723              	.LVL67:
 724 000a 0369     		ldr	r3, [r0, #16]
 725              	.LVL68:
 726              	.LBE148:
 727              	.LBE147:
 728              	.LBE146:
 729              		.loc 1 379 0
 730 000c 541B     		subs	r4, r2, r5
 731 000e B3EBA40F 		cmp	r3, r4, asr #2
 732 0012 14D0     		beq	.L34
 733              		.loc 1 380 0
 734 0014 C468     		ldr	r4, [r0, #12]
 735 0016 043C     		subs	r4, r4, #4
 736 0018 AC42     		cmp	r4, r5
 737              		.loc 1 381 0
 738 001a 36BF     		itet	cc
 739 001c 043A     		subcc	r2, r2, #4
 740              		.loc 1 380 0
 741 001e C460     		strcs	r4, [r0, #12]
ARM GAS  /tmp/cc82YYuL.s 			page 14


 742              		.loc 1 381 0
 743 0020 C260     		strcc	r2, [r0, #12]
 744              		.loc 1 383 0
 745 0022 C268     		ldr	r2, [r0, #12]
 746              		.loc 1 384 0
 747 0024 0133     		adds	r3, r3, #1
 748              		.loc 1 383 0
 749 0026 1160     		str	r1, [r2]
 750              		.loc 1 387 0
 751 0028 2030     		adds	r0, r0, #32
 752              	.LVL69:
 753              		.loc 1 384 0
 754 002a 40F8103C 		str	r3, [r0, #-16]
 755              		.loc 1 387 0
 756 002e 0021     		movs	r1, #0
 757              	.LVL70:
 758 0030 FFF7FEFF 		bl	chThdDequeueNextI
 759              	.LVL71:
 760              		.loc 1 389 0
 761 0034 0020     		movs	r0, #0
 762 0036 38BD     		pop	{r3, r4, r5, pc}
 763              	.LVL72:
 764              	.L33:
 765              		.loc 1 375 0
 766 0038 6FF00100 		mvn	r0, #1
 767              	.LVL73:
 768 003c 38BD     		pop	{r3, r4, r5, pc}
 769              	.LVL74:
 770              	.L34:
 771              		.loc 1 393 0
 772 003e 4FF0FF30 		mov	r0, #-1
 773              	.LVL75:
 774              		.loc 1 394 0
 775 0042 38BD     		pop	{r3, r4, r5, pc}
 776              		.cfi_endproc
 777              	.LFE298:
 778              		.size	chMBPostAheadI, .-chMBPostAheadI
 779              		.section	.text.chMBFetchTimeoutS,"ax",%progbits
 780              		.align	1
 781              		.global	chMBFetchTimeoutS
 782              		.thumb
 783              		.thumb_func
 784              		.type	chMBFetchTimeoutS, %function
 785              	chMBFetchTimeoutS:
 786              	.LFB300:
 787              		.loc 1 444 0
 788              		.cfi_startproc
 789              		@ args = 0, pretend = 0, frame = 0
 790              		@ frame_needed = 0, uses_anonymous_args = 0
 791              	.LVL76:
 792 0000 F8B5     		push	{r3, r4, r5, r6, r7, lr}
 793              		.cfi_def_cfa_offset 24
 794              		.cfi_offset 3, -24
 795              		.cfi_offset 4, -20
 796              		.cfi_offset 5, -16
 797              		.cfi_offset 6, -12
 798              		.cfi_offset 7, -8
ARM GAS  /tmp/cc82YYuL.s 			page 15


 799              		.cfi_offset 14, -4
 800              		.loc 1 444 0
 801 0002 0446     		mov	r4, r0
 802 0004 0F46     		mov	r7, r1
 803 0006 1646     		mov	r6, r2
 804              		.loc 1 472 0
 805 0008 00F12005 		add	r5, r0, #32
 806              	.LVL77:
 807              	.L39:
 808              		.loc 1 452 0
 809 000c 237D     		ldrb	r3, [r4, #20]	@ zero_extendqisi2
 810 000e EBB9     		cbnz	r3, .L40
 811 0010 2369     		ldr	r3, [r4, #16]
 812              	.LVL78:
 813              		.loc 1 457 0
 814 0012 A3B1     		cbz	r3, .L37
 815              		.loc 1 458 0
 816 0014 E168     		ldr	r1, [r4, #12]
 817 0016 0A1D     		adds	r2, r1, #4
 818 0018 0968     		ldr	r1, [r1]
 819 001a E260     		str	r2, [r4, #12]
 820 001c 3960     		str	r1, [r7]
 821              		.loc 1 459 0
 822 001e 6168     		ldr	r1, [r4, #4]
 823 0020 8A42     		cmp	r2, r1
 824              		.loc 1 460 0
 825 0022 24BF     		itt	cs
 826 0024 2268     		ldrcs	r2, [r4]
 827 0026 E260     		strcs	r2, [r4, #12]
 828              		.loc 1 462 0
 829 0028 013B     		subs	r3, r3, #1
 830              		.loc 1 465 0
 831 002a 04F11800 		add	r0, r4, #24
 832              		.loc 1 462 0
 833 002e 2361     		str	r3, [r4, #16]
 834              		.loc 1 465 0
 835 0030 0021     		movs	r1, #0
 836 0032 FFF7FEFF 		bl	chThdDequeueNextI
 837              	.LVL79:
 838              		.loc 1 466 0
 839 0036 FFF7FEFF 		bl	chSchRescheduleS
 840              	.LVL80:
 841              		.loc 1 468 0
 842 003a 0020     		movs	r0, #0
 843 003c F8BD     		pop	{r3, r4, r5, r6, r7, pc}
 844              	.LVL81:
 845              	.L37:
 846              		.loc 1 472 0
 847 003e 3146     		mov	r1, r6
 848 0040 2846     		mov	r0, r5
 849 0042 FFF7FEFF 		bl	chThdEnqueueTimeoutS
 850              	.LVL82:
 851              		.loc 1 473 0
 852 0046 0028     		cmp	r0, #0
 853 0048 E0D0     		beq	.L39
 854 004a F8BD     		pop	{r3, r4, r5, r6, r7, pc}
 855              	.LVL83:
ARM GAS  /tmp/cc82YYuL.s 			page 16


 856              	.L40:
 857              		.loc 1 453 0
 858 004c 6FF00100 		mvn	r0, #1
 859              		.loc 1 476 0
 860 0050 F8BD     		pop	{r3, r4, r5, r6, r7, pc}
 861              		.cfi_endproc
 862              	.LFE300:
 863              		.size	chMBFetchTimeoutS, .-chMBFetchTimeoutS
 864              		.section	.text.chMBFetchTimeout,"ax",%progbits
 865              		.align	1
 866              		.global	chMBFetchTimeout
 867              		.thumb
 868              		.thumb_func
 869              		.type	chMBFetchTimeout, %function
 870              	chMBFetchTimeout:
 871              	.LFB299:
 872              		.loc 1 415 0
 873              		.cfi_startproc
 874              		@ args = 0, pretend = 0, frame = 0
 875              		@ frame_needed = 0, uses_anonymous_args = 0
 876              	.LVL84:
 877 0000 70B5     		push	{r4, r5, r6, lr}
 878              		.cfi_def_cfa_offset 16
 879              		.cfi_offset 4, -16
 880              		.cfi_offset 5, -12
 881              		.cfi_offset 6, -8
 882              		.cfi_offset 14, -4
 883              	.LBB159:
 884              	.LBB160:
 885              	.LBB161:
 886              	.LBB162:
 887              	.LBB163:
 888              		.loc 3 493 0
 889 0002 2023     		movs	r3, #32
 890              	.LBE163:
 891              	.LBE162:
 892              	.LBE161:
 893              	.LBE160:
 894              	.LBE159:
 895              		.loc 1 415 0
 896 0004 0446     		mov	r4, r0
 897 0006 0D46     		mov	r5, r1
 898 0008 1646     		mov	r6, r2
 899              	.LBB168:
 900              	.LBB167:
 901              	.LBB166:
 902              	.LBB165:
 903              	.LBB164:
 904              		.loc 3 493 0
 905              		.syntax unified
 906              	@ 493 "../../modules/ChibiOS/os/common/ext/ARM/CMSIS/Core/Include/cmsis_gcc.h" 1
 907 000a 83F31188 		MSR basepri, r3
 908              	@ 0 "" 2
 909              	.LVL85:
 910              		.thumb
 911              		.syntax unified
 912              	.LBE164:
ARM GAS  /tmp/cc82YYuL.s 			page 17


 913              	.LBE165:
 914              	.LBE166:
 915              		.loc 4 356 0
 916 000e FFF7FEFF 		bl	_stats_start_measure_crit_thd
 917              	.LVL86:
 918              	.LBE167:
 919              	.LBE168:
 920              		.loc 1 419 0
 921 0012 3246     		mov	r2, r6
 922 0014 2946     		mov	r1, r5
 923 0016 2046     		mov	r0, r4
 924 0018 FFF7FEFF 		bl	chMBFetchTimeoutS
 925              	.LVL87:
 926 001c 0446     		mov	r4, r0
 927              	.LVL88:
 928              	.LBB169:
 929              	.LBB170:
 930              		.loc 4 368 0
 931 001e FFF7FEFF 		bl	_stats_stop_measure_crit_thd
 932              	.LVL89:
 933              	.LBB171:
 934              	.LBB172:
 935              	.LBB173:
 936              		.loc 3 493 0
 937 0022 0023     		movs	r3, #0
 938              		.syntax unified
 939              	@ 493 "../../modules/ChibiOS/os/common/ext/ARM/CMSIS/Core/Include/cmsis_gcc.h" 1
 940 0024 83F31188 		MSR basepri, r3
 941              	@ 0 "" 2
 942              	.LVL90:
 943              		.thumb
 944              		.syntax unified
 945              	.LBE173:
 946              	.LBE172:
 947              	.LBE171:
 948              	.LBE170:
 949              	.LBE169:
 950              		.loc 1 423 0
 951 0028 2046     		mov	r0, r4
 952 002a 70BD     		pop	{r4, r5, r6, pc}
 953              		.cfi_endproc
 954              	.LFE299:
 955              		.size	chMBFetchTimeout, .-chMBFetchTimeout
 956              		.section	.text.chMBFetchI,"ax",%progbits
 957              		.align	1
 958              		.global	chMBFetchI
 959              		.thumb
 960              		.thumb_func
 961              		.type	chMBFetchI, %function
 962              	chMBFetchI:
 963              	.LFB301:
 964              		.loc 1 493 0
 965              		.cfi_startproc
 966              		@ args = 0, pretend = 0, frame = 0
 967              		@ frame_needed = 0, uses_anonymous_args = 0
 968              	.LVL91:
 969              		.loc 1 499 0
ARM GAS  /tmp/cc82YYuL.s 			page 18


 970 0000 037D     		ldrb	r3, [r0, #20]	@ zero_extendqisi2
 971              		.loc 1 493 0
 972 0002 10B5     		push	{r4, lr}
 973              		.cfi_def_cfa_offset 8
 974              		.cfi_offset 4, -8
 975              		.cfi_offset 14, -4
 976              		.loc 1 499 0
 977 0004 9BB9     		cbnz	r3, .L47
 978 0006 0369     		ldr	r3, [r0, #16]
 979              	.LVL92:
 980              		.loc 1 504 0
 981 0008 A3B1     		cbz	r3, .L48
 982              		.loc 1 505 0
 983 000a C468     		ldr	r4, [r0, #12]
 984 000c 221D     		adds	r2, r4, #4
 985 000e 2468     		ldr	r4, [r4]
 986 0010 C260     		str	r2, [r0, #12]
 987 0012 0C60     		str	r4, [r1]
 988              		.loc 1 506 0
 989 0014 4168     		ldr	r1, [r0, #4]
 990              	.LVL93:
 991 0016 8A42     		cmp	r2, r1
 992              		.loc 1 507 0
 993 0018 24BF     		itt	cs
 994 001a 0268     		ldrcs	r2, [r0]
 995 001c C260     		strcs	r2, [r0, #12]
 996              		.loc 1 509 0
 997 001e 013B     		subs	r3, r3, #1
 998 0020 0361     		str	r3, [r0, #16]
 999              		.loc 1 512 0
 1000 0022 0021     		movs	r1, #0
 1001 0024 1830     		adds	r0, r0, #24
 1002              	.LVL94:
 1003 0026 FFF7FEFF 		bl	chThdDequeueNextI
 1004              	.LVL95:
 1005              		.loc 1 514 0
 1006 002a 0020     		movs	r0, #0
 1007 002c 10BD     		pop	{r4, pc}
 1008              	.LVL96:
 1009              	.L47:
 1010              		.loc 1 500 0
 1011 002e 6FF00100 		mvn	r0, #1
 1012              	.LVL97:
 1013 0032 10BD     		pop	{r4, pc}
 1014              	.LVL98:
 1015              	.L48:
 1016              		.loc 1 518 0
 1017 0034 4FF0FF30 		mov	r0, #-1
 1018              	.LVL99:
 1019              		.loc 1 519 0
 1020 0038 10BD     		pop	{r4, pc}
 1021              		.cfi_endproc
 1022              	.LFE301:
 1023              		.size	chMBFetchI, .-chMBFetchI
 1024              		.text
 1025              	.Letext0:
 1026              		.file 6 "/usr/lib/gcc/arm-none-eabi/5.4.1/include/stddef.h"
ARM GAS  /tmp/cc82YYuL.s 			page 19


 1027              		.file 7 "/usr/include/newlib/machine/_default_types.h"
 1028              		.file 8 "/usr/include/newlib/sys/_stdint.h"
 1029              		.file 9 "../../modules/ChibiOS/os/common/ports/ARMCMx/compilers/GCC/chtypes.h"
 1030              		.file 10 "../../modules/ChibiOS/os/rt/include/chsystypes.h"
 1031              		.file 11 "../../modules/ChibiOS/os/rt/include/chtime.h"
 1032              		.file 12 "../../modules/ChibiOS/os/common/ports/ARMCMx/chcore.h"
 1033              		.file 13 "../../modules/ChibiOS/os/common/ports/ARMCMx/chcore_v7m.h"
 1034              		.file 14 "../../modules/ChibiOS/os/rt/include/chtm.h"
 1035              		.file 15 "../../modules/ChibiOS/os/rt/include/chstats.h"
 1036              		.file 16 "../../modules/ChibiOS/os/rt/include/chsem.h"
 1037              		.file 17 "../../modules/ChibiOS/os/rt/include/chmtx.h"
 1038              		.file 18 "../../modules/ChibiOS/os/rt/include/chthreads.h"
 1039              		.file 19 "../../modules/ChibiOS/os/common/ext/ARM/CMSIS/Core/Include/core_cm4.h"