ARM GAS  /tmp/ccoAll8U.s 			page 1


   1              		.syntax unified
   2              		.cpu cortex-m4
   3              		.eabi_attribute 27, 1
   4              		.eabi_attribute 28, 1
   5              		.fpu fpv4-sp-d16
   6              		.eabi_attribute 20, 1
   7              		.eabi_attribute 21, 1
   8              		.eabi_attribute 23, 3
   9              		.eabi_attribute 24, 1
  10              		.eabi_attribute 25, 1
  11              		.eabi_attribute 26, 1
  12              		.eabi_attribute 30, 4
  13              		.eabi_attribute 34, 1
  14              		.eabi_attribute 18, 4
  15              		.thumb
  16              		.syntax unified
  17              		.file	"chmemcore.c"
  18              		.text
  19              	.Ltext0:
  20              		.cfi_sections	.debug_frame
  21              		.section	.text._core_init,"ax",%progbits
  22              		.align	1
  23              		.global	_core_init
  24              		.thumb
  25              		.thumb_func
  26              		.type	_core_init, %function
  27              	_core_init:
  28              	.LFB290:
  29              		.file 1 "../../modules/ChibiOS/os/oslib/src/chmemcore.c"
  30              		.loc 1 81 0
  31              		.cfi_startproc
  32              		@ args = 0, pretend = 0, frame = 0
  33              		@ frame_needed = 0, uses_anonymous_args = 0
  34              		@ link register save eliminated.
  35              		.loc 1 87 0
  36 0000 024B     		ldr	r3, .L2
  37 0002 034A     		ldr	r2, .L2+4
  38 0004 1A60     		str	r2, [r3]
  39              		.loc 1 88 0
  40 0006 034A     		ldr	r2, .L2+8
  41 0008 5A60     		str	r2, [r3, #4]
  42 000a 7047     		bx	lr
  43              	.L3:
  44              		.align	2
  45              	.L2:
  46 000c 00000000 		.word	.LANCHOR0
  47 0010 00000000 		.word	__heap_base__
  48 0014 00000000 		.word	__heap_end__
  49              		.cfi_endproc
  50              	.LFE290:
  51              		.size	_core_init, .-_core_init
  52              		.section	.text.chCoreAllocAlignedWithOffsetI,"ax",%progbits
  53              		.align	1
  54              		.global	chCoreAllocAlignedWithOffsetI
  55              		.thumb
  56              		.thumb_func
  57              		.type	chCoreAllocAlignedWithOffsetI, %function
ARM GAS  /tmp/ccoAll8U.s 			page 2


  58              	chCoreAllocAlignedWithOffsetI:
  59              	.LFB291:
  60              		.loc 1 114 0
  61              		.cfi_startproc
  62              		@ args = 0, pretend = 0, frame = 0
  63              		@ frame_needed = 0, uses_anonymous_args = 0
  64              	.LVL0:
  65 0000 70B5     		push	{r4, r5, r6, lr}
  66              		.cfi_def_cfa_offset 16
  67              		.cfi_offset 4, -16
  68              		.cfi_offset 5, -12
  69              		.cfi_offset 6, -8
  70              		.cfi_offset 14, -4
  71              		.loc 1 121 0
  72 0002 0A4C     		ldr	r4, .L9
  73 0004 2668     		ldr	r6, [r4]
  74              		.loc 1 120 0
  75 0006 0138     		subs	r0, r0, #1
  76              	.LVL1:
  77              		.loc 1 121 0
  78 0008 3244     		add	r2, r2, r6
  79              	.LVL2:
  80              		.loc 1 120 0
  81 000a 4518     		adds	r5, r0, r1
  82              		.loc 1 121 0
  83 000c 501E     		subs	r0, r2, #1
  84              	.LVL3:
  85              		.loc 1 120 0
  86 000e 4B42     		negs	r3, r1
  87              	.LVL4:
  88              		.loc 1 121 0
  89 0010 0844     		add	r0, r0, r1
  90 0012 1840     		ands	r0, r0, r3
  91              	.LVL5:
  92              		.loc 1 125 0
  93 0014 6268     		ldr	r2, [r4, #4]
  94              		.loc 1 122 0
  95 0016 2B40     		ands	r3, r3, r5
  96              	.LVL6:
  97 0018 0344     		add	r3, r3, r0
  98              	.LVL7:
  99              		.loc 1 125 0
 100 001a 9342     		cmp	r3, r2
 101 001c 03D8     		bhi	.L7
 102              		.loc 1 125 0 is_stmt 0 discriminator 1
 103 001e 9E42     		cmp	r6, r3
 104 0020 01D8     		bhi	.L7
 105              		.loc 1 129 0 is_stmt 1
 106 0022 2360     		str	r3, [r4]
 107              		.loc 1 131 0
 108 0024 70BD     		pop	{r4, r5, r6, pc}
 109              	.LVL8:
 110              	.L7:
 111              		.loc 1 126 0
 112 0026 0020     		movs	r0, #0
 113              	.LVL9:
 114              		.loc 1 132 0
ARM GAS  /tmp/ccoAll8U.s 			page 3


 115 0028 70BD     		pop	{r4, r5, r6, pc}
 116              	.LVL10:
 117              	.L10:
 118 002a 00BF     		.align	2
 119              	.L9:
 120 002c 00000000 		.word	.LANCHOR0
 121              		.cfi_endproc
 122              	.LFE291:
 123              		.size	chCoreAllocAlignedWithOffsetI, .-chCoreAllocAlignedWithOffsetI
 124              		.section	.text.chCoreAllocAlignedWithOffset,"ax",%progbits
 125              		.align	1
 126              		.global	chCoreAllocAlignedWithOffset
 127              		.thumb
 128              		.thumb_func
 129              		.type	chCoreAllocAlignedWithOffset, %function
 130              	chCoreAllocAlignedWithOffset:
 131              	.LFB292:
 132              		.loc 1 150 0
 133              		.cfi_startproc
 134              		@ args = 0, pretend = 0, frame = 0
 135              		@ frame_needed = 0, uses_anonymous_args = 0
 136              	.LVL11:
 137 0000 70B5     		push	{r4, r5, r6, lr}
 138              		.cfi_def_cfa_offset 16
 139              		.cfi_offset 4, -16
 140              		.cfi_offset 5, -12
 141              		.cfi_offset 6, -8
 142              		.cfi_offset 14, -4
 143              	.LBB24:
 144              	.LBB25:
 145              	.LBB26:
 146              	.LBB27:
 147              	.LBB28:
 148              		.file 2 "../../modules/ChibiOS/os/common/ext/ARM/CMSIS/Core/Include/cmsis_gcc.h"
 149              		.loc 2 493 0
 150 0002 2023     		movs	r3, #32
 151              	.LBE28:
 152              	.LBE27:
 153              	.LBE26:
 154              	.LBE25:
 155              	.LBE24:
 156              		.loc 1 150 0
 157 0004 0446     		mov	r4, r0
 158 0006 0D46     		mov	r5, r1
 159 0008 1646     		mov	r6, r2
 160              	.LBB33:
 161              	.LBB32:
 162              	.LBB31:
 163              	.LBB30:
 164              	.LBB29:
 165              		.loc 2 493 0
 166              		.syntax unified
 167              	@ 493 "../../modules/ChibiOS/os/common/ext/ARM/CMSIS/Core/Include/cmsis_gcc.h" 1
 168 000a 83F31188 		MSR basepri, r3
 169              	@ 0 "" 2
 170              	.LVL12:
 171              		.thumb
ARM GAS  /tmp/ccoAll8U.s 			page 4


 172              		.syntax unified
 173              	.LBE29:
 174              	.LBE30:
 175              	.LBE31:
 176              		.file 3 "../../modules/ChibiOS/os/rt/include/chsys.h"
 177              		.loc 3 356 0
 178 000e FFF7FEFF 		bl	_stats_start_measure_crit_thd
 179              	.LVL13:
 180              	.LBE32:
 181              	.LBE33:
 182              		.loc 1 154 0
 183 0012 3246     		mov	r2, r6
 184 0014 2946     		mov	r1, r5
 185 0016 2046     		mov	r0, r4
 186 0018 FFF7FEFF 		bl	chCoreAllocAlignedWithOffsetI
 187              	.LVL14:
 188 001c 0446     		mov	r4, r0
 189              	.LVL15:
 190              	.LBB34:
 191              	.LBB35:
 192              		.loc 3 368 0
 193 001e FFF7FEFF 		bl	_stats_stop_measure_crit_thd
 194              	.LVL16:
 195              	.LBB36:
 196              	.LBB37:
 197              	.LBB38:
 198              		.loc 2 493 0
 199 0022 0023     		movs	r3, #0
 200              		.syntax unified
 201              	@ 493 "../../modules/ChibiOS/os/common/ext/ARM/CMSIS/Core/Include/cmsis_gcc.h" 1
 202 0024 83F31188 		MSR basepri, r3
 203              	@ 0 "" 2
 204              	.LVL17:
 205              		.thumb
 206              		.syntax unified
 207              	.LBE38:
 208              	.LBE37:
 209              	.LBE36:
 210              	.LBE35:
 211              	.LBE34:
 212              		.loc 1 158 0
 213 0028 2046     		mov	r0, r4
 214 002a 70BD     		pop	{r4, r5, r6, pc}
 215              		.cfi_endproc
 216              	.LFE292:
 217              		.size	chCoreAllocAlignedWithOffset, .-chCoreAllocAlignedWithOffset
 218              		.section	.text.chCoreGetStatusX,"ax",%progbits
 219              		.align	1
 220              		.global	chCoreGetStatusX
 221              		.thumb
 222              		.thumb_func
 223              		.type	chCoreGetStatusX, %function
 224              	chCoreGetStatusX:
 225              	.LFB293:
 226              		.loc 1 167 0
 227              		.cfi_startproc
 228              		@ args = 0, pretend = 0, frame = 0
ARM GAS  /tmp/ccoAll8U.s 			page 5


 229              		@ frame_needed = 0, uses_anonymous_args = 0
 230              		@ link register save eliminated.
 231              		.loc 1 170 0
 232 0000 024B     		ldr	r3, .L13
 233 0002 5868     		ldr	r0, [r3, #4]
 234 0004 1B68     		ldr	r3, [r3]
 235              		.loc 1 172 0
 236 0006 C01A     		subs	r0, r0, r3
 237 0008 7047     		bx	lr
 238              	.L14:
 239 000a 00BF     		.align	2
 240              	.L13:
 241 000c 00000000 		.word	.LANCHOR0
 242              		.cfi_endproc
 243              	.LFE293:
 244              		.size	chCoreGetStatusX, .-chCoreGetStatusX
 245              		.global	ch_memcore
 246              		.section	.bss.ch_memcore,"aw",%nobits
 247              		.align	2
 248              		.set	.LANCHOR0,. + 0
 249              		.type	ch_memcore, %object
 250              		.size	ch_memcore, 8
 251              	ch_memcore:
 252 0000 00000000 		.space	8
 252      00000000 
 253              		.text
 254              	.Letext0:
 255              		.file 4 "/usr/lib/gcc/arm-none-eabi/5.4.1/include/stddef.h"
 256              		.file 5 "/usr/include/newlib/machine/_default_types.h"
 257              		.file 6 "/usr/include/newlib/sys/_stdint.h"
 258              		.file 7 "../../modules/ChibiOS/os/common/ports/ARMCMx/compilers/GCC/chtypes.h"
 259              		.file 8 "../../modules/ChibiOS/os/rt/include/chsystypes.h"
 260              		.file 9 "../../modules/ChibiOS/os/rt/include/chschd.h"
 261              		.file 10 "../../modules/ChibiOS/os/rt/include/chtime.h"
 262              		.file 11 "../../modules/ChibiOS/os/common/ports/ARMCMx/chcore.h"
 263              		.file 12 "../../modules/ChibiOS/os/common/ports/ARMCMx/chcore_v7m.h"
 264              		.file 13 "../../modules/ChibiOS/os/rt/include/chtm.h"
 265              		.file 14 "../../modules/ChibiOS/os/rt/include/chstats.h"
 266              		.file 15 "../../modules/ChibiOS/os/rt/include/chsem.h"
 267              		.file 16 "../../modules/ChibiOS/os/rt/include/chmtx.h"
 268              		.file 17 "../../modules/ChibiOS/os/oslib/include/chmemcore.h"
 269              		.file 18 "../../modules/ChibiOS/os/common/ext/ARM/CMSIS/Core/Include/core_cm4.h"