ARM GAS  /tmp/cc1d7Rw9.s 			page 1


   1              		.syntax unified
   2              		.cpu cortex-m4
   3              		.eabi_attribute 27, 1
   4              		.eabi_attribute 28, 1
   5              		.fpu fpv4-sp-d16
   6              		.eabi_attribute 20, 1
   7              		.eabi_attribute 21, 1
   8              		.eabi_attribute 23, 3
   9              		.eabi_attribute 24, 1
  10              		.eabi_attribute 25, 1
  11              		.eabi_attribute 26, 1
  12              		.eabi_attribute 30, 4
  13              		.eabi_attribute 34, 1
  14              		.eabi_attribute 18, 4
  15              		.thumb
  16              		.syntax unified
  17              		.file	"chmempools.c"
  18              		.text
  19              	.Ltext0:
  20              		.cfi_sections	.debug_frame
  21              		.section	.text.chPoolObjectInitAligned,"ax",%progbits
  22              		.align	1
  23              		.global	chPoolObjectInitAligned
  24              		.thumb
  25              		.thumb_func
  26              		.type	chPoolObjectInitAligned, %function
  27              	chPoolObjectInitAligned:
  28              	.LFB290:
  29              		.file 1 "../../modules/ChibiOS/os/oslib/src/chmempools.c"
  30              		.loc 1 78 0
  31              		.cfi_startproc
  32              		@ args = 0, pretend = 0, frame = 0
  33              		@ frame_needed = 0, uses_anonymous_args = 0
  34              	.LVL0:
  35 0000 10B5     		push	{r4, lr}
  36              		.cfi_def_cfa_offset 8
  37              		.cfi_offset 4, -8
  38              		.cfi_offset 14, -4
  39              		.loc 1 85 0
  40 0002 0024     		movs	r4, #0
  41 0004 0460     		str	r4, [r0]
  42              		.loc 1 86 0
  43 0006 4160     		str	r1, [r0, #4]
  44              		.loc 1 87 0
  45 0008 8260     		str	r2, [r0, #8]
  46              		.loc 1 88 0
  47 000a C360     		str	r3, [r0, #12]
  48 000c 10BD     		pop	{r4, pc}
  49              		.cfi_endproc
  50              	.LFE290:
  51              		.size	chPoolObjectInitAligned, .-chPoolObjectInitAligned
  52              		.section	.text.chPoolAllocI,"ax",%progbits
  53              		.align	1
  54              		.global	chPoolAllocI
  55              		.thumb
  56              		.thumb_func
  57              		.type	chPoolAllocI, %function
ARM GAS  /tmp/cc1d7Rw9.s 			page 2


  58              	chPoolAllocI:
  59              	.LFB292:
  60              		.loc 1 129 0
  61              		.cfi_startproc
  62              		@ args = 0, pretend = 0, frame = 0
  63              		@ frame_needed = 0, uses_anonymous_args = 0
  64              		@ link register save eliminated.
  65              	.LVL1:
  66              		.loc 1 129 0
  67 0000 0346     		mov	r3, r0
  68              		.loc 1 135 0
  69 0002 0068     		ldr	r0, [r0]
  70              	.LVL2:
  71              		.loc 1 137 0
  72 0004 10B1     		cbz	r0, .L3
  73              		.loc 1 138 0
  74 0006 0268     		ldr	r2, [r0]
  75 0008 1A60     		str	r2, [r3]
  76 000a 7047     		bx	lr
  77              	.L3:
  78              		.loc 1 140 0
  79 000c DA68     		ldr	r2, [r3, #12]
  80 000e 12B1     		cbz	r2, .L4
  81              		.loc 1 141 0
  82 0010 9968     		ldr	r1, [r3, #8]
  83 0012 5868     		ldr	r0, [r3, #4]
  84              	.LVL3:
  85 0014 1047     		bx	r2
  86              	.LVL4:
  87              	.L4:
  88              		.loc 1 149 0
  89 0016 7047     		bx	lr
  90              		.cfi_endproc
  91              	.LFE292:
  92              		.size	chPoolAllocI, .-chPoolAllocI
  93              		.section	.text.chPoolAlloc,"ax",%progbits
  94              		.align	1
  95              		.global	chPoolAlloc
  96              		.thumb
  97              		.thumb_func
  98              		.type	chPoolAlloc, %function
  99              	chPoolAlloc:
 100              	.LFB293:
 101              		.loc 1 161 0
 102              		.cfi_startproc
 103              		@ args = 0, pretend = 0, frame = 0
 104              		@ frame_needed = 0, uses_anonymous_args = 0
 105              	.LVL5:
 106 0000 10B5     		push	{r4, lr}
 107              		.cfi_def_cfa_offset 8
 108              		.cfi_offset 4, -8
 109              		.cfi_offset 14, -4
 110              	.LBB34:
 111              	.LBB35:
 112              	.LBB36:
 113              	.LBB37:
 114              	.LBB38:
ARM GAS  /tmp/cc1d7Rw9.s 			page 3


 115              		.file 2 "../../modules/ChibiOS/os/common/ext/ARM/CMSIS/Core/Include/cmsis_gcc.h"
 116              		.loc 2 493 0
 117 0002 2023     		movs	r3, #32
 118              	.LBE38:
 119              	.LBE37:
 120              	.LBE36:
 121              	.LBE35:
 122              	.LBE34:
 123              		.loc 1 161 0
 124 0004 0446     		mov	r4, r0
 125              	.LBB43:
 126              	.LBB42:
 127              	.LBB41:
 128              	.LBB40:
 129              	.LBB39:
 130              		.loc 2 493 0
 131              		.syntax unified
 132              	@ 493 "../../modules/ChibiOS/os/common/ext/ARM/CMSIS/Core/Include/cmsis_gcc.h" 1
 133 0006 83F31188 		MSR basepri, r3
 134              	@ 0 "" 2
 135              	.LVL6:
 136              		.thumb
 137              		.syntax unified
 138              	.LBE39:
 139              	.LBE40:
 140              	.LBE41:
 141              		.file 3 "../../modules/ChibiOS/os/rt/include/chsys.h"
 142              		.loc 3 356 0
 143 000a FFF7FEFF 		bl	_stats_start_measure_crit_thd
 144              	.LVL7:
 145              	.LBE42:
 146              	.LBE43:
 147              		.loc 1 165 0
 148 000e 2046     		mov	r0, r4
 149 0010 FFF7FEFF 		bl	chPoolAllocI
 150              	.LVL8:
 151 0014 0446     		mov	r4, r0
 152              	.LVL9:
 153              	.LBB44:
 154              	.LBB45:
 155              		.loc 3 368 0
 156 0016 FFF7FEFF 		bl	_stats_stop_measure_crit_thd
 157              	.LVL10:
 158              	.LBB46:
 159              	.LBB47:
 160              	.LBB48:
 161              		.loc 2 493 0
 162 001a 0023     		movs	r3, #0
 163              		.syntax unified
 164              	@ 493 "../../modules/ChibiOS/os/common/ext/ARM/CMSIS/Core/Include/cmsis_gcc.h" 1
 165 001c 83F31188 		MSR basepri, r3
 166              	@ 0 "" 2
 167              	.LVL11:
 168              		.thumb
 169              		.syntax unified
 170              	.LBE48:
 171              	.LBE47:
ARM GAS  /tmp/cc1d7Rw9.s 			page 4


 172              	.LBE46:
 173              	.LBE45:
 174              	.LBE44:
 175              		.loc 1 169 0
 176 0020 2046     		mov	r0, r4
 177 0022 10BD     		pop	{r4, pc}
 178              		.cfi_endproc
 179              	.LFE293:
 180              		.size	chPoolAlloc, .-chPoolAlloc
 181              		.section	.text.chPoolFreeI,"ax",%progbits
 182              		.align	1
 183              		.global	chPoolFreeI
 184              		.thumb
 185              		.thumb_func
 186              		.type	chPoolFreeI, %function
 187              	chPoolFreeI:
 188              	.LFB294:
 189              		.loc 1 183 0
 190              		.cfi_startproc
 191              		@ args = 0, pretend = 0, frame = 0
 192              		@ frame_needed = 0, uses_anonymous_args = 0
 193              		@ link register save eliminated.
 194              	.LVL12:
 195              		.loc 1 191 0
 196 0000 0368     		ldr	r3, [r0]
 197 0002 0B60     		str	r3, [r1]
 198              		.loc 1 192 0
 199 0004 0160     		str	r1, [r0]
 200 0006 7047     		bx	lr
 201              		.cfi_endproc
 202              	.LFE294:
 203              		.size	chPoolFreeI, .-chPoolFreeI
 204              		.section	.text.chPoolFree,"ax",%progbits
 205              		.align	1
 206              		.global	chPoolFree
 207              		.thumb
 208              		.thumb_func
 209              		.type	chPoolFree, %function
 210              	chPoolFree:
 211              	.LFB295:
 212              		.loc 1 207 0
 213              		.cfi_startproc
 214              		@ args = 0, pretend = 0, frame = 0
 215              		@ frame_needed = 0, uses_anonymous_args = 0
 216              	.LVL13:
 217 0000 38B5     		push	{r3, r4, r5, lr}
 218              		.cfi_def_cfa_offset 16
 219              		.cfi_offset 3, -16
 220              		.cfi_offset 4, -12
 221              		.cfi_offset 5, -8
 222              		.cfi_offset 14, -4
 223              		.loc 1 207 0
 224 0002 0446     		mov	r4, r0
 225 0004 0D46     		mov	r5, r1
 226              	.LBB61:
 227              	.LBB62:
 228              	.LBB63:
ARM GAS  /tmp/cc1d7Rw9.s 			page 5


 229              	.LBB64:
 230              	.LBB65:
 231              		.loc 2 493 0
 232 0006 2023     		movs	r3, #32
 233              		.syntax unified
 234              	@ 493 "../../modules/ChibiOS/os/common/ext/ARM/CMSIS/Core/Include/cmsis_gcc.h" 1
 235 0008 83F31188 		MSR basepri, r3
 236              	@ 0 "" 2
 237              	.LVL14:
 238              		.thumb
 239              		.syntax unified
 240              	.LBE65:
 241              	.LBE64:
 242              	.LBE63:
 243              		.loc 3 356 0
 244 000c FFF7FEFF 		bl	_stats_start_measure_crit_thd
 245              	.LVL15:
 246              	.LBE62:
 247              	.LBE61:
 248              	.LBB66:
 249              	.LBB67:
 250              		.loc 1 191 0
 251 0010 2368     		ldr	r3, [r4]
 252 0012 2B60     		str	r3, [r5]
 253              		.loc 1 192 0
 254 0014 2560     		str	r5, [r4]
 255              	.LVL16:
 256              	.LBE67:
 257              	.LBE66:
 258              	.LBB68:
 259              	.LBB69:
 260              		.loc 3 368 0
 261 0016 FFF7FEFF 		bl	_stats_stop_measure_crit_thd
 262              	.LVL17:
 263              	.LBB70:
 264              	.LBB71:
 265              	.LBB72:
 266              		.loc 2 493 0
 267 001a 0023     		movs	r3, #0
 268              		.syntax unified
 269              	@ 493 "../../modules/ChibiOS/os/common/ext/ARM/CMSIS/Core/Include/cmsis_gcc.h" 1
 270 001c 83F31188 		MSR basepri, r3
 271              	@ 0 "" 2
 272              	.LVL18:
 273              		.thumb
 274              		.syntax unified
 275 0020 38BD     		pop	{r3, r4, r5, pc}
 276              	.LBE72:
 277              	.LBE71:
 278              	.LBE70:
 279              	.LBE69:
 280              	.LBE68:
 281              		.cfi_endproc
 282              	.LFE295:
 283              		.size	chPoolFree, .-chPoolFree
 284              		.section	.text.chPoolLoadArray,"ax",%progbits
 285              		.align	1
ARM GAS  /tmp/cc1d7Rw9.s 			page 6


 286              		.global	chPoolLoadArray
 287              		.thumb
 288              		.thumb_func
 289              		.type	chPoolLoadArray, %function
 290              	chPoolLoadArray:
 291              	.LFB291:
 292              		.loc 1 106 0
 293              		.cfi_startproc
 294              		@ args = 0, pretend = 0, frame = 0
 295              		@ frame_needed = 0, uses_anonymous_args = 0
 296              	.LVL19:
 297 0000 70B5     		push	{r4, r5, r6, lr}
 298              		.cfi_def_cfa_offset 16
 299              		.cfi_offset 4, -16
 300              		.cfi_offset 5, -12
 301              		.cfi_offset 6, -8
 302              		.cfi_offset 14, -4
 303 0002 0646     		mov	r6, r0
 304 0004 0D46     		mov	r5, r1
 305 0006 1446     		mov	r4, r2
 306              	.LVL20:
 307              	.L13:
 308              		.loc 1 110 0
 309 0008 3CB1     		cbz	r4, .L15
 310              	.LVL21:
 311              	.LBB73:
 312              	.LBB74:
 313              		.file 4 "../../modules/ChibiOS/os/oslib/include/chmempools.h"
 314              		.loc 4 212 0
 315 000a 2946     		mov	r1, r5
 316 000c 3046     		mov	r0, r6
 317 000e FFF7FEFF 		bl	chPoolFree
 318              	.LVL22:
 319              	.LBE74:
 320              	.LBE73:
 321              		.loc 1 113 0
 322 0012 7368     		ldr	r3, [r6, #4]
 323              		.loc 1 115 0
 324 0014 013C     		subs	r4, r4, #1
 325              	.LVL23:
 326              		.loc 1 113 0
 327 0016 1D44     		add	r5, r5, r3
 328              	.LVL24:
 329 0018 F6E7     		b	.L13
 330              	.L15:
 331              		.loc 1 117 0
 332 001a 70BD     		pop	{r4, r5, r6, pc}
 333              		.cfi_endproc
 334              	.LFE291:
 335              		.size	chPoolLoadArray, .-chPoolLoadArray
 336              		.section	.text.chGuardedPoolObjectInitAligned,"ax",%progbits
 337              		.align	1
 338              		.global	chGuardedPoolObjectInitAligned
 339              		.thumb
 340              		.thumb_func
 341              		.type	chGuardedPoolObjectInitAligned, %function
 342              	chGuardedPoolObjectInitAligned:
ARM GAS  /tmp/cc1d7Rw9.s 			page 7


 343              	.LFB296:
 344              		.loc 1 228 0
 345              		.cfi_startproc
 346              		@ args = 0, pretend = 0, frame = 0
 347              		@ frame_needed = 0, uses_anonymous_args = 0
 348              		@ link register save eliminated.
 349              	.LVL25:
 350 0000 10B4     		push	{r4}
 351              		.cfi_def_cfa_offset 4
 352              		.cfi_offset 4, -4
 353              	.LBB75:
 354              	.LBB76:
 355              		.loc 1 85 0
 356 0002 0024     		movs	r4, #0
 357 0004 C460     		str	r4, [r0, #12]
 358              		.loc 1 86 0
 359 0006 0161     		str	r1, [r0, #16]
 360              		.loc 1 88 0
 361 0008 8461     		str	r4, [r0, #24]
 362              	.LVL26:
 363              	.LBE76:
 364              	.LBE75:
 365              		.loc 1 231 0
 366 000a 2146     		mov	r1, r4
 367              	.LVL27:
 368              	.LBB78:
 369              	.LBB77:
 370              		.loc 1 87 0
 371 000c 4261     		str	r2, [r0, #20]
 372              	.LBE77:
 373              	.LBE78:
 374              		.loc 1 232 0
 375 000e 5DF8044B 		ldr	r4, [sp], #4
 376              		.cfi_restore 4
 377              		.cfi_def_cfa_offset 0
 378              		.loc 1 231 0
 379 0012 FFF7FEBF 		b	chSemObjectInit
 380              	.LVL28:
 381              		.cfi_endproc
 382              	.LFE296:
 383              		.size	chGuardedPoolObjectInitAligned, .-chGuardedPoolObjectInitAligned
 384              		.section	.text.chGuardedPoolAllocTimeoutS,"ax",%progbits
 385              		.align	1
 386              		.global	chGuardedPoolAllocTimeoutS
 387              		.thumb
 388              		.thumb_func
 389              		.type	chGuardedPoolAllocTimeoutS, %function
 390              	chGuardedPoolAllocTimeoutS:
 391              	.LFB298:
 392              		.loc 1 276 0
 393              		.cfi_startproc
 394              		@ args = 0, pretend = 0, frame = 0
 395              		@ frame_needed = 0, uses_anonymous_args = 0
 396              	.LVL29:
 397 0000 10B5     		push	{r4, lr}
 398              		.cfi_def_cfa_offset 8
 399              		.cfi_offset 4, -8
ARM GAS  /tmp/cc1d7Rw9.s 			page 8


 400              		.cfi_offset 14, -4
 401              		.loc 1 276 0
 402 0002 0446     		mov	r4, r0
 403              		.loc 1 279 0
 404 0004 FFF7FEFF 		bl	chSemWaitTimeoutS
 405              	.LVL30:
 406              		.loc 1 280 0
 407 0008 28B9     		cbnz	r0, .L18
 408              		.loc 1 284 0
 409 000a 04F10C00 		add	r0, r4, #12
 410              	.LVL31:
 411              		.loc 1 285 0
 412 000e BDE81040 		pop	{r4, lr}
 413              		.cfi_remember_state
 414              		.cfi_restore 14
 415              		.cfi_restore 4
 416              		.cfi_def_cfa_offset 0
 417              	.LVL32:
 418              		.loc 1 284 0
 419 0012 FFF7FEBF 		b	chPoolAllocI
 420              	.LVL33:
 421              	.L18:
 422              		.cfi_restore_state
 423              		.loc 1 285 0
 424 0016 0020     		movs	r0, #0
 425              	.LVL34:
 426 0018 10BD     		pop	{r4, pc}
 427              		.cfi_endproc
 428              	.LFE298:
 429              		.size	chGuardedPoolAllocTimeoutS, .-chGuardedPoolAllocTimeoutS
 430              		.section	.text.chGuardedPoolAllocTimeout,"ax",%progbits
 431              		.align	1
 432              		.global	chGuardedPoolAllocTimeout
 433              		.thumb
 434              		.thumb_func
 435              		.type	chGuardedPoolAllocTimeout, %function
 436              	chGuardedPoolAllocTimeout:
 437              	.LFB299:
 438              		.loc 1 303 0
 439              		.cfi_startproc
 440              		@ args = 0, pretend = 0, frame = 0
 441              		@ frame_needed = 0, uses_anonymous_args = 0
 442              	.LVL35:
 443 0000 38B5     		push	{r3, r4, r5, lr}
 444              		.cfi_def_cfa_offset 16
 445              		.cfi_offset 3, -16
 446              		.cfi_offset 4, -12
 447              		.cfi_offset 5, -8
 448              		.cfi_offset 14, -4
 449              		.loc 1 303 0
 450 0002 0446     		mov	r4, r0
 451 0004 0D46     		mov	r5, r1
 452              	.LBB89:
 453              	.LBB90:
 454              	.LBB91:
 455              	.LBB92:
 456              	.LBB93:
ARM GAS  /tmp/cc1d7Rw9.s 			page 9


 457              		.loc 2 493 0
 458 0006 2023     		movs	r3, #32
 459              		.syntax unified
 460              	@ 493 "../../modules/ChibiOS/os/common/ext/ARM/CMSIS/Core/Include/cmsis_gcc.h" 1
 461 0008 83F31188 		MSR basepri, r3
 462              	@ 0 "" 2
 463              	.LVL36:
 464              		.thumb
 465              		.syntax unified
 466              	.LBE93:
 467              	.LBE92:
 468              	.LBE91:
 469              		.loc 3 356 0
 470 000c FFF7FEFF 		bl	_stats_start_measure_crit_thd
 471              	.LVL37:
 472              	.LBE90:
 473              	.LBE89:
 474              		.loc 1 307 0
 475 0010 2946     		mov	r1, r5
 476 0012 2046     		mov	r0, r4
 477 0014 FFF7FEFF 		bl	chGuardedPoolAllocTimeoutS
 478              	.LVL38:
 479 0018 0446     		mov	r4, r0
 480              	.LVL39:
 481              	.LBB94:
 482              	.LBB95:
 483              		.loc 3 368 0
 484 001a FFF7FEFF 		bl	_stats_stop_measure_crit_thd
 485              	.LVL40:
 486              	.LBB96:
 487              	.LBB97:
 488              	.LBB98:
 489              		.loc 2 493 0
 490 001e 0023     		movs	r3, #0
 491              		.syntax unified
 492              	@ 493 "../../modules/ChibiOS/os/common/ext/ARM/CMSIS/Core/Include/cmsis_gcc.h" 1
 493 0020 83F31188 		MSR basepri, r3
 494              	@ 0 "" 2
 495              	.LVL41:
 496              		.thumb
 497              		.syntax unified
 498              	.LBE98:
 499              	.LBE97:
 500              	.LBE96:
 501              	.LBE95:
 502              	.LBE94:
 503              		.loc 1 311 0
 504 0024 2046     		mov	r0, r4
 505 0026 38BD     		pop	{r3, r4, r5, pc}
 506              		.cfi_endproc
 507              	.LFE299:
 508              		.size	chGuardedPoolAllocTimeout, .-chGuardedPoolAllocTimeout
 509              		.section	.text.chGuardedPoolFree,"ax",%progbits
 510              		.align	1
 511              		.global	chGuardedPoolFree
 512              		.thumb
 513              		.thumb_func
ARM GAS  /tmp/cc1d7Rw9.s 			page 10


 514              		.type	chGuardedPoolFree, %function
 515              	chGuardedPoolFree:
 516              	.LFB300:
 517              		.loc 1 325 0
 518              		.cfi_startproc
 519              		@ args = 0, pretend = 0, frame = 0
 520              		@ frame_needed = 0, uses_anonymous_args = 0
 521              	.LVL42:
 522 0000 38B5     		push	{r3, r4, r5, lr}
 523              		.cfi_def_cfa_offset 16
 524              		.cfi_offset 3, -16
 525              		.cfi_offset 4, -12
 526              		.cfi_offset 5, -8
 527              		.cfi_offset 14, -4
 528              		.loc 1 325 0
 529 0002 0446     		mov	r4, r0
 530 0004 0D46     		mov	r5, r1
 531              	.LBB113:
 532              	.LBB114:
 533              	.LBB115:
 534              	.LBB116:
 535              	.LBB117:
 536              		.loc 2 493 0
 537 0006 2023     		movs	r3, #32
 538              		.syntax unified
 539              	@ 493 "../../modules/ChibiOS/os/common/ext/ARM/CMSIS/Core/Include/cmsis_gcc.h" 1
 540 0008 83F31188 		MSR basepri, r3
 541              	@ 0 "" 2
 542              	.LVL43:
 543              		.thumb
 544              		.syntax unified
 545              	.LBE117:
 546              	.LBE116:
 547              	.LBE115:
 548              		.loc 3 356 0
 549 000c FFF7FEFF 		bl	_stats_start_measure_crit_thd
 550              	.LVL44:
 551              	.LBE114:
 552              	.LBE113:
 553              	.LBB118:
 554              	.LBB119:
 555              	.LBB120:
 556              	.LBB121:
 557              		.loc 1 191 0
 558 0010 E368     		ldr	r3, [r4, #12]
 559 0012 2B60     		str	r3, [r5]
 560              	.LBE121:
 561              	.LBE120:
 562              		.loc 4 288 0
 563 0014 2046     		mov	r0, r4
 564              	.LBB123:
 565              	.LBB122:
 566              		.loc 1 192 0
 567 0016 E560     		str	r5, [r4, #12]
 568              	.LVL45:
 569              	.LBE122:
 570              	.LBE123:
ARM GAS  /tmp/cc1d7Rw9.s 			page 11


 571              		.loc 4 288 0
 572 0018 FFF7FEFF 		bl	chSemSignalI
 573              	.LVL46:
 574              	.LBE119:
 575              	.LBE118:
 576              		.loc 1 329 0
 577 001c FFF7FEFF 		bl	chSchRescheduleS
 578              	.LVL47:
 579              	.LBB124:
 580              	.LBB125:
 581              		.loc 3 368 0
 582 0020 FFF7FEFF 		bl	_stats_stop_measure_crit_thd
 583              	.LVL48:
 584              	.LBB126:
 585              	.LBB127:
 586              	.LBB128:
 587              		.loc 2 493 0
 588 0024 0023     		movs	r3, #0
 589              		.syntax unified
 590              	@ 493 "../../modules/ChibiOS/os/common/ext/ARM/CMSIS/Core/Include/cmsis_gcc.h" 1
 591 0026 83F31188 		MSR basepri, r3
 592              	@ 0 "" 2
 593              	.LVL49:
 594              		.thumb
 595              		.syntax unified
 596 002a 38BD     		pop	{r3, r4, r5, pc}
 597              	.LBE128:
 598              	.LBE127:
 599              	.LBE126:
 600              	.LBE125:
 601              	.LBE124:
 602              		.cfi_endproc
 603              	.LFE300:
 604              		.size	chGuardedPoolFree, .-chGuardedPoolFree
 605              		.section	.text.chGuardedPoolLoadArray,"ax",%progbits
 606              		.align	1
 607              		.global	chGuardedPoolLoadArray
 608              		.thumb
 609              		.thumb_func
 610              		.type	chGuardedPoolLoadArray, %function
 611              	chGuardedPoolLoadArray:
 612              	.LFB297:
 613              		.loc 1 247 0
 614              		.cfi_startproc
 615              		@ args = 0, pretend = 0, frame = 0
 616              		@ frame_needed = 0, uses_anonymous_args = 0
 617              	.LVL50:
 618 0000 70B5     		push	{r4, r5, r6, lr}
 619              		.cfi_def_cfa_offset 16
 620              		.cfi_offset 4, -16
 621              		.cfi_offset 5, -12
 622              		.cfi_offset 6, -8
 623              		.cfi_offset 14, -4
 624 0002 0646     		mov	r6, r0
 625 0004 0D46     		mov	r5, r1
 626 0006 1446     		mov	r4, r2
 627              	.LVL51:
ARM GAS  /tmp/cc1d7Rw9.s 			page 12


 628              	.L22:
 629              		.loc 1 251 0
 630 0008 3CB1     		cbz	r4, .L24
 631              	.LVL52:
 632              	.LBB129:
 633              	.LBB130:
 634              		.loc 4 325 0
 635 000a 2946     		mov	r1, r5
 636 000c 3046     		mov	r0, r6
 637 000e FFF7FEFF 		bl	chGuardedPoolFree
 638              	.LVL53:
 639              	.LBE130:
 640              	.LBE129:
 641              		.loc 1 254 0
 642 0012 3369     		ldr	r3, [r6, #16]
 643              		.loc 1 256 0
 644 0014 013C     		subs	r4, r4, #1
 645              	.LVL54:
 646              		.loc 1 254 0
 647 0016 1D44     		add	r5, r5, r3
 648              	.LVL55:
 649 0018 F6E7     		b	.L22
 650              	.L24:
 651              		.loc 1 258 0
 652 001a 70BD     		pop	{r4, r5, r6, pc}
 653              		.cfi_endproc
 654              	.LFE297:
 655              		.size	chGuardedPoolLoadArray, .-chGuardedPoolLoadArray
 656              		.text
 657              	.Letext0:
 658              		.file 5 "/usr/lib/gcc/arm-none-eabi/5.4.1/include/stddef.h"
 659              		.file 6 "/usr/include/newlib/machine/_default_types.h"
 660              		.file 7 "/usr/include/newlib/sys/_stdint.h"
 661              		.file 8 "../../modules/ChibiOS/os/common/ports/ARMCMx/compilers/GCC/chtypes.h"
 662              		.file 9 "../../modules/ChibiOS/os/rt/include/chsystypes.h"
 663              		.file 10 "../../modules/ChibiOS/os/rt/include/chschd.h"
 664              		.file 11 "../../modules/ChibiOS/os/rt/include/chtime.h"
 665              		.file 12 "../../modules/ChibiOS/os/common/ports/ARMCMx/chcore.h"
 666              		.file 13 "../../modules/ChibiOS/os/common/ports/ARMCMx/chcore_v7m.h"
 667              		.file 14 "../../modules/ChibiOS/os/rt/include/chtm.h"
 668              		.file 15 "../../modules/ChibiOS/os/rt/include/chstats.h"
 669              		.file 16 "../../modules/ChibiOS/os/rt/include/chsem.h"
 670              		.file 17 "../../modules/ChibiOS/os/rt/include/chmtx.h"
 671              		.file 18 "../../modules/ChibiOS/os/oslib/include/chmemcore.h"
 672              		.file 19 "../../modules/ChibiOS/os/common/ext/ARM/CMSIS/Core/Include/core_cm4.h"
 673              		.section	.debug_info,"",%progbits
 674              	.Ldebug_info0:
 675 0000 94110000 		.4byte	0x1194
 676 0004 0400     		.2byte	0x4
 677 0006 00000000 		.4byte	.Ldebug_abbrev0
 678 000a 04       		.byte	0x4
 679 000b 01       		.uleb128 0x1
 680 000c 9E000000 		.4byte	.LASF147
 681 0010 0C       		.byte	0xc
 682 0011 82010000 		.4byte	.LASF148
 683 0015 F0050000 		.4byte	.LASF149
 684 0019 60000000 		.4byte	.Ldebug_ranges0+0x60
ARM GAS  /tmp/cc1d7Rw9.s 			page 13


 685 001d 00000000 		.4byte	0
 686 0021 00000000 		.4byte	.Ldebug_line0
 687 0025 02       		.uleb128 0x2
 688 0026 04       		.byte	0x4
 689 0027 05       		.byte	0x5
 690 0028 696E7400 		.ascii	"int\000"
 691 002c 03       		.uleb128 0x3
 692 002d 30000000 		.4byte	.LASF4
 693 0031 05       		.byte	0x5
 694 0032 D8       		.byte	0xd8
 695 0033 37000000 		.4byte	0x37
 696 0037 04       		.uleb128 0x4
 697 0038 04       		.byte	0x4
 698 0039 07       		.byte	0x7
 699 003a 55030000 		.4byte	.LASF0
 700 003e 04       		.uleb128 0x4
 701 003f 08       		.byte	0x8
 702 0040 05       		.byte	0x5
 703 0041 42020000 		.4byte	.LASF1
 704 0045 04       		.uleb128 0x4
 705 0046 08       		.byte	0x8
 706 0047 04       		.byte	0x4
 707 0048 A7040000 		.4byte	.LASF2
 708 004c 04       		.uleb128 0x4
 709 004d 01       		.byte	0x1
 710 004e 06       		.byte	0x6
 711 004f 50020000 		.4byte	.LASF3
 712 0053 03       		.uleb128 0x3
 713 0054 5A000000 		.4byte	.LASF5
 714 0058 06       		.byte	0x6
 715 0059 1D       		.byte	0x1d
 716 005a 5E000000 		.4byte	0x5e
 717 005e 04       		.uleb128 0x4
 718 005f 01       		.byte	0x1
 719 0060 08       		.byte	0x8
 720 0061 7C050000 		.4byte	.LASF6
 721 0065 04       		.uleb128 0x4
 722 0066 02       		.byte	0x2
 723 0067 05       		.byte	0x5
 724 0068 8A050000 		.4byte	.LASF7
 725 006c 04       		.uleb128 0x4
 726 006d 02       		.byte	0x2
 727 006e 07       		.byte	0x7
 728 006f 97030000 		.4byte	.LASF8
 729 0073 03       		.uleb128 0x3
 730 0074 33040000 		.4byte	.LASF9
 731 0078 06       		.byte	0x6
 732 0079 3F       		.byte	0x3f
 733 007a 7E000000 		.4byte	0x7e
 734 007e 04       		.uleb128 0x4
 735 007f 04       		.byte	0x4
 736 0080 05       		.byte	0x5
 737 0081 8B020000 		.4byte	.LASF10
 738 0085 03       		.uleb128 0x3
 739 0086 D1020000 		.4byte	.LASF11
 740 008a 06       		.byte	0x6
 741 008b 41       		.byte	0x41
ARM GAS  /tmp/cc1d7Rw9.s 			page 14


 742 008c 90000000 		.4byte	0x90
 743 0090 04       		.uleb128 0x4
 744 0091 04       		.byte	0x4
 745 0092 07       		.byte	0x7
 746 0093 50060000 		.4byte	.LASF12
 747 0097 03       		.uleb128 0x3
 748 0098 0B050000 		.4byte	.LASF13
 749 009c 06       		.byte	0x6
 750 009d 5B       		.byte	0x5b
 751 009e A2000000 		.4byte	0xa2
 752 00a2 04       		.uleb128 0x4
 753 00a3 08       		.byte	0x8
 754 00a4 07       		.byte	0x7
 755 00a5 CB010000 		.4byte	.LASF14
 756 00a9 03       		.uleb128 0x3
 757 00aa 48070000 		.4byte	.LASF15
 758 00ae 07       		.byte	0x7
 759 00af 18       		.byte	0x18
 760 00b0 53000000 		.4byte	0x53
 761 00b4 03       		.uleb128 0x3
 762 00b5 74050000 		.4byte	.LASF16
 763 00b9 07       		.byte	0x7
 764 00ba 2C       		.byte	0x2c
 765 00bb 73000000 		.4byte	0x73
 766 00bf 03       		.uleb128 0x3
 767 00c0 18070000 		.4byte	.LASF17
 768 00c4 07       		.byte	0x7
 769 00c5 30       		.byte	0x30
 770 00c6 85000000 		.4byte	0x85
 771 00ca 03       		.uleb128 0x3
 772 00cb 44000000 		.4byte	.LASF18
 773 00cf 07       		.byte	0x7
 774 00d0 3C       		.byte	0x3c
 775 00d1 97000000 		.4byte	0x97
 776 00d5 03       		.uleb128 0x3
 777 00d6 E6060000 		.4byte	.LASF19
 778 00da 08       		.byte	0x8
 779 00db 27       		.byte	0x27
 780 00dc BF000000 		.4byte	0xbf
 781 00e0 03       		.uleb128 0x3
 782 00e1 39020000 		.4byte	.LASF20
 783 00e5 08       		.byte	0x8
 784 00e6 28       		.byte	0x28
 785 00e7 CA000000 		.4byte	0xca
 786 00eb 03       		.uleb128 0x3
 787 00ec 06040000 		.4byte	.LASF21
 788 00f0 08       		.byte	0x8
 789 00f1 2A       		.byte	0x2a
 790 00f2 A9000000 		.4byte	0xa9
 791 00f6 03       		.uleb128 0x3
 792 00f7 94020000 		.4byte	.LASF22
 793 00fb 08       		.byte	0x8
 794 00fc 2B       		.byte	0x2b
 795 00fd A9000000 		.4byte	0xa9
 796 0101 03       		.uleb128 0x3
 797 0102 40050000 		.4byte	.LASF23
 798 0106 08       		.byte	0x8
ARM GAS  /tmp/cc1d7Rw9.s 			page 15


 799 0107 2C       		.byte	0x2c
 800 0108 A9000000 		.4byte	0xa9
 801 010c 03       		.uleb128 0x3
 802 010d 5D050000 		.4byte	.LASF24
 803 0111 08       		.byte	0x8
 804 0112 2E       		.byte	0x2e
 805 0113 BF000000 		.4byte	0xbf
 806 0117 03       		.uleb128 0x3
 807 0118 C8030000 		.4byte	.LASF25
 808 011c 08       		.byte	0x8
 809 011d 2F       		.byte	0x2f
 810 011e B4000000 		.4byte	0xb4
 811 0122 03       		.uleb128 0x3
 812 0123 27040000 		.4byte	.LASF26
 813 0127 08       		.byte	0x8
 814 0128 31       		.byte	0x31
 815 0129 BF000000 		.4byte	0xbf
 816 012d 03       		.uleb128 0x3
 817 012e 4F030000 		.4byte	.LASF27
 818 0132 08       		.byte	0x8
 819 0133 33       		.byte	0x33
 820 0134 B4000000 		.4byte	0xb4
 821 0138 03       		.uleb128 0x3
 822 0139 E0030000 		.4byte	.LASF28
 823 013d 08       		.byte	0x8
 824 013e 34       		.byte	0x34
 825 013f BF000000 		.4byte	0xbf
 826 0143 03       		.uleb128 0x3
 827 0144 86060000 		.4byte	.LASF29
 828 0148 09       		.byte	0x9
 829 0149 34       		.byte	0x34
 830 014a 4E010000 		.4byte	0x14e
 831 014e 05       		.uleb128 0x5
 832 014f BE030000 		.4byte	.LASF48
 833 0153 60       		.byte	0x60
 834 0154 0A       		.byte	0xa
 835 0155 8E       		.byte	0x8e
 836 0156 39020000 		.4byte	0x239
 837 015a 06       		.uleb128 0x6
 838 015b 8B030000 		.4byte	.LASF30
 839 015f 0A       		.byte	0xa
 840 0160 8F       		.byte	0x8f
 841 0161 6E020000 		.4byte	0x26e
 842 0165 00       		.byte	0
 843 0166 06       		.uleb128 0x6
 844 0167 F9040000 		.4byte	.LASF31
 845 016b 0A       		.byte	0xa
 846 016c 90       		.byte	0x90
 847 016d 0C010000 		.4byte	0x10c
 848 0171 08       		.byte	0x8
 849 0172 07       		.uleb128 0x7
 850 0173 63747800 		.ascii	"ctx\000"
 851 0177 0A       		.byte	0xa
 852 0178 91       		.byte	0x91
 853 0179 89040000 		.4byte	0x489
 854 017d 0C       		.byte	0xc
 855 017e 06       		.uleb128 0x6
ARM GAS  /tmp/cc1d7Rw9.s 			page 16


 856 017f 48040000 		.4byte	.LASF32
 857 0183 0A       		.byte	0xa
 858 0184 93       		.byte	0x93
 859 0185 44020000 		.4byte	0x244
 860 0189 10       		.byte	0x10
 861 018a 06       		.uleb128 0x6
 862 018b 6E060000 		.4byte	.LASF33
 863 018f 0A       		.byte	0xa
 864 0190 94       		.byte	0x94
 865 0191 44020000 		.4byte	0x244
 866 0195 14       		.byte	0x14
 867 0196 06       		.uleb128 0x6
 868 0197 B9030000 		.4byte	.LASF34
 869 019b 0A       		.byte	0xa
 870 019c 9B       		.byte	0x9b
 871 019d 6F070000 		.4byte	0x76f
 872 01a1 18       		.byte	0x18
 873 01a2 06       		.uleb128 0x6
 874 01a3 62060000 		.4byte	.LASF35
 875 01a7 0A       		.byte	0xa
 876 01a8 A4       		.byte	0xa4
 877 01a9 81070000 		.4byte	0x781
 878 01ad 1C       		.byte	0x1c
 879 01ae 06       		.uleb128 0x6
 880 01af 85020000 		.4byte	.LASF36
 881 01b3 0A       		.byte	0xa
 882 01b4 A9       		.byte	0xa9
 883 01b5 F6000000 		.4byte	0xf6
 884 01b9 20       		.byte	0x20
 885 01ba 06       		.uleb128 0x6
 886 01bb 67070000 		.4byte	.LASF37
 887 01bf 0A       		.byte	0xa
 888 01c0 AD       		.byte	0xad
 889 01c1 EB000000 		.4byte	0xeb
 890 01c5 21       		.byte	0x21
 891 01c6 06       		.uleb128 0x6
 892 01c7 48050000 		.4byte	.LASF38
 893 01cb 0A       		.byte	0xa
 894 01cc B2       		.byte	0xb2
 895 01cd 01010000 		.4byte	0x101
 896 01d1 22       		.byte	0x22
 897 01d2 08       		.uleb128 0x8
 898 01d3 7500     		.ascii	"u\000"
 899 01d5 0A       		.byte	0xa
 900 01d6 0301     		.2byte	0x103
 901 01d8 A5060000 		.4byte	0x6a5
 902 01dc 24       		.byte	0x24
 903 01dd 09       		.uleb128 0x9
 904 01de 01030000 		.4byte	.LASF39
 905 01e2 0A       		.byte	0xa
 906 01e3 0801     		.2byte	0x108
 907 01e5 4A020000 		.4byte	0x24a
 908 01e9 28       		.byte	0x28
 909 01ea 09       		.uleb128 0x9
 910 01eb 7C020000 		.4byte	.LASF40
 911 01ef 0A       		.byte	0xa
 912 01f0 0E01     		.2byte	0x10e
ARM GAS  /tmp/cc1d7Rw9.s 			page 17


 913 01f2 6E020000 		.4byte	0x26e
 914 01f6 2C       		.byte	0x2c
 915 01f7 09       		.uleb128 0x9
 916 01f8 E7030000 		.4byte	.LASF41
 917 01fc 0A       		.byte	0xa
 918 01fd 1401     		.2byte	0x114
 919 01ff 22010000 		.4byte	0x122
 920 0203 34       		.byte	0x34
 921 0204 09       		.uleb128 0x9
 922 0205 C7070000 		.4byte	.LASF42
 923 0209 0A       		.byte	0xa
 924 020a 1B01     		.2byte	0x11b
 925 020c 69070000 		.4byte	0x769
 926 0210 38       		.byte	0x38
 927 0211 09       		.uleb128 0x9
 928 0212 4E040000 		.4byte	.LASF43
 929 0216 0A       		.byte	0xa
 930 0217 1F01     		.2byte	0x11f
 931 0219 0C010000 		.4byte	0x10c
 932 021d 3C       		.byte	0x3c
 933 021e 09       		.uleb128 0x9
 934 021f 91030000 		.4byte	.LASF44
 935 0223 0A       		.byte	0xa
 936 0224 2601     		.2byte	0x126
 937 0226 21030000 		.4byte	0x321
 938 022a 40       		.byte	0x40
 939 022b 09       		.uleb128 0x9
 940 022c A2020000 		.4byte	.LASF45
 941 0230 0A       		.byte	0xa
 942 0231 2C01     		.2byte	0x12c
 943 0233 56060000 		.4byte	0x656
 944 0237 48       		.byte	0x48
 945 0238 00       		.byte	0
 946 0239 03       		.uleb128 0x3
 947 023a 7D040000 		.4byte	.LASF46
 948 023e 09       		.byte	0x9
 949 023f 39       		.byte	0x39
 950 0240 44020000 		.4byte	0x244
 951 0244 0A       		.uleb128 0xa
 952 0245 04       		.byte	0x4
 953 0246 43010000 		.4byte	0x143
 954 024a 03       		.uleb128 0x3
 955 024b 92070000 		.4byte	.LASF47
 956 024f 09       		.byte	0x9
 957 0250 3E       		.byte	0x3e
 958 0251 55020000 		.4byte	0x255
 959 0255 05       		.uleb128 0x5
 960 0256 3A060000 		.4byte	.LASF49
 961 025a 04       		.byte	0x4
 962 025b 0A       		.byte	0xa
 963 025c 7C       		.byte	0x7c
 964 025d 6E020000 		.4byte	0x26e
 965 0261 06       		.uleb128 0x6
 966 0262 34020000 		.4byte	.LASF50
 967 0266 0A       		.byte	0xa
 968 0267 7D       		.byte	0x7d
 969 0268 44020000 		.4byte	0x244
ARM GAS  /tmp/cc1d7Rw9.s 			page 18


 970 026c 00       		.byte	0
 971 026d 00       		.byte	0
 972 026e 03       		.uleb128 0x3
 973 026f 21070000 		.4byte	.LASF51
 974 0273 09       		.byte	0x9
 975 0274 45       		.byte	0x45
 976 0275 79020000 		.4byte	0x279
 977 0279 05       		.uleb128 0x5
 978 027a 75000000 		.4byte	.LASF52
 979 027e 08       		.byte	0x8
 980 027f 0A       		.byte	0xa
 981 0280 83       		.byte	0x83
 982 0281 9E020000 		.4byte	0x29e
 983 0285 06       		.uleb128 0x6
 984 0286 34020000 		.4byte	.LASF50
 985 028a 0A       		.byte	0xa
 986 028b 84       		.byte	0x84
 987 028c 44020000 		.4byte	0x244
 988 0290 00       		.byte	0
 989 0291 06       		.uleb128 0x6
 990 0292 64000000 		.4byte	.LASF53
 991 0296 0A       		.byte	0xa
 992 0297 85       		.byte	0x85
 993 0298 44020000 		.4byte	0x244
 994 029c 04       		.byte	0x4
 995 029d 00       		.byte	0
 996 029e 03       		.uleb128 0x3
 997 029f 16000000 		.4byte	.LASF54
 998 02a3 09       		.byte	0x9
 999 02a4 4C       		.byte	0x4c
 1000 02a5 A9020000 		.4byte	0x2a9
 1001 02a9 0B       		.uleb128 0xb
 1002 02aa 19040000 		.4byte	.LASF55
 1003 02ae 1C       		.byte	0x1c
 1004 02af 0A       		.byte	0xa
 1005 02b0 5E01     		.2byte	0x15e
 1006 02b2 05030000 		.4byte	0x305
 1007 02b6 09       		.uleb128 0x9
 1008 02b7 8B030000 		.4byte	.LASF30
 1009 02bb 0A       		.byte	0xa
 1010 02bc 5F01     		.2byte	0x15f
 1011 02be 6E020000 		.4byte	0x26e
 1012 02c2 00       		.byte	0
 1013 02c3 09       		.uleb128 0x9
 1014 02c4 F9040000 		.4byte	.LASF31
 1015 02c8 0A       		.byte	0xa
 1016 02c9 6001     		.2byte	0x160
 1017 02cb 0C010000 		.4byte	0x10c
 1018 02cf 08       		.byte	0x8
 1019 02d0 08       		.uleb128 0x8
 1020 02d1 63747800 		.ascii	"ctx\000"
 1021 02d5 0A       		.byte	0xa
 1022 02d6 6201     		.2byte	0x162
 1023 02d8 89040000 		.4byte	0x489
 1024 02dc 0C       		.byte	0xc
 1025 02dd 09       		.uleb128 0x9
 1026 02de 48040000 		.4byte	.LASF32
ARM GAS  /tmp/cc1d7Rw9.s 			page 19


 1027 02e2 0A       		.byte	0xa
 1028 02e3 6501     		.2byte	0x165
 1029 02e5 44020000 		.4byte	0x244
 1030 02e9 10       		.byte	0x10
 1031 02ea 09       		.uleb128 0x9
 1032 02eb 6E060000 		.4byte	.LASF33
 1033 02ef 0A       		.byte	0xa
 1034 02f0 6601     		.2byte	0x166
 1035 02f2 44020000 		.4byte	0x244
 1036 02f6 14       		.byte	0x14
 1037 02f7 09       		.uleb128 0x9
 1038 02f8 FE040000 		.4byte	.LASF56
 1039 02fc 0A       		.byte	0xa
 1040 02fd 6901     		.2byte	0x169
 1041 02ff 44020000 		.4byte	0x244
 1042 0303 18       		.byte	0x18
 1043 0304 00       		.byte	0
 1044 0305 03       		.uleb128 0x3
 1045 0306 9E060000 		.4byte	.LASF57
 1046 030a 09       		.byte	0x9
 1047 030b 51       		.byte	0x51
 1048 030c 10030000 		.4byte	0x310
 1049 0310 0A       		.uleb128 0xa
 1050 0311 04       		.byte	0x4
 1051 0312 16030000 		.4byte	0x316
 1052 0316 0C       		.uleb128 0xc
 1053 0317 21030000 		.4byte	0x321
 1054 031b 0D       		.uleb128 0xd
 1055 031c 21030000 		.4byte	0x321
 1056 0320 00       		.byte	0
 1057 0321 0E       		.uleb128 0xe
 1058 0322 04       		.byte	0x4
 1059 0323 03       		.uleb128 0x3
 1060 0324 4D050000 		.4byte	.LASF58
 1061 0328 09       		.byte	0x9
 1062 0329 56       		.byte	0x56
 1063 032a 2E030000 		.4byte	0x32e
 1064 032e 0B       		.uleb128 0xb
 1065 032f D2050000 		.4byte	.LASF59
 1066 0333 14       		.byte	0x14
 1067 0334 0A       		.byte	0xa
 1068 0335 3901     		.2byte	0x139
 1069 0337 7D030000 		.4byte	0x37d
 1070 033b 09       		.uleb128 0x9
 1071 033c 34020000 		.4byte	.LASF50
 1072 0340 0A       		.byte	0xa
 1073 0341 3A01     		.2byte	0x13a
 1074 0343 87070000 		.4byte	0x787
 1075 0347 00       		.byte	0
 1076 0348 09       		.uleb128 0x9
 1077 0349 64000000 		.4byte	.LASF53
 1078 034d 0A       		.byte	0xa
 1079 034e 3B01     		.2byte	0x13b
 1080 0350 87070000 		.4byte	0x787
 1081 0354 04       		.byte	0x4
 1082 0355 09       		.uleb128 0x9
 1083 0356 37000000 		.4byte	.LASF60
ARM GAS  /tmp/cc1d7Rw9.s 			page 20


 1084 035a 0A       		.byte	0xa
 1085 035b 3C01     		.2byte	0x13c
 1086 035d 61040000 		.4byte	0x461
 1087 0361 08       		.byte	0x8
 1088 0362 09       		.uleb128 0x9
 1089 0363 9D020000 		.4byte	.LASF61
 1090 0367 0A       		.byte	0xa
 1091 0368 3D01     		.2byte	0x13d
 1092 036a 05030000 		.4byte	0x305
 1093 036e 0C       		.byte	0xc
 1094 036f 08       		.uleb128 0x8
 1095 0370 70617200 		.ascii	"par\000"
 1096 0374 0A       		.byte	0xa
 1097 0375 3F01     		.2byte	0x13f
 1098 0377 21030000 		.4byte	0x321
 1099 037b 10       		.byte	0x10
 1100 037c 00       		.byte	0
 1101 037d 03       		.uleb128 0x3
 1102 037e 11020000 		.4byte	.LASF62
 1103 0382 09       		.byte	0x9
 1104 0383 5B       		.byte	0x5b
 1105 0384 88030000 		.4byte	0x388
 1106 0388 0B       		.uleb128 0xb
 1107 0389 90040000 		.4byte	.LASF63
 1108 038d 10       		.byte	0x10
 1109 038e 0A       		.byte	0xa
 1110 038f 4901     		.2byte	0x149
 1111 0391 CA030000 		.4byte	0x3ca
 1112 0395 09       		.uleb128 0x9
 1113 0396 34020000 		.4byte	.LASF50
 1114 039a 0A       		.byte	0xa
 1115 039b 4A01     		.2byte	0x14a
 1116 039d 87070000 		.4byte	0x787
 1117 03a1 00       		.byte	0
 1118 03a2 09       		.uleb128 0x9
 1119 03a3 64000000 		.4byte	.LASF53
 1120 03a7 0A       		.byte	0xa
 1121 03a8 4C01     		.2byte	0x14c
 1122 03aa 87070000 		.4byte	0x787
 1123 03ae 04       		.byte	0x4
 1124 03af 09       		.uleb128 0x9
 1125 03b0 37000000 		.4byte	.LASF60
 1126 03b4 0A       		.byte	0xa
 1127 03b5 4E01     		.2byte	0x14e
 1128 03b7 61040000 		.4byte	0x461
 1129 03bb 08       		.byte	0x8
 1130 03bc 09       		.uleb128 0x9
 1131 03bd 94050000 		.4byte	.LASF64
 1132 03c1 0A       		.byte	0xa
 1133 03c2 5601     		.2byte	0x156
 1134 03c4 56040000 		.4byte	0x456
 1135 03c8 0C       		.byte	0xc
 1136 03c9 00       		.byte	0
 1137 03ca 03       		.uleb128 0x3
 1138 03cb 86000000 		.4byte	.LASF65
 1139 03cf 09       		.byte	0x9
 1140 03d0 60       		.byte	0x60
ARM GAS  /tmp/cc1d7Rw9.s 			page 21


 1141 03d1 D5030000 		.4byte	0x3d5
 1142 03d5 0B       		.uleb128 0xb
 1143 03d6 F1020000 		.4byte	.LASF66
 1144 03da 04       		.byte	0x4
 1145 03db 0A       		.byte	0xa
 1146 03dc 7001     		.2byte	0x170
 1147 03de F0030000 		.4byte	0x3f0
 1148 03e2 09       		.uleb128 0x9
 1149 03e3 B5060000 		.4byte	.LASF67
 1150 03e7 0A       		.byte	0xa
 1151 03e8 7801     		.2byte	0x178
 1152 03ea 8D070000 		.4byte	0x78d
 1153 03ee 00       		.byte	0
 1154 03ef 00       		.byte	0
 1155 03f0 03       		.uleb128 0x3
 1156 03f1 F0030000 		.4byte	.LASF68
 1157 03f5 09       		.byte	0x9
 1158 03f6 65       		.byte	0x65
 1159 03f7 FB030000 		.4byte	0x3fb
 1160 03fb 0B       		.uleb128 0xb
 1161 03fc A4050000 		.4byte	.LASF69
 1162 0400 D0       		.byte	0xd0
 1163 0401 0A       		.byte	0xa
 1164 0402 9001     		.2byte	0x190
 1165 0404 56040000 		.4byte	0x456
 1166 0408 09       		.uleb128 0x9
 1167 0409 3D070000 		.4byte	.LASF70
 1168 040d 0A       		.byte	0xa
 1169 040e 9401     		.2byte	0x194
 1170 0410 9E020000 		.4byte	0x29e
 1171 0414 00       		.byte	0
 1172 0415 09       		.uleb128 0x9
 1173 0416 69020000 		.4byte	.LASF71
 1174 041a 0A       		.byte	0xa
 1175 041b 9801     		.2byte	0x198
 1176 041d 7D030000 		.4byte	0x37d
 1177 0421 1C       		.byte	0x1c
 1178 0422 08       		.uleb128 0x8
 1179 0423 64626700 		.ascii	"dbg\000"
 1180 0427 0A       		.byte	0xa
 1181 0428 9C01     		.2byte	0x19c
 1182 042a CA030000 		.4byte	0x3ca
 1183 042e 2C       		.byte	0x2c
 1184 042f 09       		.uleb128 0x9
 1185 0430 FE010000 		.4byte	.LASF72
 1186 0434 0A       		.byte	0xa
 1187 0435 A001     		.2byte	0x1a0
 1188 0437 43010000 		.4byte	0x143
 1189 043b 30       		.byte	0x30
 1190 043c 08       		.uleb128 0x8
 1191 043d 746D00   		.ascii	"tm\000"
 1192 0440 0A       		.byte	0xa
 1193 0441 A501     		.2byte	0x1a5
 1194 0443 08060000 		.4byte	0x608
 1195 0447 90       		.byte	0x90
 1196 0448 09       		.uleb128 0x9
 1197 0449 4D000000 		.4byte	.LASF73
ARM GAS  /tmp/cc1d7Rw9.s 			page 22


 1198 044d 0A       		.byte	0xa
 1199 044e AB01     		.2byte	0x1ab
 1200 0450 9A060000 		.4byte	0x69a
 1201 0454 98       		.byte	0x98
 1202 0455 00       		.byte	0
 1203 0456 03       		.uleb128 0x3
 1204 0457 94060000 		.4byte	.LASF74
 1205 045b 0B       		.byte	0xb
 1206 045c 6D       		.byte	0x6d
 1207 045d BF000000 		.4byte	0xbf
 1208 0461 03       		.uleb128 0x3
 1209 0462 31030000 		.4byte	.LASF75
 1210 0466 0B       		.byte	0xb
 1211 0467 79       		.byte	0x79
 1212 0468 BF000000 		.4byte	0xbf
 1213 046c 04       		.uleb128 0x4
 1214 046d 04       		.byte	0x4
 1215 046e 07       		.byte	0x7
 1216 046f 74040000 		.4byte	.LASF76
 1217 0473 03       		.uleb128 0x3
 1218 0474 DC020000 		.4byte	.LASF77
 1219 0478 0C       		.byte	0xc
 1220 0479 65       		.byte	0x65
 1221 047a 21030000 		.4byte	0x321
 1222 047e 03       		.uleb128 0x3
 1223 047f 3D040000 		.4byte	.LASF78
 1224 0483 0C       		.byte	0xc
 1225 0484 6D       		.byte	0x6d
 1226 0485 CA000000 		.4byte	0xca
 1227 0489 05       		.uleb128 0x5
 1228 048a C0040000 		.4byte	.LASF79
 1229 048e 04       		.byte	0x4
 1230 048f 0C       		.byte	0xc
 1231 0490 89       		.byte	0x89
 1232 0491 A1040000 		.4byte	0x4a1
 1233 0495 07       		.uleb128 0x7
 1234 0496 737000   		.ascii	"sp\000"
 1235 0499 0C       		.byte	0xc
 1236 049a 8A       		.byte	0x8a
 1237 049b ED050000 		.4byte	0x5ed
 1238 049f 00       		.byte	0
 1239 04a0 00       		.byte	0
 1240 04a1 0B       		.uleb128 0xb
 1241 04a2 69000000 		.4byte	.LASF80
 1242 04a6 64       		.byte	0x64
 1243 04a7 0D       		.byte	0xd
 1244 04a8 5901     		.2byte	0x159
 1245 04aa ED050000 		.4byte	0x5ed
 1246 04ae 08       		.uleb128 0x8
 1247 04af 73313600 		.ascii	"s16\000"
 1248 04b3 0D       		.byte	0xd
 1249 04b4 5B01     		.2byte	0x15b
 1250 04b6 73040000 		.4byte	0x473
 1251 04ba 00       		.byte	0
 1252 04bb 08       		.uleb128 0x8
 1253 04bc 73313700 		.ascii	"s17\000"
 1254 04c0 0D       		.byte	0xd
ARM GAS  /tmp/cc1d7Rw9.s 			page 23


 1255 04c1 5C01     		.2byte	0x15c
 1256 04c3 73040000 		.4byte	0x473
 1257 04c7 04       		.byte	0x4
 1258 04c8 08       		.uleb128 0x8
 1259 04c9 73313800 		.ascii	"s18\000"
 1260 04cd 0D       		.byte	0xd
 1261 04ce 5D01     		.2byte	0x15d
 1262 04d0 73040000 		.4byte	0x473
 1263 04d4 08       		.byte	0x8
 1264 04d5 08       		.uleb128 0x8
 1265 04d6 73313900 		.ascii	"s19\000"
 1266 04da 0D       		.byte	0xd
 1267 04db 5E01     		.2byte	0x15e
 1268 04dd 73040000 		.4byte	0x473
 1269 04e1 0C       		.byte	0xc
 1270 04e2 08       		.uleb128 0x8
 1271 04e3 73323000 		.ascii	"s20\000"
 1272 04e7 0D       		.byte	0xd
 1273 04e8 5F01     		.2byte	0x15f
 1274 04ea 73040000 		.4byte	0x473
 1275 04ee 10       		.byte	0x10
 1276 04ef 08       		.uleb128 0x8
 1277 04f0 73323100 		.ascii	"s21\000"
 1278 04f4 0D       		.byte	0xd
 1279 04f5 6001     		.2byte	0x160
 1280 04f7 73040000 		.4byte	0x473
 1281 04fb 14       		.byte	0x14
 1282 04fc 08       		.uleb128 0x8
 1283 04fd 73323200 		.ascii	"s22\000"
 1284 0501 0D       		.byte	0xd
 1285 0502 6101     		.2byte	0x161
 1286 0504 73040000 		.4byte	0x473
 1287 0508 18       		.byte	0x18
 1288 0509 08       		.uleb128 0x8
 1289 050a 73323300 		.ascii	"s23\000"
 1290 050e 0D       		.byte	0xd
 1291 050f 6201     		.2byte	0x162
 1292 0511 73040000 		.4byte	0x473
 1293 0515 1C       		.byte	0x1c
 1294 0516 08       		.uleb128 0x8
 1295 0517 73323400 		.ascii	"s24\000"
 1296 051b 0D       		.byte	0xd
 1297 051c 6301     		.2byte	0x163
 1298 051e 73040000 		.4byte	0x473
 1299 0522 20       		.byte	0x20
 1300 0523 08       		.uleb128 0x8
 1301 0524 73323500 		.ascii	"s25\000"
 1302 0528 0D       		.byte	0xd
 1303 0529 6401     		.2byte	0x164
 1304 052b 73040000 		.4byte	0x473
 1305 052f 24       		.byte	0x24
 1306 0530 08       		.uleb128 0x8
 1307 0531 73323600 		.ascii	"s26\000"
 1308 0535 0D       		.byte	0xd
 1309 0536 6501     		.2byte	0x165
 1310 0538 73040000 		.4byte	0x473
 1311 053c 28       		.byte	0x28
ARM GAS  /tmp/cc1d7Rw9.s 			page 24


 1312 053d 08       		.uleb128 0x8
 1313 053e 73323700 		.ascii	"s27\000"
 1314 0542 0D       		.byte	0xd
 1315 0543 6601     		.2byte	0x166
 1316 0545 73040000 		.4byte	0x473
 1317 0549 2C       		.byte	0x2c
 1318 054a 08       		.uleb128 0x8
 1319 054b 73323800 		.ascii	"s28\000"
 1320 054f 0D       		.byte	0xd
 1321 0550 6701     		.2byte	0x167
 1322 0552 73040000 		.4byte	0x473
 1323 0556 30       		.byte	0x30
 1324 0557 08       		.uleb128 0x8
 1325 0558 73323900 		.ascii	"s29\000"
 1326 055c 0D       		.byte	0xd
 1327 055d 6801     		.2byte	0x168
 1328 055f 73040000 		.4byte	0x473
 1329 0563 34       		.byte	0x34
 1330 0564 08       		.uleb128 0x8
 1331 0565 73333000 		.ascii	"s30\000"
 1332 0569 0D       		.byte	0xd
 1333 056a 6901     		.2byte	0x169
 1334 056c 73040000 		.4byte	0x473
 1335 0570 38       		.byte	0x38
 1336 0571 08       		.uleb128 0x8
 1337 0572 73333100 		.ascii	"s31\000"
 1338 0576 0D       		.byte	0xd
 1339 0577 6A01     		.2byte	0x16a
 1340 0579 73040000 		.4byte	0x473
 1341 057d 3C       		.byte	0x3c
 1342 057e 08       		.uleb128 0x8
 1343 057f 723400   		.ascii	"r4\000"
 1344 0582 0D       		.byte	0xd
 1345 0583 6C01     		.2byte	0x16c
 1346 0585 73040000 		.4byte	0x473
 1347 0589 40       		.byte	0x40
 1348 058a 08       		.uleb128 0x8
 1349 058b 723500   		.ascii	"r5\000"
 1350 058e 0D       		.byte	0xd
 1351 058f 6D01     		.2byte	0x16d
 1352 0591 73040000 		.4byte	0x473
 1353 0595 44       		.byte	0x44
 1354 0596 08       		.uleb128 0x8
 1355 0597 723600   		.ascii	"r6\000"
 1356 059a 0D       		.byte	0xd
 1357 059b 6E01     		.2byte	0x16e
 1358 059d 73040000 		.4byte	0x473
 1359 05a1 48       		.byte	0x48
 1360 05a2 08       		.uleb128 0x8
 1361 05a3 723700   		.ascii	"r7\000"
 1362 05a6 0D       		.byte	0xd
 1363 05a7 6F01     		.2byte	0x16f
 1364 05a9 73040000 		.4byte	0x473
 1365 05ad 4C       		.byte	0x4c
 1366 05ae 08       		.uleb128 0x8
 1367 05af 723800   		.ascii	"r8\000"
 1368 05b2 0D       		.byte	0xd
ARM GAS  /tmp/cc1d7Rw9.s 			page 25


 1369 05b3 7001     		.2byte	0x170
 1370 05b5 73040000 		.4byte	0x473
 1371 05b9 50       		.byte	0x50
 1372 05ba 08       		.uleb128 0x8
 1373 05bb 723900   		.ascii	"r9\000"
 1374 05be 0D       		.byte	0xd
 1375 05bf 7101     		.2byte	0x171
 1376 05c1 73040000 		.4byte	0x473
 1377 05c5 54       		.byte	0x54
 1378 05c6 08       		.uleb128 0x8
 1379 05c7 72313000 		.ascii	"r10\000"
 1380 05cb 0D       		.byte	0xd
 1381 05cc 7201     		.2byte	0x172
 1382 05ce 73040000 		.4byte	0x473
 1383 05d2 58       		.byte	0x58
 1384 05d3 08       		.uleb128 0x8
 1385 05d4 72313100 		.ascii	"r11\000"
 1386 05d8 0D       		.byte	0xd
 1387 05d9 7301     		.2byte	0x173
 1388 05db 73040000 		.4byte	0x473
 1389 05df 5C       		.byte	0x5c
 1390 05e0 08       		.uleb128 0x8
 1391 05e1 6C7200   		.ascii	"lr\000"
 1392 05e4 0D       		.byte	0xd
 1393 05e5 7401     		.2byte	0x174
 1394 05e7 73040000 		.4byte	0x473
 1395 05eb 60       		.byte	0x60
 1396 05ec 00       		.byte	0
 1397 05ed 0A       		.uleb128 0xa
 1398 05ee 04       		.byte	0x4
 1399 05ef A1040000 		.4byte	0x4a1
 1400 05f3 0F       		.uleb128 0xf
 1401 05f4 04       		.byte	0x4
 1402 05f5 0E       		.byte	0xe
 1403 05f6 38       		.byte	0x38
 1404 05f7 08060000 		.4byte	0x608
 1405 05fb 06       		.uleb128 0x6
 1406 05fc BF060000 		.4byte	.LASF81
 1407 0600 0E       		.byte	0xe
 1408 0601 3C       		.byte	0x3c
 1409 0602 D5000000 		.4byte	0xd5
 1410 0606 00       		.byte	0
 1411 0607 00       		.byte	0
 1412 0608 03       		.uleb128 0x3
 1413 0609 CD040000 		.4byte	.LASF82
 1414 060d 0E       		.byte	0xe
 1415 060e 3D       		.byte	0x3d
 1416 060f F3050000 		.4byte	0x5f3
 1417 0613 0F       		.uleb128 0xf
 1418 0614 18       		.byte	0x18
 1419 0615 0E       		.byte	0xe
 1420 0616 48       		.byte	0x48
 1421 0617 56060000 		.4byte	0x656
 1422 061b 06       		.uleb128 0x6
 1423 061c 8F060000 		.4byte	.LASF83
 1424 0620 0E       		.byte	0xe
 1425 0621 49       		.byte	0x49
ARM GAS  /tmp/cc1d7Rw9.s 			page 26


 1426 0622 D5000000 		.4byte	0xd5
 1427 0626 00       		.byte	0
 1428 0627 06       		.uleb128 0x6
 1429 0628 B2010000 		.4byte	.LASF84
 1430 062c 0E       		.byte	0xe
 1431 062d 4A       		.byte	0x4a
 1432 062e D5000000 		.4byte	0xd5
 1433 0632 04       		.byte	0x4
 1434 0633 06       		.uleb128 0x6
 1435 0634 06050000 		.4byte	.LASF85
 1436 0638 0E       		.byte	0xe
 1437 0639 4B       		.byte	0x4b
 1438 063a D5000000 		.4byte	0xd5
 1439 063e 08       		.byte	0x8
 1440 063f 07       		.uleb128 0x7
 1441 0640 6E00     		.ascii	"n\000"
 1442 0642 0E       		.byte	0xe
 1443 0643 4C       		.byte	0x4c
 1444 0644 38010000 		.4byte	0x138
 1445 0648 0C       		.byte	0xc
 1446 0649 06       		.uleb128 0x6
 1447 064a 16050000 		.4byte	.LASF86
 1448 064e 0E       		.byte	0xe
 1449 064f 4D       		.byte	0x4d
 1450 0650 E0000000 		.4byte	0xe0
 1451 0654 10       		.byte	0x10
 1452 0655 00       		.byte	0
 1453 0656 03       		.uleb128 0x3
 1454 0657 B8010000 		.4byte	.LASF87
 1455 065b 0E       		.byte	0xe
 1456 065c 4E       		.byte	0x4e
 1457 065d 13060000 		.4byte	0x613
 1458 0661 0F       		.uleb128 0xf
 1459 0662 38       		.byte	0x38
 1460 0663 0F       		.byte	0xf
 1461 0664 38       		.byte	0x38
 1462 0665 9A060000 		.4byte	0x69a
 1463 0669 06       		.uleb128 0x6
 1464 066a 85030000 		.4byte	.LASF88
 1465 066e 0F       		.byte	0xf
 1466 066f 39       		.byte	0x39
 1467 0670 38010000 		.4byte	0x138
 1468 0674 00       		.byte	0
 1469 0675 06       		.uleb128 0x6
 1470 0676 65050000 		.4byte	.LASF89
 1471 067a 0F       		.byte	0xf
 1472 067b 3A       		.byte	0x3a
 1473 067c 38010000 		.4byte	0x138
 1474 0680 04       		.byte	0x4
 1475 0681 06       		.uleb128 0x6
 1476 0682 CF070000 		.4byte	.LASF90
 1477 0686 0F       		.byte	0xf
 1478 0687 3B       		.byte	0x3b
 1479 0688 56060000 		.4byte	0x656
 1480 068c 08       		.byte	0x8
 1481 068d 06       		.uleb128 0x6
 1482 068e 0E040000 		.4byte	.LASF91
ARM GAS  /tmp/cc1d7Rw9.s 			page 27


 1483 0692 0F       		.byte	0xf
 1484 0693 3D       		.byte	0x3d
 1485 0694 56060000 		.4byte	0x656
 1486 0698 20       		.byte	0x20
 1487 0699 00       		.byte	0
 1488 069a 03       		.uleb128 0x3
 1489 069b AA030000 		.4byte	.LASF92
 1490 069f 0F       		.byte	0xf
 1491 06a0 3F       		.byte	0x3f
 1492 06a1 61060000 		.4byte	0x661
 1493 06a5 10       		.uleb128 0x10
 1494 06a6 04       		.byte	0x4
 1495 06a7 0A       		.byte	0xa
 1496 06a8 C6       		.byte	0xc6
 1497 06a9 07070000 		.4byte	0x707
 1498 06ad 11       		.uleb128 0x11
 1499 06ae 3D000000 		.4byte	.LASF93
 1500 06b2 0A       		.byte	0xa
 1501 06b3 CD       		.byte	0xcd
 1502 06b4 17010000 		.4byte	0x117
 1503 06b8 11       		.uleb128 0x11
 1504 06b9 F5010000 		.4byte	.LASF94
 1505 06bd 0A       		.byte	0xa
 1506 06be D4       		.byte	0xd4
 1507 06bf 17010000 		.4byte	0x117
 1508 06c3 11       		.uleb128 0x11
 1509 06c4 8B070000 		.4byte	.LASF95
 1510 06c8 0A       		.byte	0xa
 1511 06c9 DB       		.byte	0xdb
 1512 06ca 21030000 		.4byte	0x321
 1513 06ce 11       		.uleb128 0x11
 1514 06cf 69030000 		.4byte	.LASF96
 1515 06d3 0A       		.byte	0xa
 1516 06d4 E2       		.byte	0xe2
 1517 06d5 07070000 		.4byte	0x707
 1518 06d9 11       		.uleb128 0x11
 1519 06da 09020000 		.4byte	.LASF97
 1520 06de 0A       		.byte	0xa
 1521 06df E7       		.byte	0xe7
 1522 06e0 17010000 		.4byte	0x117
 1523 06e4 11       		.uleb128 0x11
 1524 06e5 62030000 		.4byte	.LASF98
 1525 06e9 0A       		.byte	0xa
 1526 06ea F0       		.byte	0xf0
 1527 06eb 32070000 		.4byte	0x732
 1528 06ef 11       		.uleb128 0x11
 1529 06f0 33060000 		.4byte	.LASF99
 1530 06f4 0A       		.byte	0xa
 1531 06f5 F9       		.byte	0xf9
 1532 06f6 69070000 		.4byte	0x769
 1533 06fa 12       		.uleb128 0x12
 1534 06fb 9D050000 		.4byte	.LASF100
 1535 06ff 0A       		.byte	0xa
 1536 0700 0101     		.2byte	0x101
 1537 0702 22010000 		.4byte	0x122
 1538 0706 00       		.byte	0
 1539 0707 0A       		.uleb128 0xa
ARM GAS  /tmp/cc1d7Rw9.s 			page 28


 1540 0708 04       		.byte	0x4
 1541 0709 39020000 		.4byte	0x239
 1542 070d 05       		.uleb128 0x5
 1543 070e E3050000 		.4byte	.LASF101
 1544 0712 0C       		.byte	0xc
 1545 0713 10       		.byte	0x10
 1546 0714 34       		.byte	0x34
 1547 0715 32070000 		.4byte	0x732
 1548 0719 06       		.uleb128 0x6
 1549 071a 8B030000 		.4byte	.LASF30
 1550 071e 10       		.byte	0x10
 1551 071f 35       		.byte	0x35
 1552 0720 6E020000 		.4byte	0x26e
 1553 0724 00       		.byte	0
 1554 0725 07       		.uleb128 0x7
 1555 0726 636E7400 		.ascii	"cnt\000"
 1556 072a 10       		.byte	0x10
 1557 072b 37       		.byte	0x37
 1558 072c 2D010000 		.4byte	0x12d
 1559 0730 08       		.byte	0x8
 1560 0731 00       		.byte	0
 1561 0732 0A       		.uleb128 0xa
 1562 0733 04       		.byte	0x4
 1563 0734 0D070000 		.4byte	0x70d
 1564 0738 05       		.uleb128 0x5
 1565 0739 DD060000 		.4byte	.LASF102
 1566 073d 10       		.byte	0x10
 1567 073e 11       		.byte	0x11
 1568 073f 39       		.byte	0x39
 1569 0740 69070000 		.4byte	0x769
 1570 0744 06       		.uleb128 0x6
 1571 0745 8B030000 		.4byte	.LASF30
 1572 0749 11       		.byte	0x11
 1573 074a 3A       		.byte	0x3a
 1574 074b 6E020000 		.4byte	0x26e
 1575 074f 00       		.byte	0
 1576 0750 06       		.uleb128 0x6
 1577 0751 4A060000 		.4byte	.LASF103
 1578 0755 11       		.byte	0x11
 1579 0756 3C       		.byte	0x3c
 1580 0757 44020000 		.4byte	0x244
 1581 075b 08       		.byte	0x8
 1582 075c 06       		.uleb128 0x6
 1583 075d 34020000 		.4byte	.LASF50
 1584 0761 11       		.byte	0x11
 1585 0762 3E       		.byte	0x3e
 1586 0763 A8070000 		.4byte	0x7a8
 1587 0767 0C       		.byte	0xc
 1588 0768 00       		.byte	0
 1589 0769 0A       		.uleb128 0xa
 1590 076a 04       		.byte	0x4
 1591 076b 38070000 		.4byte	0x738
 1592 076f 0A       		.uleb128 0xa
 1593 0770 04       		.byte	0x4
 1594 0771 7C070000 		.4byte	0x77c
 1595 0775 04       		.uleb128 0x4
 1596 0776 01       		.byte	0x1
ARM GAS  /tmp/cc1d7Rw9.s 			page 29


 1597 0777 08       		.byte	0x8
 1598 0778 69060000 		.4byte	.LASF104
 1599 077c 13       		.uleb128 0x13
 1600 077d 75070000 		.4byte	0x775
 1601 0781 0A       		.uleb128 0xa
 1602 0782 04       		.byte	0x4
 1603 0783 7E040000 		.4byte	0x47e
 1604 0787 0A       		.uleb128 0xa
 1605 0788 04       		.byte	0x4
 1606 0789 23030000 		.4byte	0x323
 1607 078d 14       		.uleb128 0x14
 1608 078e 6F070000 		.4byte	0x76f
 1609 0792 03       		.uleb128 0x3
 1610 0793 C6050000 		.4byte	.LASF105
 1611 0797 10       		.byte	0x10
 1612 0798 38       		.byte	0x38
 1613 0799 0D070000 		.4byte	0x70d
 1614 079d 03       		.uleb128 0x3
 1615 079e 23030000 		.4byte	.LASF106
 1616 07a2 11       		.byte	0x11
 1617 07a3 34       		.byte	0x34
 1618 07a4 38070000 		.4byte	0x738
 1619 07a8 0A       		.uleb128 0xa
 1620 07a9 04       		.byte	0x4
 1621 07aa 9D070000 		.4byte	0x79d
 1622 07ae 04       		.uleb128 0x4
 1623 07af 01       		.byte	0x1
 1624 07b0 02       		.byte	0x2
 1625 07b1 6E050000 		.4byte	.LASF107
 1626 07b5 03       		.uleb128 0x3
 1627 07b6 EE060000 		.4byte	.LASF108
 1628 07ba 12       		.byte	0x12
 1629 07bb 47       		.byte	0x47
 1630 07bc C0070000 		.4byte	0x7c0
 1631 07c0 0A       		.uleb128 0xa
 1632 07c1 04       		.byte	0x4
 1633 07c2 C6070000 		.4byte	0x7c6
 1634 07c6 15       		.uleb128 0x15
 1635 07c7 21030000 		.4byte	0x321
 1636 07cb DA070000 		.4byte	0x7da
 1637 07cf 0D       		.uleb128 0xd
 1638 07d0 2C000000 		.4byte	0x2c
 1639 07d4 0D       		.uleb128 0xd
 1640 07d5 37000000 		.4byte	0x37
 1641 07d9 00       		.byte	0
 1642 07da 05       		.uleb128 0x5
 1643 07db 31070000 		.4byte	.LASF109
 1644 07df 04       		.byte	0x4
 1645 07e0 04       		.byte	0x4
 1646 07e1 38       		.byte	0x38
 1647 07e2 F3070000 		.4byte	0x7f3
 1648 07e6 06       		.uleb128 0x6
 1649 07e7 34020000 		.4byte	.LASF50
 1650 07eb 04       		.byte	0x4
 1651 07ec 39       		.byte	0x39
 1652 07ed F3070000 		.4byte	0x7f3
 1653 07f1 00       		.byte	0
ARM GAS  /tmp/cc1d7Rw9.s 			page 30


 1654 07f2 00       		.byte	0
 1655 07f3 0A       		.uleb128 0xa
 1656 07f4 04       		.byte	0x4
 1657 07f5 DA070000 		.4byte	0x7da
 1658 07f9 0F       		.uleb128 0xf
 1659 07fa 10       		.byte	0x10
 1660 07fb 04       		.byte	0x4
 1661 07fc 40       		.byte	0x40
 1662 07fd 32080000 		.4byte	0x832
 1663 0801 06       		.uleb128 0x6
 1664 0802 34020000 		.4byte	.LASF50
 1665 0806 04       		.byte	0x4
 1666 0807 41       		.byte	0x41
 1667 0808 F3070000 		.4byte	0x7f3
 1668 080c 00       		.byte	0
 1669 080d 06       		.uleb128 0x6
 1670 080e 0C070000 		.4byte	.LASF110
 1671 0812 04       		.byte	0x4
 1672 0813 42       		.byte	0x42
 1673 0814 2C000000 		.4byte	0x2c
 1674 0818 04       		.byte	0x4
 1675 0819 06       		.uleb128 0x6
 1676 081a 2B030000 		.4byte	.LASF111
 1677 081e 04       		.byte	0x4
 1678 081f 44       		.byte	0x44
 1679 0820 37000000 		.4byte	0x37
 1680 0824 08       		.byte	0x8
 1681 0825 06       		.uleb128 0x6
 1682 0826 95000000 		.4byte	.LASF112
 1683 082a 04       		.byte	0x4
 1684 082b 45       		.byte	0x45
 1685 082c B5070000 		.4byte	0x7b5
 1686 0830 0C       		.byte	0xc
 1687 0831 00       		.byte	0
 1688 0832 03       		.uleb128 0x3
 1689 0833 77030000 		.4byte	.LASF113
 1690 0837 04       		.byte	0x4
 1691 0838 47       		.byte	0x47
 1692 0839 F9070000 		.4byte	0x7f9
 1693 083d 0F       		.uleb128 0xf
 1694 083e 1C       		.byte	0x1c
 1695 083f 04       		.byte	0x4
 1696 0840 4D       		.byte	0x4d
 1697 0841 5E080000 		.4byte	0x85e
 1698 0845 07       		.uleb128 0x7
 1699 0846 73656D00 		.ascii	"sem\000"
 1700 084a 04       		.byte	0x4
 1701 084b 4E       		.byte	0x4e
 1702 084c 92070000 		.4byte	0x792
 1703 0850 00       		.byte	0
 1704 0851 06       		.uleb128 0x6
 1705 0852 43070000 		.4byte	.LASF114
 1706 0856 04       		.byte	0x4
 1707 0857 50       		.byte	0x50
 1708 0858 32080000 		.4byte	0x832
 1709 085c 0C       		.byte	0xc
 1710 085d 00       		.byte	0
ARM GAS  /tmp/cc1d7Rw9.s 			page 31


 1711 085e 03       		.uleb128 0x3
 1712 085f 00000000 		.4byte	.LASF115
 1713 0863 04       		.byte	0x4
 1714 0864 51       		.byte	0x51
 1715 0865 3D080000 		.4byte	0x83d
 1716 0869 16       		.uleb128 0x16
 1717 086a A7060000 		.4byte	.LASF121
 1718 086e 02       		.byte	0x2
 1719 086f EB01     		.2byte	0x1eb
 1720 0871 03       		.byte	0x3
 1721 0872 83080000 		.4byte	0x883
 1722 0876 17       		.uleb128 0x17
 1723 0877 61020000 		.4byte	.LASF118
 1724 087b 02       		.byte	0x2
 1725 087c EB01     		.2byte	0x1eb
 1726 087e BF000000 		.4byte	0xbf
 1727 0882 00       		.byte	0
 1728 0883 18       		.uleb128 0x18
 1729 0884 BD070000 		.4byte	.LASF116
 1730 0888 0D       		.byte	0xd
 1731 0889 5A02     		.2byte	0x25a
 1732 088b 03       		.byte	0x3
 1733 088c 18       		.uleb128 0x18
 1734 088d 70020000 		.4byte	.LASF117
 1735 0891 0D       		.byte	0xd
 1736 0892 7202     		.2byte	0x272
 1737 0894 03       		.byte	0x3
 1738 0895 19       		.uleb128 0x19
 1739 0896 E5020000 		.4byte	.LASF123
 1740 089a 01       		.byte	0x1
 1741 089b B7       		.byte	0xb7
 1742 089c 01       		.byte	0x1
 1743 089d CF080000 		.4byte	0x8cf
 1744 08a1 1A       		.uleb128 0x1a
 1745 08a2 6D7000   		.ascii	"mp\000"
 1746 08a5 01       		.byte	0x1
 1747 08a6 B7       		.byte	0xb7
 1748 08a7 CF080000 		.4byte	0x8cf
 1749 08ab 1B       		.uleb128 0x1b
 1750 08ac C1050000 		.4byte	.LASF119
 1751 08b0 01       		.byte	0x1
 1752 08b1 B7       		.byte	0xb7
 1753 08b2 21030000 		.4byte	0x321
 1754 08b6 1C       		.uleb128 0x1c
 1755 08b7 70687000 		.ascii	"php\000"
 1756 08bb 01       		.byte	0x1
 1757 08bc B8       		.byte	0xb8
 1758 08bd F3070000 		.4byte	0x7f3
 1759 08c1 1D       		.uleb128 0x1d
 1760 08c2 AE050000 		.4byte	.LASF120
 1761 08c6 E5080000 		.4byte	0x8e5
 1762 08ca E5020000 		.4byte	.LASF123
 1763 08ce 00       		.byte	0
 1764 08cf 0A       		.uleb128 0xa
 1765 08d0 04       		.byte	0x4
 1766 08d1 32080000 		.4byte	0x832
 1767 08d5 1E       		.uleb128 0x1e
ARM GAS  /tmp/cc1d7Rw9.s 			page 32


 1768 08d6 7C070000 		.4byte	0x77c
 1769 08da E5080000 		.4byte	0x8e5
 1770 08de 1F       		.uleb128 0x1f
 1771 08df 6C040000 		.4byte	0x46c
 1772 08e3 0B       		.byte	0xb
 1773 08e4 00       		.byte	0
 1774 08e5 13       		.uleb128 0x13
 1775 08e6 D5080000 		.4byte	0x8d5
 1776 08ea 20       		.uleb128 0x20
 1777 08eb FC030000 		.4byte	.LASF122
 1778 08ef 04       		.byte	0x4
 1779 08f0 D2       		.byte	0xd2
 1780 08f1 03       		.byte	0x3
 1781 08f2 0C090000 		.4byte	0x90c
 1782 08f6 1A       		.uleb128 0x1a
 1783 08f7 6D7000   		.ascii	"mp\000"
 1784 08fa 04       		.byte	0x4
 1785 08fb D2       		.byte	0xd2
 1786 08fc CF080000 		.4byte	0x8cf
 1787 0900 1B       		.uleb128 0x1b
 1788 0901 C1050000 		.4byte	.LASF119
 1789 0905 04       		.byte	0x4
 1790 0906 D2       		.byte	0xd2
 1791 0907 21030000 		.4byte	0x321
 1792 090b 00       		.byte	0
 1793 090c 19       		.uleb128 0x19
 1794 090d A8020000 		.4byte	.LASF124
 1795 0911 01       		.byte	0x1
 1796 0912 4D       		.byte	0x4d
 1797 0913 01       		.byte	0x1
 1798 0914 51090000 		.4byte	0x951
 1799 0918 1A       		.uleb128 0x1a
 1800 0919 6D7000   		.ascii	"mp\000"
 1801 091c 01       		.byte	0x1
 1802 091d 4D       		.byte	0x4d
 1803 091e CF080000 		.4byte	0x8cf
 1804 0922 1B       		.uleb128 0x1b
 1805 0923 5C020000 		.4byte	.LASF125
 1806 0927 01       		.byte	0x1
 1807 0928 4D       		.byte	0x4d
 1808 0929 2C000000 		.4byte	0x2c
 1809 092d 1B       		.uleb128 0x1b
 1810 092e 2B030000 		.4byte	.LASF111
 1811 0932 01       		.byte	0x1
 1812 0933 4E       		.byte	0x4e
 1813 0934 37000000 		.4byte	0x37
 1814 0938 1B       		.uleb128 0x1b
 1815 0939 95000000 		.4byte	.LASF112
 1816 093d 01       		.byte	0x1
 1817 093e 4E       		.byte	0x4e
 1818 093f B5070000 		.4byte	0x7b5
 1819 0943 1D       		.uleb128 0x1d
 1820 0944 AE050000 		.4byte	.LASF120
 1821 0948 61090000 		.4byte	0x961
 1822 094c A8020000 		.4byte	.LASF124
 1823 0950 00       		.byte	0
 1824 0951 1E       		.uleb128 0x1e
ARM GAS  /tmp/cc1d7Rw9.s 			page 33


 1825 0952 7C070000 		.4byte	0x77c
 1826 0956 61090000 		.4byte	0x961
 1827 095a 1F       		.uleb128 0x1f
 1828 095b 6C040000 		.4byte	0x46c
 1829 095f 17       		.byte	0x17
 1830 0960 00       		.byte	0
 1831 0961 13       		.uleb128 0x13
 1832 0962 51090000 		.4byte	0x951
 1833 0966 16       		.uleb128 0x16
 1834 0967 FB060000 		.4byte	.LASF126
 1835 096b 04       		.byte	0x4
 1836 096c 4301     		.2byte	0x143
 1837 096e 03       		.byte	0x3
 1838 096f 8C090000 		.4byte	0x98c
 1839 0973 21       		.uleb128 0x21
 1840 0974 676D7000 		.ascii	"gmp\000"
 1841 0978 04       		.byte	0x4
 1842 0979 4301     		.2byte	0x143
 1843 097b 8C090000 		.4byte	0x98c
 1844 097f 17       		.uleb128 0x17
 1845 0980 C1050000 		.4byte	.LASF119
 1846 0984 04       		.byte	0x4
 1847 0985 4301     		.2byte	0x143
 1848 0987 21030000 		.4byte	0x321
 1849 098b 00       		.byte	0
 1850 098c 0A       		.uleb128 0xa
 1851 098d 04       		.byte	0x4
 1852 098e 5E080000 		.4byte	0x85e
 1853 0992 22       		.uleb128 0x22
 1854 0993 0C090000 		.4byte	0x90c
 1855 0997 00000000 		.4byte	.LFB290
 1856 099b 0E000000 		.4byte	.LFE290-.LFB290
 1857 099f 01       		.uleb128 0x1
 1858 09a0 9C       		.byte	0x9c
 1859 09a1 C7090000 		.4byte	0x9c7
 1860 09a5 23       		.uleb128 0x23
 1861 09a6 18090000 		.4byte	0x918
 1862 09aa 01       		.uleb128 0x1
 1863 09ab 50       		.byte	0x50
 1864 09ac 23       		.uleb128 0x23
 1865 09ad 22090000 		.4byte	0x922
 1866 09b1 01       		.uleb128 0x1
 1867 09b2 51       		.byte	0x51
 1868 09b3 23       		.uleb128 0x23
 1869 09b4 2D090000 		.4byte	0x92d
 1870 09b8 01       		.uleb128 0x1
 1871 09b9 52       		.byte	0x52
 1872 09ba 23       		.uleb128 0x23
 1873 09bb 38090000 		.4byte	0x938
 1874 09bf 01       		.uleb128 0x1
 1875 09c0 53       		.byte	0x53
 1876 09c1 24       		.uleb128 0x24
 1877 09c2 43090000 		.4byte	0x943
 1878 09c6 00       		.byte	0
 1879 09c7 25       		.uleb128 0x25
 1880 09c8 B3040000 		.4byte	.LASF129
 1881 09cc 01       		.byte	0x1
ARM GAS  /tmp/cc1d7Rw9.s 			page 34


 1882 09cd 81       		.byte	0x81
 1883 09ce 21030000 		.4byte	0x321
 1884 09d2 00000000 		.4byte	.LFB292
 1885 09d6 18000000 		.4byte	.LFE292-.LFB292
 1886 09da 01       		.uleb128 0x1
 1887 09db 9C       		.byte	0x9c
 1888 09dc 070A0000 		.4byte	0xa07
 1889 09e0 26       		.uleb128 0x26
 1890 09e1 6D7000   		.ascii	"mp\000"
 1891 09e4 01       		.byte	0x1
 1892 09e5 81       		.byte	0x81
 1893 09e6 CF080000 		.4byte	0x8cf
 1894 09ea 00000000 		.4byte	.LLST0
 1895 09ee 27       		.uleb128 0x27
 1896 09ef C1050000 		.4byte	.LASF119
 1897 09f3 01       		.byte	0x1
 1898 09f4 82       		.byte	0x82
 1899 09f5 21030000 		.4byte	0x321
 1900 09f9 37000000 		.4byte	.LLST1
 1901 09fd 28       		.uleb128 0x28
 1902 09fe AE050000 		.4byte	.LASF120
 1903 0a02 170A0000 		.4byte	0xa17
 1904 0a06 00       		.byte	0
 1905 0a07 1E       		.uleb128 0x1e
 1906 0a08 7C070000 		.4byte	0x77c
 1907 0a0c 170A0000 		.4byte	0xa17
 1908 0a10 1F       		.uleb128 0x1f
 1909 0a11 6C040000 		.4byte	0x46c
 1910 0a15 0C       		.byte	0xc
 1911 0a16 00       		.byte	0
 1912 0a17 13       		.uleb128 0x13
 1913 0a18 070A0000 		.4byte	0xa07
 1914 0a1c 16       		.uleb128 0x16
 1915 0a1d A1070000 		.4byte	.LASF127
 1916 0a21 03       		.byte	0x3
 1917 0a22 6D01     		.2byte	0x16d
 1918 0a24 03       		.byte	0x3
 1919 0a25 370A0000 		.4byte	0xa37
 1920 0a29 1D       		.uleb128 0x1d
 1921 0a2a AE050000 		.4byte	.LASF120
 1922 0a2e 370A0000 		.4byte	0xa37
 1923 0a32 A1070000 		.4byte	.LASF127
 1924 0a36 00       		.byte	0
 1925 0a37 13       		.uleb128 0x13
 1926 0a38 D5080000 		.4byte	0x8d5
 1927 0a3c 18       		.uleb128 0x18
 1928 0a3d B7050000 		.4byte	.LASF128
 1929 0a41 03       		.byte	0x3
 1930 0a42 6101     		.2byte	0x161
 1931 0a44 03       		.byte	0x3
 1932 0a45 29       		.uleb128 0x29
 1933 0a46 50070000 		.4byte	.LASF133
 1934 0a4a 01       		.byte	0x1
 1935 0a4b A1       		.byte	0xa1
 1936 0a4c 21030000 		.4byte	0x321
 1937 0a50 00000000 		.4byte	.LFB293
 1938 0a54 24000000 		.4byte	.LFE293-.LFB293
ARM GAS  /tmp/cc1d7Rw9.s 			page 35


 1939 0a58 01       		.uleb128 0x1
 1940 0a59 9C       		.byte	0x9c
 1941 0a5a 330B0000 		.4byte	0xb33
 1942 0a5e 26       		.uleb128 0x26
 1943 0a5f 6D7000   		.ascii	"mp\000"
 1944 0a62 01       		.byte	0x1
 1945 0a63 A1       		.byte	0xa1
 1946 0a64 CF080000 		.4byte	0x8cf
 1947 0a68 61000000 		.4byte	.LLST2
 1948 0a6c 27       		.uleb128 0x27
 1949 0a6d C1050000 		.4byte	.LASF119
 1950 0a71 01       		.byte	0x1
 1951 0a72 A2       		.byte	0xa2
 1952 0a73 21030000 		.4byte	0x321
 1953 0a77 8D000000 		.4byte	.LLST3
 1954 0a7b 2A       		.uleb128 0x2a
 1955 0a7c 3C0A0000 		.4byte	0xa3c
 1956 0a80 02000000 		.4byte	.LBB34
 1957 0a84 00000000 		.4byte	.Ldebug_ranges0+0
 1958 0a88 01       		.byte	0x1
 1959 0a89 A4       		.byte	0xa4
 1960 0a8a C70A0000 		.4byte	0xac7
 1961 0a8e 2B       		.uleb128 0x2b
 1962 0a8f 83080000 		.4byte	0x883
 1963 0a93 02000000 		.4byte	.LBB36
 1964 0a97 18000000 		.4byte	.Ldebug_ranges0+0x18
 1965 0a9b 03       		.byte	0x3
 1966 0a9c 6301     		.2byte	0x163
 1967 0a9e BD0A0000 		.4byte	0xabd
 1968 0aa2 2C       		.uleb128 0x2c
 1969 0aa3 69080000 		.4byte	0x869
 1970 0aa7 02000000 		.4byte	.LBB37
 1971 0aab 18000000 		.4byte	.Ldebug_ranges0+0x18
 1972 0aaf 0D       		.byte	0xd
 1973 0ab0 6202     		.2byte	0x262
 1974 0ab2 2D       		.uleb128 0x2d
 1975 0ab3 76080000 		.4byte	0x876
 1976 0ab7 AB000000 		.4byte	.LLST4
 1977 0abb 00       		.byte	0
 1978 0abc 00       		.byte	0
 1979 0abd 2E       		.uleb128 0x2e
 1980 0abe 0E000000 		.4byte	.LVL7
 1981 0ac2 54110000 		.4byte	0x1154
 1982 0ac6 00       		.byte	0
 1983 0ac7 2F       		.uleb128 0x2f
 1984 0ac8 1C0A0000 		.4byte	0xa1c
 1985 0acc 16000000 		.4byte	.LBB44
 1986 0ad0 0A000000 		.4byte	.LBE44-.LBB44
 1987 0ad4 01       		.byte	0x1
 1988 0ad5 A6       		.byte	0xa6
 1989 0ad6 220B0000 		.4byte	0xb22
 1990 0ada 30       		.uleb128 0x30
 1991 0adb 16000000 		.4byte	.LBB45
 1992 0adf 0A000000 		.4byte	.LBE45-.LBB45
 1993 0ae3 24       		.uleb128 0x24
 1994 0ae4 290A0000 		.4byte	0xa29
 1995 0ae8 31       		.uleb128 0x31
ARM GAS  /tmp/cc1d7Rw9.s 			page 36


 1996 0ae9 8C080000 		.4byte	0x88c
 1997 0aed 1A000000 		.4byte	.LBB46
 1998 0af1 06000000 		.4byte	.LBE46-.LBB46
 1999 0af5 03       		.byte	0x3
 2000 0af6 7A01     		.2byte	0x17a
 2001 0af8 170B0000 		.4byte	0xb17
 2002 0afc 32       		.uleb128 0x32
 2003 0afd 69080000 		.4byte	0x869
 2004 0b01 1A000000 		.4byte	.LBB47
 2005 0b05 06000000 		.4byte	.LBE47-.LBB47
 2006 0b09 0D       		.byte	0xd
 2007 0b0a 7502     		.2byte	0x275
 2008 0b0c 2D       		.uleb128 0x2d
 2009 0b0d 76080000 		.4byte	0x876
 2010 0b11 C0000000 		.4byte	.LLST5
 2011 0b15 00       		.byte	0
 2012 0b16 00       		.byte	0
 2013 0b17 2E       		.uleb128 0x2e
 2014 0b18 1A000000 		.4byte	.LVL10
 2015 0b1c 5F110000 		.4byte	0x115f
 2016 0b20 00       		.byte	0
 2017 0b21 00       		.byte	0
 2018 0b22 33       		.uleb128 0x33
 2019 0b23 14000000 		.4byte	.LVL8
 2020 0b27 C7090000 		.4byte	0x9c7
 2021 0b2b 34       		.uleb128 0x34
 2022 0b2c 01       		.uleb128 0x1
 2023 0b2d 50       		.byte	0x50
 2024 0b2e 02       		.uleb128 0x2
 2025 0b2f 74       		.byte	0x74
 2026 0b30 00       		.sleb128 0
 2027 0b31 00       		.byte	0
 2028 0b32 00       		.byte	0
 2029 0b33 22       		.uleb128 0x22
 2030 0b34 95080000 		.4byte	0x895
 2031 0b38 00000000 		.4byte	.LFB294
 2032 0b3c 08000000 		.4byte	.LFE294-.LFB294
 2033 0b40 01       		.uleb128 0x1
 2034 0b41 9C       		.byte	0x9c
 2035 0b42 610B0000 		.4byte	0xb61
 2036 0b46 23       		.uleb128 0x23
 2037 0b47 A1080000 		.4byte	0x8a1
 2038 0b4b 01       		.uleb128 0x1
 2039 0b4c 50       		.byte	0x50
 2040 0b4d 23       		.uleb128 0x23
 2041 0b4e AB080000 		.4byte	0x8ab
 2042 0b52 01       		.uleb128 0x1
 2043 0b53 51       		.byte	0x51
 2044 0b54 35       		.uleb128 0x35
 2045 0b55 B6080000 		.4byte	0x8b6
 2046 0b59 01       		.uleb128 0x1
 2047 0b5a 51       		.byte	0x51
 2048 0b5b 24       		.uleb128 0x24
 2049 0b5c C1080000 		.4byte	0x8c1
 2050 0b60 00       		.byte	0
 2051 0b61 36       		.uleb128 0x36
 2052 0b62 5C070000 		.4byte	.LASF130
ARM GAS  /tmp/cc1d7Rw9.s 			page 37


 2053 0b66 01       		.byte	0x1
 2054 0b67 CF       		.byte	0xcf
 2055 0b68 00000000 		.4byte	.LFB295
 2056 0b6c 22000000 		.4byte	.LFE295-.LFB295
 2057 0b70 01       		.uleb128 0x1
 2058 0b71 9C       		.byte	0x9c
 2059 0b72 730C0000 		.4byte	0xc73
 2060 0b76 26       		.uleb128 0x26
 2061 0b77 6D7000   		.ascii	"mp\000"
 2062 0b7a 01       		.byte	0x1
 2063 0b7b CF       		.byte	0xcf
 2064 0b7c CF080000 		.4byte	0x8cf
 2065 0b80 D4000000 		.4byte	.LLST6
 2066 0b84 37       		.uleb128 0x37
 2067 0b85 C1050000 		.4byte	.LASF119
 2068 0b89 01       		.byte	0x1
 2069 0b8a CF       		.byte	0xcf
 2070 0b8b 21030000 		.4byte	0x321
 2071 0b8f F2000000 		.4byte	.LLST7
 2072 0b93 2F       		.uleb128 0x2f
 2073 0b94 3C0A0000 		.4byte	0xa3c
 2074 0b98 06000000 		.4byte	.LBB61
 2075 0b9c 0A000000 		.4byte	.LBE61-.LBB61
 2076 0ba0 01       		.byte	0x1
 2077 0ba1 D1       		.byte	0xd1
 2078 0ba2 DF0B0000 		.4byte	0xbdf
 2079 0ba6 31       		.uleb128 0x31
 2080 0ba7 83080000 		.4byte	0x883
 2081 0bab 06000000 		.4byte	.LBB63
 2082 0baf 06000000 		.4byte	.LBE63-.LBB63
 2083 0bb3 03       		.byte	0x3
 2084 0bb4 6301     		.2byte	0x163
 2085 0bb6 D50B0000 		.4byte	0xbd5
 2086 0bba 32       		.uleb128 0x32
 2087 0bbb 69080000 		.4byte	0x869
 2088 0bbf 06000000 		.4byte	.LBB64
 2089 0bc3 06000000 		.4byte	.LBE64-.LBB64
 2090 0bc7 0D       		.byte	0xd
 2091 0bc8 6202     		.2byte	0x262
 2092 0bca 2D       		.uleb128 0x2d
 2093 0bcb 76080000 		.4byte	0x876
 2094 0bcf 10010000 		.4byte	.LLST8
 2095 0bd3 00       		.byte	0
 2096 0bd4 00       		.byte	0
 2097 0bd5 2E       		.uleb128 0x2e
 2098 0bd6 10000000 		.4byte	.LVL15
 2099 0bda 54110000 		.4byte	0x1154
 2100 0bde 00       		.byte	0
 2101 0bdf 2F       		.uleb128 0x2f
 2102 0be0 95080000 		.4byte	0x895
 2103 0be4 10000000 		.4byte	.LBB66
 2104 0be8 06000000 		.4byte	.LBE66-.LBB66
 2105 0bec 01       		.byte	0x1
 2106 0bed D2       		.byte	0xd2
 2107 0bee 1B0C0000 		.4byte	0xc1b
 2108 0bf2 2D       		.uleb128 0x2d
 2109 0bf3 AB080000 		.4byte	0x8ab
ARM GAS  /tmp/cc1d7Rw9.s 			page 38


 2110 0bf7 25010000 		.4byte	.LLST9
 2111 0bfb 2D       		.uleb128 0x2d
 2112 0bfc A1080000 		.4byte	0x8a1
 2113 0c00 38010000 		.4byte	.LLST10
 2114 0c04 30       		.uleb128 0x30
 2115 0c05 10000000 		.4byte	.LBB67
 2116 0c09 06000000 		.4byte	.LBE67-.LBB67
 2117 0c0d 35       		.uleb128 0x35
 2118 0c0e B6080000 		.4byte	0x8b6
 2119 0c12 01       		.uleb128 0x1
 2120 0c13 55       		.byte	0x55
 2121 0c14 24       		.uleb128 0x24
 2122 0c15 C1080000 		.4byte	0x8c1
 2123 0c19 00       		.byte	0
 2124 0c1a 00       		.byte	0
 2125 0c1b 38       		.uleb128 0x38
 2126 0c1c 1C0A0000 		.4byte	0xa1c
 2127 0c20 16000000 		.4byte	.LBB68
 2128 0c24 0C000000 		.4byte	.LBE68-.LBB68
 2129 0c28 01       		.byte	0x1
 2130 0c29 D3       		.byte	0xd3
 2131 0c2a 30       		.uleb128 0x30
 2132 0c2b 16000000 		.4byte	.LBB69
 2133 0c2f 0C000000 		.4byte	.LBE69-.LBB69
 2134 0c33 24       		.uleb128 0x24
 2135 0c34 290A0000 		.4byte	0xa29
 2136 0c38 31       		.uleb128 0x31
 2137 0c39 8C080000 		.4byte	0x88c
 2138 0c3d 1A000000 		.4byte	.LBB70
 2139 0c41 08000000 		.4byte	.LBE70-.LBB70
 2140 0c45 03       		.byte	0x3
 2141 0c46 7A01     		.2byte	0x17a
 2142 0c48 670C0000 		.4byte	0xc67
 2143 0c4c 32       		.uleb128 0x32
 2144 0c4d 69080000 		.4byte	0x869
 2145 0c51 1A000000 		.4byte	.LBB71
 2146 0c55 08000000 		.4byte	.LBE71-.LBB71
 2147 0c59 0D       		.byte	0xd
 2148 0c5a 7502     		.2byte	0x275
 2149 0c5c 2D       		.uleb128 0x2d
 2150 0c5d 76080000 		.4byte	0x876
 2151 0c61 4B010000 		.4byte	.LLST11
 2152 0c65 00       		.byte	0
 2153 0c66 00       		.byte	0
 2154 0c67 2E       		.uleb128 0x2e
 2155 0c68 1A000000 		.4byte	.LVL17
 2156 0c6c 5F110000 		.4byte	0x115f
 2157 0c70 00       		.byte	0
 2158 0c71 00       		.byte	0
 2159 0c72 00       		.byte	0
 2160 0c73 36       		.uleb128 0x36
 2161 0c74 AD070000 		.4byte	.LASF131
 2162 0c78 01       		.byte	0x1
 2163 0c79 6A       		.byte	0x6a
 2164 0c7a 00000000 		.4byte	.LFB291
 2165 0c7e 1C000000 		.4byte	.LFE291-.LFB291
 2166 0c82 01       		.uleb128 0x1
ARM GAS  /tmp/cc1d7Rw9.s 			page 39


 2167 0c83 9C       		.byte	0x9c
 2168 0c84 F20C0000 		.4byte	0xcf2
 2169 0c88 26       		.uleb128 0x26
 2170 0c89 6D7000   		.ascii	"mp\000"
 2171 0c8c 01       		.byte	0x1
 2172 0c8d 6A       		.byte	0x6a
 2173 0c8e CF080000 		.4byte	0x8cf
 2174 0c92 5F010000 		.4byte	.LLST12
 2175 0c96 26       		.uleb128 0x26
 2176 0c97 7000     		.ascii	"p\000"
 2177 0c99 01       		.byte	0x1
 2178 0c9a 6A       		.byte	0x6a
 2179 0c9b 21030000 		.4byte	0x321
 2180 0c9f 7D010000 		.4byte	.LLST13
 2181 0ca3 26       		.uleb128 0x26
 2182 0ca4 6E00     		.ascii	"n\000"
 2183 0ca6 01       		.byte	0x1
 2184 0ca7 6A       		.byte	0x6a
 2185 0ca8 2C000000 		.4byte	0x2c
 2186 0cac 9B010000 		.4byte	.LLST14
 2187 0cb0 28       		.uleb128 0x28
 2188 0cb1 AE050000 		.4byte	.LASF120
 2189 0cb5 020D0000 		.4byte	0xd02
 2190 0cb9 38       		.uleb128 0x38
 2191 0cba EA080000 		.4byte	0x8ea
 2192 0cbe 0A000000 		.4byte	.LBB73
 2193 0cc2 08000000 		.4byte	.LBE73-.LBB73
 2194 0cc6 01       		.byte	0x1
 2195 0cc7 6F       		.byte	0x6f
 2196 0cc8 2D       		.uleb128 0x2d
 2197 0cc9 00090000 		.4byte	0x900
 2198 0ccd D1010000 		.4byte	.LLST15
 2199 0cd1 2D       		.uleb128 0x2d
 2200 0cd2 F6080000 		.4byte	0x8f6
 2201 0cd6 E4010000 		.4byte	.LLST16
 2202 0cda 33       		.uleb128 0x33
 2203 0cdb 12000000 		.4byte	.LVL22
 2204 0cdf 610B0000 		.4byte	0xb61
 2205 0ce3 34       		.uleb128 0x34
 2206 0ce4 01       		.uleb128 0x1
 2207 0ce5 50       		.byte	0x50
 2208 0ce6 02       		.uleb128 0x2
 2209 0ce7 76       		.byte	0x76
 2210 0ce8 00       		.sleb128 0
 2211 0ce9 34       		.uleb128 0x34
 2212 0cea 01       		.uleb128 0x1
 2213 0ceb 51       		.byte	0x51
 2214 0cec 02       		.uleb128 0x2
 2215 0ced 75       		.byte	0x75
 2216 0cee 00       		.sleb128 0
 2217 0cef 00       		.byte	0
 2218 0cf0 00       		.byte	0
 2219 0cf1 00       		.byte	0
 2220 0cf2 1E       		.uleb128 0x1e
 2221 0cf3 7C070000 		.4byte	0x77c
 2222 0cf7 020D0000 		.4byte	0xd02
 2223 0cfb 1F       		.uleb128 0x1f
ARM GAS  /tmp/cc1d7Rw9.s 			page 40


 2224 0cfc 6C040000 		.4byte	0x46c
 2225 0d00 0F       		.byte	0xf
 2226 0d01 00       		.byte	0
 2227 0d02 13       		.uleb128 0x13
 2228 0d03 F20C0000 		.4byte	0xcf2
 2229 0d07 36       		.uleb128 0x36
 2230 0d08 21050000 		.4byte	.LASF132
 2231 0d0c 01       		.byte	0x1
 2232 0d0d E2       		.byte	0xe2
 2233 0d0e 00000000 		.4byte	.LFB296
 2234 0d12 16000000 		.4byte	.LFE296-.LFB296
 2235 0d16 01       		.uleb128 0x1
 2236 0d17 9C       		.byte	0x9c
 2237 0d18 A30D0000 		.4byte	0xda3
 2238 0d1c 26       		.uleb128 0x26
 2239 0d1d 676D7000 		.ascii	"gmp\000"
 2240 0d21 01       		.byte	0x1
 2241 0d22 E2       		.byte	0xe2
 2242 0d23 8C090000 		.4byte	0x98c
 2243 0d27 F7010000 		.4byte	.LLST17
 2244 0d2b 37       		.uleb128 0x37
 2245 0d2c 5C020000 		.4byte	.LASF125
 2246 0d30 01       		.byte	0x1
 2247 0d31 E3       		.byte	0xe3
 2248 0d32 2C000000 		.4byte	0x2c
 2249 0d36 18020000 		.4byte	.LLST18
 2250 0d3a 37       		.uleb128 0x37
 2251 0d3b 2B030000 		.4byte	.LASF111
 2252 0d3f 01       		.byte	0x1
 2253 0d40 E4       		.byte	0xe4
 2254 0d41 37000000 		.4byte	0x37
 2255 0d45 45020000 		.4byte	.LLST19
 2256 0d49 2A       		.uleb128 0x2a
 2257 0d4a 0C090000 		.4byte	0x90c
 2258 0d4e 02000000 		.4byte	.LBB75
 2259 0d52 30000000 		.4byte	.Ldebug_ranges0+0x30
 2260 0d56 01       		.byte	0x1
 2261 0d57 E6       		.byte	0xe6
 2262 0d58 8C0D0000 		.4byte	0xd8c
 2263 0d5c 2D       		.uleb128 0x2d
 2264 0d5d 38090000 		.4byte	0x938
 2265 0d61 66020000 		.4byte	.LLST20
 2266 0d65 2D       		.uleb128 0x2d
 2267 0d66 2D090000 		.4byte	0x92d
 2268 0d6a 7A020000 		.4byte	.LLST21
 2269 0d6e 2D       		.uleb128 0x2d
 2270 0d6f 22090000 		.4byte	0x922
 2271 0d73 8D020000 		.4byte	.LLST22
 2272 0d77 2D       		.uleb128 0x2d
 2273 0d78 18090000 		.4byte	0x918
 2274 0d7c A0020000 		.4byte	.LLST23
 2275 0d80 39       		.uleb128 0x39
 2276 0d81 30000000 		.4byte	.Ldebug_ranges0+0x30
 2277 0d85 24       		.uleb128 0x24
 2278 0d86 43090000 		.4byte	0x943
 2279 0d8a 00       		.byte	0
 2280 0d8b 00       		.byte	0
ARM GAS  /tmp/cc1d7Rw9.s 			page 41


 2281 0d8c 3A       		.uleb128 0x3a
 2282 0d8d 16000000 		.4byte	.LVL28
 2283 0d91 6A110000 		.4byte	0x116a
 2284 0d95 34       		.uleb128 0x34
 2285 0d96 01       		.uleb128 0x1
 2286 0d97 50       		.byte	0x50
 2287 0d98 03       		.uleb128 0x3
 2288 0d99 F3       		.byte	0xf3
 2289 0d9a 01       		.uleb128 0x1
 2290 0d9b 50       		.byte	0x50
 2291 0d9c 34       		.uleb128 0x34
 2292 0d9d 01       		.uleb128 0x1
 2293 0d9e 51       		.byte	0x51
 2294 0d9f 01       		.uleb128 0x1
 2295 0da0 30       		.byte	0x30
 2296 0da1 00       		.byte	0
 2297 0da2 00       		.byte	0
 2298 0da3 3B       		.uleb128 0x3b
 2299 0da4 DE040000 		.4byte	.LASF134
 2300 0da8 01       		.byte	0x1
 2301 0da9 1301     		.2byte	0x113
 2302 0dab 21030000 		.4byte	0x321
 2303 0daf 00000000 		.4byte	.LFB298
 2304 0db3 1A000000 		.4byte	.LFE298-.LFB298
 2305 0db7 01       		.uleb128 0x1
 2306 0db8 9C       		.byte	0x9c
 2307 0db9 1C0E0000 		.4byte	0xe1c
 2308 0dbd 3C       		.uleb128 0x3c
 2309 0dbe 676D7000 		.ascii	"gmp\000"
 2310 0dc2 01       		.byte	0x1
 2311 0dc3 1301     		.2byte	0x113
 2312 0dc5 8C090000 		.4byte	0x98c
 2313 0dc9 B5020000 		.4byte	.LLST24
 2314 0dcd 3D       		.uleb128 0x3d
 2315 0dce 6F030000 		.4byte	.LASF135
 2316 0dd2 01       		.byte	0x1
 2317 0dd3 1401     		.2byte	0x114
 2318 0dd5 61040000 		.4byte	0x461
 2319 0dd9 F9020000 		.4byte	.LLST25
 2320 0ddd 3E       		.uleb128 0x3e
 2321 0dde 6D736700 		.ascii	"msg\000"
 2322 0de2 01       		.byte	0x1
 2323 0de3 1501     		.2byte	0x115
 2324 0de5 17010000 		.4byte	0x117
 2325 0de9 1A030000 		.4byte	.LLST26
 2326 0ded 3F       		.uleb128 0x3f
 2327 0dee 08000000 		.4byte	.LVL30
 2328 0df2 75110000 		.4byte	0x1175
 2329 0df6 080E0000 		.4byte	0xe08
 2330 0dfa 34       		.uleb128 0x34
 2331 0dfb 01       		.uleb128 0x1
 2332 0dfc 50       		.byte	0x50
 2333 0dfd 02       		.uleb128 0x2
 2334 0dfe 74       		.byte	0x74
 2335 0dff 00       		.sleb128 0
 2336 0e00 34       		.uleb128 0x34
 2337 0e01 01       		.uleb128 0x1
ARM GAS  /tmp/cc1d7Rw9.s 			page 42


 2338 0e02 51       		.byte	0x51
 2339 0e03 03       		.uleb128 0x3
 2340 0e04 F3       		.byte	0xf3
 2341 0e05 01       		.uleb128 0x1
 2342 0e06 51       		.byte	0x51
 2343 0e07 00       		.byte	0
 2344 0e08 3A       		.uleb128 0x3a
 2345 0e09 16000000 		.4byte	.LVL33
 2346 0e0d C7090000 		.4byte	0x9c7
 2347 0e11 34       		.uleb128 0x34
 2348 0e12 01       		.uleb128 0x1
 2349 0e13 50       		.byte	0x50
 2350 0e14 05       		.uleb128 0x5
 2351 0e15 F3       		.byte	0xf3
 2352 0e16 01       		.uleb128 0x1
 2353 0e17 50       		.byte	0x50
 2354 0e18 23       		.byte	0x23
 2355 0e19 0C       		.uleb128 0xc
 2356 0e1a 00       		.byte	0
 2357 0e1b 00       		.byte	0
 2358 0e1c 3B       		.uleb128 0x3b
 2359 0e1d 09030000 		.4byte	.LASF136
 2360 0e21 01       		.byte	0x1
 2361 0e22 2E01     		.2byte	0x12e
 2362 0e24 21030000 		.4byte	0x321
 2363 0e28 00000000 		.4byte	.LFB299
 2364 0e2c 28000000 		.4byte	.LFE299-.LFB299
 2365 0e30 01       		.uleb128 0x1
 2366 0e31 9C       		.byte	0x9c
 2367 0e32 240F0000 		.4byte	0xf24
 2368 0e36 3C       		.uleb128 0x3c
 2369 0e37 676D7000 		.ascii	"gmp\000"
 2370 0e3b 01       		.byte	0x1
 2371 0e3c 2E01     		.2byte	0x12e
 2372 0e3e 8C090000 		.4byte	0x98c
 2373 0e42 38030000 		.4byte	.LLST27
 2374 0e46 3D       		.uleb128 0x3d
 2375 0e47 6F030000 		.4byte	.LASF135
 2376 0e4b 01       		.byte	0x1
 2377 0e4c 2F01     		.2byte	0x12f
 2378 0e4e 61040000 		.4byte	0x461
 2379 0e52 64030000 		.4byte	.LLST28
 2380 0e56 3E       		.uleb128 0x3e
 2381 0e57 7000     		.ascii	"p\000"
 2382 0e59 01       		.byte	0x1
 2383 0e5a 3001     		.2byte	0x130
 2384 0e5c 21030000 		.4byte	0x321
 2385 0e60 82030000 		.4byte	.LLST29
 2386 0e64 31       		.uleb128 0x31
 2387 0e65 3C0A0000 		.4byte	0xa3c
 2388 0e69 06000000 		.4byte	.LBB89
 2389 0e6d 0A000000 		.4byte	.LBE89-.LBB89
 2390 0e71 01       		.byte	0x1
 2391 0e72 3201     		.2byte	0x132
 2392 0e74 B10E0000 		.4byte	0xeb1
 2393 0e78 31       		.uleb128 0x31
 2394 0e79 83080000 		.4byte	0x883
ARM GAS  /tmp/cc1d7Rw9.s 			page 43


 2395 0e7d 06000000 		.4byte	.LBB91
 2396 0e81 06000000 		.4byte	.LBE91-.LBB91
 2397 0e85 03       		.byte	0x3
 2398 0e86 6301     		.2byte	0x163
 2399 0e88 A70E0000 		.4byte	0xea7
 2400 0e8c 32       		.uleb128 0x32
 2401 0e8d 69080000 		.4byte	0x869
 2402 0e91 06000000 		.4byte	.LBB92
 2403 0e95 06000000 		.4byte	.LBE92-.LBB92
 2404 0e99 0D       		.byte	0xd
 2405 0e9a 6202     		.2byte	0x262
 2406 0e9c 2D       		.uleb128 0x2d
 2407 0e9d 76080000 		.4byte	0x876
 2408 0ea1 A0030000 		.4byte	.LLST30
 2409 0ea5 00       		.byte	0
 2410 0ea6 00       		.byte	0
 2411 0ea7 2E       		.uleb128 0x2e
 2412 0ea8 10000000 		.4byte	.LVL37
 2413 0eac 54110000 		.4byte	0x1154
 2414 0eb0 00       		.byte	0
 2415 0eb1 31       		.uleb128 0x31
 2416 0eb2 1C0A0000 		.4byte	0xa1c
 2417 0eb6 1A000000 		.4byte	.LBB94
 2418 0eba 0A000000 		.4byte	.LBE94-.LBB94
 2419 0ebe 01       		.byte	0x1
 2420 0ebf 3401     		.2byte	0x134
 2421 0ec1 0D0F0000 		.4byte	0xf0d
 2422 0ec5 30       		.uleb128 0x30
 2423 0ec6 1A000000 		.4byte	.LBB95
 2424 0eca 0A000000 		.4byte	.LBE95-.LBB95
 2425 0ece 24       		.uleb128 0x24
 2426 0ecf 290A0000 		.4byte	0xa29
 2427 0ed3 31       		.uleb128 0x31
 2428 0ed4 8C080000 		.4byte	0x88c
 2429 0ed8 1E000000 		.4byte	.LBB96
 2430 0edc 06000000 		.4byte	.LBE96-.LBB96
 2431 0ee0 03       		.byte	0x3
 2432 0ee1 7A01     		.2byte	0x17a
 2433 0ee3 020F0000 		.4byte	0xf02
 2434 0ee7 32       		.uleb128 0x32
 2435 0ee8 69080000 		.4byte	0x869
 2436 0eec 1E000000 		.4byte	.LBB97
 2437 0ef0 06000000 		.4byte	.LBE97-.LBB97
 2438 0ef4 0D       		.byte	0xd
 2439 0ef5 7502     		.2byte	0x275
 2440 0ef7 2D       		.uleb128 0x2d
 2441 0ef8 76080000 		.4byte	0x876
 2442 0efc B5030000 		.4byte	.LLST31
 2443 0f00 00       		.byte	0
 2444 0f01 00       		.byte	0
 2445 0f02 2E       		.uleb128 0x2e
 2446 0f03 1E000000 		.4byte	.LVL40
 2447 0f07 5F110000 		.4byte	0x115f
 2448 0f0b 00       		.byte	0
 2449 0f0c 00       		.byte	0
 2450 0f0d 33       		.uleb128 0x33
 2451 0f0e 18000000 		.4byte	.LVL38
ARM GAS  /tmp/cc1d7Rw9.s 			page 44


 2452 0f12 A30D0000 		.4byte	0xda3
 2453 0f16 34       		.uleb128 0x34
 2454 0f17 01       		.uleb128 0x1
 2455 0f18 50       		.byte	0x50
 2456 0f19 02       		.uleb128 0x2
 2457 0f1a 74       		.byte	0x74
 2458 0f1b 00       		.sleb128 0
 2459 0f1c 34       		.uleb128 0x34
 2460 0f1d 01       		.uleb128 0x1
 2461 0f1e 51       		.byte	0x51
 2462 0f1f 02       		.uleb128 0x2
 2463 0f20 75       		.byte	0x75
 2464 0f21 00       		.sleb128 0
 2465 0f22 00       		.byte	0
 2466 0f23 00       		.byte	0
 2467 0f24 16       		.uleb128 0x16
 2468 0f25 E2010000 		.4byte	.LASF137
 2469 0f29 04       		.byte	0x4
 2470 0f2a 1D01     		.2byte	0x11d
 2471 0f2c 03       		.byte	0x3
 2472 0f2d 4A0F0000 		.4byte	0xf4a
 2473 0f31 21       		.uleb128 0x21
 2474 0f32 676D7000 		.ascii	"gmp\000"
 2475 0f36 04       		.byte	0x4
 2476 0f37 1D01     		.2byte	0x11d
 2477 0f39 8C090000 		.4byte	0x98c
 2478 0f3d 17       		.uleb128 0x17
 2479 0f3e C1050000 		.4byte	.LASF119
 2480 0f42 04       		.byte	0x4
 2481 0f43 1D01     		.2byte	0x11d
 2482 0f45 21030000 		.4byte	0x321
 2483 0f49 00       		.byte	0
 2484 0f4a 40       		.uleb128 0x40
 2485 0f4b CE030000 		.4byte	.LASF138
 2486 0f4f 01       		.byte	0x1
 2487 0f50 4501     		.2byte	0x145
 2488 0f52 00000000 		.4byte	.LFB300
 2489 0f56 2C000000 		.4byte	.LFE300-.LFB300
 2490 0f5a 01       		.uleb128 0x1
 2491 0f5b 9C       		.byte	0x9c
 2492 0f5c A3100000 		.4byte	0x10a3
 2493 0f60 3C       		.uleb128 0x3c
 2494 0f61 676D7000 		.ascii	"gmp\000"
 2495 0f65 01       		.byte	0x1
 2496 0f66 4501     		.2byte	0x145
 2497 0f68 8C090000 		.4byte	0x98c
 2498 0f6c C9030000 		.4byte	.LLST32
 2499 0f70 3D       		.uleb128 0x3d
 2500 0f71 C1050000 		.4byte	.LASF119
 2501 0f75 01       		.byte	0x1
 2502 0f76 4501     		.2byte	0x145
 2503 0f78 21030000 		.4byte	0x321
 2504 0f7c E7030000 		.4byte	.LLST33
 2505 0f80 31       		.uleb128 0x31
 2506 0f81 3C0A0000 		.4byte	0xa3c
 2507 0f85 06000000 		.4byte	.LBB113
 2508 0f89 0A000000 		.4byte	.LBE113-.LBB113
ARM GAS  /tmp/cc1d7Rw9.s 			page 45


 2509 0f8d 01       		.byte	0x1
 2510 0f8e 4701     		.2byte	0x147
 2511 0f90 CD0F0000 		.4byte	0xfcd
 2512 0f94 31       		.uleb128 0x31
 2513 0f95 83080000 		.4byte	0x883
 2514 0f99 06000000 		.4byte	.LBB115
 2515 0f9d 06000000 		.4byte	.LBE115-.LBB115
 2516 0fa1 03       		.byte	0x3
 2517 0fa2 6301     		.2byte	0x163
 2518 0fa4 C30F0000 		.4byte	0xfc3
 2519 0fa8 32       		.uleb128 0x32
 2520 0fa9 69080000 		.4byte	0x869
 2521 0fad 06000000 		.4byte	.LBB116
 2522 0fb1 06000000 		.4byte	.LBE116-.LBB116
 2523 0fb5 0D       		.byte	0xd
 2524 0fb6 6202     		.2byte	0x262
 2525 0fb8 2D       		.uleb128 0x2d
 2526 0fb9 76080000 		.4byte	0x876
 2527 0fbd 05040000 		.4byte	.LLST34
 2528 0fc1 00       		.byte	0
 2529 0fc2 00       		.byte	0
 2530 0fc3 2E       		.uleb128 0x2e
 2531 0fc4 10000000 		.4byte	.LVL44
 2532 0fc8 54110000 		.4byte	0x1154
 2533 0fcc 00       		.byte	0
 2534 0fcd 31       		.uleb128 0x31
 2535 0fce 240F0000 		.4byte	0xf24
 2536 0fd2 10000000 		.4byte	.LBB118
 2537 0fd6 0C000000 		.4byte	.LBE118-.LBB118
 2538 0fda 01       		.byte	0x1
 2539 0fdb 4801     		.2byte	0x148
 2540 0fdd 3D100000 		.4byte	0x103d
 2541 0fe1 2D       		.uleb128 0x2d
 2542 0fe2 3D0F0000 		.4byte	0xf3d
 2543 0fe6 1A040000 		.4byte	.LLST35
 2544 0fea 2D       		.uleb128 0x2d
 2545 0feb 310F0000 		.4byte	0xf31
 2546 0fef 2D040000 		.4byte	.LLST36
 2547 0ff3 2B       		.uleb128 0x2b
 2548 0ff4 95080000 		.4byte	0x895
 2549 0ff8 10000000 		.4byte	.LBB120
 2550 0ffc 48000000 		.4byte	.Ldebug_ranges0+0x48
 2551 1000 04       		.byte	0x4
 2552 1001 1F01     		.2byte	0x11f
 2553 1003 2C100000 		.4byte	0x102c
 2554 1007 2D       		.uleb128 0x2d
 2555 1008 AB080000 		.4byte	0x8ab
 2556 100c 40040000 		.4byte	.LLST37
 2557 1010 2D       		.uleb128 0x2d
 2558 1011 A1080000 		.4byte	0x8a1
 2559 1015 53040000 		.4byte	.LLST38
 2560 1019 39       		.uleb128 0x39
 2561 101a 48000000 		.4byte	.Ldebug_ranges0+0x48
 2562 101e 35       		.uleb128 0x35
 2563 101f B6080000 		.4byte	0x8b6
 2564 1023 01       		.uleb128 0x1
 2565 1024 55       		.byte	0x55
ARM GAS  /tmp/cc1d7Rw9.s 			page 46


 2566 1025 24       		.uleb128 0x24
 2567 1026 C1080000 		.4byte	0x8c1
 2568 102a 00       		.byte	0
 2569 102b 00       		.byte	0
 2570 102c 33       		.uleb128 0x33
 2571 102d 1C000000 		.4byte	.LVL46
 2572 1031 80110000 		.4byte	0x1180
 2573 1035 34       		.uleb128 0x34
 2574 1036 01       		.uleb128 0x1
 2575 1037 50       		.byte	0x50
 2576 1038 02       		.uleb128 0x2
 2577 1039 74       		.byte	0x74
 2578 103a 00       		.sleb128 0
 2579 103b 00       		.byte	0
 2580 103c 00       		.byte	0
 2581 103d 31       		.uleb128 0x31
 2582 103e 1C0A0000 		.4byte	0xa1c
 2583 1042 20000000 		.4byte	.LBB124
 2584 1046 0C000000 		.4byte	.LBE124-.LBB124
 2585 104a 01       		.byte	0x1
 2586 104b 4A01     		.2byte	0x14a
 2587 104d 99100000 		.4byte	0x1099
 2588 1051 30       		.uleb128 0x30
 2589 1052 20000000 		.4byte	.LBB125
 2590 1056 0C000000 		.4byte	.LBE125-.LBB125
 2591 105a 24       		.uleb128 0x24
 2592 105b 290A0000 		.4byte	0xa29
 2593 105f 31       		.uleb128 0x31
 2594 1060 8C080000 		.4byte	0x88c
 2595 1064 24000000 		.4byte	.LBB126
 2596 1068 08000000 		.4byte	.LBE126-.LBB126
 2597 106c 03       		.byte	0x3
 2598 106d 7A01     		.2byte	0x17a
 2599 106f 8E100000 		.4byte	0x108e
 2600 1073 32       		.uleb128 0x32
 2601 1074 69080000 		.4byte	0x869
 2602 1078 24000000 		.4byte	.LBB127
 2603 107c 08000000 		.4byte	.LBE127-.LBB127
 2604 1080 0D       		.byte	0xd
 2605 1081 7502     		.2byte	0x275
 2606 1083 2D       		.uleb128 0x2d
 2607 1084 76080000 		.4byte	0x876
 2608 1088 68040000 		.4byte	.LLST39
 2609 108c 00       		.byte	0
 2610 108d 00       		.byte	0
 2611 108e 2E       		.uleb128 0x2e
 2612 108f 24000000 		.4byte	.LVL48
 2613 1093 5F110000 		.4byte	0x115f
 2614 1097 00       		.byte	0
 2615 1098 00       		.byte	0
 2616 1099 2E       		.uleb128 0x2e
 2617 109a 20000000 		.4byte	.LVL47
 2618 109e 8B110000 		.4byte	0x118b
 2619 10a2 00       		.byte	0
 2620 10a3 36       		.uleb128 0x36
 2621 10a4 C6060000 		.4byte	.LASF139
 2622 10a8 01       		.byte	0x1
ARM GAS  /tmp/cc1d7Rw9.s 			page 47


 2623 10a9 F7       		.byte	0xf7
 2624 10aa 00000000 		.4byte	.LFB297
 2625 10ae 1C000000 		.4byte	.LFE297-.LFB297
 2626 10b2 01       		.uleb128 0x1
 2627 10b3 9C       		.byte	0x9c
 2628 10b4 23110000 		.4byte	0x1123
 2629 10b8 26       		.uleb128 0x26
 2630 10b9 676D7000 		.ascii	"gmp\000"
 2631 10bd 01       		.byte	0x1
 2632 10be F7       		.byte	0xf7
 2633 10bf 8C090000 		.4byte	0x98c
 2634 10c3 7C040000 		.4byte	.LLST40
 2635 10c7 26       		.uleb128 0x26
 2636 10c8 7000     		.ascii	"p\000"
 2637 10ca 01       		.byte	0x1
 2638 10cb F7       		.byte	0xf7
 2639 10cc 21030000 		.4byte	0x321
 2640 10d0 9A040000 		.4byte	.LLST41
 2641 10d4 26       		.uleb128 0x26
 2642 10d5 6E00     		.ascii	"n\000"
 2643 10d7 01       		.byte	0x1
 2644 10d8 F7       		.byte	0xf7
 2645 10d9 2C000000 		.4byte	0x2c
 2646 10dd B8040000 		.4byte	.LLST42
 2647 10e1 28       		.uleb128 0x28
 2648 10e2 AE050000 		.4byte	.LASF120
 2649 10e6 33110000 		.4byte	0x1133
 2650 10ea 38       		.uleb128 0x38
 2651 10eb 66090000 		.4byte	0x966
 2652 10ef 0A000000 		.4byte	.LBB129
 2653 10f3 08000000 		.4byte	.LBE129-.LBB129
 2654 10f7 01       		.byte	0x1
 2655 10f8 FC       		.byte	0xfc
 2656 10f9 2D       		.uleb128 0x2d
 2657 10fa 7F090000 		.4byte	0x97f
 2658 10fe EE040000 		.4byte	.LLST43
 2659 1102 2D       		.uleb128 0x2d
 2660 1103 73090000 		.4byte	0x973
 2661 1107 01050000 		.4byte	.LLST44
 2662 110b 33       		.uleb128 0x33
 2663 110c 12000000 		.4byte	.LVL53
 2664 1110 4A0F0000 		.4byte	0xf4a
 2665 1114 34       		.uleb128 0x34
 2666 1115 01       		.uleb128 0x1
 2667 1116 50       		.byte	0x50
 2668 1117 02       		.uleb128 0x2
 2669 1118 76       		.byte	0x76
 2670 1119 00       		.sleb128 0
 2671 111a 34       		.uleb128 0x34
 2672 111b 01       		.uleb128 0x1
 2673 111c 51       		.byte	0x51
 2674 111d 02       		.uleb128 0x2
 2675 111e 75       		.byte	0x75
 2676 111f 00       		.sleb128 0
 2677 1120 00       		.byte	0
 2678 1121 00       		.byte	0
 2679 1122 00       		.byte	0
ARM GAS  /tmp/cc1d7Rw9.s 			page 48


 2680 1123 1E       		.uleb128 0x1e
 2681 1124 7C070000 		.4byte	0x77c
 2682 1128 33110000 		.4byte	0x1133
 2683 112c 1F       		.uleb128 0x1f
 2684 112d 6C040000 		.4byte	0x46c
 2685 1131 16       		.byte	0x16
 2686 1132 00       		.byte	0
 2687 1133 13       		.uleb128 0x13
 2688 1134 23110000 		.4byte	0x1123
 2689 1138 41       		.uleb128 0x41
 2690 1139 27020000 		.4byte	.LASF140
 2691 113d 13       		.byte	0x13
 2692 113e 0408     		.2byte	0x804
 2693 1140 44110000 		.4byte	0x1144
 2694 1144 14       		.uleb128 0x14
 2695 1145 B4000000 		.4byte	0xb4
 2696 1149 42       		.uleb128 0x42
 2697 114a 636800   		.ascii	"ch\000"
 2698 114d 0A       		.byte	0xa
 2699 114e C701     		.2byte	0x1c7
 2700 1150 F0030000 		.4byte	0x3f0
 2701 1154 43       		.uleb128 0x43
 2702 1155 6D070000 		.4byte	.LASF141
 2703 1159 6D070000 		.4byte	.LASF141
 2704 115d 0F       		.byte	0xf
 2705 115e 4F       		.byte	0x4f
 2706 115f 43       		.uleb128 0x43
 2707 1160 57040000 		.4byte	.LASF142
 2708 1164 57040000 		.4byte	.LASF142
 2709 1168 0F       		.byte	0xf
 2710 1169 50       		.byte	0x50
 2711 116a 43       		.uleb128 0x43
 2712 116b 3F030000 		.4byte	.LASF143
 2713 116f 3F030000 		.4byte	.LASF143
 2714 1173 10       		.byte	0x10
 2715 1174 5B       		.byte	0x5b
 2716 1175 43       		.uleb128 0x43
 2717 1176 74060000 		.4byte	.LASF144
 2718 117a 74060000 		.4byte	.LASF144
 2719 117e 10       		.byte	0x10
 2720 117f 61       		.byte	0x61
 2721 1180 43       		.uleb128 0x43
 2722 1181 23000000 		.4byte	.LASF145
 2723 1185 23000000 		.4byte	.LASF145
 2724 1189 10       		.byte	0x10
 2725 118a 63       		.byte	0x63
 2726 118b 44       		.uleb128 0x44
 2727 118c C0020000 		.4byte	.LASF146
 2728 1190 C0020000 		.4byte	.LASF146
 2729 1194 0A       		.byte	0xa
 2730 1195 D601     		.2byte	0x1d6
 2731 1197 00       		.byte	0
 2732              		.section	.debug_abbrev,"",%progbits
 2733              	.Ldebug_abbrev0:
 2734 0000 01       		.uleb128 0x1
 2735 0001 11       		.uleb128 0x11
 2736 0002 01       		.byte	0x1
ARM GAS  /tmp/cc1d7Rw9.s 			page 49


 2737 0003 25       		.uleb128 0x25
 2738 0004 0E       		.uleb128 0xe
 2739 0005 13       		.uleb128 0x13
 2740 0006 0B       		.uleb128 0xb
 2741 0007 03       		.uleb128 0x3
 2742 0008 0E       		.uleb128 0xe
 2743 0009 1B       		.uleb128 0x1b
 2744 000a 0E       		.uleb128 0xe
 2745 000b 55       		.uleb128 0x55
 2746 000c 17       		.uleb128 0x17
 2747 000d 11       		.uleb128 0x11
 2748 000e 01       		.uleb128 0x1
 2749 000f 10       		.uleb128 0x10
 2750 0010 17       		.uleb128 0x17
 2751 0011 00       		.byte	0
 2752 0012 00       		.byte	0
 2753 0013 02       		.uleb128 0x2
 2754 0014 24       		.uleb128 0x24
 2755 0015 00       		.byte	0
 2756 0016 0B       		.uleb128 0xb
 2757 0017 0B       		.uleb128 0xb
 2758 0018 3E       		.uleb128 0x3e
 2759 0019 0B       		.uleb128 0xb
 2760 001a 03       		.uleb128 0x3
 2761 001b 08       		.uleb128 0x8
 2762 001c 00       		.byte	0
 2763 001d 00       		.byte	0
 2764 001e 03       		.uleb128 0x3
 2765 001f 16       		.uleb128 0x16
 2766 0020 00       		.byte	0
 2767 0021 03       		.uleb128 0x3
 2768 0022 0E       		.uleb128 0xe
 2769 0023 3A       		.uleb128 0x3a
 2770 0024 0B       		.uleb128 0xb
 2771 0025 3B       		.uleb128 0x3b
 2772 0026 0B       		.uleb128 0xb
 2773 0027 49       		.uleb128 0x49
 2774 0028 13       		.uleb128 0x13
 2775 0029 00       		.byte	0
 2776 002a 00       		.byte	0
 2777 002b 04       		.uleb128 0x4
 2778 002c 24       		.uleb128 0x24
 2779 002d 00       		.byte	0
 2780 002e 0B       		.uleb128 0xb
 2781 002f 0B       		.uleb128 0xb
 2782 0030 3E       		.uleb128 0x3e
 2783 0031 0B       		.uleb128 0xb
 2784 0032 03       		.uleb128 0x3
 2785 0033 0E       		.uleb128 0xe
 2786 0034 00       		.byte	0
 2787 0035 00       		.byte	0
 2788 0036 05       		.uleb128 0x5
 2789 0037 13       		.uleb128 0x13
 2790 0038 01       		.byte	0x1
 2791 0039 03       		.uleb128 0x3
 2792 003a 0E       		.uleb128 0xe
 2793 003b 0B       		.uleb128 0xb
ARM GAS  /tmp/cc1d7Rw9.s 			page 50


 2794 003c 0B       		.uleb128 0xb
 2795 003d 3A       		.uleb128 0x3a
 2796 003e 0B       		.uleb128 0xb
 2797 003f 3B       		.uleb128 0x3b
 2798 0040 0B       		.uleb128 0xb
 2799 0041 01       		.uleb128 0x1
 2800 0042 13       		.uleb128 0x13
 2801 0043 00       		.byte	0
 2802 0044 00       		.byte	0
 2803 0045 06       		.uleb128 0x6
 2804 0046 0D       		.uleb128 0xd
 2805 0047 00       		.byte	0
 2806 0048 03       		.uleb128 0x3
 2807 0049 0E       		.uleb128 0xe
 2808 004a 3A       		.uleb128 0x3a
 2809 004b 0B       		.uleb128 0xb
 2810 004c 3B       		.uleb128 0x3b
 2811 004d 0B       		.uleb128 0xb
 2812 004e 49       		.uleb128 0x49
 2813 004f 13       		.uleb128 0x13
 2814 0050 38       		.uleb128 0x38
 2815 0051 0B       		.uleb128 0xb
 2816 0052 00       		.byte	0
 2817 0053 00       		.byte	0
 2818 0054 07       		.uleb128 0x7
 2819 0055 0D       		.uleb128 0xd
 2820 0056 00       		.byte	0
 2821 0057 03       		.uleb128 0x3
 2822 0058 08       		.uleb128 0x8
 2823 0059 3A       		.uleb128 0x3a
 2824 005a 0B       		.uleb128 0xb
 2825 005b 3B       		.uleb128 0x3b
 2826 005c 0B       		.uleb128 0xb
 2827 005d 49       		.uleb128 0x49
 2828 005e 13       		.uleb128 0x13
 2829 005f 38       		.uleb128 0x38
 2830 0060 0B       		.uleb128 0xb
 2831 0061 00       		.byte	0
 2832 0062 00       		.byte	0
 2833 0063 08       		.uleb128 0x8
 2834 0064 0D       		.uleb128 0xd
 2835 0065 00       		.byte	0
 2836 0066 03       		.uleb128 0x3
 2837 0067 08       		.uleb128 0x8
 2838 0068 3A       		.uleb128 0x3a
 2839 0069 0B       		.uleb128 0xb
 2840 006a 3B       		.uleb128 0x3b
 2841 006b 05       		.uleb128 0x5
 2842 006c 49       		.uleb128 0x49
 2843 006d 13       		.uleb128 0x13
 2844 006e 38       		.uleb128 0x38
 2845 006f 0B       		.uleb128 0xb
 2846 0070 00       		.byte	0
 2847 0071 00       		.byte	0
 2848 0072 09       		.uleb128 0x9
 2849 0073 0D       		.uleb128 0xd
 2850 0074 00       		.byte	0
ARM GAS  /tmp/cc1d7Rw9.s 			page 51


 2851 0075 03       		.uleb128 0x3
 2852 0076 0E       		.uleb128 0xe
 2853 0077 3A       		.uleb128 0x3a
 2854 0078 0B       		.uleb128 0xb
 2855 0079 3B       		.uleb128 0x3b
 2856 007a 05       		.uleb128 0x5
 2857 007b 49       		.uleb128 0x49
 2858 007c 13       		.uleb128 0x13
 2859 007d 38       		.uleb128 0x38
 2860 007e 0B       		.uleb128 0xb
 2861 007f 00       		.byte	0
 2862 0080 00       		.byte	0
 2863 0081 0A       		.uleb128 0xa
 2864 0082 0F       		.uleb128 0xf
 2865 0083 00       		.byte	0
 2866 0084 0B       		.uleb128 0xb
 2867 0085 0B       		.uleb128 0xb
 2868 0086 49       		.uleb128 0x49
 2869 0087 13       		.uleb128 0x13
 2870 0088 00       		.byte	0
 2871 0089 00       		.byte	0
 2872 008a 0B       		.uleb128 0xb
 2873 008b 13       		.uleb128 0x13
 2874 008c 01       		.byte	0x1
 2875 008d 03       		.uleb128 0x3
 2876 008e 0E       		.uleb128 0xe
 2877 008f 0B       		.uleb128 0xb
 2878 0090 0B       		.uleb128 0xb
 2879 0091 3A       		.uleb128 0x3a
 2880 0092 0B       		.uleb128 0xb
 2881 0093 3B       		.uleb128 0x3b
 2882 0094 05       		.uleb128 0x5
 2883 0095 01       		.uleb128 0x1
 2884 0096 13       		.uleb128 0x13
 2885 0097 00       		.byte	0
 2886 0098 00       		.byte	0
 2887 0099 0C       		.uleb128 0xc
 2888 009a 15       		.uleb128 0x15
 2889 009b 01       		.byte	0x1
 2890 009c 27       		.uleb128 0x27
 2891 009d 19       		.uleb128 0x19
 2892 009e 01       		.uleb128 0x1
 2893 009f 13       		.uleb128 0x13
 2894 00a0 00       		.byte	0
 2895 00a1 00       		.byte	0
 2896 00a2 0D       		.uleb128 0xd
 2897 00a3 05       		.uleb128 0x5
 2898 00a4 00       		.byte	0
 2899 00a5 49       		.uleb128 0x49
 2900 00a6 13       		.uleb128 0x13
 2901 00a7 00       		.byte	0
 2902 00a8 00       		.byte	0
 2903 00a9 0E       		.uleb128 0xe
 2904 00aa 0F       		.uleb128 0xf
 2905 00ab 00       		.byte	0
 2906 00ac 0B       		.uleb128 0xb
 2907 00ad 0B       		.uleb128 0xb
ARM GAS  /tmp/cc1d7Rw9.s 			page 52


 2908 00ae 00       		.byte	0
 2909 00af 00       		.byte	0
 2910 00b0 0F       		.uleb128 0xf
 2911 00b1 13       		.uleb128 0x13
 2912 00b2 01       		.byte	0x1
 2913 00b3 0B       		.uleb128 0xb
 2914 00b4 0B       		.uleb128 0xb
 2915 00b5 3A       		.uleb128 0x3a
 2916 00b6 0B       		.uleb128 0xb
 2917 00b7 3B       		.uleb128 0x3b
 2918 00b8 0B       		.uleb128 0xb
 2919 00b9 01       		.uleb128 0x1
 2920 00ba 13       		.uleb128 0x13
 2921 00bb 00       		.byte	0
 2922 00bc 00       		.byte	0
 2923 00bd 10       		.uleb128 0x10
 2924 00be 17       		.uleb128 0x17
 2925 00bf 01       		.byte	0x1
 2926 00c0 0B       		.uleb128 0xb
 2927 00c1 0B       		.uleb128 0xb
 2928 00c2 3A       		.uleb128 0x3a
 2929 00c3 0B       		.uleb128 0xb
 2930 00c4 3B       		.uleb128 0x3b
 2931 00c5 0B       		.uleb128 0xb
 2932 00c6 01       		.uleb128 0x1
 2933 00c7 13       		.uleb128 0x13
 2934 00c8 00       		.byte	0
 2935 00c9 00       		.byte	0
 2936 00ca 11       		.uleb128 0x11
 2937 00cb 0D       		.uleb128 0xd
 2938 00cc 00       		.byte	0
 2939 00cd 03       		.uleb128 0x3
 2940 00ce 0E       		.uleb128 0xe
 2941 00cf 3A       		.uleb128 0x3a
 2942 00d0 0B       		.uleb128 0xb
 2943 00d1 3B       		.uleb128 0x3b
 2944 00d2 0B       		.uleb128 0xb
 2945 00d3 49       		.uleb128 0x49
 2946 00d4 13       		.uleb128 0x13
 2947 00d5 00       		.byte	0
 2948 00d6 00       		.byte	0
 2949 00d7 12       		.uleb128 0x12
 2950 00d8 0D       		.uleb128 0xd
 2951 00d9 00       		.byte	0
 2952 00da 03       		.uleb128 0x3
 2953 00db 0E       		.uleb128 0xe
 2954 00dc 3A       		.uleb128 0x3a
 2955 00dd 0B       		.uleb128 0xb
 2956 00de 3B       		.uleb128 0x3b
 2957 00df 05       		.uleb128 0x5
 2958 00e0 49       		.uleb128 0x49
 2959 00e1 13       		.uleb128 0x13
 2960 00e2 00       		.byte	0
 2961 00e3 00       		.byte	0
 2962 00e4 13       		.uleb128 0x13
 2963 00e5 26       		.uleb128 0x26
 2964 00e6 00       		.byte	0
ARM GAS  /tmp/cc1d7Rw9.s 			page 53


 2965 00e7 49       		.uleb128 0x49
 2966 00e8 13       		.uleb128 0x13
 2967 00e9 00       		.byte	0
 2968 00ea 00       		.byte	0
 2969 00eb 14       		.uleb128 0x14
 2970 00ec 35       		.uleb128 0x35
 2971 00ed 00       		.byte	0
 2972 00ee 49       		.uleb128 0x49
 2973 00ef 13       		.uleb128 0x13
 2974 00f0 00       		.byte	0
 2975 00f1 00       		.byte	0
 2976 00f2 15       		.uleb128 0x15
 2977 00f3 15       		.uleb128 0x15
 2978 00f4 01       		.byte	0x1
 2979 00f5 27       		.uleb128 0x27
 2980 00f6 19       		.uleb128 0x19
 2981 00f7 49       		.uleb128 0x49
 2982 00f8 13       		.uleb128 0x13
 2983 00f9 01       		.uleb128 0x1
 2984 00fa 13       		.uleb128 0x13
 2985 00fb 00       		.byte	0
 2986 00fc 00       		.byte	0
 2987 00fd 16       		.uleb128 0x16
 2988 00fe 2E       		.uleb128 0x2e
 2989 00ff 01       		.byte	0x1
 2990 0100 03       		.uleb128 0x3
 2991 0101 0E       		.uleb128 0xe
 2992 0102 3A       		.uleb128 0x3a
 2993 0103 0B       		.uleb128 0xb
 2994 0104 3B       		.uleb128 0x3b
 2995 0105 05       		.uleb128 0x5
 2996 0106 27       		.uleb128 0x27
 2997 0107 19       		.uleb128 0x19
 2998 0108 20       		.uleb128 0x20
 2999 0109 0B       		.uleb128 0xb
 3000 010a 01       		.uleb128 0x1
 3001 010b 13       		.uleb128 0x13
 3002 010c 00       		.byte	0
 3003 010d 00       		.byte	0
 3004 010e 17       		.uleb128 0x17
 3005 010f 05       		.uleb128 0x5
 3006 0110 00       		.byte	0
 3007 0111 03       		.uleb128 0x3
 3008 0112 0E       		.uleb128 0xe
 3009 0113 3A       		.uleb128 0x3a
 3010 0114 0B       		.uleb128 0xb
 3011 0115 3B       		.uleb128 0x3b
 3012 0116 05       		.uleb128 0x5
 3013 0117 49       		.uleb128 0x49
 3014 0118 13       		.uleb128 0x13
 3015 0119 00       		.byte	0
 3016 011a 00       		.byte	0
 3017 011b 18       		.uleb128 0x18
 3018 011c 2E       		.uleb128 0x2e
 3019 011d 00       		.byte	0
 3020 011e 03       		.uleb128 0x3
 3021 011f 0E       		.uleb128 0xe
ARM GAS  /tmp/cc1d7Rw9.s 			page 54


 3022 0120 3A       		.uleb128 0x3a
 3023 0121 0B       		.uleb128 0xb
 3024 0122 3B       		.uleb128 0x3b
 3025 0123 05       		.uleb128 0x5
 3026 0124 27       		.uleb128 0x27
 3027 0125 19       		.uleb128 0x19
 3028 0126 20       		.uleb128 0x20
 3029 0127 0B       		.uleb128 0xb
 3030 0128 00       		.byte	0
 3031 0129 00       		.byte	0
 3032 012a 19       		.uleb128 0x19
 3033 012b 2E       		.uleb128 0x2e
 3034 012c 01       		.byte	0x1
 3035 012d 3F       		.uleb128 0x3f
 3036 012e 19       		.uleb128 0x19
 3037 012f 03       		.uleb128 0x3
 3038 0130 0E       		.uleb128 0xe
 3039 0131 3A       		.uleb128 0x3a
 3040 0132 0B       		.uleb128 0xb
 3041 0133 3B       		.uleb128 0x3b
 3042 0134 0B       		.uleb128 0xb
 3043 0135 27       		.uleb128 0x27
 3044 0136 19       		.uleb128 0x19
 3045 0137 20       		.uleb128 0x20
 3046 0138 0B       		.uleb128 0xb
 3047 0139 01       		.uleb128 0x1
 3048 013a 13       		.uleb128 0x13
 3049 013b 00       		.byte	0
 3050 013c 00       		.byte	0
 3051 013d 1A       		.uleb128 0x1a
 3052 013e 05       		.uleb128 0x5
 3053 013f 00       		.byte	0
 3054 0140 03       		.uleb128 0x3
 3055 0141 08       		.uleb128 0x8
 3056 0142 3A       		.uleb128 0x3a
 3057 0143 0B       		.uleb128 0xb
 3058 0144 3B       		.uleb128 0x3b
 3059 0145 0B       		.uleb128 0xb
 3060 0146 49       		.uleb128 0x49
 3061 0147 13       		.uleb128 0x13
 3062 0148 00       		.byte	0
 3063 0149 00       		.byte	0
 3064 014a 1B       		.uleb128 0x1b
 3065 014b 05       		.uleb128 0x5
 3066 014c 00       		.byte	0
 3067 014d 03       		.uleb128 0x3
 3068 014e 0E       		.uleb128 0xe
 3069 014f 3A       		.uleb128 0x3a
 3070 0150 0B       		.uleb128 0xb
 3071 0151 3B       		.uleb128 0x3b
 3072 0152 0B       		.uleb128 0xb
 3073 0153 49       		.uleb128 0x49
 3074 0154 13       		.uleb128 0x13
 3075 0155 00       		.byte	0
 3076 0156 00       		.byte	0
 3077 0157 1C       		.uleb128 0x1c
 3078 0158 34       		.uleb128 0x34
ARM GAS  /tmp/cc1d7Rw9.s 			page 55


 3079 0159 00       		.byte	0
 3080 015a 03       		.uleb128 0x3
 3081 015b 08       		.uleb128 0x8
 3082 015c 3A       		.uleb128 0x3a
 3083 015d 0B       		.uleb128 0xb
 3084 015e 3B       		.uleb128 0x3b
 3085 015f 0B       		.uleb128 0xb
 3086 0160 49       		.uleb128 0x49
 3087 0161 13       		.uleb128 0x13
 3088 0162 00       		.byte	0
 3089 0163 00       		.byte	0
 3090 0164 1D       		.uleb128 0x1d
 3091 0165 34       		.uleb128 0x34
 3092 0166 00       		.byte	0
 3093 0167 03       		.uleb128 0x3
 3094 0168 0E       		.uleb128 0xe
 3095 0169 49       		.uleb128 0x49
 3096 016a 13       		.uleb128 0x13
 3097 016b 34       		.uleb128 0x34
 3098 016c 19       		.uleb128 0x19
 3099 016d 1C       		.uleb128 0x1c
 3100 016e 0E       		.uleb128 0xe
 3101 016f 00       		.byte	0
 3102 0170 00       		.byte	0
 3103 0171 1E       		.uleb128 0x1e
 3104 0172 01       		.uleb128 0x1
 3105 0173 01       		.byte	0x1
 3106 0174 49       		.uleb128 0x49
 3107 0175 13       		.uleb128 0x13
 3108 0176 01       		.uleb128 0x1
 3109 0177 13       		.uleb128 0x13
 3110 0178 00       		.byte	0
 3111 0179 00       		.byte	0
 3112 017a 1F       		.uleb128 0x1f
 3113 017b 21       		.uleb128 0x21
 3114 017c 00       		.byte	0
 3115 017d 49       		.uleb128 0x49
 3116 017e 13       		.uleb128 0x13
 3117 017f 2F       		.uleb128 0x2f
 3118 0180 0B       		.uleb128 0xb
 3119 0181 00       		.byte	0
 3120 0182 00       		.byte	0
 3121 0183 20       		.uleb128 0x20
 3122 0184 2E       		.uleb128 0x2e
 3123 0185 01       		.byte	0x1
 3124 0186 03       		.uleb128 0x3
 3125 0187 0E       		.uleb128 0xe
 3126 0188 3A       		.uleb128 0x3a
 3127 0189 0B       		.uleb128 0xb
 3128 018a 3B       		.uleb128 0x3b
 3129 018b 0B       		.uleb128 0xb
 3130 018c 27       		.uleb128 0x27
 3131 018d 19       		.uleb128 0x19
 3132 018e 20       		.uleb128 0x20
 3133 018f 0B       		.uleb128 0xb
 3134 0190 01       		.uleb128 0x1
 3135 0191 13       		.uleb128 0x13
ARM GAS  /tmp/cc1d7Rw9.s 			page 56


 3136 0192 00       		.byte	0
 3137 0193 00       		.byte	0
 3138 0194 21       		.uleb128 0x21
 3139 0195 05       		.uleb128 0x5
 3140 0196 00       		.byte	0
 3141 0197 03       		.uleb128 0x3
 3142 0198 08       		.uleb128 0x8
 3143 0199 3A       		.uleb128 0x3a
 3144 019a 0B       		.uleb128 0xb
 3145 019b 3B       		.uleb128 0x3b
 3146 019c 05       		.uleb128 0x5
 3147 019d 49       		.uleb128 0x49
 3148 019e 13       		.uleb128 0x13
 3149 019f 00       		.byte	0
 3150 01a0 00       		.byte	0
 3151 01a1 22       		.uleb128 0x22
 3152 01a2 2E       		.uleb128 0x2e
 3153 01a3 01       		.byte	0x1
 3154 01a4 31       		.uleb128 0x31
 3155 01a5 13       		.uleb128 0x13
 3156 01a6 11       		.uleb128 0x11
 3157 01a7 01       		.uleb128 0x1
 3158 01a8 12       		.uleb128 0x12
 3159 01a9 06       		.uleb128 0x6
 3160 01aa 40       		.uleb128 0x40
 3161 01ab 18       		.uleb128 0x18
 3162 01ac 9742     		.uleb128 0x2117
 3163 01ae 19       		.uleb128 0x19
 3164 01af 01       		.uleb128 0x1
 3165 01b0 13       		.uleb128 0x13
 3166 01b1 00       		.byte	0
 3167 01b2 00       		.byte	0
 3168 01b3 23       		.uleb128 0x23
 3169 01b4 05       		.uleb128 0x5
 3170 01b5 00       		.byte	0
 3171 01b6 31       		.uleb128 0x31
 3172 01b7 13       		.uleb128 0x13
 3173 01b8 02       		.uleb128 0x2
 3174 01b9 18       		.uleb128 0x18
 3175 01ba 00       		.byte	0
 3176 01bb 00       		.byte	0
 3177 01bc 24       		.uleb128 0x24
 3178 01bd 34       		.uleb128 0x34
 3179 01be 00       		.byte	0
 3180 01bf 31       		.uleb128 0x31
 3181 01c0 13       		.uleb128 0x13
 3182 01c1 00       		.byte	0
 3183 01c2 00       		.byte	0
 3184 01c3 25       		.uleb128 0x25
 3185 01c4 2E       		.uleb128 0x2e
 3186 01c5 01       		.byte	0x1
 3187 01c6 3F       		.uleb128 0x3f
 3188 01c7 19       		.uleb128 0x19
 3189 01c8 03       		.uleb128 0x3
 3190 01c9 0E       		.uleb128 0xe
 3191 01ca 3A       		.uleb128 0x3a
 3192 01cb 0B       		.uleb128 0xb
ARM GAS  /tmp/cc1d7Rw9.s 			page 57


 3193 01cc 3B       		.uleb128 0x3b
 3194 01cd 0B       		.uleb128 0xb
 3195 01ce 27       		.uleb128 0x27
 3196 01cf 19       		.uleb128 0x19
 3197 01d0 49       		.uleb128 0x49
 3198 01d1 13       		.uleb128 0x13
 3199 01d2 11       		.uleb128 0x11
 3200 01d3 01       		.uleb128 0x1
 3201 01d4 12       		.uleb128 0x12
 3202 01d5 06       		.uleb128 0x6
 3203 01d6 40       		.uleb128 0x40
 3204 01d7 18       		.uleb128 0x18
 3205 01d8 01       		.uleb128 0x1
 3206 01d9 13       		.uleb128 0x13
 3207 01da 00       		.byte	0
 3208 01db 00       		.byte	0
 3209 01dc 26       		.uleb128 0x26
 3210 01dd 05       		.uleb128 0x5
 3211 01de 00       		.byte	0
 3212 01df 03       		.uleb128 0x3
 3213 01e0 08       		.uleb128 0x8
 3214 01e1 3A       		.uleb128 0x3a
 3215 01e2 0B       		.uleb128 0xb
 3216 01e3 3B       		.uleb128 0x3b
 3217 01e4 0B       		.uleb128 0xb
 3218 01e5 49       		.uleb128 0x49
 3219 01e6 13       		.uleb128 0x13
 3220 01e7 02       		.uleb128 0x2
 3221 01e8 17       		.uleb128 0x17
 3222 01e9 00       		.byte	0
 3223 01ea 00       		.byte	0
 3224 01eb 27       		.uleb128 0x27
 3225 01ec 34       		.uleb128 0x34
 3226 01ed 00       		.byte	0
 3227 01ee 03       		.uleb128 0x3
 3228 01ef 0E       		.uleb128 0xe
 3229 01f0 3A       		.uleb128 0x3a
 3230 01f1 0B       		.uleb128 0xb
 3231 01f2 3B       		.uleb128 0x3b
 3232 01f3 0B       		.uleb128 0xb
 3233 01f4 49       		.uleb128 0x49
 3234 01f5 13       		.uleb128 0x13
 3235 01f6 02       		.uleb128 0x2
 3236 01f7 17       		.uleb128 0x17
 3237 01f8 00       		.byte	0
 3238 01f9 00       		.byte	0
 3239 01fa 28       		.uleb128 0x28
 3240 01fb 34       		.uleb128 0x34
 3241 01fc 00       		.byte	0
 3242 01fd 03       		.uleb128 0x3
 3243 01fe 0E       		.uleb128 0xe
 3244 01ff 49       		.uleb128 0x49
 3245 0200 13       		.uleb128 0x13
 3246 0201 34       		.uleb128 0x34
 3247 0202 19       		.uleb128 0x19
 3248 0203 00       		.byte	0
 3249 0204 00       		.byte	0
ARM GAS  /tmp/cc1d7Rw9.s 			page 58


 3250 0205 29       		.uleb128 0x29
 3251 0206 2E       		.uleb128 0x2e
 3252 0207 01       		.byte	0x1
 3253 0208 3F       		.uleb128 0x3f
 3254 0209 19       		.uleb128 0x19
 3255 020a 03       		.uleb128 0x3
 3256 020b 0E       		.uleb128 0xe
 3257 020c 3A       		.uleb128 0x3a
 3258 020d 0B       		.uleb128 0xb
 3259 020e 3B       		.uleb128 0x3b
 3260 020f 0B       		.uleb128 0xb
 3261 0210 27       		.uleb128 0x27
 3262 0211 19       		.uleb128 0x19
 3263 0212 49       		.uleb128 0x49
 3264 0213 13       		.uleb128 0x13
 3265 0214 11       		.uleb128 0x11
 3266 0215 01       		.uleb128 0x1
 3267 0216 12       		.uleb128 0x12
 3268 0217 06       		.uleb128 0x6
 3269 0218 40       		.uleb128 0x40
 3270 0219 18       		.uleb128 0x18
 3271 021a 9742     		.uleb128 0x2117
 3272 021c 19       		.uleb128 0x19
 3273 021d 01       		.uleb128 0x1
 3274 021e 13       		.uleb128 0x13
 3275 021f 00       		.byte	0
 3276 0220 00       		.byte	0
 3277 0221 2A       		.uleb128 0x2a
 3278 0222 1D       		.uleb128 0x1d
 3279 0223 01       		.byte	0x1
 3280 0224 31       		.uleb128 0x31
 3281 0225 13       		.uleb128 0x13
 3282 0226 52       		.uleb128 0x52
 3283 0227 01       		.uleb128 0x1
 3284 0228 55       		.uleb128 0x55
 3285 0229 17       		.uleb128 0x17
 3286 022a 58       		.uleb128 0x58
 3287 022b 0B       		.uleb128 0xb
 3288 022c 59       		.uleb128 0x59
 3289 022d 0B       		.uleb128 0xb
 3290 022e 01       		.uleb128 0x1
 3291 022f 13       		.uleb128 0x13
 3292 0230 00       		.byte	0
 3293 0231 00       		.byte	0
 3294 0232 2B       		.uleb128 0x2b
 3295 0233 1D       		.uleb128 0x1d
 3296 0234 01       		.byte	0x1
 3297 0235 31       		.uleb128 0x31
 3298 0236 13       		.uleb128 0x13
 3299 0237 52       		.uleb128 0x52
 3300 0238 01       		.uleb128 0x1
 3301 0239 55       		.uleb128 0x55
 3302 023a 17       		.uleb128 0x17
 3303 023b 58       		.uleb128 0x58
 3304 023c 0B       		.uleb128 0xb
 3305 023d 59       		.uleb128 0x59
 3306 023e 05       		.uleb128 0x5
ARM GAS  /tmp/cc1d7Rw9.s 			page 59


 3307 023f 01       		.uleb128 0x1
 3308 0240 13       		.uleb128 0x13
 3309 0241 00       		.byte	0
 3310 0242 00       		.byte	0
 3311 0243 2C       		.uleb128 0x2c
 3312 0244 1D       		.uleb128 0x1d
 3313 0245 01       		.byte	0x1
 3314 0246 31       		.uleb128 0x31
 3315 0247 13       		.uleb128 0x13
 3316 0248 52       		.uleb128 0x52
 3317 0249 01       		.uleb128 0x1
 3318 024a 55       		.uleb128 0x55
 3319 024b 17       		.uleb128 0x17
 3320 024c 58       		.uleb128 0x58
 3321 024d 0B       		.uleb128 0xb
 3322 024e 59       		.uleb128 0x59
 3323 024f 05       		.uleb128 0x5
 3324 0250 00       		.byte	0
 3325 0251 00       		.byte	0
 3326 0252 2D       		.uleb128 0x2d
 3327 0253 05       		.uleb128 0x5
 3328 0254 00       		.byte	0
 3329 0255 31       		.uleb128 0x31
 3330 0256 13       		.uleb128 0x13
 3331 0257 02       		.uleb128 0x2
 3332 0258 17       		.uleb128 0x17
 3333 0259 00       		.byte	0
 3334 025a 00       		.byte	0
 3335 025b 2E       		.uleb128 0x2e
 3336 025c 898201   		.uleb128 0x4109
 3337 025f 00       		.byte	0
 3338 0260 11       		.uleb128 0x11
 3339 0261 01       		.uleb128 0x1
 3340 0262 31       		.uleb128 0x31
 3341 0263 13       		.uleb128 0x13
 3342 0264 00       		.byte	0
 3343 0265 00       		.byte	0
 3344 0266 2F       		.uleb128 0x2f
 3345 0267 1D       		.uleb128 0x1d
 3346 0268 01       		.byte	0x1
 3347 0269 31       		.uleb128 0x31
 3348 026a 13       		.uleb128 0x13
 3349 026b 11       		.uleb128 0x11
 3350 026c 01       		.uleb128 0x1
 3351 026d 12       		.uleb128 0x12
 3352 026e 06       		.uleb128 0x6
 3353 026f 58       		.uleb128 0x58
 3354 0270 0B       		.uleb128 0xb
 3355 0271 59       		.uleb128 0x59
 3356 0272 0B       		.uleb128 0xb
 3357 0273 01       		.uleb128 0x1
 3358 0274 13       		.uleb128 0x13
 3359 0275 00       		.byte	0
 3360 0276 00       		.byte	0
 3361 0277 30       		.uleb128 0x30
 3362 0278 0B       		.uleb128 0xb
 3363 0279 01       		.byte	0x1
ARM GAS  /tmp/cc1d7Rw9.s 			page 60


 3364 027a 11       		.uleb128 0x11
 3365 027b 01       		.uleb128 0x1
 3366 027c 12       		.uleb128 0x12
 3367 027d 06       		.uleb128 0x6
 3368 027e 00       		.byte	0
 3369 027f 00       		.byte	0
 3370 0280 31       		.uleb128 0x31
 3371 0281 1D       		.uleb128 0x1d
 3372 0282 01       		.byte	0x1
 3373 0283 31       		.uleb128 0x31
 3374 0284 13       		.uleb128 0x13
 3375 0285 11       		.uleb128 0x11
 3376 0286 01       		.uleb128 0x1
 3377 0287 12       		.uleb128 0x12
 3378 0288 06       		.uleb128 0x6
 3379 0289 58       		.uleb128 0x58
 3380 028a 0B       		.uleb128 0xb
 3381 028b 59       		.uleb128 0x59
 3382 028c 05       		.uleb128 0x5
 3383 028d 01       		.uleb128 0x1
 3384 028e 13       		.uleb128 0x13
 3385 028f 00       		.byte	0
 3386 0290 00       		.byte	0
 3387 0291 32       		.uleb128 0x32
 3388 0292 1D       		.uleb128 0x1d
 3389 0293 01       		.byte	0x1
 3390 0294 31       		.uleb128 0x31
 3391 0295 13       		.uleb128 0x13
 3392 0296 11       		.uleb128 0x11
 3393 0297 01       		.uleb128 0x1
 3394 0298 12       		.uleb128 0x12
 3395 0299 06       		.uleb128 0x6
 3396 029a 58       		.uleb128 0x58
 3397 029b 0B       		.uleb128 0xb
 3398 029c 59       		.uleb128 0x59
 3399 029d 05       		.uleb128 0x5
 3400 029e 00       		.byte	0
 3401 029f 00       		.byte	0
 3402 02a0 33       		.uleb128 0x33
 3403 02a1 898201   		.uleb128 0x4109
 3404 02a4 01       		.byte	0x1
 3405 02a5 11       		.uleb128 0x11
 3406 02a6 01       		.uleb128 0x1
 3407 02a7 31       		.uleb128 0x31
 3408 02a8 13       		.uleb128 0x13
 3409 02a9 00       		.byte	0
 3410 02aa 00       		.byte	0
 3411 02ab 34       		.uleb128 0x34
 3412 02ac 8A8201   		.uleb128 0x410a
 3413 02af 00       		.byte	0
 3414 02b0 02       		.uleb128 0x2
 3415 02b1 18       		.uleb128 0x18
 3416 02b2 9142     		.uleb128 0x2111
 3417 02b4 18       		.uleb128 0x18
 3418 02b5 00       		.byte	0
 3419 02b6 00       		.byte	0
 3420 02b7 35       		.uleb128 0x35
ARM GAS  /tmp/cc1d7Rw9.s 			page 61


 3421 02b8 34       		.uleb128 0x34
 3422 02b9 00       		.byte	0
 3423 02ba 31       		.uleb128 0x31
 3424 02bb 13       		.uleb128 0x13
 3425 02bc 02       		.uleb128 0x2
 3426 02bd 18       		.uleb128 0x18
 3427 02be 00       		.byte	0
 3428 02bf 00       		.byte	0
 3429 02c0 36       		.uleb128 0x36
 3430 02c1 2E       		.uleb128 0x2e
 3431 02c2 01       		.byte	0x1
 3432 02c3 3F       		.uleb128 0x3f
 3433 02c4 19       		.uleb128 0x19
 3434 02c5 03       		.uleb128 0x3
 3435 02c6 0E       		.uleb128 0xe
 3436 02c7 3A       		.uleb128 0x3a
 3437 02c8 0B       		.uleb128 0xb
 3438 02c9 3B       		.uleb128 0x3b
 3439 02ca 0B       		.uleb128 0xb
 3440 02cb 27       		.uleb128 0x27
 3441 02cc 19       		.uleb128 0x19
 3442 02cd 11       		.uleb128 0x11
 3443 02ce 01       		.uleb128 0x1
 3444 02cf 12       		.uleb128 0x12
 3445 02d0 06       		.uleb128 0x6
 3446 02d1 40       		.uleb128 0x40
 3447 02d2 18       		.uleb128 0x18
 3448 02d3 9742     		.uleb128 0x2117
 3449 02d5 19       		.uleb128 0x19
 3450 02d6 01       		.uleb128 0x1
 3451 02d7 13       		.uleb128 0x13
 3452 02d8 00       		.byte	0
 3453 02d9 00       		.byte	0
 3454 02da 37       		.uleb128 0x37
 3455 02db 05       		.uleb128 0x5
 3456 02dc 00       		.byte	0
 3457 02dd 03       		.uleb128 0x3
 3458 02de 0E       		.uleb128 0xe
 3459 02df 3A       		.uleb128 0x3a
 3460 02e0 0B       		.uleb128 0xb
 3461 02e1 3B       		.uleb128 0x3b
 3462 02e2 0B       		.uleb128 0xb
 3463 02e3 49       		.uleb128 0x49
 3464 02e4 13       		.uleb128 0x13
 3465 02e5 02       		.uleb128 0x2
 3466 02e6 17       		.uleb128 0x17
 3467 02e7 00       		.byte	0
 3468 02e8 00       		.byte	0
 3469 02e9 38       		.uleb128 0x38
 3470 02ea 1D       		.uleb128 0x1d
 3471 02eb 01       		.byte	0x1
 3472 02ec 31       		.uleb128 0x31
 3473 02ed 13       		.uleb128 0x13
 3474 02ee 11       		.uleb128 0x11
 3475 02ef 01       		.uleb128 0x1
 3476 02f0 12       		.uleb128 0x12
 3477 02f1 06       		.uleb128 0x6
ARM GAS  /tmp/cc1d7Rw9.s 			page 62


 3478 02f2 58       		.uleb128 0x58
 3479 02f3 0B       		.uleb128 0xb
 3480 02f4 59       		.uleb128 0x59
 3481 02f5 0B       		.uleb128 0xb
 3482 02f6 00       		.byte	0
 3483 02f7 00       		.byte	0
 3484 02f8 39       		.uleb128 0x39
 3485 02f9 0B       		.uleb128 0xb
 3486 02fa 01       		.byte	0x1
 3487 02fb 55       		.uleb128 0x55
 3488 02fc 17       		.uleb128 0x17
 3489 02fd 00       		.byte	0
 3490 02fe 00       		.byte	0
 3491 02ff 3A       		.uleb128 0x3a
 3492 0300 898201   		.uleb128 0x4109
 3493 0303 01       		.byte	0x1
 3494 0304 11       		.uleb128 0x11
 3495 0305 01       		.uleb128 0x1
 3496 0306 9542     		.uleb128 0x2115
 3497 0308 19       		.uleb128 0x19
 3498 0309 31       		.uleb128 0x31
 3499 030a 13       		.uleb128 0x13
 3500 030b 00       		.byte	0
 3501 030c 00       		.byte	0
 3502 030d 3B       		.uleb128 0x3b
 3503 030e 2E       		.uleb128 0x2e
 3504 030f 01       		.byte	0x1
 3505 0310 3F       		.uleb128 0x3f
 3506 0311 19       		.uleb128 0x19
 3507 0312 03       		.uleb128 0x3
 3508 0313 0E       		.uleb128 0xe
 3509 0314 3A       		.uleb128 0x3a
 3510 0315 0B       		.uleb128 0xb
 3511 0316 3B       		.uleb128 0x3b
 3512 0317 05       		.uleb128 0x5
 3513 0318 27       		.uleb128 0x27
 3514 0319 19       		.uleb128 0x19
 3515 031a 49       		.uleb128 0x49
 3516 031b 13       		.uleb128 0x13
 3517 031c 11       		.uleb128 0x11
 3518 031d 01       		.uleb128 0x1
 3519 031e 12       		.uleb128 0x12
 3520 031f 06       		.uleb128 0x6
 3521 0320 40       		.uleb128 0x40
 3522 0321 18       		.uleb128 0x18
 3523 0322 9742     		.uleb128 0x2117
 3524 0324 19       		.uleb128 0x19
 3525 0325 01       		.uleb128 0x1
 3526 0326 13       		.uleb128 0x13
 3527 0327 00       		.byte	0
 3528 0328 00       		.byte	0
 3529 0329 3C       		.uleb128 0x3c
 3530 032a 05       		.uleb128 0x5
 3531 032b 00       		.byte	0
 3532 032c 03       		.uleb128 0x3
 3533 032d 08       		.uleb128 0x8
 3534 032e 3A       		.uleb128 0x3a
ARM GAS  /tmp/cc1d7Rw9.s 			page 63


 3535 032f 0B       		.uleb128 0xb
 3536 0330 3B       		.uleb128 0x3b
 3537 0331 05       		.uleb128 0x5
 3538 0332 49       		.uleb128 0x49
 3539 0333 13       		.uleb128 0x13
 3540 0334 02       		.uleb128 0x2
 3541 0335 17       		.uleb128 0x17
 3542 0336 00       		.byte	0
 3543 0337 00       		.byte	0
 3544 0338 3D       		.uleb128 0x3d
 3545 0339 05       		.uleb128 0x5
 3546 033a 00       		.byte	0
 3547 033b 03       		.uleb128 0x3
 3548 033c 0E       		.uleb128 0xe
 3549 033d 3A       		.uleb128 0x3a
 3550 033e 0B       		.uleb128 0xb
 3551 033f 3B       		.uleb128 0x3b
 3552 0340 05       		.uleb128 0x5
 3553 0341 49       		.uleb128 0x49
 3554 0342 13       		.uleb128 0x13
 3555 0343 02       		.uleb128 0x2
 3556 0344 17       		.uleb128 0x17
 3557 0345 00       		.byte	0
 3558 0346 00       		.byte	0
 3559 0347 3E       		.uleb128 0x3e
 3560 0348 34       		.uleb128 0x34
 3561 0349 00       		.byte	0
 3562 034a 03       		.uleb128 0x3
 3563 034b 08       		.uleb128 0x8
 3564 034c 3A       		.uleb128 0x3a
 3565 034d 0B       		.uleb128 0xb
 3566 034e 3B       		.uleb128 0x3b
 3567 034f 05       		.uleb128 0x5
 3568 0350 49       		.uleb128 0x49
 3569 0351 13       		.uleb128 0x13
 3570 0352 02       		.uleb128 0x2
 3571 0353 17       		.uleb128 0x17
 3572 0354 00       		.byte	0
 3573 0355 00       		.byte	0
 3574 0356 3F       		.uleb128 0x3f
 3575 0357 898201   		.uleb128 0x4109
 3576 035a 01       		.byte	0x1
 3577 035b 11       		.uleb128 0x11
 3578 035c 01       		.uleb128 0x1
 3579 035d 31       		.uleb128 0x31
 3580 035e 13       		.uleb128 0x13
 3581 035f 01       		.uleb128 0x1
 3582 0360 13       		.uleb128 0x13
 3583 0361 00       		.byte	0
 3584 0362 00       		.byte	0
 3585 0363 40       		.uleb128 0x40
 3586 0364 2E       		.uleb128 0x2e
 3587 0365 01       		.byte	0x1
 3588 0366 3F       		.uleb128 0x3f
 3589 0367 19       		.uleb128 0x19
 3590 0368 03       		.uleb128 0x3
 3591 0369 0E       		.uleb128 0xe
ARM GAS  /tmp/cc1d7Rw9.s 			page 64


 3592 036a 3A       		.uleb128 0x3a
 3593 036b 0B       		.uleb128 0xb
 3594 036c 3B       		.uleb128 0x3b
 3595 036d 05       		.uleb128 0x5
 3596 036e 27       		.uleb128 0x27
 3597 036f 19       		.uleb128 0x19
 3598 0370 11       		.uleb128 0x11
 3599 0371 01       		.uleb128 0x1
 3600 0372 12       		.uleb128 0x12
 3601 0373 06       		.uleb128 0x6
 3602 0374 40       		.uleb128 0x40
 3603 0375 18       		.uleb128 0x18
 3604 0376 9742     		.uleb128 0x2117
 3605 0378 19       		.uleb128 0x19
 3606 0379 01       		.uleb128 0x1
 3607 037a 13       		.uleb128 0x13
 3608 037b 00       		.byte	0
 3609 037c 00       		.byte	0
 3610 037d 41       		.uleb128 0x41
 3611 037e 34       		.uleb128 0x34
 3612 037f 00       		.byte	0
 3613 0380 03       		.uleb128 0x3
 3614 0381 0E       		.uleb128 0xe
 3615 0382 3A       		.uleb128 0x3a
 3616 0383 0B       		.uleb128 0xb
 3617 0384 3B       		.uleb128 0x3b
 3618 0385 05       		.uleb128 0x5
 3619 0386 49       		.uleb128 0x49
 3620 0387 13       		.uleb128 0x13
 3621 0388 3F       		.uleb128 0x3f
 3622 0389 19       		.uleb128 0x19
 3623 038a 3C       		.uleb128 0x3c
 3624 038b 19       		.uleb128 0x19
 3625 038c 00       		.byte	0
 3626 038d 00       		.byte	0
 3627 038e 42       		.uleb128 0x42
 3628 038f 34       		.uleb128 0x34
 3629 0390 00       		.byte	0
 3630 0391 03       		.uleb128 0x3
 3631 0392 08       		.uleb128 0x8
 3632 0393 3A       		.uleb128 0x3a
 3633 0394 0B       		.uleb128 0xb
 3634 0395 3B       		.uleb128 0x3b
 3635 0396 05       		.uleb128 0x5
 3636 0397 49       		.uleb128 0x49
 3637 0398 13       		.uleb128 0x13
 3638 0399 3F       		.uleb128 0x3f
 3639 039a 19       		.uleb128 0x19
 3640 039b 3C       		.uleb128 0x3c
 3641 039c 19       		.uleb128 0x19
 3642 039d 00       		.byte	0
 3643 039e 00       		.byte	0
 3644 039f 43       		.uleb128 0x43
 3645 03a0 2E       		.uleb128 0x2e
 3646 03a1 00       		.byte	0
 3647 03a2 3F       		.uleb128 0x3f
 3648 03a3 19       		.uleb128 0x19
ARM GAS  /tmp/cc1d7Rw9.s 			page 65


 3649 03a4 3C       		.uleb128 0x3c
 3650 03a5 19       		.uleb128 0x19
 3651 03a6 6E       		.uleb128 0x6e
 3652 03a7 0E       		.uleb128 0xe
 3653 03a8 03       		.uleb128 0x3
 3654 03a9 0E       		.uleb128 0xe
 3655 03aa 3A       		.uleb128 0x3a
 3656 03ab 0B       		.uleb128 0xb
 3657 03ac 3B       		.uleb128 0x3b
 3658 03ad 0B       		.uleb128 0xb
 3659 03ae 00       		.byte	0
 3660 03af 00       		.byte	0
 3661 03b0 44       		.uleb128 0x44
 3662 03b1 2E       		.uleb128 0x2e
 3663 03b2 00       		.byte	0
 3664 03b3 3F       		.uleb128 0x3f
 3665 03b4 19       		.uleb128 0x19
 3666 03b5 3C       		.uleb128 0x3c
 3667 03b6 19       		.uleb128 0x19
 3668 03b7 6E       		.uleb128 0x6e
 3669 03b8 0E       		.uleb128 0xe
 3670 03b9 03       		.uleb128 0x3
 3671 03ba 0E       		.uleb128 0xe
 3672 03bb 3A       		.uleb128 0x3a
 3673 03bc 0B       		.uleb128 0xb
 3674 03bd 3B       		.uleb128 0x3b
 3675 03be 05       		.uleb128 0x5
 3676 03bf 00       		.byte	0
 3677 03c0 00       		.byte	0
 3678 03c1 00       		.byte	0
 3679              		.section	.debug_loc,"",%progbits
 3680              	.Ldebug_loc0:
 3681              	.LLST0:
 3682 0000 00000000 		.4byte	.LVL1
 3683 0004 04000000 		.4byte	.LVL2
 3684 0008 0100     		.2byte	0x1
 3685 000a 50       		.byte	0x50
 3686 000b 04000000 		.4byte	.LVL2
 3687 000f 15000000 		.4byte	.LVL4-1
 3688 0013 0100     		.2byte	0x1
 3689 0015 53       		.byte	0x53
 3690 0016 15000000 		.4byte	.LVL4-1
 3691 001a 16000000 		.4byte	.LVL4
 3692 001e 0400     		.2byte	0x4
 3693 0020 F3       		.byte	0xf3
 3694 0021 01       		.uleb128 0x1
 3695 0022 50       		.byte	0x50
 3696 0023 9F       		.byte	0x9f
 3697 0024 16000000 		.4byte	.LVL4
 3698 0028 18000000 		.4byte	.LFE292
 3699 002c 0100     		.2byte	0x1
 3700 002e 53       		.byte	0x53
 3701 002f 00000000 		.4byte	0
 3702 0033 00000000 		.4byte	0
 3703              	.LLST1:
 3704 0037 04000000 		.4byte	.LVL2
 3705 003b 14000000 		.4byte	.LVL3
ARM GAS  /tmp/cc1d7Rw9.s 			page 66


 3706 003f 0100     		.2byte	0x1
 3707 0041 50       		.byte	0x50
 3708 0042 14000000 		.4byte	.LVL3
 3709 0046 15000000 		.4byte	.LVL4-1
 3710 004a 0200     		.2byte	0x2
 3711 004c 73       		.byte	0x73
 3712 004d 00       		.sleb128 0
 3713 004e 16000000 		.4byte	.LVL4
 3714 0052 18000000 		.4byte	.LFE292
 3715 0056 0100     		.2byte	0x1
 3716 0058 50       		.byte	0x50
 3717 0059 00000000 		.4byte	0
 3718 005d 00000000 		.4byte	0
 3719              	.LLST2:
 3720 0061 00000000 		.4byte	.LVL5
 3721 0065 0D000000 		.4byte	.LVL7-1
 3722 0069 0100     		.2byte	0x1
 3723 006b 50       		.byte	0x50
 3724 006c 0D000000 		.4byte	.LVL7-1
 3725 0070 16000000 		.4byte	.LVL9
 3726 0074 0100     		.2byte	0x1
 3727 0076 54       		.byte	0x54
 3728 0077 16000000 		.4byte	.LVL9
 3729 007b 24000000 		.4byte	.LFE293
 3730 007f 0400     		.2byte	0x4
 3731 0081 F3       		.byte	0xf3
 3732 0082 01       		.uleb128 0x1
 3733 0083 50       		.byte	0x50
 3734 0084 9F       		.byte	0x9f
 3735 0085 00000000 		.4byte	0
 3736 0089 00000000 		.4byte	0
 3737              	.LLST3:
 3738 008d 16000000 		.4byte	.LVL9
 3739 0091 19000000 		.4byte	.LVL10-1
 3740 0095 0100     		.2byte	0x1
 3741 0097 50       		.byte	0x50
 3742 0098 19000000 		.4byte	.LVL10-1
 3743 009c 24000000 		.4byte	.LFE293
 3744 00a0 0100     		.2byte	0x1
 3745 00a2 54       		.byte	0x54
 3746 00a3 00000000 		.4byte	0
 3747 00a7 00000000 		.4byte	0
 3748              	.LLST4:
 3749 00ab 00000000 		.4byte	.LVL5
 3750 00af 0A000000 		.4byte	.LVL6
 3751 00b3 0300     		.2byte	0x3
 3752 00b5 08       		.byte	0x8
 3753 00b6 20       		.byte	0x20
 3754 00b7 9F       		.byte	0x9f
 3755 00b8 00000000 		.4byte	0
 3756 00bc 00000000 		.4byte	0
 3757              	.LLST5:
 3758 00c0 1A000000 		.4byte	.LVL10
 3759 00c4 20000000 		.4byte	.LVL11
 3760 00c8 0200     		.2byte	0x2
 3761 00ca 30       		.byte	0x30
 3762 00cb 9F       		.byte	0x9f
ARM GAS  /tmp/cc1d7Rw9.s 			page 67


 3763 00cc 00000000 		.4byte	0
 3764 00d0 00000000 		.4byte	0
 3765              	.LLST6:
 3766 00d4 00000000 		.4byte	.LVL13
 3767 00d8 0F000000 		.4byte	.LVL15-1
 3768 00dc 0100     		.2byte	0x1
 3769 00de 50       		.byte	0x50
 3770 00df 0F000000 		.4byte	.LVL15-1
 3771 00e3 22000000 		.4byte	.LFE295
 3772 00e7 0100     		.2byte	0x1
 3773 00e9 54       		.byte	0x54
 3774 00ea 00000000 		.4byte	0
 3775 00ee 00000000 		.4byte	0
 3776              	.LLST7:
 3777 00f2 00000000 		.4byte	.LVL13
 3778 00f6 0F000000 		.4byte	.LVL15-1
 3779 00fa 0100     		.2byte	0x1
 3780 00fc 51       		.byte	0x51
 3781 00fd 0F000000 		.4byte	.LVL15-1
 3782 0101 22000000 		.4byte	.LFE295
 3783 0105 0100     		.2byte	0x1
 3784 0107 55       		.byte	0x55
 3785 0108 00000000 		.4byte	0
 3786 010c 00000000 		.4byte	0
 3787              	.LLST8:
 3788 0110 00000000 		.4byte	.LVL13
 3789 0114 0C000000 		.4byte	.LVL14
 3790 0118 0300     		.2byte	0x3
 3791 011a 08       		.byte	0x8
 3792 011b 20       		.byte	0x20
 3793 011c 9F       		.byte	0x9f
 3794 011d 00000000 		.4byte	0
 3795 0121 00000000 		.4byte	0
 3796              	.LLST9:
 3797 0125 10000000 		.4byte	.LVL15
 3798 0129 16000000 		.4byte	.LVL16
 3799 012d 0100     		.2byte	0x1
 3800 012f 55       		.byte	0x55
 3801 0130 00000000 		.4byte	0
 3802 0134 00000000 		.4byte	0
 3803              	.LLST10:
 3804 0138 10000000 		.4byte	.LVL15
 3805 013c 16000000 		.4byte	.LVL16
 3806 0140 0100     		.2byte	0x1
 3807 0142 54       		.byte	0x54
 3808 0143 00000000 		.4byte	0
 3809 0147 00000000 		.4byte	0
 3810              	.LLST11:
 3811 014b 1A000000 		.4byte	.LVL17
 3812 014f 20000000 		.4byte	.LVL18
 3813 0153 0200     		.2byte	0x2
 3814 0155 30       		.byte	0x30
 3815 0156 9F       		.byte	0x9f
 3816 0157 00000000 		.4byte	0
 3817 015b 00000000 		.4byte	0
 3818              	.LLST12:
 3819 015f 00000000 		.4byte	.LVL19
ARM GAS  /tmp/cc1d7Rw9.s 			page 68


 3820 0163 08000000 		.4byte	.LVL20
 3821 0167 0100     		.2byte	0x1
 3822 0169 50       		.byte	0x50
 3823 016a 08000000 		.4byte	.LVL20
 3824 016e 1C000000 		.4byte	.LFE291
 3825 0172 0100     		.2byte	0x1
 3826 0174 56       		.byte	0x56
 3827 0175 00000000 		.4byte	0
 3828 0179 00000000 		.4byte	0
 3829              	.LLST13:
 3830 017d 00000000 		.4byte	.LVL19
 3831 0181 08000000 		.4byte	.LVL20
 3832 0185 0100     		.2byte	0x1
 3833 0187 51       		.byte	0x51
 3834 0188 08000000 		.4byte	.LVL20
 3835 018c 1C000000 		.4byte	.LFE291
 3836 0190 0100     		.2byte	0x1
 3837 0192 55       		.byte	0x55
 3838 0193 00000000 		.4byte	0
 3839 0197 00000000 		.4byte	0
 3840              	.LLST14:
 3841 019b 00000000 		.4byte	.LVL19
 3842 019f 08000000 		.4byte	.LVL20
 3843 01a3 0100     		.2byte	0x1
 3844 01a5 52       		.byte	0x52
 3845 01a6 08000000 		.4byte	.LVL20
 3846 01aa 16000000 		.4byte	.LVL23
 3847 01ae 0100     		.2byte	0x1
 3848 01b0 54       		.byte	0x54
 3849 01b1 16000000 		.4byte	.LVL23
 3850 01b5 18000000 		.4byte	.LVL24
 3851 01b9 0300     		.2byte	0x3
 3852 01bb 74       		.byte	0x74
 3853 01bc 01       		.sleb128 1
 3854 01bd 9F       		.byte	0x9f
 3855 01be 18000000 		.4byte	.LVL24
 3856 01c2 1C000000 		.4byte	.LFE291
 3857 01c6 0100     		.2byte	0x1
 3858 01c8 54       		.byte	0x54
 3859 01c9 00000000 		.4byte	0
 3860 01cd 00000000 		.4byte	0
 3861              	.LLST15:
 3862 01d1 0A000000 		.4byte	.LVL21
 3863 01d5 12000000 		.4byte	.LVL22
 3864 01d9 0100     		.2byte	0x1
 3865 01db 55       		.byte	0x55
 3866 01dc 00000000 		.4byte	0
 3867 01e0 00000000 		.4byte	0
 3868              	.LLST16:
 3869 01e4 0A000000 		.4byte	.LVL21
 3870 01e8 12000000 		.4byte	.LVL22
 3871 01ec 0100     		.2byte	0x1
 3872 01ee 56       		.byte	0x56
 3873 01ef 00000000 		.4byte	0
 3874 01f3 00000000 		.4byte	0
 3875              	.LLST17:
 3876 01f7 00000000 		.4byte	.LVL25
ARM GAS  /tmp/cc1d7Rw9.s 			page 69


 3877 01fb 15000000 		.4byte	.LVL28-1
 3878 01ff 0100     		.2byte	0x1
 3879 0201 50       		.byte	0x50
 3880 0202 15000000 		.4byte	.LVL28-1
 3881 0206 16000000 		.4byte	.LFE296
 3882 020a 0400     		.2byte	0x4
 3883 020c F3       		.byte	0xf3
 3884 020d 01       		.uleb128 0x1
 3885 020e 50       		.byte	0x50
 3886 020f 9F       		.byte	0x9f
 3887 0210 00000000 		.4byte	0
 3888 0214 00000000 		.4byte	0
 3889              	.LLST18:
 3890 0218 00000000 		.4byte	.LVL25
 3891 021c 0C000000 		.4byte	.LVL27
 3892 0220 0100     		.2byte	0x1
 3893 0222 51       		.byte	0x51
 3894 0223 0C000000 		.4byte	.LVL27
 3895 0227 15000000 		.4byte	.LVL28-1
 3896 022b 0200     		.2byte	0x2
 3897 022d 70       		.byte	0x70
 3898 022e 10       		.sleb128 16
 3899 022f 15000000 		.4byte	.LVL28-1
 3900 0233 16000000 		.4byte	.LFE296
 3901 0237 0400     		.2byte	0x4
 3902 0239 F3       		.byte	0xf3
 3903 023a 01       		.uleb128 0x1
 3904 023b 51       		.byte	0x51
 3905 023c 9F       		.byte	0x9f
 3906 023d 00000000 		.4byte	0
 3907 0241 00000000 		.4byte	0
 3908              	.LLST19:
 3909 0245 00000000 		.4byte	.LVL25
 3910 0249 15000000 		.4byte	.LVL28-1
 3911 024d 0100     		.2byte	0x1
 3912 024f 52       		.byte	0x52
 3913 0250 15000000 		.4byte	.LVL28-1
 3914 0254 16000000 		.4byte	.LFE296
 3915 0258 0400     		.2byte	0x4
 3916 025a F3       		.byte	0xf3
 3917 025b 01       		.uleb128 0x1
 3918 025c 52       		.byte	0x52
 3919 025d 9F       		.byte	0x9f
 3920 025e 00000000 		.4byte	0
 3921 0262 00000000 		.4byte	0
 3922              	.LLST20:
 3923 0266 00000000 		.4byte	.LVL25
 3924 026a 0A000000 		.4byte	.LVL26
 3925 026e 0200     		.2byte	0x2
 3926 0270 30       		.byte	0x30
 3927 0271 9F       		.byte	0x9f
 3928 0272 00000000 		.4byte	0
 3929 0276 00000000 		.4byte	0
 3930              	.LLST21:
 3931 027a 00000000 		.4byte	.LVL25
 3932 027e 0A000000 		.4byte	.LVL26
 3933 0282 0100     		.2byte	0x1
ARM GAS  /tmp/cc1d7Rw9.s 			page 70


 3934 0284 52       		.byte	0x52
 3935 0285 00000000 		.4byte	0
 3936 0289 00000000 		.4byte	0
 3937              	.LLST22:
 3938 028d 00000000 		.4byte	.LVL25
 3939 0291 0A000000 		.4byte	.LVL26
 3940 0295 0100     		.2byte	0x1
 3941 0297 51       		.byte	0x51
 3942 0298 00000000 		.4byte	0
 3943 029c 00000000 		.4byte	0
 3944              	.LLST23:
 3945 02a0 00000000 		.4byte	.LVL25
 3946 02a4 0A000000 		.4byte	.LVL26
 3947 02a8 0300     		.2byte	0x3
 3948 02aa 70       		.byte	0x70
 3949 02ab 0C       		.sleb128 12
 3950 02ac 9F       		.byte	0x9f
 3951 02ad 00000000 		.4byte	0
 3952 02b1 00000000 		.4byte	0
 3953              	.LLST24:
 3954 02b5 00000000 		.4byte	.LVL29
 3955 02b9 07000000 		.4byte	.LVL30-1
 3956 02bd 0100     		.2byte	0x1
 3957 02bf 50       		.byte	0x50
 3958 02c0 07000000 		.4byte	.LVL30-1
 3959 02c4 12000000 		.4byte	.LVL32
 3960 02c8 0100     		.2byte	0x1
 3961 02ca 54       		.byte	0x54
 3962 02cb 12000000 		.4byte	.LVL32
 3963 02cf 15000000 		.4byte	.LVL33-1
 3964 02d3 0300     		.2byte	0x3
 3965 02d5 70       		.byte	0x70
 3966 02d6 74       		.sleb128 -12
 3967 02d7 9F       		.byte	0x9f
 3968 02d8 15000000 		.4byte	.LVL33-1
 3969 02dc 16000000 		.4byte	.LVL33
 3970 02e0 0400     		.2byte	0x4
 3971 02e2 F3       		.byte	0xf3
 3972 02e3 01       		.uleb128 0x1
 3973 02e4 50       		.byte	0x50
 3974 02e5 9F       		.byte	0x9f
 3975 02e6 16000000 		.4byte	.LVL33
 3976 02ea 1A000000 		.4byte	.LFE298
 3977 02ee 0100     		.2byte	0x1
 3978 02f0 54       		.byte	0x54
 3979 02f1 00000000 		.4byte	0
 3980 02f5 00000000 		.4byte	0
 3981              	.LLST25:
 3982 02f9 00000000 		.4byte	.LVL29
 3983 02fd 07000000 		.4byte	.LVL30-1
 3984 0301 0100     		.2byte	0x1
 3985 0303 51       		.byte	0x51
 3986 0304 07000000 		.4byte	.LVL30-1
 3987 0308 1A000000 		.4byte	.LFE298
 3988 030c 0400     		.2byte	0x4
 3989 030e F3       		.byte	0xf3
 3990 030f 01       		.uleb128 0x1
ARM GAS  /tmp/cc1d7Rw9.s 			page 71


 3991 0310 51       		.byte	0x51
 3992 0311 9F       		.byte	0x9f
 3993 0312 00000000 		.4byte	0
 3994 0316 00000000 		.4byte	0
 3995              	.LLST26:
 3996 031a 08000000 		.4byte	.LVL30
 3997 031e 0E000000 		.4byte	.LVL31
 3998 0322 0100     		.2byte	0x1
 3999 0324 50       		.byte	0x50
 4000 0325 16000000 		.4byte	.LVL33
 4001 0329 18000000 		.4byte	.LVL34
 4002 032d 0100     		.2byte	0x1
 4003 032f 50       		.byte	0x50
 4004 0330 00000000 		.4byte	0
 4005 0334 00000000 		.4byte	0
 4006              	.LLST27:
 4007 0338 00000000 		.4byte	.LVL35
 4008 033c 0F000000 		.4byte	.LVL37-1
 4009 0340 0100     		.2byte	0x1
 4010 0342 50       		.byte	0x50
 4011 0343 0F000000 		.4byte	.LVL37-1
 4012 0347 1A000000 		.4byte	.LVL39
 4013 034b 0100     		.2byte	0x1
 4014 034d 54       		.byte	0x54
 4015 034e 1A000000 		.4byte	.LVL39
 4016 0352 28000000 		.4byte	.LFE299
 4017 0356 0400     		.2byte	0x4
 4018 0358 F3       		.byte	0xf3
 4019 0359 01       		.uleb128 0x1
 4020 035a 50       		.byte	0x50
 4021 035b 9F       		.byte	0x9f
 4022 035c 00000000 		.4byte	0
 4023 0360 00000000 		.4byte	0
 4024              	.LLST28:
 4025 0364 00000000 		.4byte	.LVL35
 4026 0368 0F000000 		.4byte	.LVL37-1
 4027 036c 0100     		.2byte	0x1
 4028 036e 51       		.byte	0x51
 4029 036f 0F000000 		.4byte	.LVL37-1
 4030 0373 28000000 		.4byte	.LFE299
 4031 0377 0100     		.2byte	0x1
 4032 0379 55       		.byte	0x55
 4033 037a 00000000 		.4byte	0
 4034 037e 00000000 		.4byte	0
 4035              	.LLST29:
 4036 0382 1A000000 		.4byte	.LVL39
 4037 0386 1D000000 		.4byte	.LVL40-1
 4038 038a 0100     		.2byte	0x1
 4039 038c 50       		.byte	0x50
 4040 038d 1D000000 		.4byte	.LVL40-1
 4041 0391 28000000 		.4byte	.LFE299
 4042 0395 0100     		.2byte	0x1
 4043 0397 54       		.byte	0x54
 4044 0398 00000000 		.4byte	0
 4045 039c 00000000 		.4byte	0
 4046              	.LLST30:
 4047 03a0 00000000 		.4byte	.LVL35
ARM GAS  /tmp/cc1d7Rw9.s 			page 72


 4048 03a4 0C000000 		.4byte	.LVL36
 4049 03a8 0300     		.2byte	0x3
 4050 03aa 08       		.byte	0x8
 4051 03ab 20       		.byte	0x20
 4052 03ac 9F       		.byte	0x9f
 4053 03ad 00000000 		.4byte	0
 4054 03b1 00000000 		.4byte	0
 4055              	.LLST31:
 4056 03b5 1E000000 		.4byte	.LVL40
 4057 03b9 24000000 		.4byte	.LVL41
 4058 03bd 0200     		.2byte	0x2
 4059 03bf 30       		.byte	0x30
 4060 03c0 9F       		.byte	0x9f
 4061 03c1 00000000 		.4byte	0
 4062 03c5 00000000 		.4byte	0
 4063              	.LLST32:
 4064 03c9 00000000 		.4byte	.LVL42
 4065 03cd 0F000000 		.4byte	.LVL44-1
 4066 03d1 0100     		.2byte	0x1
 4067 03d3 50       		.byte	0x50
 4068 03d4 0F000000 		.4byte	.LVL44-1
 4069 03d8 2C000000 		.4byte	.LFE300
 4070 03dc 0100     		.2byte	0x1
 4071 03de 54       		.byte	0x54
 4072 03df 00000000 		.4byte	0
 4073 03e3 00000000 		.4byte	0
 4074              	.LLST33:
 4075 03e7 00000000 		.4byte	.LVL42
 4076 03eb 0F000000 		.4byte	.LVL44-1
 4077 03ef 0100     		.2byte	0x1
 4078 03f1 51       		.byte	0x51
 4079 03f2 0F000000 		.4byte	.LVL44-1
 4080 03f6 2C000000 		.4byte	.LFE300
 4081 03fa 0100     		.2byte	0x1
 4082 03fc 55       		.byte	0x55
 4083 03fd 00000000 		.4byte	0
 4084 0401 00000000 		.4byte	0
 4085              	.LLST34:
 4086 0405 00000000 		.4byte	.LVL42
 4087 0409 0C000000 		.4byte	.LVL43
 4088 040d 0300     		.2byte	0x3
 4089 040f 08       		.byte	0x8
 4090 0410 20       		.byte	0x20
 4091 0411 9F       		.byte	0x9f
 4092 0412 00000000 		.4byte	0
 4093 0416 00000000 		.4byte	0
 4094              	.LLST35:
 4095 041a 10000000 		.4byte	.LVL44
 4096 041e 1C000000 		.4byte	.LVL46
 4097 0422 0100     		.2byte	0x1
 4098 0424 55       		.byte	0x55
 4099 0425 00000000 		.4byte	0
 4100 0429 00000000 		.4byte	0
 4101              	.LLST36:
 4102 042d 10000000 		.4byte	.LVL44
 4103 0431 1C000000 		.4byte	.LVL46
 4104 0435 0100     		.2byte	0x1
ARM GAS  /tmp/cc1d7Rw9.s 			page 73


 4105 0437 54       		.byte	0x54
 4106 0438 00000000 		.4byte	0
 4107 043c 00000000 		.4byte	0
 4108              	.LLST37:
 4109 0440 10000000 		.4byte	.LVL44
 4110 0444 18000000 		.4byte	.LVL45
 4111 0448 0100     		.2byte	0x1
 4112 044a 55       		.byte	0x55
 4113 044b 00000000 		.4byte	0
 4114 044f 00000000 		.4byte	0
 4115              	.LLST38:
 4116 0453 10000000 		.4byte	.LVL44
 4117 0457 18000000 		.4byte	.LVL45
 4118 045b 0300     		.2byte	0x3
 4119 045d 74       		.byte	0x74
 4120 045e 0C       		.sleb128 12
 4121 045f 9F       		.byte	0x9f
 4122 0460 00000000 		.4byte	0
 4123 0464 00000000 		.4byte	0
 4124              	.LLST39:
 4125 0468 24000000 		.4byte	.LVL48
 4126 046c 2A000000 		.4byte	.LVL49
 4127 0470 0200     		.2byte	0x2
 4128 0472 30       		.byte	0x30
 4129 0473 9F       		.byte	0x9f
 4130 0474 00000000 		.4byte	0
 4131 0478 00000000 		.4byte	0
 4132              	.LLST40:
 4133 047c 00000000 		.4byte	.LVL50
 4134 0480 08000000 		.4byte	.LVL51
 4135 0484 0100     		.2byte	0x1
 4136 0486 50       		.byte	0x50
 4137 0487 08000000 		.4byte	.LVL51
 4138 048b 1C000000 		.4byte	.LFE297
 4139 048f 0100     		.2byte	0x1
 4140 0491 56       		.byte	0x56
 4141 0492 00000000 		.4byte	0
 4142 0496 00000000 		.4byte	0
 4143              	.LLST41:
 4144 049a 00000000 		.4byte	.LVL50
 4145 049e 08000000 		.4byte	.LVL51
 4146 04a2 0100     		.2byte	0x1
 4147 04a4 51       		.byte	0x51
 4148 04a5 08000000 		.4byte	.LVL51
 4149 04a9 1C000000 		.4byte	.LFE297
 4150 04ad 0100     		.2byte	0x1
 4151 04af 55       		.byte	0x55
 4152 04b0 00000000 		.4byte	0
 4153 04b4 00000000 		.4byte	0
 4154              	.LLST42:
 4155 04b8 00000000 		.4byte	.LVL50
 4156 04bc 08000000 		.4byte	.LVL51
 4157 04c0 0100     		.2byte	0x1
 4158 04c2 52       		.byte	0x52
 4159 04c3 08000000 		.4byte	.LVL51
 4160 04c7 16000000 		.4byte	.LVL54
 4161 04cb 0100     		.2byte	0x1
ARM GAS  /tmp/cc1d7Rw9.s 			page 74


 4162 04cd 54       		.byte	0x54
 4163 04ce 16000000 		.4byte	.LVL54
 4164 04d2 18000000 		.4byte	.LVL55
 4165 04d6 0300     		.2byte	0x3
 4166 04d8 74       		.byte	0x74
 4167 04d9 01       		.sleb128 1
 4168 04da 9F       		.byte	0x9f
 4169 04db 18000000 		.4byte	.LVL55
 4170 04df 1C000000 		.4byte	.LFE297
 4171 04e3 0100     		.2byte	0x1
 4172 04e5 54       		.byte	0x54
 4173 04e6 00000000 		.4byte	0
 4174 04ea 00000000 		.4byte	0
 4175              	.LLST43:
 4176 04ee 0A000000 		.4byte	.LVL52
 4177 04f2 12000000 		.4byte	.LVL53
 4178 04f6 0100     		.2byte	0x1
 4179 04f8 55       		.byte	0x55
 4180 04f9 00000000 		.4byte	0
 4181 04fd 00000000 		.4byte	0
 4182              	.LLST44:
 4183 0501 0A000000 		.4byte	.LVL52
 4184 0505 12000000 		.4byte	.LVL53
 4185 0509 0100     		.2byte	0x1
 4186 050b 56       		.byte	0x56
 4187 050c 00000000 		.4byte	0
 4188 0510 00000000 		.4byte	0
 4189              		.section	.debug_aranges,"",%progbits
 4190 0000 6C000000 		.4byte	0x6c
 4191 0004 0200     		.2byte	0x2
 4192 0006 00000000 		.4byte	.Ldebug_info0
 4193 000a 04       		.byte	0x4
 4194 000b 00       		.byte	0
 4195 000c 0000     		.2byte	0
 4196 000e 0000     		.2byte	0
 4197 0010 00000000 		.4byte	.LFB290
 4198 0014 0E000000 		.4byte	.LFE290-.LFB290
 4199 0018 00000000 		.4byte	.LFB292
 4200 001c 18000000 		.4byte	.LFE292-.LFB292
 4201 0020 00000000 		.4byte	.LFB293
 4202 0024 24000000 		.4byte	.LFE293-.LFB293
 4203 0028 00000000 		.4byte	.LFB294
 4204 002c 08000000 		.4byte	.LFE294-.LFB294
 4205 0030 00000000 		.4byte	.LFB295
 4206 0034 22000000 		.4byte	.LFE295-.LFB295
 4207 0038 00000000 		.4byte	.LFB291
 4208 003c 1C000000 		.4byte	.LFE291-.LFB291
 4209 0040 00000000 		.4byte	.LFB296
 4210 0044 16000000 		.4byte	.LFE296-.LFB296
 4211 0048 00000000 		.4byte	.LFB298
 4212 004c 1A000000 		.4byte	.LFE298-.LFB298
 4213 0050 00000000 		.4byte	.LFB299
 4214 0054 28000000 		.4byte	.LFE299-.LFB299
 4215 0058 00000000 		.4byte	.LFB300
 4216 005c 2C000000 		.4byte	.LFE300-.LFB300
 4217 0060 00000000 		.4byte	.LFB297
 4218 0064 1C000000 		.4byte	.LFE297-.LFB297
ARM GAS  /tmp/cc1d7Rw9.s 			page 75


 4219 0068 00000000 		.4byte	0
 4220 006c 00000000 		.4byte	0
 4221              		.section	.debug_ranges,"",%progbits
 4222              	.Ldebug_ranges0:
 4223 0000 02000000 		.4byte	.LBB34
 4224 0004 04000000 		.4byte	.LBE34
 4225 0008 06000000 		.4byte	.LBB43
 4226 000c 0E000000 		.4byte	.LBE43
 4227 0010 00000000 		.4byte	0
 4228 0014 00000000 		.4byte	0
 4229 0018 02000000 		.4byte	.LBB36
 4230 001c 04000000 		.4byte	.LBE36
 4231 0020 06000000 		.4byte	.LBB41
 4232 0024 0A000000 		.4byte	.LBE41
 4233 0028 00000000 		.4byte	0
 4234 002c 00000000 		.4byte	0
 4235 0030 02000000 		.4byte	.LBB75
 4236 0034 0A000000 		.4byte	.LBE75
 4237 0038 0C000000 		.4byte	.LBB78
 4238 003c 0E000000 		.4byte	.LBE78
 4239 0040 00000000 		.4byte	0
 4240 0044 00000000 		.4byte	0
 4241 0048 10000000 		.4byte	.LBB120
 4242 004c 14000000 		.4byte	.LBE120
 4243 0050 16000000 		.4byte	.LBB123
 4244 0054 18000000 		.4byte	.LBE123
 4245 0058 00000000 		.4byte	0
 4246 005c 00000000 		.4byte	0
 4247 0060 00000000 		.4byte	.LFB290
 4248 0064 0E000000 		.4byte	.LFE290
 4249 0068 00000000 		.4byte	.LFB292
 4250 006c 18000000 		.4byte	.LFE292
 4251 0070 00000000 		.4byte	.LFB293
 4252 0074 24000000 		.4byte	.LFE293
 4253 0078 00000000 		.4byte	.LFB294
 4254 007c 08000000 		.4byte	.LFE294
 4255 0080 00000000 		.4byte	.LFB295
 4256 0084 22000000 		.4byte	.LFE295
 4257 0088 00000000 		.4byte	.LFB291
 4258 008c 1C000000 		.4byte	.LFE291
 4259 0090 00000000 		.4byte	.LFB296
 4260 0094 16000000 		.4byte	.LFE296
 4261 0098 00000000 		.4byte	.LFB298
 4262 009c 1A000000 		.4byte	.LFE298
 4263 00a0 00000000 		.4byte	.LFB299
 4264 00a4 28000000 		.4byte	.LFE299
 4265 00a8 00000000 		.4byte	.LFB300
 4266 00ac 2C000000 		.4byte	.LFE300
 4267 00b0 00000000 		.4byte	.LFB297
 4268 00b4 1C000000 		.4byte	.LFE297
 4269 00b8 00000000 		.4byte	0
 4270 00bc 00000000 		.4byte	0
 4271              		.section	.debug_line,"",%progbits
 4272              	.Ldebug_line0:
 4273 0000 28040000 		.section	.debug_str,"MS",%progbits,1
 4273      02008302 
 4273      00000201 
ARM GAS  /tmp/cc1d7Rw9.s 			page 76


 4273      FB0E0D00 
 4273      01010101 
 4274              	.LASF115:
 4275 0000 67756172 		.ascii	"guarded_memory_pool_t\000"
 4275      6465645F 
 4275      6D656D6F 
 4275      72795F70 
 4275      6F6F6C5F 
 4276              	.LASF54:
 4277 0016 72656164 		.ascii	"ready_list_t\000"
 4277      795F6C69 
 4277      73745F74 
 4277      00
 4278              	.LASF145:
 4279 0023 63685365 		.ascii	"chSemSignalI\000"
 4279      6D536967 
 4279      6E616C49 
 4279      00
 4280              	.LASF4:
 4281 0030 73697A65 		.ascii	"size_t\000"
 4281      5F7400
 4282              	.LASF60:
 4283 0037 64656C74 		.ascii	"delta\000"
 4283      6100
 4284              	.LASF93:
 4285 003d 7264796D 		.ascii	"rdymsg\000"
 4285      736700
 4286              	.LASF18:
 4287 0044 75696E74 		.ascii	"uint64_t\000"
 4287      36345F74 
 4287      00
 4288              	.LASF73:
 4289 004d 6B65726E 		.ascii	"kernel_stats\000"
 4289      656C5F73 
 4289      74617473 
 4289      00
 4290              	.LASF5:
 4291 005a 5F5F7569 		.ascii	"__uint8_t\000"
 4291      6E74385F 
 4291      7400
 4292              	.LASF53:
 4293 0064 70726576 		.ascii	"prev\000"
 4293      00
 4294              	.LASF80:
 4295 0069 706F7274 		.ascii	"port_intctx\000"
 4295      5F696E74 
 4295      63747800 
 4296              	.LASF52:
 4297 0075 63685F74 		.ascii	"ch_threads_queue\000"
 4297      68726561 
 4297      64735F71 
 4297      75657565 
 4297      00
 4298              	.LASF65:
 4299 0086 73797374 		.ascii	"system_debug_t\000"
 4299      656D5F64 
 4299      65627567 
ARM GAS  /tmp/cc1d7Rw9.s 			page 77


 4299      5F7400
 4300              	.LASF112:
 4301 0095 70726F76 		.ascii	"provider\000"
 4301      69646572 
 4301      00
 4302              	.LASF147:
 4303 009e 474E5520 		.ascii	"GNU C11 5.4.1 20160919 -mcpu=cortex-m4 -mfloat-abi="
 4303      43313120 
 4303      352E342E 
 4303      31203230 
 4303      31363039 
 4304 00d1 68617264 		.ascii	"hard -mfpu=fpv4-sp-d16 -mno-thumb-interwork -mthumb"
 4304      202D6D66 
 4304      70753D66 
 4304      7076342D 
 4304      73702D64 
 4305 0104 202D6720 		.ascii	" -g -Os -fomit-frame-pointer -falign-functions=16 -"
 4305      2D4F7320 
 4305      2D666F6D 
 4305      69742D66 
 4305      72616D65 
 4306 0137 6666756E 		.ascii	"ffunction-sections -fdata-sections -fno-common -fsi"
 4306      6374696F 
 4306      6E2D7365 
 4306      6374696F 
 4306      6E73202D 
 4307 016a 6E676C65 		.ascii	"ngle-precision-constant\000"
 4307      2D707265 
 4307      63697369 
 4307      6F6E2D63 
 4307      6F6E7374 
 4308              	.LASF148:
 4309 0182 2E2E2F2E 		.ascii	"../../modules/ChibiOS/os/oslib/src/chmempools.c\000"
 4309      2E2F6D6F 
 4309      64756C65 
 4309      732F4368 
 4309      6962694F 
 4310              	.LASF84:
 4311 01b2 776F7273 		.ascii	"worst\000"
 4311      7400
 4312              	.LASF87:
 4313 01b8 74696D65 		.ascii	"time_measurement_t\000"
 4313      5F6D6561 
 4313      73757265 
 4313      6D656E74 
 4313      5F7400
 4314              	.LASF14:
 4315 01cb 6C6F6E67 		.ascii	"long long unsigned int\000"
 4315      206C6F6E 
 4315      6720756E 
 4315      7369676E 
 4315      65642069 
 4316              	.LASF137:
 4317 01e2 63684775 		.ascii	"chGuardedPoolFreeI\000"
 4317      61726465 
 4317      64506F6F 
 4317      6C467265 
ARM GAS  /tmp/cc1d7Rw9.s 			page 78


 4317      654900
 4318              	.LASF94:
 4319 01f5 65786974 		.ascii	"exitcode\000"
 4319      636F6465 
 4319      00
 4320              	.LASF72:
 4321 01fe 6D61696E 		.ascii	"mainthread\000"
 4321      74687265 
 4321      616400
 4322              	.LASF97:
 4323 0209 73656E74 		.ascii	"sentmsg\000"
 4323      6D736700 
 4324              	.LASF62:
 4325 0211 76697274 		.ascii	"virtual_timers_list_t\000"
 4325      75616C5F 
 4325      74696D65 
 4325      72735F6C 
 4325      6973745F 
 4326              	.LASF140:
 4327 0227 49544D5F 		.ascii	"ITM_RxBuffer\000"
 4327      52784275 
 4327      66666572 
 4327      00
 4328              	.LASF50:
 4329 0234 6E657874 		.ascii	"next\000"
 4329      00
 4330              	.LASF20:
 4331 0239 72747469 		.ascii	"rttime_t\000"
 4331      6D655F74 
 4331      00
 4332              	.LASF1:
 4333 0242 6C6F6E67 		.ascii	"long long int\000"
 4333      206C6F6E 
 4333      6720696E 
 4333      7400
 4334              	.LASF3:
 4335 0250 7369676E 		.ascii	"signed char\000"
 4335      65642063 
 4335      68617200 
 4336              	.LASF125:
 4337 025c 73697A65 		.ascii	"size\000"
 4337      00
 4338              	.LASF118:
 4339 0261 62617365 		.ascii	"basePri\000"
 4339      50726900 
 4340              	.LASF71:
 4341 0269 76746C69 		.ascii	"vtlist\000"
 4341      737400
 4342              	.LASF117:
 4343 0270 706F7274 		.ascii	"port_unlock\000"
 4343      5F756E6C 
 4343      6F636B00 
 4344              	.LASF40:
 4345 027c 6D736771 		.ascii	"msgqueue\000"
 4345      75657565 
 4345      00
 4346              	.LASF36:
ARM GAS  /tmp/cc1d7Rw9.s 			page 79


 4347 0285 73746174 		.ascii	"state\000"
 4347      6500
 4348              	.LASF10:
 4349 028b 6C6F6E67 		.ascii	"long int\000"
 4349      20696E74 
 4349      00
 4350              	.LASF22:
 4351 0294 74737461 		.ascii	"tstate_t\000"
 4351      74655F74 
 4351      00
 4352              	.LASF61:
 4353 029d 66756E63 		.ascii	"func\000"
 4353      00
 4354              	.LASF45:
 4355 02a2 73746174 		.ascii	"stats\000"
 4355      7300
 4356              	.LASF124:
 4357 02a8 6368506F 		.ascii	"chPoolObjectInitAligned\000"
 4357      6F6C4F62 
 4357      6A656374 
 4357      496E6974 
 4357      416C6967 
 4358              	.LASF146:
 4359 02c0 63685363 		.ascii	"chSchRescheduleS\000"
 4359      68526573 
 4359      63686564 
 4359      756C6553 
 4359      00
 4360              	.LASF11:
 4361 02d1 5F5F7569 		.ascii	"__uint32_t\000"
 4361      6E743332 
 4361      5F7400
 4362              	.LASF77:
 4363 02dc 72656761 		.ascii	"regarm_t\000"
 4363      726D5F74 
 4363      00
 4364              	.LASF123:
 4365 02e5 6368506F 		.ascii	"chPoolFreeI\000"
 4365      6F6C4672 
 4365      65654900 
 4366              	.LASF66:
 4367 02f1 63685F73 		.ascii	"ch_system_debug\000"
 4367      79737465 
 4367      6D5F6465 
 4367      62756700 
 4368              	.LASF39:
 4369 0301 77616974 		.ascii	"waiting\000"
 4369      696E6700 
 4370              	.LASF136:
 4371 0309 63684775 		.ascii	"chGuardedPoolAllocTimeout\000"
 4371      61726465 
 4371      64506F6F 
 4371      6C416C6C 
 4371      6F635469 
 4372              	.LASF106:
 4373 0323 6D757465 		.ascii	"mutex_t\000"
 4373      785F7400 
ARM GAS  /tmp/cc1d7Rw9.s 			page 80


 4374              	.LASF111:
 4375 032b 616C6967 		.ascii	"align\000"
 4375      6E00
 4376              	.LASF75:
 4377 0331 73797369 		.ascii	"sysinterval_t\000"
 4377      6E746572 
 4377      76616C5F 
 4377      7400
 4378              	.LASF143:
 4379 033f 63685365 		.ascii	"chSemObjectInit\000"
 4379      6D4F626A 
 4379      65637449 
 4379      6E697400 
 4380              	.LASF27:
 4381 034f 636E745F 		.ascii	"cnt_t\000"
 4381      7400
 4382              	.LASF0:
 4383 0355 756E7369 		.ascii	"unsigned int\000"
 4383      676E6564 
 4383      20696E74 
 4383      00
 4384              	.LASF98:
 4385 0362 77747365 		.ascii	"wtsemp\000"
 4385      6D7000
 4386              	.LASF96:
 4387 0369 77747472 		.ascii	"wttrp\000"
 4387      7000
 4388              	.LASF135:
 4389 036f 74696D65 		.ascii	"timeout\000"
 4389      6F757400 
 4390              	.LASF113:
 4391 0377 6D656D6F 		.ascii	"memory_pool_t\000"
 4391      72795F70 
 4391      6F6F6C5F 
 4391      7400
 4392              	.LASF88:
 4393 0385 6E5F6972 		.ascii	"n_irq\000"
 4393      7100
 4394              	.LASF30:
 4395 038b 71756575 		.ascii	"queue\000"
 4395      6500
 4396              	.LASF44:
 4397 0391 6D706F6F 		.ascii	"mpool\000"
 4397      6C00
 4398              	.LASF8:
 4399 0397 73686F72 		.ascii	"short unsigned int\000"
 4399      7420756E 
 4399      7369676E 
 4399      65642069 
 4399      6E7400
 4400              	.LASF92:
 4401 03aa 6B65726E 		.ascii	"kernel_stats_t\000"
 4401      656C5F73 
 4401      74617473 
 4401      5F7400
 4402              	.LASF34:
 4403 03b9 6E616D65 		.ascii	"name\000"
ARM GAS  /tmp/cc1d7Rw9.s 			page 81


 4403      00
 4404              	.LASF48:
 4405 03be 63685F74 		.ascii	"ch_thread\000"
 4405      68726561 
 4405      6400
 4406              	.LASF25:
 4407 03c8 6D73675F 		.ascii	"msg_t\000"
 4407      7400
 4408              	.LASF138:
 4409 03ce 63684775 		.ascii	"chGuardedPoolFree\000"
 4409      61726465 
 4409      64506F6F 
 4409      6C467265 
 4409      6500
 4410              	.LASF28:
 4411 03e0 75636E74 		.ascii	"ucnt_t\000"
 4411      5F7400
 4412              	.LASF41:
 4413 03e7 6570656E 		.ascii	"epending\000"
 4413      64696E67 
 4413      00
 4414              	.LASF68:
 4415 03f0 63685F73 		.ascii	"ch_system_t\000"
 4415      79737465 
 4415      6D5F7400 
 4416              	.LASF122:
 4417 03fc 6368506F 		.ascii	"chPoolAdd\000"
 4417      6F6C4164 
 4417      6400
 4418              	.LASF21:
 4419 0406 746D6F64 		.ascii	"tmode_t\000"
 4419      655F7400 
 4420              	.LASF91:
 4421 040e 6D5F6372 		.ascii	"m_crit_isr\000"
 4421      69745F69 
 4421      737200
 4422              	.LASF55:
 4423 0419 63685F72 		.ascii	"ch_ready_list\000"
 4423      65616479 
 4423      5F6C6973 
 4423      7400
 4424              	.LASF26:
 4425 0427 6576656E 		.ascii	"eventmask_t\000"
 4425      746D6173 
 4425      6B5F7400 
 4426              	.LASF9:
 4427 0433 5F5F696E 		.ascii	"__int32_t\000"
 4427      7433325F 
 4427      7400
 4428              	.LASF78:
 4429 043d 73746B61 		.ascii	"stkalign_t\000"
 4429      6C69676E 
 4429      5F7400
 4430              	.LASF32:
 4431 0448 6E657765 		.ascii	"newer\000"
 4431      7200
 4432              	.LASF43:
ARM GAS  /tmp/cc1d7Rw9.s 			page 82


 4433 044e 7265616C 		.ascii	"realprio\000"
 4433      7072696F 
 4433      00
 4434              	.LASF142:
 4435 0457 5F737461 		.ascii	"_stats_stop_measure_crit_thd\000"
 4435      74735F73 
 4435      746F705F 
 4435      6D656173 
 4435      7572655F 
 4436              	.LASF76:
 4437 0474 73697A65 		.ascii	"sizetype\000"
 4437      74797065 
 4437      00
 4438              	.LASF46:
 4439 047d 74687265 		.ascii	"thread_reference_t\000"
 4439      61645F72 
 4439      65666572 
 4439      656E6365 
 4439      5F7400
 4440              	.LASF63:
 4441 0490 63685F76 		.ascii	"ch_virtual_timers_list\000"
 4441      69727475 
 4441      616C5F74 
 4441      696D6572 
 4441      735F6C69 
 4442              	.LASF2:
 4443 04a7 6C6F6E67 		.ascii	"long double\000"
 4443      20646F75 
 4443      626C6500 
 4444              	.LASF129:
 4445 04b3 6368506F 		.ascii	"chPoolAllocI\000"
 4445      6F6C416C 
 4445      6C6F6349 
 4445      00
 4446              	.LASF79:
 4447 04c0 706F7274 		.ascii	"port_context\000"
 4447      5F636F6E 
 4447      74657874 
 4447      00
 4448              	.LASF82:
 4449 04cd 746D5F63 		.ascii	"tm_calibration_t\000"
 4449      616C6962 
 4449      72617469 
 4449      6F6E5F74 
 4449      00
 4450              	.LASF134:
 4451 04de 63684775 		.ascii	"chGuardedPoolAllocTimeoutS\000"
 4451      61726465 
 4451      64506F6F 
 4451      6C416C6C 
 4451      6F635469 
 4452              	.LASF31:
 4453 04f9 7072696F 		.ascii	"prio\000"
 4453      00
 4454              	.LASF56:
 4455 04fe 63757272 		.ascii	"current\000"
 4455      656E7400 
ARM GAS  /tmp/cc1d7Rw9.s 			page 83


 4456              	.LASF85:
 4457 0506 6C617374 		.ascii	"last\000"
 4457      00
 4458              	.LASF13:
 4459 050b 5F5F7569 		.ascii	"__uint64_t\000"
 4459      6E743634 
 4459      5F7400
 4460              	.LASF86:
 4461 0516 63756D75 		.ascii	"cumulative\000"
 4461      6C617469 
 4461      766500
 4462              	.LASF132:
 4463 0521 63684775 		.ascii	"chGuardedPoolObjectInitAligned\000"
 4463      61726465 
 4463      64506F6F 
 4463      6C4F626A 
 4463      65637449 
 4464              	.LASF23:
 4465 0540 74726566 		.ascii	"trefs_t\000"
 4465      735F7400 
 4466              	.LASF38:
 4467 0548 72656673 		.ascii	"refs\000"
 4467      00
 4468              	.LASF58:
 4469 054d 76697274 		.ascii	"virtual_timer_t\000"
 4469      75616C5F 
 4469      74696D65 
 4469      725F7400 
 4470              	.LASF24:
 4471 055d 74707269 		.ascii	"tprio_t\000"
 4471      6F5F7400 
 4472              	.LASF89:
 4473 0565 6E5F6374 		.ascii	"n_ctxswc\000"
 4473      78737763 
 4473      00
 4474              	.LASF107:
 4475 056e 5F426F6F 		.ascii	"_Bool\000"
 4475      6C00
 4476              	.LASF16:
 4477 0574 696E7433 		.ascii	"int32_t\000"
 4477      325F7400 
 4478              	.LASF6:
 4479 057c 756E7369 		.ascii	"unsigned char\000"
 4479      676E6564 
 4479      20636861 
 4479      7200
 4480              	.LASF7:
 4481 058a 73686F72 		.ascii	"short int\000"
 4481      7420696E 
 4481      7400
 4482              	.LASF64:
 4483 0594 6C617374 		.ascii	"lasttime\000"
 4483      74696D65 
 4483      00
 4484              	.LASF100:
 4485 059d 65776D61 		.ascii	"ewmask\000"
 4485      736B00
ARM GAS  /tmp/cc1d7Rw9.s 			page 84


 4486              	.LASF69:
 4487 05a4 63685F73 		.ascii	"ch_system\000"
 4487      79737465 
 4487      6D00
 4488              	.LASF120:
 4489 05ae 5F5F6675 		.ascii	"__func__\000"
 4489      6E635F5F 
 4489      00
 4490              	.LASF128:
 4491 05b7 63685379 		.ascii	"chSysLock\000"
 4491      734C6F63 
 4491      6B00
 4492              	.LASF119:
 4493 05c1 6F626A70 		.ascii	"objp\000"
 4493      00
 4494              	.LASF105:
 4495 05c6 73656D61 		.ascii	"semaphore_t\000"
 4495      70686F72 
 4495      655F7400 
 4496              	.LASF59:
 4497 05d2 63685F76 		.ascii	"ch_virtual_timer\000"
 4497      69727475 
 4497      616C5F74 
 4497      696D6572 
 4497      00
 4498              	.LASF101:
 4499 05e3 63685F73 		.ascii	"ch_semaphore\000"
 4499      656D6170 
 4499      686F7265 
 4499      00
 4500              	.LASF149:
 4501 05f0 2F686F6D 		.ascii	"/home/user/csse4011/project/4011-surfbee/ardupilot/"
 4501      652F7573 
 4501      65722F63 
 4501      73736534 
 4501      3031312F 
 4502 0623 6275696C 		.ascii	"build/stm32l475\000"
 4502      642F7374 
 4502      6D33326C 
 4502      34373500 
 4503              	.LASF99:
 4504 0633 77746D74 		.ascii	"wtmtxp\000"
 4504      787000
 4505              	.LASF49:
 4506 063a 63685F74 		.ascii	"ch_threads_list\000"
 4506      68726561 
 4506      64735F6C 
 4506      69737400 
 4507              	.LASF103:
 4508 064a 6F776E65 		.ascii	"owner\000"
 4508      7200
 4509              	.LASF12:
 4510 0650 6C6F6E67 		.ascii	"long unsigned int\000"
 4510      20756E73 
 4510      69676E65 
 4510      6420696E 
 4510      7400
ARM GAS  /tmp/cc1d7Rw9.s 			page 85


 4511              	.LASF35:
 4512 0662 77616261 		.ascii	"wabase\000"
 4512      736500
 4513              	.LASF104:
 4514 0669 63686172 		.ascii	"char\000"
 4514      00
 4515              	.LASF33:
 4516 066e 6F6C6465 		.ascii	"older\000"
 4516      7200
 4517              	.LASF144:
 4518 0674 63685365 		.ascii	"chSemWaitTimeoutS\000"
 4518      6D576169 
 4518      7454696D 
 4518      656F7574 
 4518      5300
 4519              	.LASF29:
 4520 0686 74687265 		.ascii	"thread_t\000"
 4520      61645F74 
 4520      00
 4521              	.LASF83:
 4522 068f 62657374 		.ascii	"best\000"
 4522      00
 4523              	.LASF74:
 4524 0694 73797374 		.ascii	"systime_t\000"
 4524      696D655F 
 4524      7400
 4525              	.LASF57:
 4526 069e 76746675 		.ascii	"vtfunc_t\000"
 4526      6E635F74 
 4526      00
 4527              	.LASF121:
 4528 06a7 5F5F7365 		.ascii	"__set_BASEPRI\000"
 4528      745F4241 
 4528      53455052 
 4528      4900
 4529              	.LASF67:
 4530 06b5 70616E69 		.ascii	"panic_msg\000"
 4530      635F6D73 
 4530      6700
 4531              	.LASF81:
 4532 06bf 6F666673 		.ascii	"offset\000"
 4532      657400
 4533              	.LASF139:
 4534 06c6 63684775 		.ascii	"chGuardedPoolLoadArray\000"
 4534      61726465 
 4534      64506F6F 
 4534      6C4C6F61 
 4534      64417272 
 4535              	.LASF102:
 4536 06dd 63685F6D 		.ascii	"ch_mutex\000"
 4536      75746578 
 4536      00
 4537              	.LASF19:
 4538 06e6 7274636E 		.ascii	"rtcnt_t\000"
 4538      745F7400 
 4539              	.LASF108:
 4540 06ee 6D656D67 		.ascii	"memgetfunc_t\000"
ARM GAS  /tmp/cc1d7Rw9.s 			page 86


 4540      65746675 
 4540      6E635F74 
 4540      00
 4541              	.LASF126:
 4542 06fb 63684775 		.ascii	"chGuardedPoolAdd\000"
 4542      61726465 
 4542      64506F6F 
 4542      6C416464 
 4542      00
 4543              	.LASF110:
 4544 070c 6F626A65 		.ascii	"object_size\000"
 4544      63745F73 
 4544      697A6500 
 4545              	.LASF17:
 4546 0718 75696E74 		.ascii	"uint32_t\000"
 4546      33325F74 
 4546      00
 4547              	.LASF51:
 4548 0721 74687265 		.ascii	"threads_queue_t\000"
 4548      6164735F 
 4548      71756575 
 4548      655F7400 
 4549              	.LASF109:
 4550 0731 706F6F6C 		.ascii	"pool_header\000"
 4550      5F686561 
 4550      64657200 
 4551              	.LASF70:
 4552 073d 726C6973 		.ascii	"rlist\000"
 4552      7400
 4553              	.LASF114:
 4554 0743 706F6F6C 		.ascii	"pool\000"
 4554      00
 4555              	.LASF15:
 4556 0748 75696E74 		.ascii	"uint8_t\000"
 4556      385F7400 
 4557              	.LASF133:
 4558 0750 6368506F 		.ascii	"chPoolAlloc\000"
 4558      6F6C416C 
 4558      6C6F6300 
 4559              	.LASF130:
 4560 075c 6368506F 		.ascii	"chPoolFree\000"
 4560      6F6C4672 
 4560      656500
 4561              	.LASF37:
 4562 0767 666C6167 		.ascii	"flags\000"
 4562      7300
 4563              	.LASF141:
 4564 076d 5F737461 		.ascii	"_stats_start_measure_crit_thd\000"
 4564      74735F73 
 4564      74617274 
 4564      5F6D6561 
 4564      73757265 
 4565              	.LASF95:
 4566 078b 77746F62 		.ascii	"wtobjp\000"
 4566      6A7000
 4567              	.LASF47:
 4568 0792 74687265 		.ascii	"threads_list_t\000"
ARM GAS  /tmp/cc1d7Rw9.s 			page 87


 4568      6164735F 
 4568      6C697374 
 4568      5F7400
 4569              	.LASF127:
 4570 07a1 63685379 		.ascii	"chSysUnlock\000"
 4570      73556E6C 
 4570      6F636B00 
 4571              	.LASF131:
 4572 07ad 6368506F 		.ascii	"chPoolLoadArray\000"
 4572      6F6C4C6F 
 4572      61644172 
 4572      72617900 
 4573              	.LASF116:
 4574 07bd 706F7274 		.ascii	"port_lock\000"
 4574      5F6C6F63 
 4574      6B00
 4575              	.LASF42:
 4576 07c7 6D74786C 		.ascii	"mtxlist\000"
 4576      69737400 
 4577              	.LASF90:
 4578 07cf 6D5F6372 		.ascii	"m_crit_thd\000"
 4578      69745F74 
 4578      686400
 4579              		.ident	"GCC: (15:5.4.1+svn241155-1) 5.4.1 20160919"
ARM GAS  /tmp/cc1d7Rw9.s 			page 88


DEFINED SYMBOLS
                            *ABS*:0000000000000000 chmempools.c
     /tmp/cc1d7Rw9.s:22     .text.chPoolObjectInitAligned:0000000000000000 $t
     /tmp/cc1d7Rw9.s:27     .text.chPoolObjectInitAligned:0000000000000000 chPoolObjectInitAligned
     /tmp/cc1d7Rw9.s:53     .text.chPoolAllocI:0000000000000000 $t
     /tmp/cc1d7Rw9.s:58     .text.chPoolAllocI:0000000000000000 chPoolAllocI
     /tmp/cc1d7Rw9.s:94     .text.chPoolAlloc:0000000000000000 $t
     /tmp/cc1d7Rw9.s:99     .text.chPoolAlloc:0000000000000000 chPoolAlloc
     /tmp/cc1d7Rw9.s:182    .text.chPoolFreeI:0000000000000000 $t
     /tmp/cc1d7Rw9.s:187    .text.chPoolFreeI:0000000000000000 chPoolFreeI
     /tmp/cc1d7Rw9.s:205    .text.chPoolFree:0000000000000000 $t
     /tmp/cc1d7Rw9.s:210    .text.chPoolFree:0000000000000000 chPoolFree
     /tmp/cc1d7Rw9.s:285    .text.chPoolLoadArray:0000000000000000 $t
     /tmp/cc1d7Rw9.s:290    .text.chPoolLoadArray:0000000000000000 chPoolLoadArray
     /tmp/cc1d7Rw9.s:337    .text.chGuardedPoolObjectInitAligned:0000000000000000 $t
     /tmp/cc1d7Rw9.s:342    .text.chGuardedPoolObjectInitAligned:0000000000000000 chGuardedPoolObjectInitAligned
     /tmp/cc1d7Rw9.s:385    .text.chGuardedPoolAllocTimeoutS:0000000000000000 $t
     /tmp/cc1d7Rw9.s:390    .text.chGuardedPoolAllocTimeoutS:0000000000000000 chGuardedPoolAllocTimeoutS
     /tmp/cc1d7Rw9.s:431    .text.chGuardedPoolAllocTimeout:0000000000000000 $t
     /tmp/cc1d7Rw9.s:436    .text.chGuardedPoolAllocTimeout:0000000000000000 chGuardedPoolAllocTimeout
     /tmp/cc1d7Rw9.s:510    .text.chGuardedPoolFree:0000000000000000 $t
     /tmp/cc1d7Rw9.s:515    .text.chGuardedPoolFree:0000000000000000 chGuardedPoolFree
     /tmp/cc1d7Rw9.s:606    .text.chGuardedPoolLoadArray:0000000000000000 $t
     /tmp/cc1d7Rw9.s:611    .text.chGuardedPoolLoadArray:0000000000000000 chGuardedPoolLoadArray
                     .debug_frame:0000000000000010 $d

UNDEFINED SYMBOLS
_stats_start_measure_crit_thd
_stats_stop_measure_crit_thd
chSemObjectInit
chSemWaitTimeoutS
chSemSignalI
chSchRescheduleS
