ARM GAS  /tmp/cc1d7Rw9.s 			page 1


   1              		.syntax unified
   2              		.cpu cortex-m4
   3              		.eabi_attribute 27, 1
   4              		.eabi_attribute 28, 1
   5              		.fpu fpv4-sp-d16
   6              		.eabi_attribute 20, 1
   7              		.eabi_attribute 21, 1
   8              		.eabi_attribute 23, 3
   9              		.eabi_attribute 24, 1
  10              		.eabi_attribute 25, 1
  11              		.eabi_attribute 26, 1
  12              		.eabi_attribute 30, 4
  13              		.eabi_attribute 34, 1
  14              		.eabi_attribute 18, 4
  15              		.thumb
  16              		.syntax unified
  17              		.file	"chmempools.c"
  18              		.text
  19              	.Ltext0:
  20              		.cfi_sections	.debug_frame
  21              		.section	.text.chPoolObjectInitAligned,"ax",%progbits
  22              		.align	1
  23              		.global	chPoolObjectInitAligned
  24              		.thumb
  25              		.thumb_func
  26              		.type	chPoolObjectInitAligned, %function
  27              	chPoolObjectInitAligned:
  28              	.LFB290:
  29              		.file 1 "../../modules/ChibiOS/os/oslib/src/chmempools.c"
  30              		.loc 1 78 0
  31              		.cfi_startproc
  32              		@ args = 0, pretend = 0, frame = 0
  33              		@ frame_needed = 0, uses_anonymous_args = 0
  34              	.LVL0:
  35 0000 10B5     		push	{r4, lr}
  36              		.cfi_def_cfa_offset 8
  37              		.cfi_offset 4, -8
  38              		.cfi_offset 14, -4
  39              		.loc 1 85 0
  40 0002 0024     		movs	r4, #0
  41 0004 0460     		str	r4, [r0]
  42              		.loc 1 86 0
  43 0006 4160     		str	r1, [r0, #4]
  44              		.loc 1 87 0
  45 0008 8260     		str	r2, [r0, #8]
  46              		.loc 1 88 0
  47 000a C360     		str	r3, [r0, #12]
  48 000c 10BD     		pop	{r4, pc}
  49              		.cfi_endproc
  50              	.LFE290:
  51              		.size	chPoolObjectInitAligned, .-chPoolObjectInitAligned
  52              		.section	.text.chPoolAllocI,"ax",%progbits
  53              		.align	1
  54              		.global	chPoolAllocI
  55              		.thumb
  56              		.thumb_func
  57              		.type	chPoolAllocI, %function
ARM GAS  /tmp/cc1d7Rw9.s 			page 2


  58              	chPoolAllocI:
  59              	.LFB292:
  60              		.loc 1 129 0
  61              		.cfi_startproc
  62              		@ args = 0, pretend = 0, frame = 0
  63              		@ frame_needed = 0, uses_anonymous_args = 0
  64              		@ link register save eliminated.
  65              	.LVL1:
  66              		.loc 1 129 0
  67 0000 0346     		mov	r3, r0
  68              		.loc 1 135 0
  69 0002 0068     		ldr	r0, [r0]
  70              	.LVL2:
  71              		.loc 1 137 0
  72 0004 10B1     		cbz	r0, .L3
  73              		.loc 1 138 0
  74 0006 0268     		ldr	r2, [r0]
  75 0008 1A60     		str	r2, [r3]
  76 000a 7047     		bx	lr
  77              	.L3:
  78              		.loc 1 140 0
  79 000c DA68     		ldr	r2, [r3, #12]
  80 000e 12B1     		cbz	r2, .L4
  81              		.loc 1 141 0
  82 0010 9968     		ldr	r1, [r3, #8]
  83 0012 5868     		ldr	r0, [r3, #4]
  84              	.LVL3:
  85 0014 1047     		bx	r2
  86              	.LVL4:
  87              	.L4:
  88              		.loc 1 149 0
  89 0016 7047     		bx	lr
  90              		.cfi_endproc
  91              	.LFE292:
  92              		.size	chPoolAllocI, .-chPoolAllocI
  93              		.section	.text.chPoolAlloc,"ax",%progbits
  94              		.align	1
  95              		.global	chPoolAlloc
  96              		.thumb
  97              		.thumb_func
  98              		.type	chPoolAlloc, %function
  99              	chPoolAlloc:
 100              	.LFB293:
 101              		.loc 1 161 0
 102              		.cfi_startproc
 103              		@ args = 0, pretend = 0, frame = 0
 104              		@ frame_needed = 0, uses_anonymous_args = 0
 105              	.LVL5:
 106 0000 10B5     		push	{r4, lr}
 107              		.cfi_def_cfa_offset 8
 108              		.cfi_offset 4, -8
 109              		.cfi_offset 14, -4
 110              	.LBB34:
 111              	.LBB35:
 112              	.LBB36:
 113              	.LBB37:
 114              	.LBB38:
ARM GAS  /tmp/cc1d7Rw9.s 			page 3


 115              		.file 2 "../../modules/ChibiOS/os/common/ext/ARM/CMSIS/Core/Include/cmsis_gcc.h"
 116              		.loc 2 493 0
 117 0002 2023     		movs	r3, #32
 118              	.LBE38:
 119              	.LBE37:
 120              	.LBE36:
 121              	.LBE35:
 122              	.LBE34:
 123              		.loc 1 161 0
 124 0004 0446     		mov	r4, r0
 125              	.LBB43:
 126              	.LBB42:
 127              	.LBB41:
 128              	.LBB40:
 129              	.LBB39:
 130              		.loc 2 493 0
 131              		.syntax unified
 132              	@ 493 "../../modules/ChibiOS/os/common/ext/ARM/CMSIS/Core/Include/cmsis_gcc.h" 1
 133 0006 83F31188 		MSR basepri, r3
 134              	@ 0 "" 2
 135              	.LVL6:
 136              		.thumb
 137              		.syntax unified
 138              	.LBE39:
 139              	.LBE40:
 140              	.LBE41:
 141              		.file 3 "../../modules/ChibiOS/os/rt/include/chsys.h"
 142              		.loc 3 356 0
 143 000a FFF7FEFF 		bl	_stats_start_measure_crit_thd
 144              	.LVL7:
 145              	.LBE42:
 146              	.LBE43:
 147              		.loc 1 165 0
 148 000e 2046     		mov	r0, r4
 149 0010 FFF7FEFF 		bl	chPoolAllocI
 150              	.LVL8:
 151 0014 0446     		mov	r4, r0
 152              	.LVL9:
 153              	.LBB44:
 154              	.LBB45:
 155              		.loc 3 368 0
 156 0016 FFF7FEFF 		bl	_stats_stop_measure_crit_thd
 157              	.LVL10:
 158              	.LBB46:
 159              	.LBB47:
 160              	.LBB48:
 161              		.loc 2 493 0
 162 001a 0023     		movs	r3, #0
 163              		.syntax unified
 164              	@ 493 "../../modules/ChibiOS/os/common/ext/ARM/CMSIS/Core/Include/cmsis_gcc.h" 1
 165 001c 83F31188 		MSR basepri, r3
 166              	@ 0 "" 2
 167              	.LVL11:
 168              		.thumb
 169              		.syntax unified
 170              	.LBE48:
 171              	.LBE47:
ARM GAS  /tmp/cc1d7Rw9.s 			page 4


 172              	.LBE46:
 173              	.LBE45:
 174              	.LBE44:
 175              		.loc 1 169 0
 176 0020 2046     		mov	r0, r4
 177 0022 10BD     		pop	{r4, pc}
 178              		.cfi_endproc
 179              	.LFE293:
 180              		.size	chPoolAlloc, .-chPoolAlloc
 181              		.section	.text.chPoolFreeI,"ax",%progbits
 182              		.align	1
 183              		.global	chPoolFreeI
 184              		.thumb
 185              		.thumb_func
 186              		.type	chPoolFreeI, %function
 187              	chPoolFreeI:
 188              	.LFB294:
 189              		.loc 1 183 0
 190              		.cfi_startproc
 191              		@ args = 0, pretend = 0, frame = 0
 192              		@ frame_needed = 0, uses_anonymous_args = 0
 193              		@ link register save eliminated.
 194              	.LVL12:
 195              		.loc 1 191 0
 196 0000 0368     		ldr	r3, [r0]
 197 0002 0B60     		str	r3, [r1]
 198              		.loc 1 192 0
 199 0004 0160     		str	r1, [r0]
 200 0006 7047     		bx	lr
 201              		.cfi_endproc
 202              	.LFE294:
 203              		.size	chPoolFreeI, .-chPoolFreeI
 204              		.section	.text.chPoolFree,"ax",%progbits
 205              		.align	1
 206              		.global	chPoolFree
 207              		.thumb
 208              		.thumb_func
 209              		.type	chPoolFree, %function
 210              	chPoolFree:
 211              	.LFB295:
 212              		.loc 1 207 0
 213              		.cfi_startproc
 214              		@ args = 0, pretend = 0, frame = 0
 215              		@ frame_needed = 0, uses_anonymous_args = 0
 216              	.LVL13:
 217 0000 38B5     		push	{r3, r4, r5, lr}
 218              		.cfi_def_cfa_offset 16
 219              		.cfi_offset 3, -16
 220              		.cfi_offset 4, -12
 221              		.cfi_offset 5, -8
 222              		.cfi_offset 14, -4
 223              		.loc 1 207 0
 224 0002 0446     		mov	r4, r0
 225 0004 0D46     		mov	r5, r1
 226              	.LBB61:
 227              	.LBB62:
 228              	.LBB63:
ARM GAS  /tmp/cc1d7Rw9.s 			page 5


 229              	.LBB64:
 230              	.LBB65:
 231              		.loc 2 493 0
 232 0006 2023     		movs	r3, #32
 233              		.syntax unified
 234              	@ 493 "../../modules/ChibiOS/os/common/ext/ARM/CMSIS/Core/Include/cmsis_gcc.h" 1
 235 0008 83F31188 		MSR basepri, r3
 236              	@ 0 "" 2
 237              	.LVL14:
 238              		.thumb
 239              		.syntax unified
 240              	.LBE65:
 241              	.LBE64:
 242              	.LBE63:
 243              		.loc 3 356 0
 244 000c FFF7FEFF 		bl	_stats_start_measure_crit_thd
 245              	.LVL15:
 246              	.LBE62:
 247              	.LBE61:
 248              	.LBB66:
 249              	.LBB67:
 250              		.loc 1 191 0
 251 0010 2368     		ldr	r3, [r4]
 252 0012 2B60     		str	r3, [r5]
 253              		.loc 1 192 0
 254 0014 2560     		str	r5, [r4]
 255              	.LVL16:
 256              	.LBE67:
 257              	.LBE66:
 258              	.LBB68:
 259              	.LBB69:
 260              		.loc 3 368 0
 261 0016 FFF7FEFF 		bl	_stats_stop_measure_crit_thd
 262              	.LVL17:
 263              	.LBB70:
 264              	.LBB71:
 265              	.LBB72:
 266              		.loc 2 493 0
 267 001a 0023     		movs	r3, #0
 268              		.syntax unified
 269              	@ 493 "../../modules/ChibiOS/os/common/ext/ARM/CMSIS/Core/Include/cmsis_gcc.h" 1
 270 001c 83F31188 		MSR basepri, r3
 271              	@ 0 "" 2
 272              	.LVL18:
 273              		.thumb
 274              		.syntax unified
 275 0020 38BD     		pop	{r3, r4, r5, pc}
 276              	.LBE72:
 277              	.LBE71:
 278              	.LBE70:
 279              	.LBE69:
 280              	.LBE68:
 281              		.cfi_endproc
 282              	.LFE295:
 283              		.size	chPoolFree, .-chPoolFree
 284              		.section	.text.chPoolLoadArray,"ax",%progbits
 285              		.align	1
ARM GAS  /tmp/cc1d7Rw9.s 			page 6


 286              		.global	chPoolLoadArray
 287              		.thumb
 288              		.thumb_func
 289              		.type	chPoolLoadArray, %function
 290              	chPoolLoadArray:
 291              	.LFB291:
 292              		.loc 1 106 0
 293              		.cfi_startproc
 294              		@ args = 0, pretend = 0, frame = 0
 295              		@ frame_needed = 0, uses_anonymous_args = 0
 296              	.LVL19:
 297 0000 70B5     		push	{r4, r5, r6, lr}
 298              		.cfi_def_cfa_offset 16
 299              		.cfi_offset 4, -16
 300              		.cfi_offset 5, -12
 301              		.cfi_offset 6, -8
 302              		.cfi_offset 14, -4
 303 0002 0646     		mov	r6, r0
 304 0004 0D46     		mov	r5, r1
 305 0006 1446     		mov	r4, r2
 306              	.LVL20:
 307              	.L13:
 308              		.loc 1 110 0
 309 0008 3CB1     		cbz	r4, .L15
 310              	.LVL21:
 311              	.LBB73:
 312              	.LBB74:
 313              		.file 4 "../../modules/ChibiOS/os/oslib/include/chmempools.h"
 314              		.loc 4 212 0
 315 000a 2946     		mov	r1, r5
 316 000c 3046     		mov	r0, r6
 317 000e FFF7FEFF 		bl	chPoolFree
 318              	.LVL22:
 319              	.LBE74:
 320              	.LBE73:
 321              		.loc 1 113 0
 322 0012 7368     		ldr	r3, [r6, #4]
 323              		.loc 1 115 0
 324 0014 013C     		subs	r4, r4, #1
 325              	.LVL23:
 326              		.loc 1 113 0
 327 0016 1D44     		add	r5, r5, r3
 328              	.LVL24:
 329 0018 F6E7     		b	.L13
 330              	.L15:
 331              		.loc 1 117 0
 332 001a 70BD     		pop	{r4, r5, r6, pc}
 333              		.cfi_endproc
 334              	.LFE291:
 335              		.size	chPoolLoadArray, .-chPoolLoadArray
 336              		.section	.text.chGuardedPoolObjectInitAligned,"ax",%progbits
 337              		.align	1
 338              		.global	chGuardedPoolObjectInitAligned
 339              		.thumb
 340              		.thumb_func
 341              		.type	chGuardedPoolObjectInitAligned, %function
 342              	chGuardedPoolObjectInitAligned:
ARM GAS  /tmp/cc1d7Rw9.s 			page 7


 343              	.LFB296:
 344              		.loc 1 228 0
 345              		.cfi_startproc
 346              		@ args = 0, pretend = 0, frame = 0
 347              		@ frame_needed = 0, uses_anonymous_args = 0
 348              		@ link register save eliminated.
 349              	.LVL25:
 350 0000 10B4     		push	{r4}
 351              		.cfi_def_cfa_offset 4
 352              		.cfi_offset 4, -4
 353              	.LBB75:
 354              	.LBB76:
 355              		.loc 1 85 0
 356 0002 0024     		movs	r4, #0
 357 0004 C460     		str	r4, [r0, #12]
 358              		.loc 1 86 0
 359 0006 0161     		str	r1, [r0, #16]
 360              		.loc 1 88 0
 361 0008 8461     		str	r4, [r0, #24]
 362              	.LVL26:
 363              	.LBE76:
 364              	.LBE75:
 365              		.loc 1 231 0
 366 000a 2146     		mov	r1, r4
 367              	.LVL27:
 368              	.LBB78:
 369              	.LBB77:
 370              		.loc 1 87 0
 371 000c 4261     		str	r2, [r0, #20]
 372              	.LBE77:
 373              	.LBE78:
 374              		.loc 1 232 0
 375 000e 5DF8044B 		ldr	r4, [sp], #4
 376              		.cfi_restore 4
 377              		.cfi_def_cfa_offset 0
 378              		.loc 1 231 0
 379 0012 FFF7FEBF 		b	chSemObjectInit
 380              	.LVL28:
 381              		.cfi_endproc
 382              	.LFE296:
 383              		.size	chGuardedPoolObjectInitAligned, .-chGuardedPoolObjectInitAligned
 384              		.section	.text.chGuardedPoolAllocTimeoutS,"ax",%progbits
 385              		.align	1
 386              		.global	chGuardedPoolAllocTimeoutS
 387              		.thumb
 388              		.thumb_func
 389              		.type	chGuardedPoolAllocTimeoutS, %function
 390              	chGuardedPoolAllocTimeoutS:
 391              	.LFB298:
 392              		.loc 1 276 0
 393              		.cfi_startproc
 394              		@ args = 0, pretend = 0, frame = 0
 395              		@ frame_needed = 0, uses_anonymous_args = 0
 396              	.LVL29:
 397 0000 10B5     		push	{r4, lr}
 398              		.cfi_def_cfa_offset 8
 399              		.cfi_offset 4, -8
ARM GAS  /tmp/cc1d7Rw9.s 			page 8


 400              		.cfi_offset 14, -4
 401              		.loc 1 276 0
 402 0002 0446     		mov	r4, r0
 403              		.loc 1 279 0
 404 0004 FFF7FEFF 		bl	chSemWaitTimeoutS
 405              	.LVL30:
 406              		.loc 1 280 0
 407 0008 28B9     		cbnz	r0, .L18
 408              		.loc 1 284 0
 409 000a 04F10C00 		add	r0, r4, #12
 410              	.LVL31:
 411              		.loc 1 285 0
 412 000e BDE81040 		pop	{r4, lr}
 413              		.cfi_remember_state
 414              		.cfi_restore 14
 415              		.cfi_restore 4
 416              		.cfi_def_cfa_offset 0
 417              	.LVL32:
 418              		.loc 1 284 0
 419 0012 FFF7FEBF 		b	chPoolAllocI
 420              	.LVL33:
 421              	.L18:
 422              		.cfi_restore_state
 423              		.loc 1 285 0
 424 0016 0020     		movs	r0, #0
 425              	.LVL34:
 426 0018 10BD     		pop	{r4, pc}
 427              		.cfi_endproc
 428              	.LFE298:
 429              		.size	chGuardedPoolAllocTimeoutS, .-chGuardedPoolAllocTimeoutS
 430              		.section	.text.chGuardedPoolAllocTimeout,"ax",%progbits
 431              		.align	1
 432              		.global	chGuardedPoolAllocTimeout
 433              		.thumb
 434              		.thumb_func
 435              		.type	chGuardedPoolAllocTimeout, %function
 436              	chGuardedPoolAllocTimeout:
 437              	.LFB299:
 438              		.loc 1 303 0
 439              		.cfi_startproc
 440              		@ args = 0, pretend = 0, frame = 0
 441              		@ frame_needed = 0, uses_anonymous_args = 0
 442              	.LVL35:
 443 0000 38B5     		push	{r3, r4, r5, lr}
 444              		.cfi_def_cfa_offset 16
 445              		.cfi_offset 3, -16
 446              		.cfi_offset 4, -12
 447              		.cfi_offset 5, -8
 448              		.cfi_offset 14, -4
 449              		.loc 1 303 0
 450 0002 0446     		mov	r4, r0
 451 0004 0D46     		mov	r5, r1
 452              	.LBB89:
 453              	.LBB90:
 454              	.LBB91:
 455              	.LBB92:
 456              	.LBB93:
ARM GAS  /tmp/cc1d7Rw9.s 			page 9


 457              		.loc 2 493 0
 458 0006 2023     		movs	r3, #32
 459              		.syntax unified
 460              	@ 493 "../../modules/ChibiOS/os/common/ext/ARM/CMSIS/Core/Include/cmsis_gcc.h" 1
 461 0008 83F31188 		MSR basepri, r3
 462              	@ 0 "" 2
 463              	.LVL36:
 464              		.thumb
 465              		.syntax unified
 466              	.LBE93:
 467              	.LBE92:
 468              	.LBE91:
 469              		.loc 3 356 0
 470 000c FFF7FEFF 		bl	_stats_start_measure_crit_thd
 471              	.LVL37:
 472              	.LBE90:
 473              	.LBE89:
 474              		.loc 1 307 0
 475 0010 2946     		mov	r1, r5
 476 0012 2046     		mov	r0, r4
 477 0014 FFF7FEFF 		bl	chGuardedPoolAllocTimeoutS
 478              	.LVL38:
 479 0018 0446     		mov	r4, r0
 480              	.LVL39:
 481              	.LBB94:
 482              	.LBB95:
 483              		.loc 3 368 0
 484 001a FFF7FEFF 		bl	_stats_stop_measure_crit_thd
 485              	.LVL40:
 486              	.LBB96:
 487              	.LBB97:
 488              	.LBB98:
 489              		.loc 2 493 0
 490 001e 0023     		movs	r3, #0
 491              		.syntax unified
 492              	@ 493 "../../modules/ChibiOS/os/common/ext/ARM/CMSIS/Core/Include/cmsis_gcc.h" 1
 493 0020 83F31188 		MSR basepri, r3
 494              	@ 0 "" 2
 495              	.LVL41:
 496              		.thumb
 497              		.syntax unified
 498              	.LBE98:
 499              	.LBE97:
 500              	.LBE96:
 501              	.LBE95:
 502              	.LBE94:
 503              		.loc 1 311 0
 504 0024 2046     		mov	r0, r4
 505 0026 38BD     		pop	{r3, r4, r5, pc}
 506              		.cfi_endproc
 507              	.LFE299:
 508              		.size	chGuardedPoolAllocTimeout, .-chGuardedPoolAllocTimeout
 509              		.section	.text.chGuardedPoolFree,"ax",%progbits
 510              		.align	1
 511              		.global	chGuardedPoolFree
 512              		.thumb
 513              		.thumb_func
ARM GAS  /tmp/cc1d7Rw9.s 			page 10


 514              		.type	chGuardedPoolFree, %function
 515              	chGuardedPoolFree:
 516              	.LFB300:
 517              		.loc 1 325 0
 518              		.cfi_startproc
 519              		@ args = 0, pretend = 0, frame = 0
 520              		@ frame_needed = 0, uses_anonymous_args = 0
 521              	.LVL42:
 522 0000 38B5     		push	{r3, r4, r5, lr}
 523              		.cfi_def_cfa_offset 16
 524              		.cfi_offset 3, -16
 525              		.cfi_offset 4, -12
 526              		.cfi_offset 5, -8
 527              		.cfi_offset 14, -4
 528              		.loc 1 325 0
 529 0002 0446     		mov	r4, r0
 530 0004 0D46     		mov	r5, r1
 531              	.LBB113:
 532              	.LBB114:
 533              	.LBB115:
 534              	.LBB116:
 535              	.LBB117:
 536              		.loc 2 493 0
 537 0006 2023     		movs	r3, #32
 538              		.syntax unified
 539              	@ 493 "../../modules/ChibiOS/os/common/ext/ARM/CMSIS/Core/Include/cmsis_gcc.h" 1
 540 0008 83F31188 		MSR basepri, r3
 541              	@ 0 "" 2
 542              	.LVL43:
 543              		.thumb
 544              		.syntax unified
 545              	.LBE117:
 546              	.LBE116:
 547              	.LBE115:
 548              		.loc 3 356 0
 549 000c FFF7FEFF 		bl	_stats_start_measure_crit_thd
 550              	.LVL44:
 551              	.LBE114:
 552              	.LBE113:
 553              	.LBB118:
 554              	.LBB119:
 555              	.LBB120:
 556              	.LBB121:
 557              		.loc 1 191 0
 558 0010 E368     		ldr	r3, [r4, #12]
 559 0012 2B60     		str	r3, [r5]
 560              	.LBE121:
 561              	.LBE120:
 562              		.loc 4 288 0
 563 0014 2046     		mov	r0, r4
 564              	.LBB123:
 565              	.LBB122:
 566              		.loc 1 192 0
 567 0016 E560     		str	r5, [r4, #12]
 568              	.LVL45:
 569              	.LBE122:
 570              	.LBE123:
ARM GAS  /tmp/cc1d7Rw9.s 			page 11


 571              		.loc 4 288 0
 572 0018 FFF7FEFF 		bl	chSemSignalI
 573              	.LVL46:
 574              	.LBE119:
 575              	.LBE118:
 576              		.loc 1 329 0
 577 001c FFF7FEFF 		bl	chSchRescheduleS
 578              	.LVL47:
 579              	.LBB124:
 580              	.LBB125:
 581              		.loc 3 368 0
 582 0020 FFF7FEFF 		bl	_stats_stop_measure_crit_thd
 583              	.LVL48:
 584              	.LBB126:
 585              	.LBB127:
 586              	.LBB128:
 587              		.loc 2 493 0
 588 0024 0023     		movs	r3, #0
 589              		.syntax unified
 590              	@ 493 "../../modules/ChibiOS/os/common/ext/ARM/CMSIS/Core/Include/cmsis_gcc.h" 1
 591 0026 83F31188 		MSR basepri, r3
 592              	@ 0 "" 2
 593              	.LVL49:
 594              		.thumb
 595              		.syntax unified
 596 002a 38BD     		pop	{r3, r4, r5, pc}
 597              	.LBE128:
 598              	.LBE127:
 599              	.LBE126:
 600              	.LBE125:
 601              	.LBE124:
 602              		.cfi_endproc
 603              	.LFE300:
 604              		.size	chGuardedPoolFree, .-chGuardedPoolFree
 605              		.section	.text.chGuardedPoolLoadArray,"ax",%progbits
 606              		.align	1
 607              		.global	chGuardedPoolLoadArray
 608              		.thumb
 609              		.thumb_func
 610              		.type	chGuardedPoolLoadArray, %function
 611              	chGuardedPoolLoadArray:
 612              	.LFB297:
 613              		.loc 1 247 0
 614              		.cfi_startproc
 615              		@ args = 0, pretend = 0, frame = 0
 616              		@ frame_needed = 0, uses_anonymous_args = 0
 617              	.LVL50:
 618 0000 70B5     		push	{r4, r5, r6, lr}
 619              		.cfi_def_cfa_offset 16
 620              		.cfi_offset 4, -16
 621              		.cfi_offset 5, -12
 622              		.cfi_offset 6, -8
 623              		.cfi_offset 14, -4
 624 0002 0646     		mov	r6, r0
 625 0004 0D46     		mov	r5, r1
 626 0006 1446     		mov	r4, r2
 627              	.LVL51:
ARM GAS  /tmp/cc1d7Rw9.s 			page 12


 628              	.L22:
 629              		.loc 1 251 0
 630 0008 3CB1     		cbz	r4, .L24
 631              	.LVL52:
 632              	.LBB129:
 633              	.LBB130:
 634              		.loc 4 325 0
 635 000a 2946     		mov	r1, r5
 636 000c 3046     		mov	r0, r6
 637 000e FFF7FEFF 		bl	chGuardedPoolFree
 638              	.LVL53:
 639              	.LBE130:
 640              	.LBE129:
 641              		.loc 1 254 0
 642 0012 3369     		ldr	r3, [r6, #16]
 643              		.loc 1 256 0
 644 0014 013C     		subs	r4, r4, #1
 645              	.LVL54:
 646              		.loc 1 254 0
 647 0016 1D44     		add	r5, r5, r3
 648              	.LVL55:
 649 0018 F6E7     		b	.L22
 650              	.L24:
 651              		.loc 1 258 0
 652 001a 70BD     		pop	{r4, r5, r6, pc}
 653              		.cfi_endproc
 654              	.LFE297:
 655              		.size	chGuardedPoolLoadArray, .-chGuardedPoolLoadArray
 656              		.text
 657              	.Letext0:
 658              		.file 5 "/usr/lib/gcc/arm-none-eabi/5.4.1/include/stddef.h"
 659              		.file 6 "/usr/include/newlib/machine/_default_types.h"
 660              		.file 7 "/usr/include/newlib/sys/_stdint.h"
 661              		.file 8 "../../modules/ChibiOS/os/common/ports/ARMCMx/compilers/GCC/chtypes.h"
 662              		.file 9 "../../modules/ChibiOS/os/rt/include/chsystypes.h"
 663              		.file 10 "../../modules/ChibiOS/os/rt/include/chschd.h"
 664              		.file 11 "../../modules/ChibiOS/os/rt/include/chtime.h"
 665              		.file 12 "../../modules/ChibiOS/os/common/ports/ARMCMx/chcore.h"
 666              		.file 13 "../../modules/ChibiOS/os/common/ports/ARMCMx/chcore_v7m.h"
 667              		.file 14 "../../modules/ChibiOS/os/rt/include/chtm.h"
 668              		.file 15 "../../modules/ChibiOS/os/rt/include/chstats.h"
 669              		.file 16 "../../modules/ChibiOS/os/rt/include/chsem.h"
 670              		.file 17 "../../modules/ChibiOS/os/rt/include/chmtx.h"
 671              		.file 18 "../../modules/ChibiOS/os/oslib/include/chmemcore.h"
 672              		.file 19 "../../modules/ChibiOS/os/common/ext/ARM/CMSIS/Core/Include/core_cm4.h"