ARM GAS  /tmp/ccM77DX0.s 			page 1


   1              		.syntax unified
   2              		.cpu cortex-m4
   3              		.eabi_attribute 27, 1
   4              		.eabi_attribute 28, 1
   5              		.fpu fpv4-sp-d16
   6              		.eabi_attribute 20, 1
   7              		.eabi_attribute 21, 1
   8              		.eabi_attribute 23, 3
   9              		.eabi_attribute 24, 1
  10              		.eabi_attribute 25, 1
  11              		.eabi_attribute 26, 1
  12              		.eabi_attribute 30, 4
  13              		.eabi_attribute 34, 1
  14              		.eabi_attribute 18, 4
  15              		.thumb
  16              		.syntax unified
  17              		.file	"chregistry.c"
  18              		.text
  19              	.Ltext0:
  20              		.cfi_sections	.debug_frame
  21              		.section	.text.chRegFirstThread,"ax",%progbits
  22              		.align	1
  23              		.global	chRegFirstThread
  24              		.thumb
  25              		.thumb_func
  26              		.type	chRegFirstThread, %function
  27              	chRegFirstThread:
  28              	.LFB290:
  29              		.file 1 "../../modules/ChibiOS/os/rt/src/chregistry.c"
  30              		.loc 1 134 0
  31              		.cfi_startproc
  32              		@ args = 0, pretend = 0, frame = 0
  33              		@ frame_needed = 0, uses_anonymous_args = 0
  34              	.LVL0:
  35 0000 10B5     		push	{r4, lr}
  36              		.cfi_def_cfa_offset 8
  37              		.cfi_offset 4, -8
  38              		.cfi_offset 14, -4
  39              	.LBB28:
  40              	.LBB29:
  41              	.LBB30:
  42              	.LBB31:
  43              	.LBB32:
  44              		.file 2 "../../modules/ChibiOS/os/common/ext/ARM/CMSIS/Core/Include/cmsis_gcc.h"
  45              		.loc 2 493 0
  46 0002 2023     		movs	r3, #32
  47              		.syntax unified
  48              	@ 493 "../../modules/ChibiOS/os/common/ext/ARM/CMSIS/Core/Include/cmsis_gcc.h" 1
  49 0004 83F31188 		MSR basepri, r3
  50              	@ 0 "" 2
  51              	.LVL1:
  52              		.thumb
  53              		.syntax unified
  54              	.LBE32:
  55              	.LBE31:
  56              	.LBE30:
  57              		.file 3 "../../modules/ChibiOS/os/rt/include/chsys.h"
ARM GAS  /tmp/ccM77DX0.s 			page 2


  58              		.loc 3 356 0
  59 0008 FFF7FEFF 		bl	_stats_start_measure_crit_thd
  60              	.LVL2:
  61              	.LBE29:
  62              	.LBE28:
  63              		.loc 1 138 0
  64 000c 064B     		ldr	r3, .L2
  65 000e 1C69     		ldr	r4, [r3, #16]
  66              	.LVL3:
  67              		.loc 1 140 0
  68 0010 94F82230 		ldrb	r3, [r4, #34]	@ zero_extendqisi2
  69 0014 0133     		adds	r3, r3, #1
  70 0016 84F82230 		strb	r3, [r4, #34]
  71              	.LBB33:
  72              	.LBB34:
  73              		.loc 3 368 0
  74 001a FFF7FEFF 		bl	_stats_stop_measure_crit_thd
  75              	.LVL4:
  76              	.LBB35:
  77              	.LBB36:
  78              	.LBB37:
  79              		.loc 2 493 0
  80 001e 0023     		movs	r3, #0
  81              		.syntax unified
  82              	@ 493 "../../modules/ChibiOS/os/common/ext/ARM/CMSIS/Core/Include/cmsis_gcc.h" 1
  83 0020 83F31188 		MSR basepri, r3
  84              	@ 0 "" 2
  85              	.LVL5:
  86              		.thumb
  87              		.syntax unified
  88              	.LBE37:
  89              	.LBE36:
  90              	.LBE35:
  91              	.LBE34:
  92              	.LBE33:
  93              		.loc 1 145 0
  94 0024 2046     		mov	r0, r4
  95 0026 10BD     		pop	{r4, pc}
  96              	.LVL6:
  97              	.L3:
  98              		.align	2
  99              	.L2:
 100 0028 00000000 		.word	ch
 101              		.cfi_endproc
 102              	.LFE290:
 103              		.size	chRegFirstThread, .-chRegFirstThread
 104              		.section	.text.chRegNextThread,"ax",%progbits
 105              		.align	1
 106              		.global	chRegNextThread
 107              		.thumb
 108              		.thumb_func
 109              		.type	chRegNextThread, %function
 110              	chRegNextThread:
 111              	.LFB291:
 112              		.loc 1 158 0
 113              		.cfi_startproc
 114              		@ args = 0, pretend = 0, frame = 0
ARM GAS  /tmp/ccM77DX0.s 			page 3


 115              		@ frame_needed = 0, uses_anonymous_args = 0
 116              	.LVL7:
 117 0000 38B5     		push	{r3, r4, r5, lr}
 118              		.cfi_def_cfa_offset 16
 119              		.cfi_offset 3, -16
 120              		.cfi_offset 4, -12
 121              		.cfi_offset 5, -8
 122              		.cfi_offset 14, -4
 123              		.loc 1 158 0
 124 0002 0546     		mov	r5, r0
 125              	.LBB48:
 126              	.LBB49:
 127              	.LBB50:
 128              	.LBB51:
 129              	.LBB52:
 130              		.loc 2 493 0
 131 0004 2023     		movs	r3, #32
 132              		.syntax unified
 133              	@ 493 "../../modules/ChibiOS/os/common/ext/ARM/CMSIS/Core/Include/cmsis_gcc.h" 1
 134 0006 83F31188 		MSR basepri, r3
 135              	@ 0 "" 2
 136              	.LVL8:
 137              		.thumb
 138              		.syntax unified
 139              	.LBE52:
 140              	.LBE51:
 141              	.LBE50:
 142              		.loc 3 356 0
 143 000a FFF7FEFF 		bl	_stats_start_measure_crit_thd
 144              	.LVL9:
 145              	.LBE49:
 146              	.LBE48:
 147              		.loc 1 162 0
 148 000e 2C69     		ldr	r4, [r5, #16]
 149              	.LVL10:
 150              		.loc 1 164 0
 151 0010 094B     		ldr	r3, .L7
 152 0012 9C42     		cmp	r4, r3
 153              		.loc 1 171 0
 154 0014 1DBF     		ittte	ne
 155 0016 94F82230 		ldrbne	r3, [r4, #34]	@ zero_extendqisi2
 156 001a 0133     		addne	r3, r3, #1
 157 001c 84F82230 		strbne	r3, [r4, #34]
 158              		.loc 1 166 0
 159 0020 0024     		moveq	r4, #0
 160              	.LVL11:
 161              	.LBB53:
 162              	.LBB54:
 163              		.loc 3 368 0
 164 0022 FFF7FEFF 		bl	_stats_stop_measure_crit_thd
 165              	.LVL12:
 166              	.LBB55:
 167              	.LBB56:
 168              	.LBB57:
 169              		.loc 2 493 0
 170 0026 0023     		movs	r3, #0
 171              		.syntax unified
ARM GAS  /tmp/ccM77DX0.s 			page 4


 172              	@ 493 "../../modules/ChibiOS/os/common/ext/ARM/CMSIS/Core/Include/cmsis_gcc.h" 1
 173 0028 83F31188 		MSR basepri, r3
 174              	@ 0 "" 2
 175              	.LVL13:
 176              		.thumb
 177              		.syntax unified
 178              	.LBE57:
 179              	.LBE56:
 180              	.LBE55:
 181              	.LBE54:
 182              	.LBE53:
 183              		.loc 1 176 0
 184 002c 2846     		mov	r0, r5
 185 002e FFF7FEFF 		bl	chThdRelease
 186              	.LVL14:
 187              		.loc 1 180 0
 188 0032 2046     		mov	r0, r4
 189 0034 38BD     		pop	{r3, r4, r5, pc}
 190              	.LVL15:
 191              	.L8:
 192 0036 00BF     		.align	2
 193              	.L7:
 194 0038 00000000 		.word	ch
 195              		.cfi_endproc
 196              	.LFE291:
 197              		.size	chRegNextThread, .-chRegNextThread
 198              		.section	.text.chRegFindThreadByName,"ax",%progbits
 199              		.align	1
 200              		.global	chRegFindThreadByName
 201              		.thumb
 202              		.thumb_func
 203              		.type	chRegFindThreadByName, %function
 204              	chRegFindThreadByName:
 205              	.LFB292:
 206              		.loc 1 194 0
 207              		.cfi_startproc
 208              		@ args = 0, pretend = 0, frame = 0
 209              		@ frame_needed = 0, uses_anonymous_args = 0
 210              	.LVL16:
 211 0000 38B5     		push	{r3, r4, r5, lr}
 212              		.cfi_def_cfa_offset 16
 213              		.cfi_offset 3, -16
 214              		.cfi_offset 4, -12
 215              		.cfi_offset 5, -8
 216              		.cfi_offset 14, -4
 217              		.loc 1 194 0
 218 0002 0546     		mov	r5, r0
 219              		.loc 1 198 0
 220 0004 FFF7FEFF 		bl	chRegFirstThread
 221              	.LVL17:
 222 0008 0446     		mov	r4, r0
 223              	.LVL18:
 224              	.L11:
 225              		.loc 1 200 0
 226 000a 2946     		mov	r1, r5
 227 000c A069     		ldr	r0, [r4, #24]
 228              	.LVL19:
ARM GAS  /tmp/ccM77DX0.s 			page 5


 229 000e FFF7FEFF 		bl	strcmp
 230              	.LVL20:
 231 0012 28B1     		cbz	r0, .L10
 232              		.loc 1 203 0
 233 0014 2046     		mov	r0, r4
 234 0016 FFF7FEFF 		bl	chRegNextThread
 235              	.LVL21:
 236              		.loc 1 204 0
 237 001a 0446     		mov	r4, r0
 238              	.LVL22:
 239 001c 0028     		cmp	r0, #0
 240 001e F4D1     		bne	.L11
 241              	.LVL23:
 242              	.L10:
 243              		.loc 1 207 0
 244 0020 2046     		mov	r0, r4
 245 0022 38BD     		pop	{r3, r4, r5, pc}
 246              		.cfi_endproc
 247              	.LFE292:
 248              		.size	chRegFindThreadByName, .-chRegFindThreadByName
 249              		.section	.text.chRegFindThreadByPointer,"ax",%progbits
 250              		.align	1
 251              		.global	chRegFindThreadByPointer
 252              		.thumb
 253              		.thumb_func
 254              		.type	chRegFindThreadByPointer, %function
 255              	chRegFindThreadByPointer:
 256              	.LFB293:
 257              		.loc 1 221 0
 258              		.cfi_startproc
 259              		@ args = 0, pretend = 0, frame = 0
 260              		@ frame_needed = 0, uses_anonymous_args = 0
 261              	.LVL24:
 262 0000 10B5     		push	{r4, lr}
 263              		.cfi_def_cfa_offset 8
 264              		.cfi_offset 4, -8
 265              		.cfi_offset 14, -4
 266              		.loc 1 221 0
 267 0002 0446     		mov	r4, r0
 268              		.loc 1 225 0
 269 0004 FFF7FEFF 		bl	chRegFirstThread
 270              	.LVL25:
 271              	.L18:
 272              		.loc 1 227 0
 273 0008 A042     		cmp	r0, r4
 274 000a 03D0     		beq	.L17
 275              		.loc 1 230 0
 276 000c FFF7FEFF 		bl	chRegNextThread
 277              	.LVL26:
 278              		.loc 1 231 0
 279 0010 0028     		cmp	r0, #0
 280 0012 F9D1     		bne	.L18
 281              	.L17:
 282              		.loc 1 234 0
 283 0014 10BD     		pop	{r4, pc}
 284              		.cfi_endproc
 285              	.LFE293:
ARM GAS  /tmp/ccM77DX0.s 			page 6


 286              		.size	chRegFindThreadByPointer, .-chRegFindThreadByPointer
 287              		.section	.text.chRegFindThreadByWorkingArea,"ax",%progbits
 288              		.align	1
 289              		.global	chRegFindThreadByWorkingArea
 290              		.thumb
 291              		.thumb_func
 292              		.type	chRegFindThreadByWorkingArea, %function
 293              	chRegFindThreadByWorkingArea:
 294              	.LFB294:
 295              		.loc 1 250 0
 296              		.cfi_startproc
 297              		@ args = 0, pretend = 0, frame = 0
 298              		@ frame_needed = 0, uses_anonymous_args = 0
 299              	.LVL27:
 300 0000 10B5     		push	{r4, lr}
 301              		.cfi_def_cfa_offset 8
 302              		.cfi_offset 4, -8
 303              		.cfi_offset 14, -4
 304              		.loc 1 250 0
 305 0002 0446     		mov	r4, r0
 306              		.loc 1 254 0
 307 0004 FFF7FEFF 		bl	chRegFirstThread
 308              	.LVL28:
 309              	.L23:
 310              		.loc 1 256 0
 311 0008 C369     		ldr	r3, [r0, #28]
 312 000a 9C42     		cmp	r4, r3
 313 000c 03D0     		beq	.L22
 314              		.loc 1 259 0
 315 000e FFF7FEFF 		bl	chRegNextThread
 316              	.LVL29:
 317              		.loc 1 260 0
 318 0012 0028     		cmp	r0, #0
 319 0014 F8D1     		bne	.L23
 320              	.L22:
 321              		.loc 1 263 0
 322 0016 10BD     		pop	{r4, pc}
 323              		.cfi_endproc
 324              	.LFE294:
 325              		.size	chRegFindThreadByWorkingArea, .-chRegFindThreadByWorkingArea
 326              		.global	ch_debug
 327              		.section	.rodata.ch_debug,"a",%progbits
 328              		.align	1
 329              		.type	ch_debug, %object
 330              		.size	ch_debug, 22
 331              	ch_debug:
 332 0000 6D       		.byte	109
 333 0001 61       		.byte	97
 334 0002 69       		.byte	105
 335 0003 6E       		.byte	110
 336 0004 00       		.byte	0
 337 0005 16       		.byte	22
 338 0006 0030     		.short	12288
 339 0008 04       		.byte	4
 340 0009 04       		.byte	4
 341 000a 60       		.byte	96
 342 000b 08       		.byte	8
ARM GAS  /tmp/ccM77DX0.s 			page 7


 343 000c 0C       		.byte	12
 344 000d 10       		.byte	16
 345 000e 14       		.byte	20
 346 000f 18       		.byte	24
 347 0010 1C       		.byte	28
 348 0011 20       		.byte	32
 349 0012 21       		.byte	33
 350 0013 22       		.byte	34
 351 0014 00       		.byte	0
 352 0015 00       		.byte	0
 353              		.text
 354              	.Letext0:
 355              		.file 4 "/usr/lib/gcc/arm-none-eabi/5.4.1/include/stddef.h"
 356              		.file 5 "/usr/include/newlib/machine/_default_types.h"
 357              		.file 6 "/usr/include/newlib/sys/_stdint.h"
 358              		.file 7 "../../modules/ChibiOS/os/common/ports/ARMCMx/compilers/GCC/chtypes.h"
 359              		.file 8 "../../modules/ChibiOS/os/rt/include/chsystypes.h"
 360              		.file 9 "../../modules/ChibiOS/os/rt/include/chschd.h"
 361              		.file 10 "../../modules/ChibiOS/os/rt/include/chtime.h"
 362              		.file 11 "../../modules/ChibiOS/os/common/ports/ARMCMx/chcore.h"
 363              		.file 12 "../../modules/ChibiOS/os/common/ports/ARMCMx/chcore_v7m.h"
 364              		.file 13 "../../modules/ChibiOS/os/rt/include/chtm.h"
 365              		.file 14 "../../modules/ChibiOS/os/rt/include/chstats.h"
 366              		.file 15 "../../modules/ChibiOS/os/rt/include/chsem.h"
 367              		.file 16 "../../modules/ChibiOS/os/rt/include/chmtx.h"
 368              		.file 17 "../../modules/ChibiOS/os/rt/include/chregistry.h"
 369              		.file 18 "../../modules/ChibiOS/os/rt/include/chthreads.h"
 370              		.file 19 "../../modules/ChibiOS/os/common/ext/ARM/CMSIS/Core/Include/core_cm4.h"
 371              		.file 20 "/usr/include/newlib/string.h"