ARM GAS  /tmp/ccCanYG8.s 			page 1


   1              		.syntax unified
   2              		.cpu cortex-m4
   3              		.eabi_attribute 27, 1
   4              		.eabi_attribute 28, 1
   5              		.fpu fpv4-sp-d16
   6              		.eabi_attribute 20, 1
   7              		.eabi_attribute 21, 1
   8              		.eabi_attribute 23, 3
   9              		.eabi_attribute 24, 1
  10              		.eabi_attribute 25, 1
  11              		.eabi_attribute 26, 1
  12              		.eabi_attribute 30, 4
  13              		.eabi_attribute 34, 1
  14              		.eabi_attribute 18, 4
  15              		.thumb
  16              		.syntax unified
  17              		.file	"chschd.c"
  18              		.text
  19              	.Ltext0:
  20              		.cfi_sections	.debug_frame
  21              		.section	.text._scheduler_init,"ax",%progbits
  22              		.align	1
  23              		.global	_scheduler_init
  24              		.thumb
  25              		.thumb_func
  26              		.type	_scheduler_init, %function
  27              	_scheduler_init:
  28              	.LFB290:
  29              		.file 1 "../../modules/ChibiOS/os/rt/src/chschd.c"
  30              		.loc 1 65 0
  31              		.cfi_startproc
  32              		@ args = 0, pretend = 0, frame = 0
  33              		@ frame_needed = 0, uses_anonymous_args = 0
  34              		@ link register save eliminated.
  35              	.LVL0:
  36              	.LBB39:
  37              	.LBB40:
  38              		.file 2 "../../modules/ChibiOS/os/rt/include/chschd.h"
  39              		.loc 2 539 0
  40 0000 034B     		ldr	r3, .L2
  41              	.LBE40:
  42              	.LBE39:
  43              		.loc 1 68 0
  44 0002 0022     		movs	r2, #0
  45              	.LBB42:
  46              	.LBB41:
  47              		.loc 2 539 0
  48 0004 1B60     		str	r3, [r3]
  49              		.loc 2 540 0
  50 0006 5B60     		str	r3, [r3, #4]
  51              	.LVL1:
  52              	.LBE41:
  53              	.LBE42:
  54              		.loc 1 68 0
  55 0008 9A60     		str	r2, [r3, #8]
  56              		.loc 1 70 0
  57 000a 1B61     		str	r3, [r3, #16]
ARM GAS  /tmp/ccCanYG8.s 			page 2


  58              		.loc 1 71 0
  59 000c 5B61     		str	r3, [r3, #20]
  60 000e 7047     		bx	lr
  61              	.L3:
  62              		.align	2
  63              	.L2:
  64 0010 00000000 		.word	.LANCHOR0
  65              		.cfi_endproc
  66              	.LFE290:
  67              		.size	_scheduler_init, .-_scheduler_init
  68              		.section	.text.chSchReadyI,"ax",%progbits
  69              		.align	1
  70              		.global	chSchReadyI
  71              		.thumb
  72              		.thumb_func
  73              		.type	chSchReadyI, %function
  74              	chSchReadyI:
  75              	.LFB291:
  76              		.loc 1 218 0
  77              		.cfi_startproc
  78              		@ args = 0, pretend = 0, frame = 0
  79              		@ frame_needed = 0, uses_anonymous_args = 0
  80              		@ link register save eliminated.
  81              	.LVL2:
  82              		.loc 1 227 0
  83 0000 0023     		movs	r3, #0
  84 0002 80F82030 		strb	r3, [r0, #32]
  85              	.LVL3:
  86              		.loc 1 231 0
  87 0006 8268     		ldr	r2, [r0, #8]
  88              		.loc 1 228 0
  89 0008 054B     		ldr	r3, .L8
  90              	.LVL4:
  91              	.L5:
  92              		.loc 1 230 0 discriminator 1
  93 000a 1B68     		ldr	r3, [r3]
  94              	.LVL5:
  95              		.loc 1 231 0 discriminator 1
  96 000c 9968     		ldr	r1, [r3, #8]
  97 000e 9142     		cmp	r1, r2
  98 0010 FBD2     		bcs	.L5
  99              		.loc 1 234 0
 100 0012 5A68     		ldr	r2, [r3, #4]
 101              		.loc 1 233 0
 102 0014 0360     		str	r3, [r0]
 103              		.loc 1 234 0
 104 0016 4260     		str	r2, [r0, #4]
 105              		.loc 1 235 0
 106 0018 1060     		str	r0, [r2]
 107              		.loc 1 236 0
 108 001a 5860     		str	r0, [r3, #4]
 109              		.loc 1 239 0
 110 001c 7047     		bx	lr
 111              	.L9:
 112 001e 00BF     		.align	2
 113              	.L8:
 114 0020 00000000 		.word	.LANCHOR0
ARM GAS  /tmp/ccCanYG8.s 			page 3


 115              		.cfi_endproc
 116              	.LFE291:
 117              		.size	chSchReadyI, .-chSchReadyI
 118              		.section	.text.wakeup,"ax",%progbits
 119              		.align	1
 120              		.thumb
 121              		.thumb_func
 122              		.type	wakeup, %function
 123              	wakeup:
 124              	.LFB294:
 125              		.loc 1 319 0
 126              		.cfi_startproc
 127              		@ args = 0, pretend = 0, frame = 0
 128              		@ frame_needed = 0, uses_anonymous_args = 0
 129              	.LVL6:
 130 0000 38B5     		push	{r3, r4, r5, lr}
 131              		.cfi_def_cfa_offset 16
 132              		.cfi_offset 3, -16
 133              		.cfi_offset 4, -12
 134              		.cfi_offset 5, -8
 135              		.cfi_offset 14, -4
 136              		.loc 1 319 0
 137 0002 0446     		mov	r4, r0
 138              	.LVL7:
 139              	.LBB65:
 140              	.LBB66:
 141              	.LBB67:
 142              	.LBB68:
 143              	.LBB69:
 144              	.LBB70:
 145              		.file 3 "../../modules/ChibiOS/os/common/ext/ARM/CMSIS/Core/Include/cmsis_gcc.h"
 146              		.loc 3 493 0
 147 0004 2023     		movs	r3, #32
 148              		.syntax unified
 149              	@ 493 "../../modules/ChibiOS/os/common/ext/ARM/CMSIS/Core/Include/cmsis_gcc.h" 1
 150 0006 83F31188 		MSR basepri, r3
 151              	@ 0 "" 2
 152              	.LVL8:
 153              		.thumb
 154              		.syntax unified
 155              	.LBE70:
 156              	.LBE69:
 157              	.LBE68:
 158              	.LBE67:
 159              		.file 4 "../../modules/ChibiOS/os/rt/include/chsys.h"
 160              		.loc 4 396 0
 161 000a FFF7FEFF 		bl	_stats_start_measure_crit_isr
 162              	.LVL9:
 163              	.LBE66:
 164              	.LBE65:
 165              		.loc 1 323 0
 166 000e 94F82030 		ldrb	r3, [r4, #32]	@ zero_extendqisi2
 167 0012 0025     		movs	r5, #0
 168 0014 072B     		cmp	r3, #7
 169 0016 16D8     		bhi	.L11
 170 0018 DFE803F0 		tbb	[pc, r3]
 171              	.L13:
ARM GAS  /tmp/ccCanYG8.s 			page 4


 172 001c 04       		.byte	(.L12-.L13)/2
 173 001d 15       		.byte	(.L11-.L13)/2
 174 001e 15       		.byte	(.L11-.L13)/2
 175 001f 09       		.byte	(.L14-.L13)/2
 176 0020 10       		.byte	(.L15-.L13)/2
 177 0021 0C       		.byte	(.L16-.L13)/2
 178 0022 15       		.byte	(.L11-.L13)/2
 179 0023 10       		.byte	(.L15-.L13)/2
 180              		.p2align 1
 181              	.L12:
 182              	.LBB71:
 183              	.LBB72:
 184              		.loc 4 416 0
 185 0024 FFF7FEFF 		bl	_stats_stop_measure_crit_isr
 186              	.LVL10:
 187              	.LBB73:
 188              	.LBB74:
 189              	.LBB75:
 190              	.LBB76:
 191              		.loc 3 493 0
 192              		.syntax unified
 193              	@ 493 "../../modules/ChibiOS/os/common/ext/ARM/CMSIS/Core/Include/cmsis_gcc.h" 1
 194 0028 85F31188 		MSR basepri, r5
 195              	@ 0 "" 2
 196              	.LVL11:
 197              		.thumb
 198              		.syntax unified
 199 002c 38BD     		pop	{r3, r4, r5, pc}
 200              	.LVL12:
 201              	.L14:
 202              	.LBE76:
 203              	.LBE75:
 204              	.LBE74:
 205              	.LBE73:
 206              	.LBE72:
 207              	.LBE71:
 208              		.loc 1 330 0
 209 002e 636A     		ldr	r3, [r4, #36]
 210 0030 1D60     		str	r5, [r3]
 211              		.loc 1 331 0
 212 0032 08E0     		b	.L11
 213              	.L16:
 214              		.loc 1 334 0
 215 0034 626A     		ldr	r2, [r4, #36]
 216              	.LVL13:
 217              	.LBB77:
 218              	.LBB78:
 219              		.file 5 "../../modules/ChibiOS/os/rt/include/chsem.h"
 220              		.loc 5 138 0
 221 0036 9368     		ldr	r3, [r2, #8]
 222 0038 0133     		adds	r3, r3, #1
 223 003a 9360     		str	r3, [r2, #8]
 224              	.LVL14:
 225              	.L15:
 226              	.LBE78:
 227              	.LBE77:
 228              	.LBB79:
ARM GAS  /tmp/ccCanYG8.s 			page 5


 229              	.LBB80:
 230              		.loc 2 626 0
 231 003c 94E80C00 		ldmia	r4, {r2, r3}
 232 0040 1A60     		str	r2, [r3]
 233              		.loc 2 627 0
 234 0042 2268     		ldr	r2, [r4]
 235 0044 5360     		str	r3, [r2, #4]
 236              	.LVL15:
 237              	.L11:
 238              	.LBE80:
 239              	.LBE79:
 240              		.loc 1 349 0
 241 0046 4FF0FF33 		mov	r3, #-1
 242 004a 6362     		str	r3, [r4, #36]
 243              		.loc 1 350 0
 244 004c 2046     		mov	r0, r4
 245 004e FFF7FEFF 		bl	chSchReadyI
 246              	.LVL16:
 247              	.LBB81:
 248              	.LBB82:
 249              		.loc 4 416 0
 250 0052 FFF7FEFF 		bl	_stats_stop_measure_crit_isr
 251              	.LVL17:
 252              	.LBB83:
 253              	.LBB84:
 254              	.LBB85:
 255              	.LBB86:
 256              		.loc 3 493 0
 257 0056 0023     		movs	r3, #0
 258              		.syntax unified
 259              	@ 493 "../../modules/ChibiOS/os/common/ext/ARM/CMSIS/Core/Include/cmsis_gcc.h" 1
 260 0058 83F31188 		MSR basepri, r3
 261              	@ 0 "" 2
 262              	.LVL18:
 263              		.thumb
 264              		.syntax unified
 265 005c 38BD     		pop	{r3, r4, r5, pc}
 266              	.LBE86:
 267              	.LBE85:
 268              	.LBE84:
 269              	.LBE83:
 270              	.LBE82:
 271              	.LBE81:
 272              		.cfi_endproc
 273              	.LFE294:
 274              		.size	wakeup, .-wakeup
 275              		.section	.text.chSchReadyAheadI,"ax",%progbits
 276              		.align	1
 277              		.global	chSchReadyAheadI
 278              		.thumb
 279              		.thumb_func
 280              		.type	chSchReadyAheadI, %function
 281              	chSchReadyAheadI:
 282              	.LFB292:
 283              		.loc 1 257 0
 284              		.cfi_startproc
 285              		@ args = 0, pretend = 0, frame = 0
ARM GAS  /tmp/ccCanYG8.s 			page 6


 286              		@ frame_needed = 0, uses_anonymous_args = 0
 287              		@ link register save eliminated.
 288              	.LVL19:
 289              		.loc 1 266 0
 290 0000 0023     		movs	r3, #0
 291 0002 80F82030 		strb	r3, [r0, #32]
 292              	.LVL20:
 293              		.loc 1 270 0
 294 0006 8268     		ldr	r2, [r0, #8]
 295              		.loc 1 267 0
 296 0008 054B     		ldr	r3, .L21
 297              	.LVL21:
 298              	.L19:
 299              		.loc 1 269 0 discriminator 1
 300 000a 1B68     		ldr	r3, [r3]
 301              	.LVL22:
 302              		.loc 1 270 0 discriminator 1
 303 000c 9968     		ldr	r1, [r3, #8]
 304 000e 9142     		cmp	r1, r2
 305 0010 FBD8     		bhi	.L19
 306              		.loc 1 273 0
 307 0012 5A68     		ldr	r2, [r3, #4]
 308              		.loc 1 272 0
 309 0014 0360     		str	r3, [r0]
 310              		.loc 1 273 0
 311 0016 4260     		str	r2, [r0, #4]
 312              		.loc 1 274 0
 313 0018 1060     		str	r0, [r2]
 314              		.loc 1 275 0
 315 001a 5860     		str	r0, [r3, #4]
 316              		.loc 1 278 0
 317 001c 7047     		bx	lr
 318              	.L22:
 319 001e 00BF     		.align	2
 320              	.L21:
 321 0020 00000000 		.word	.LANCHOR0
 322              		.cfi_endproc
 323              	.LFE292:
 324              		.size	chSchReadyAheadI, .-chSchReadyAheadI
 325              		.section	.text.chSchGoSleepS,"ax",%progbits
 326              		.align	1
 327              		.global	chSchGoSleepS
 328              		.thumb
 329              		.thumb_func
 330              		.type	chSchGoSleepS, %function
 331              	chSchGoSleepS:
 332              	.LFB293:
 333              		.loc 1 289 0
 334              		.cfi_startproc
 335              		@ args = 0, pretend = 0, frame = 0
 336              		@ frame_needed = 0, uses_anonymous_args = 0
 337              	.LVL23:
 338 0000 38B5     		push	{r3, r4, r5, lr}
 339              		.cfi_def_cfa_offset 16
 340              		.cfi_offset 3, -16
 341              		.cfi_offset 4, -12
 342              		.cfi_offset 5, -8
ARM GAS  /tmp/ccCanYG8.s 			page 7


 343              		.cfi_offset 14, -4
 344              		.loc 1 290 0
 345 0002 0A4C     		ldr	r4, .L24
 346 0004 A569     		ldr	r5, [r4, #24]
 347              	.LVL24:
 348              		.loc 1 295 0
 349 0006 85F82000 		strb	r0, [r5, #32]
 350              	.LVL25:
 351              	.LBB87:
 352              	.LBB88:
 353              		.loc 2 607 0
 354 000a 2068     		ldr	r0, [r4]
 355              	.LVL26:
 356              		.loc 2 609 0
 357 000c 0368     		ldr	r3, [r0]
 358 000e 2360     		str	r3, [r4]
 359              		.loc 2 610 0
 360 0010 5C60     		str	r4, [r3, #4]
 361              	.LVL27:
 362              	.LBE88:
 363              	.LBE87:
 364              		.loc 1 305 0
 365 0012 0123     		movs	r3, #1
 366 0014 80F82030 		strb	r3, [r0, #32]
 367              		.loc 1 313 0
 368 0018 2946     		mov	r1, r5
 369              		.loc 1 304 0
 370 001a A061     		str	r0, [r4, #24]
 371              		.loc 1 313 0
 372 001c FFF7FEFF 		bl	_stats_ctxswc
 373              	.LVL28:
 374 0020 2946     		mov	r1, r5
 375 0022 A069     		ldr	r0, [r4, #24]
 376              		.loc 1 314 0
 377 0024 BDE83840 		pop	{r3, r4, r5, lr}
 378              		.cfi_restore 14
 379              		.cfi_restore 5
 380              		.cfi_restore 4
 381              		.cfi_restore 3
 382              		.cfi_def_cfa_offset 0
 383              	.LVL29:
 384              		.loc 1 313 0
 385 0028 FFF7FEBF 		b	_port_switch
 386              	.LVL30:
 387              	.L25:
 388              		.align	2
 389              	.L24:
 390 002c 00000000 		.word	.LANCHOR0
 391              		.cfi_endproc
 392              	.LFE293:
 393              		.size	chSchGoSleepS, .-chSchGoSleepS
 394              		.section	.text.chSchGoSleepTimeoutS,"ax",%progbits
 395              		.align	1
 396              		.global	chSchGoSleepTimeoutS
 397              		.thumb
 398              		.thumb_func
 399              		.type	chSchGoSleepTimeoutS, %function
ARM GAS  /tmp/ccCanYG8.s 			page 8


 400              	chSchGoSleepTimeoutS:
 401              	.LFB295:
 402              		.loc 1 375 0
 403              		.cfi_startproc
 404              		@ args = 0, pretend = 0, frame = 24
 405              		@ frame_needed = 0, uses_anonymous_args = 0
 406              	.LVL31:
 407 0000 30B5     		push	{r4, r5, lr}
 408              		.cfi_def_cfa_offset 12
 409              		.cfi_offset 4, -12
 410              		.cfi_offset 5, -8
 411              		.cfi_offset 14, -4
 412              		.loc 1 379 0
 413 0002 4B1C     		adds	r3, r1, #1
 414              		.loc 1 375 0
 415 0004 87B0     		sub	sp, sp, #28
 416              		.cfi_def_cfa_offset 40
 417              		.loc 1 375 0
 418 0006 0546     		mov	r5, r0
 419 0008 0A4C     		ldr	r4, .L33
 420              		.loc 1 379 0
 421 000a 0DD0     		beq	.L27
 422              	.LBB89:
 423              		.loc 1 382 0
 424 000c A369     		ldr	r3, [r4, #24]
 425 000e 0A4A     		ldr	r2, .L33+4
 426 0010 01A8     		add	r0, sp, #4
 427              	.LVL32:
 428 0012 FFF7FEFF 		bl	chVTDoSetI
 429              	.LVL33:
 430              		.loc 1 383 0
 431 0016 2846     		mov	r0, r5
 432 0018 FFF7FEFF 		bl	chSchGoSleepS
 433              	.LVL34:
 434              		.loc 1 384 0
 435 001c 049B     		ldr	r3, [sp, #16]
 436 001e 2BB1     		cbz	r3, .L29
 437              		.loc 1 385 0
 438 0020 01A8     		add	r0, sp, #4
 439              	.LVL35:
 440 0022 FFF7FEFF 		bl	chVTDoResetI
 441              	.LVL36:
 442 0026 01E0     		b	.L29
 443              	.LVL37:
 444              	.L27:
 445              	.LBE89:
 446              		.loc 1 389 0
 447 0028 FFF7FEFF 		bl	chSchGoSleepS
 448              	.LVL38:
 449              	.L29:
 450              		.loc 1 392 0
 451 002c A369     		ldr	r3, [r4, #24]
 452              		.loc 1 393 0
 453 002e 586A     		ldr	r0, [r3, #36]
 454 0030 07B0     		add	sp, sp, #28
 455              		.cfi_def_cfa_offset 12
 456              		@ sp needed
ARM GAS  /tmp/ccCanYG8.s 			page 9


 457 0032 30BD     		pop	{r4, r5, pc}
 458              	.L34:
 459              		.align	2
 460              	.L33:
 461 0034 00000000 		.word	.LANCHOR0
 462 0038 00000000 		.word	wakeup
 463              		.cfi_endproc
 464              	.LFE295:
 465              		.size	chSchGoSleepTimeoutS, .-chSchGoSleepTimeoutS
 466              		.section	.text.chSchWakeupS,"ax",%progbits
 467              		.align	1
 468              		.global	chSchWakeupS
 469              		.thumb
 470              		.thumb_func
 471              		.type	chSchWakeupS, %function
 472              	chSchWakeupS:
 473              	.LFB296:
 474              		.loc 1 412 0
 475              		.cfi_startproc
 476              		@ args = 0, pretend = 0, frame = 0
 477              		@ frame_needed = 0, uses_anonymous_args = 0
 478              	.LVL39:
 479 0000 70B5     		push	{r4, r5, r6, lr}
 480              		.cfi_def_cfa_offset 16
 481              		.cfi_offset 4, -16
 482              		.cfi_offset 5, -12
 483              		.cfi_offset 6, -8
 484              		.cfi_offset 14, -4
 485              		.loc 1 413 0
 486 0002 0F4E     		ldr	r6, .L37
 487              		.loc 1 423 0
 488 0004 4162     		str	r1, [r0, #36]
 489              		.loc 1 413 0
 490 0006 B369     		ldr	r3, [r6, #24]
 491              	.LVL40:
 492              		.loc 1 429 0
 493 0008 8168     		ldr	r1, [r0, #8]
 494              	.LVL41:
 495 000a 9A68     		ldr	r2, [r3, #8]
 496 000c 9142     		cmp	r1, r2
 497              		.loc 1 412 0
 498 000e 0446     		mov	r4, r0
 499              		.loc 1 429 0
 500 0010 03D8     		bhi	.L36
 501              		.loc 1 447 0
 502 0012 BDE87040 		pop	{r4, r5, r6, lr}
 503              		.cfi_remember_state
 504              		.cfi_restore 14
 505              		.cfi_restore 6
 506              		.cfi_restore 5
 507              		.cfi_restore 4
 508              		.cfi_def_cfa_offset 0
 509              		.loc 1 430 0
 510 0016 FFF7FEBF 		b	chSchReadyI
 511              	.LVL42:
 512              	.L36:
 513              		.cfi_restore_state
ARM GAS  /tmp/ccCanYG8.s 			page 10


 514              		.loc 1 433 0
 515 001a 1846     		mov	r0, r3
 516              	.LVL43:
 517 001c FFF7FEFF 		bl	chSchReadyI
 518              	.LVL44:
 519              		.loc 1 442 0
 520 0020 0123     		movs	r3, #1
 521              		.loc 1 433 0
 522 0022 0546     		mov	r5, r0
 523              	.LVL45:
 524              		.loc 1 445 0
 525 0024 0146     		mov	r1, r0
 526              		.loc 1 442 0
 527 0026 84F82030 		strb	r3, [r4, #32]
 528              		.loc 1 445 0
 529 002a 2046     		mov	r0, r4
 530              	.LVL46:
 531              		.loc 1 441 0
 532 002c B461     		str	r4, [r6, #24]
 533              		.loc 1 445 0
 534 002e FFF7FEFF 		bl	_stats_ctxswc
 535              	.LVL47:
 536 0032 2946     		mov	r1, r5
 537 0034 2046     		mov	r0, r4
 538              		.loc 1 447 0
 539 0036 BDE87040 		pop	{r4, r5, r6, lr}
 540              		.cfi_restore 14
 541              		.cfi_restore 6
 542              		.cfi_restore 5
 543              		.cfi_restore 4
 544              		.cfi_def_cfa_offset 0
 545              	.LVL48:
 546              		.loc 1 445 0
 547 003a FFF7FEBF 		b	_port_switch
 548              	.LVL49:
 549              	.L38:
 550 003e 00BF     		.align	2
 551              	.L37:
 552 0040 00000000 		.word	.LANCHOR0
 553              		.cfi_endproc
 554              	.LFE296:
 555              		.size	chSchWakeupS, .-chSchWakeupS
 556              		.section	.text.chSchIsPreemptionRequired,"ax",%progbits
 557              		.align	1
 558              		.global	chSchIsPreemptionRequired
 559              		.thumb
 560              		.thumb_func
 561              		.type	chSchIsPreemptionRequired, %function
 562              	chSchIsPreemptionRequired:
 563              	.LFB298:
 564              		.loc 1 479 0
 565              		.cfi_startproc
 566              		@ args = 0, pretend = 0, frame = 0
 567              		@ frame_needed = 0, uses_anonymous_args = 0
 568              		@ link register save eliminated.
 569              	.LVL50:
 570              		.loc 1 480 0
ARM GAS  /tmp/ccCanYG8.s 			page 11


 571 0000 044B     		ldr	r3, .L40
 572 0002 1A68     		ldr	r2, [r3]
 573              		.loc 1 481 0
 574 0004 9B69     		ldr	r3, [r3, #24]
 575              		.loc 1 492 0
 576 0006 9068     		ldr	r0, [r2, #8]
 577 0008 9B68     		ldr	r3, [r3, #8]
 578              		.loc 1 494 0
 579 000a 9842     		cmp	r0, r3
 580 000c 94BF     		ite	ls
 581 000e 0020     		movls	r0, #0
 582 0010 0120     		movhi	r0, #1
 583 0012 7047     		bx	lr
 584              	.L41:
 585              		.align	2
 586              	.L40:
 587 0014 00000000 		.word	.LANCHOR0
 588              		.cfi_endproc
 589              	.LFE298:
 590              		.size	chSchIsPreemptionRequired, .-chSchIsPreemptionRequired
 591              		.section	.text.chSchDoRescheduleBehind,"ax",%progbits
 592              		.align	1
 593              		.global	chSchDoRescheduleBehind
 594              		.thumb
 595              		.thumb_func
 596              		.type	chSchDoRescheduleBehind, %function
 597              	chSchDoRescheduleBehind:
 598              	.LFB299:
 599              		.loc 1 507 0
 600              		.cfi_startproc
 601              		@ args = 0, pretend = 0, frame = 0
 602              		@ frame_needed = 0, uses_anonymous_args = 0
 603 0000 38B5     		push	{r3, r4, r5, lr}
 604              		.cfi_def_cfa_offset 16
 605              		.cfi_offset 3, -16
 606              		.cfi_offset 4, -12
 607              		.cfi_offset 5, -8
 608              		.cfi_offset 14, -4
 609              		.loc 1 508 0
 610 0002 0B4C     		ldr	r4, .L43
 611              	.LBB90:
 612              	.LBB91:
 613              		.loc 2 607 0
 614 0004 2368     		ldr	r3, [r4]
 615              	.LBE91:
 616              	.LBE90:
 617              		.loc 1 508 0
 618 0006 A069     		ldr	r0, [r4, #24]
 619              	.LVL51:
 620              	.LBB93:
 621              	.LBB92:
 622              		.loc 2 609 0
 623 0008 1A68     		ldr	r2, [r3]
 624 000a 2260     		str	r2, [r4]
 625              		.loc 2 610 0
 626 000c 5460     		str	r4, [r2, #4]
 627              	.LVL52:
ARM GAS  /tmp/ccCanYG8.s 			page 12


 628              	.LBE92:
 629              	.LBE93:
 630              		.loc 1 512 0
 631 000e 0122     		movs	r2, #1
 632 0010 83F82020 		strb	r2, [r3, #32]
 633              		.loc 1 511 0
 634 0014 A361     		str	r3, [r4, #24]
 635              		.loc 1 525 0
 636 0016 FFF7FEFF 		bl	chSchReadyI
 637              	.LVL53:
 638 001a 0546     		mov	r5, r0
 639              	.LVL54:
 640              		.loc 1 528 0
 641 001c 0146     		mov	r1, r0
 642 001e A069     		ldr	r0, [r4, #24]
 643              	.LVL55:
 644 0020 FFF7FEFF 		bl	_stats_ctxswc
 645              	.LVL56:
 646 0024 2946     		mov	r1, r5
 647 0026 A069     		ldr	r0, [r4, #24]
 648              		.loc 1 529 0
 649 0028 BDE83840 		pop	{r3, r4, r5, lr}
 650              		.cfi_restore 14
 651              		.cfi_restore 5
 652              		.cfi_restore 4
 653              		.cfi_restore 3
 654              		.cfi_def_cfa_offset 0
 655              	.LVL57:
 656              		.loc 1 528 0
 657 002c FFF7FEBF 		b	_port_switch
 658              	.LVL58:
 659              	.L44:
 660              		.align	2
 661              	.L43:
 662 0030 00000000 		.word	.LANCHOR0
 663              		.cfi_endproc
 664              	.LFE299:
 665              		.size	chSchDoRescheduleBehind, .-chSchDoRescheduleBehind
 666              		.section	.text.chSchDoReschedule,"ax",%progbits
 667              		.align	1
 668              		.global	chSchDoReschedule
 669              		.thumb
 670              		.thumb_func
 671              		.type	chSchDoReschedule, %function
 672              	chSchDoReschedule:
 673              	.LFB301:
 674              		.loc 1 570 0
 675              		.cfi_startproc
 676              		@ args = 0, pretend = 0, frame = 0
 677              		@ frame_needed = 0, uses_anonymous_args = 0
 678 0000 38B5     		push	{r3, r4, r5, lr}
 679              		.cfi_def_cfa_offset 16
 680              		.cfi_offset 3, -16
 681              		.cfi_offset 4, -12
 682              		.cfi_offset 5, -8
 683              		.cfi_offset 14, -4
 684              		.loc 1 571 0
ARM GAS  /tmp/ccCanYG8.s 			page 13


 685 0002 0B4C     		ldr	r4, .L46
 686              	.LBB94:
 687              	.LBB95:
 688              		.loc 2 607 0
 689 0004 2368     		ldr	r3, [r4]
 690              	.LBE95:
 691              	.LBE94:
 692              		.loc 1 571 0
 693 0006 A069     		ldr	r0, [r4, #24]
 694              	.LVL59:
 695              	.LBB97:
 696              	.LBB96:
 697              		.loc 2 609 0
 698 0008 1A68     		ldr	r2, [r3]
 699 000a 2260     		str	r2, [r4]
 700              		.loc 2 610 0
 701 000c 5460     		str	r4, [r2, #4]
 702              	.LVL60:
 703              	.LBE96:
 704              	.LBE97:
 705              		.loc 1 575 0
 706 000e 0122     		movs	r2, #1
 707 0010 83F82020 		strb	r2, [r3, #32]
 708              		.loc 1 574 0
 709 0014 A361     		str	r3, [r4, #24]
 710              		.loc 1 602 0
 711 0016 FFF7FEFF 		bl	chSchReadyAheadI
 712              	.LVL61:
 713 001a 0546     		mov	r5, r0
 714              	.LVL62:
 715              		.loc 1 606 0
 716 001c 0146     		mov	r1, r0
 717 001e A069     		ldr	r0, [r4, #24]
 718              	.LVL63:
 719 0020 FFF7FEFF 		bl	_stats_ctxswc
 720              	.LVL64:
 721 0024 2946     		mov	r1, r5
 722 0026 A069     		ldr	r0, [r4, #24]
 723              		.loc 1 607 0
 724 0028 BDE83840 		pop	{r3, r4, r5, lr}
 725              		.cfi_restore 14
 726              		.cfi_restore 5
 727              		.cfi_restore 4
 728              		.cfi_restore 3
 729              		.cfi_def_cfa_offset 0
 730              	.LVL65:
 731              		.loc 1 606 0
 732 002c FFF7FEBF 		b	_port_switch
 733              	.LVL66:
 734              	.L47:
 735              		.align	2
 736              	.L46:
 737 0030 00000000 		.word	.LANCHOR0
 738              		.cfi_endproc
 739              	.LFE301:
 740              		.size	chSchDoReschedule, .-chSchDoReschedule
 741              		.section	.text.chSchRescheduleS,"ax",%progbits
ARM GAS  /tmp/ccCanYG8.s 			page 14


 742              		.align	1
 743              		.global	chSchRescheduleS
 744              		.thumb
 745              		.thumb_func
 746              		.type	chSchRescheduleS, %function
 747              	chSchRescheduleS:
 748              	.LFB297:
 749              		.loc 1 456 0
 750              		.cfi_startproc
 751              		@ args = 0, pretend = 0, frame = 0
 752              		@ frame_needed = 0, uses_anonymous_args = 0
 753              		@ link register save eliminated.
 754              	.LBB100:
 755              	.LBB101:
 756              		.loc 2 648 0
 757 0000 044B     		ldr	r3, .L50
 758 0002 1A68     		ldr	r2, [r3]
 759 0004 9B69     		ldr	r3, [r3, #24]
 760              	.LBE101:
 761              	.LBE100:
 762              		.loc 1 460 0
 763 0006 9268     		ldr	r2, [r2, #8]
 764 0008 9B68     		ldr	r3, [r3, #8]
 765 000a 9A42     		cmp	r2, r3
 766 000c 01D9     		bls	.L48
 767              		.loc 1 461 0
 768 000e FFF7FEBF 		b	chSchDoReschedule
 769              	.LVL67:
 770              	.L48:
 771 0012 7047     		bx	lr
 772              	.L51:
 773              		.align	2
 774              	.L50:
 775 0014 00000000 		.word	.LANCHOR0
 776              		.cfi_endproc
 777              	.LFE297:
 778              		.size	chSchRescheduleS, .-chSchRescheduleS
 779              		.section	.text.chSchDoRescheduleAhead,"ax",%progbits
 780              		.align	1
 781              		.global	chSchDoRescheduleAhead
 782              		.thumb
 783              		.thumb_func
 784              		.type	chSchDoRescheduleAhead, %function
 785              	chSchDoRescheduleAhead:
 786              	.LFB305:
 787              		.cfi_startproc
 788              		@ args = 0, pretend = 0, frame = 0
 789              		@ frame_needed = 0, uses_anonymous_args = 0
 790              		@ link register save eliminated.
 791 0000 FFF7FEBF 		b	chSchDoReschedule
 792              		.cfi_endproc
 793              	.LFE305:
 794              		.size	chSchDoRescheduleAhead, .-chSchDoRescheduleAhead
 795              		.global	ch
 796              		.section	.bss.ch,"aw",%nobits
 797              		.align	3
 798              		.set	.LANCHOR0,. + 0
ARM GAS  /tmp/ccCanYG8.s 			page 15


 799              		.type	ch, %object
 800              		.size	ch, 208
 801              	ch:
 802 0000 00000000 		.space	208
 802      00000000 
 802      00000000 
 802      00000000 
 802      00000000 
 803              		.text
 804              	.Letext0:
 805              		.file 6 "/usr/include/newlib/machine/_default_types.h"
 806              		.file 7 "/usr/include/newlib/sys/_stdint.h"
 807              		.file 8 "../../modules/ChibiOS/os/common/ports/ARMCMx/compilers/GCC/chtypes.h"
 808              		.file 9 "../../modules/ChibiOS/os/rt/include/chsystypes.h"
 809              		.file 10 "../../modules/ChibiOS/os/rt/include/chtime.h"
 810              		.file 11 "../../modules/ChibiOS/os/common/ports/ARMCMx/chcore.h"
 811              		.file 12 "../../modules/ChibiOS/os/common/ports/ARMCMx/chcore_v7m.h"
 812              		.file 13 "../../modules/ChibiOS/os/rt/include/chtm.h"
 813              		.file 14 "../../modules/ChibiOS/os/rt/include/chstats.h"
 814              		.file 15 "../../modules/ChibiOS/os/rt/include/chmtx.h"
 815              		.file 16 "../../modules/ChibiOS/os/rt/include/chvt.h"
 816              		.file 17 "../../modules/ChibiOS/os/common/ext/ARM/CMSIS/Core/Include/core_cm4.h"