ARM GAS  /tmp/cc44xeQe.s 			page 1


   1              		.syntax unified
   2              		.cpu cortex-m4
   3              		.eabi_attribute 27, 1
   4              		.eabi_attribute 28, 1
   5              		.fpu fpv4-sp-d16
   6              		.eabi_attribute 20, 1
   7              		.eabi_attribute 21, 1
   8              		.eabi_attribute 23, 3
   9              		.eabi_attribute 24, 1
  10              		.eabi_attribute 25, 1
  11              		.eabi_attribute 26, 1
  12              		.eabi_attribute 30, 4
  13              		.eabi_attribute 34, 1
  14              		.eabi_attribute 18, 4
  15              		.thumb
  16              		.syntax unified
  17              		.file	"chsem.c"
  18              		.text
  19              	.Ltext0:
  20              		.cfi_sections	.debug_frame
  21              		.section	.text.chSemObjectInit,"ax",%progbits
  22              		.align	1
  23              		.global	chSemObjectInit
  24              		.thumb
  25              		.thumb_func
  26              		.type	chSemObjectInit, %function
  27              	chSemObjectInit:
  28              	.LFB290:
  29              		.file 1 "../../modules/ChibiOS/os/rt/src/chsem.c"
  30              		.loc 1 97 0
  31              		.cfi_startproc
  32              		@ args = 0, pretend = 0, frame = 0
  33              		@ frame_needed = 0, uses_anonymous_args = 0
  34              		@ link register save eliminated.
  35              	.LVL0:
  36              	.LBB38:
  37              	.LBB39:
  38              		.file 2 "../../modules/ChibiOS/os/rt/include/chschd.h"
  39              		.loc 2 539 0
  40 0000 0060     		str	r0, [r0]
  41              		.loc 2 540 0
  42 0002 4060     		str	r0, [r0, #4]
  43              	.LVL1:
  44              	.LBE39:
  45              	.LBE38:
  46              		.loc 1 102 0
  47 0004 8160     		str	r1, [r0, #8]
  48 0006 7047     		bx	lr
  49              		.cfi_endproc
  50              	.LFE290:
  51              		.size	chSemObjectInit, .-chSemObjectInit
  52              		.section	.text.chSemResetI,"ax",%progbits
  53              		.align	1
  54              		.global	chSemResetI
  55              		.thumb
  56              		.thumb_func
  57              		.type	chSemResetI, %function
ARM GAS  /tmp/cc44xeQe.s 			page 2


  58              	chSemResetI:
  59              	.LFB292:
  60              		.loc 1 147 0
  61              		.cfi_startproc
  62              		@ args = 0, pretend = 0, frame = 0
  63              		@ frame_needed = 0, uses_anonymous_args = 0
  64              	.LVL2:
  65 0000 70B5     		push	{r4, r5, r6, lr}
  66              		.cfi_def_cfa_offset 16
  67              		.cfi_offset 4, -16
  68              		.cfi_offset 5, -12
  69              		.cfi_offset 6, -8
  70              		.cfi_offset 14, -4
  71              		.loc 1 156 0
  72 0002 8568     		ldr	r5, [r0, #8]
  73              	.LVL3:
  74              		.loc 1 157 0
  75 0004 8160     		str	r1, [r0, #8]
  76              		.loc 1 147 0
  77 0006 0446     		mov	r4, r0
  78              		.loc 1 159 0
  79 0008 6FF00106 		mvn	r6, #1
  80              	.LVL4:
  81              	.L3:
  82              		.loc 1 158 0
  83 000c 0135     		adds	r5, r5, #1
  84              	.LVL5:
  85 000e 002D     		cmp	r5, #0
  86 0010 07DC     		bgt	.L6
  87              	.LVL6:
  88              	.LBB40:
  89              	.LBB41:
  90              		.loc 2 616 0
  91 0012 6068     		ldr	r0, [r4, #4]
  92              	.LVL7:
  93              		.loc 2 618 0
  94 0014 4368     		ldr	r3, [r0, #4]
  95 0016 6360     		str	r3, [r4, #4]
  96              		.loc 2 619 0
  97 0018 1C60     		str	r4, [r3]
  98              	.LVL8:
  99              	.LBE41:
 100              	.LBE40:
 101              		.loc 1 159 0
 102 001a FFF7FEFF 		bl	chSchReadyI
 103              	.LVL9:
 104 001e 4662     		str	r6, [r0, #36]
 105 0020 F4E7     		b	.L3
 106              	.L6:
 107              		.loc 1 161 0
 108 0022 70BD     		pop	{r4, r5, r6, pc}
 109              		.cfi_endproc
 110              	.LFE292:
 111              		.size	chSemResetI, .-chSemResetI
 112              		.section	.text.chSemReset,"ax",%progbits
 113              		.align	1
 114              		.global	chSemReset
ARM GAS  /tmp/cc44xeQe.s 			page 3


 115              		.thumb
 116              		.thumb_func
 117              		.type	chSemReset, %function
 118              	chSemReset:
 119              	.LFB291:
 120              		.loc 1 120 0
 121              		.cfi_startproc
 122              		@ args = 0, pretend = 0, frame = 0
 123              		@ frame_needed = 0, uses_anonymous_args = 0
 124              	.LVL10:
 125 0000 38B5     		push	{r3, r4, r5, lr}
 126              		.cfi_def_cfa_offset 16
 127              		.cfi_offset 3, -16
 128              		.cfi_offset 4, -12
 129              		.cfi_offset 5, -8
 130              		.cfi_offset 14, -4
 131              		.loc 1 120 0
 132 0002 0446     		mov	r4, r0
 133 0004 0D46     		mov	r5, r1
 134              	.LBB52:
 135              	.LBB53:
 136              	.LBB54:
 137              	.LBB55:
 138              	.LBB56:
 139              		.file 3 "../../modules/ChibiOS/os/common/ext/ARM/CMSIS/Core/Include/cmsis_gcc.h"
 140              		.loc 3 493 0
 141 0006 2023     		movs	r3, #32
 142              		.syntax unified
 143              	@ 493 "../../modules/ChibiOS/os/common/ext/ARM/CMSIS/Core/Include/cmsis_gcc.h" 1
 144 0008 83F31188 		MSR basepri, r3
 145              	@ 0 "" 2
 146              	.LVL11:
 147              		.thumb
 148              		.syntax unified
 149              	.LBE56:
 150              	.LBE55:
 151              	.LBE54:
 152              		.file 4 "../../modules/ChibiOS/os/rt/include/chsys.h"
 153              		.loc 4 356 0
 154 000c FFF7FEFF 		bl	_stats_start_measure_crit_thd
 155              	.LVL12:
 156              	.LBE53:
 157              	.LBE52:
 158              		.loc 1 123 0
 159 0010 2946     		mov	r1, r5
 160 0012 2046     		mov	r0, r4
 161 0014 FFF7FEFF 		bl	chSemResetI
 162              	.LVL13:
 163              		.loc 1 124 0
 164 0018 FFF7FEFF 		bl	chSchRescheduleS
 165              	.LVL14:
 166              	.LBB57:
 167              	.LBB58:
 168              		.loc 4 368 0
 169 001c FFF7FEFF 		bl	_stats_stop_measure_crit_thd
 170              	.LVL15:
 171              	.LBB59:
ARM GAS  /tmp/cc44xeQe.s 			page 4


 172              	.LBB60:
 173              	.LBB61:
 174              		.loc 3 493 0
 175 0020 0023     		movs	r3, #0
 176              		.syntax unified
 177              	@ 493 "../../modules/ChibiOS/os/common/ext/ARM/CMSIS/Core/Include/cmsis_gcc.h" 1
 178 0022 83F31188 		MSR basepri, r3
 179              	@ 0 "" 2
 180              	.LVL16:
 181              		.thumb
 182              		.syntax unified
 183 0026 38BD     		pop	{r3, r4, r5, pc}
 184              	.LBE61:
 185              	.LBE60:
 186              	.LBE59:
 187              	.LBE58:
 188              	.LBE57:
 189              		.cfi_endproc
 190              	.LFE291:
 191              		.size	chSemReset, .-chSemReset
 192              		.section	.text.chSemWaitS,"ax",%progbits
 193              		.align	1
 194              		.global	chSemWaitS
 195              		.thumb
 196              		.thumb_func
 197              		.type	chSemWaitS, %function
 198              	chSemWaitS:
 199              	.LFB294:
 200              		.loc 1 197 0
 201              		.cfi_startproc
 202              		@ args = 0, pretend = 0, frame = 0
 203              		@ frame_needed = 0, uses_anonymous_args = 0
 204              	.LVL17:
 205              		.loc 1 205 0
 206 0000 8368     		ldr	r3, [r0, #8]
 207 0002 013B     		subs	r3, r3, #1
 208 0004 002B     		cmp	r3, #0
 209              		.loc 1 197 0
 210 0006 10B5     		push	{r4, lr}
 211              		.cfi_def_cfa_offset 8
 212              		.cfi_offset 4, -8
 213              		.cfi_offset 14, -4
 214              		.loc 1 205 0
 215 0008 8360     		str	r3, [r0, #8]
 216 000a 0DDA     		bge	.L10
 217              	.LVL18:
 218              	.LBB66:
 219              	.LBB67:
 220              		.loc 1 206 0
 221 000c 074C     		ldr	r4, .L11
 222 000e A369     		ldr	r3, [r4, #24]
 223 0010 5862     		str	r0, [r3, #36]
 224              	.LVL19:
 225              	.LBB68:
 226              	.LBB69:
 227              		.loc 2 601 0
 228 0012 4268     		ldr	r2, [r0, #4]
ARM GAS  /tmp/cc44xeQe.s 			page 5


 229              		.loc 2 600 0
 230 0014 1860     		str	r0, [r3]
 231              		.loc 2 601 0
 232 0016 5A60     		str	r2, [r3, #4]
 233              		.loc 2 602 0
 234 0018 1360     		str	r3, [r2]
 235              		.loc 2 603 0
 236 001a 4360     		str	r3, [r0, #4]
 237              	.LVL20:
 238              	.LBE69:
 239              	.LBE68:
 240              		.loc 1 208 0
 241 001c 0520     		movs	r0, #5
 242              	.LVL21:
 243 001e FFF7FEFF 		bl	chSchGoSleepS
 244              	.LVL22:
 245              		.loc 1 210 0
 246 0022 A369     		ldr	r3, [r4, #24]
 247 0024 586A     		ldr	r0, [r3, #36]
 248              	.LVL23:
 249 0026 10BD     		pop	{r4, pc}
 250              	.LVL24:
 251              	.L10:
 252              	.LBE67:
 253              	.LBE66:
 254              		.loc 1 213 0
 255 0028 0020     		movs	r0, #0
 256              	.LVL25:
 257              		.loc 1 214 0
 258 002a 10BD     		pop	{r4, pc}
 259              	.L12:
 260              		.align	2
 261              	.L11:
 262 002c 00000000 		.word	ch
 263              		.cfi_endproc
 264              	.LFE294:
 265              		.size	chSemWaitS, .-chSemWaitS
 266              		.section	.text.chSemWait,"ax",%progbits
 267              		.align	1
 268              		.global	chSemWait
 269              		.thumb
 270              		.thumb_func
 271              		.type	chSemWait, %function
 272              	chSemWait:
 273              	.LFB293:
 274              		.loc 1 175 0
 275              		.cfi_startproc
 276              		@ args = 0, pretend = 0, frame = 0
 277              		@ frame_needed = 0, uses_anonymous_args = 0
 278              	.LVL26:
 279 0000 10B5     		push	{r4, lr}
 280              		.cfi_def_cfa_offset 8
 281              		.cfi_offset 4, -8
 282              		.cfi_offset 14, -4
 283              	.LBB80:
 284              	.LBB81:
 285              	.LBB82:
ARM GAS  /tmp/cc44xeQe.s 			page 6


 286              	.LBB83:
 287              	.LBB84:
 288              		.loc 3 493 0
 289 0002 2023     		movs	r3, #32
 290              	.LBE84:
 291              	.LBE83:
 292              	.LBE82:
 293              	.LBE81:
 294              	.LBE80:
 295              		.loc 1 175 0
 296 0004 0446     		mov	r4, r0
 297              	.LBB89:
 298              	.LBB88:
 299              	.LBB87:
 300              	.LBB86:
 301              	.LBB85:
 302              		.loc 3 493 0
 303              		.syntax unified
 304              	@ 493 "../../modules/ChibiOS/os/common/ext/ARM/CMSIS/Core/Include/cmsis_gcc.h" 1
 305 0006 83F31188 		MSR basepri, r3
 306              	@ 0 "" 2
 307              	.LVL27:
 308              		.thumb
 309              		.syntax unified
 310              	.LBE85:
 311              	.LBE86:
 312              	.LBE87:
 313              		.loc 4 356 0
 314 000a FFF7FEFF 		bl	_stats_start_measure_crit_thd
 315              	.LVL28:
 316              	.LBE88:
 317              	.LBE89:
 318              		.loc 1 179 0
 319 000e 2046     		mov	r0, r4
 320 0010 FFF7FEFF 		bl	chSemWaitS
 321              	.LVL29:
 322 0014 0446     		mov	r4, r0
 323              	.LVL30:
 324              	.LBB90:
 325              	.LBB91:
 326              		.loc 4 368 0
 327 0016 FFF7FEFF 		bl	_stats_stop_measure_crit_thd
 328              	.LVL31:
 329              	.LBB92:
 330              	.LBB93:
 331              	.LBB94:
 332              		.loc 3 493 0
 333 001a 0023     		movs	r3, #0
 334              		.syntax unified
 335              	@ 493 "../../modules/ChibiOS/os/common/ext/ARM/CMSIS/Core/Include/cmsis_gcc.h" 1
 336 001c 83F31188 		MSR basepri, r3
 337              	@ 0 "" 2
 338              	.LVL32:
 339              		.thumb
 340              		.syntax unified
 341              	.LBE94:
 342              	.LBE93:
ARM GAS  /tmp/cc44xeQe.s 			page 7


 343              	.LBE92:
 344              	.LBE91:
 345              	.LBE90:
 346              		.loc 1 183 0
 347 0020 2046     		mov	r0, r4
 348 0022 10BD     		pop	{r4, pc}
 349              		.cfi_endproc
 350              	.LFE293:
 351              		.size	chSemWait, .-chSemWait
 352              		.section	.text.chSemWaitTimeoutS,"ax",%progbits
 353              		.align	1
 354              		.global	chSemWaitTimeoutS
 355              		.thumb
 356              		.thumb_func
 357              		.type	chSemWaitTimeoutS, %function
 358              	chSemWaitTimeoutS:
 359              	.LFB296:
 360              		.loc 1 264 0
 361              		.cfi_startproc
 362              		@ args = 0, pretend = 0, frame = 0
 363              		@ frame_needed = 0, uses_anonymous_args = 0
 364              		@ link register save eliminated.
 365              	.LVL33:
 366              		.loc 1 272 0
 367 0000 8368     		ldr	r3, [r0, #8]
 368 0002 5A1E     		subs	r2, r3, #1
 369 0004 002A     		cmp	r2, #0
 370              		.loc 1 264 0
 371 0006 10B4     		push	{r4}
 372              		.cfi_def_cfa_offset 4
 373              		.cfi_offset 4, -4
 374              		.loc 1 272 0
 375 0008 8260     		str	r2, [r0, #8]
 376 000a 11DA     		bge	.L17
 377              		.loc 1 273 0
 378 000c 19B9     		cbnz	r1, .L16
 379              		.loc 1 274 0
 380 000e 8360     		str	r3, [r0, #8]
 381              		.loc 1 276 0
 382 0010 4FF0FF30 		mov	r0, #-1
 383              	.LVL34:
 384 0014 0DE0     		b	.L15
 385              	.LVL35:
 386              	.L16:
 387              	.LBB99:
 388              	.LBB100:
 389              		.loc 1 278 0
 390 0016 084B     		ldr	r3, .L18
 391 0018 9B69     		ldr	r3, [r3, #24]
 392 001a 5862     		str	r0, [r3, #36]
 393              	.LVL36:
 394              	.LBB101:
 395              	.LBB102:
 396              		.loc 2 601 0
 397 001c 4268     		ldr	r2, [r0, #4]
 398              		.loc 2 600 0
 399 001e 1860     		str	r0, [r3]
ARM GAS  /tmp/cc44xeQe.s 			page 8


 400              		.loc 2 601 0
 401 0020 5A60     		str	r2, [r3, #4]
 402              	.LBE102:
 403              	.LBE101:
 404              	.LBE100:
 405              	.LBE99:
 406              		.loc 1 285 0
 407 0022 5DF8044B 		ldr	r4, [sp], #4
 408              		.cfi_remember_state
 409              		.cfi_restore 4
 410              		.cfi_def_cfa_offset 0
 411              	.LBB106:
 412              	.LBB105:
 413              	.LBB104:
 414              	.LBB103:
 415              		.loc 2 602 0
 416 0026 1360     		str	r3, [r2]
 417              		.loc 2 603 0
 418 0028 4360     		str	r3, [r0, #4]
 419              	.LVL37:
 420              	.LBE103:
 421              	.LBE104:
 422              		.loc 1 281 0
 423 002a 0520     		movs	r0, #5
 424              	.LVL38:
 425 002c FFF7FEBF 		b	chSchGoSleepTimeoutS
 426              	.LVL39:
 427              	.L17:
 428              		.cfi_restore_state
 429              	.LBE105:
 430              	.LBE106:
 431              		.loc 1 284 0
 432 0030 0020     		movs	r0, #0
 433              	.LVL40:
 434              	.L15:
 435              		.loc 1 285 0
 436 0032 5DF8044B 		ldr	r4, [sp], #4
 437              		.cfi_restore 4
 438              		.cfi_def_cfa_offset 0
 439 0036 7047     		bx	lr
 440              	.L19:
 441              		.align	2
 442              	.L18:
 443 0038 00000000 		.word	ch
 444              		.cfi_endproc
 445              	.LFE296:
 446              		.size	chSemWaitTimeoutS, .-chSemWaitTimeoutS
 447              		.section	.text.chSemWaitTimeout,"ax",%progbits
 448              		.align	1
 449              		.global	chSemWaitTimeout
 450              		.thumb
 451              		.thumb_func
 452              		.type	chSemWaitTimeout, %function
 453              	chSemWaitTimeout:
 454              	.LFB295:
 455              		.loc 1 235 0
 456              		.cfi_startproc
ARM GAS  /tmp/cc44xeQe.s 			page 9


 457              		@ args = 0, pretend = 0, frame = 0
 458              		@ frame_needed = 0, uses_anonymous_args = 0
 459              	.LVL41:
 460 0000 38B5     		push	{r3, r4, r5, lr}
 461              		.cfi_def_cfa_offset 16
 462              		.cfi_offset 3, -16
 463              		.cfi_offset 4, -12
 464              		.cfi_offset 5, -8
 465              		.cfi_offset 14, -4
 466              		.loc 1 235 0
 467 0002 0446     		mov	r4, r0
 468 0004 0D46     		mov	r5, r1
 469              	.LBB117:
 470              	.LBB118:
 471              	.LBB119:
 472              	.LBB120:
 473              	.LBB121:
 474              		.loc 3 493 0
 475 0006 2023     		movs	r3, #32
 476              		.syntax unified
 477              	@ 493 "../../modules/ChibiOS/os/common/ext/ARM/CMSIS/Core/Include/cmsis_gcc.h" 1
 478 0008 83F31188 		MSR basepri, r3
 479              	@ 0 "" 2
 480              	.LVL42:
 481              		.thumb
 482              		.syntax unified
 483              	.LBE121:
 484              	.LBE120:
 485              	.LBE119:
 486              		.loc 4 356 0
 487 000c FFF7FEFF 		bl	_stats_start_measure_crit_thd
 488              	.LVL43:
 489              	.LBE118:
 490              	.LBE117:
 491              		.loc 1 239 0
 492 0010 2946     		mov	r1, r5
 493 0012 2046     		mov	r0, r4
 494 0014 FFF7FEFF 		bl	chSemWaitTimeoutS
 495              	.LVL44:
 496 0018 0446     		mov	r4, r0
 497              	.LVL45:
 498              	.LBB122:
 499              	.LBB123:
 500              		.loc 4 368 0
 501 001a FFF7FEFF 		bl	_stats_stop_measure_crit_thd
 502              	.LVL46:
 503              	.LBB124:
 504              	.LBB125:
 505              	.LBB126:
 506              		.loc 3 493 0
 507 001e 0023     		movs	r3, #0
 508              		.syntax unified
 509              	@ 493 "../../modules/ChibiOS/os/common/ext/ARM/CMSIS/Core/Include/cmsis_gcc.h" 1
 510 0020 83F31188 		MSR basepri, r3
 511              	@ 0 "" 2
 512              	.LVL47:
 513              		.thumb
ARM GAS  /tmp/cc44xeQe.s 			page 10


 514              		.syntax unified
 515              	.LBE126:
 516              	.LBE125:
 517              	.LBE124:
 518              	.LBE123:
 519              	.LBE122:
 520              		.loc 1 243 0
 521 0024 2046     		mov	r0, r4
 522 0026 38BD     		pop	{r3, r4, r5, pc}
 523              		.cfi_endproc
 524              	.LFE295:
 525              		.size	chSemWaitTimeout, .-chSemWaitTimeout
 526              		.section	.text.chSemSignal,"ax",%progbits
 527              		.align	1
 528              		.global	chSemSignal
 529              		.thumb
 530              		.thumb_func
 531              		.type	chSemSignal, %function
 532              	chSemSignal:
 533              	.LFB297:
 534              		.loc 1 294 0
 535              		.cfi_startproc
 536              		@ args = 0, pretend = 0, frame = 0
 537              		@ frame_needed = 0, uses_anonymous_args = 0
 538              	.LVL48:
 539 0000 10B5     		push	{r4, lr}
 540              		.cfi_def_cfa_offset 8
 541              		.cfi_offset 4, -8
 542              		.cfi_offset 14, -4
 543              	.LBB139:
 544              	.LBB140:
 545              	.LBB141:
 546              	.LBB142:
 547              	.LBB143:
 548              		.loc 3 493 0
 549 0002 2023     		movs	r3, #32
 550              	.LBE143:
 551              	.LBE142:
 552              	.LBE141:
 553              	.LBE140:
 554              	.LBE139:
 555              		.loc 1 294 0
 556 0004 0446     		mov	r4, r0
 557              	.LBB148:
 558              	.LBB147:
 559              	.LBB146:
 560              	.LBB145:
 561              	.LBB144:
 562              		.loc 3 493 0
 563              		.syntax unified
 564              	@ 493 "../../modules/ChibiOS/os/common/ext/ARM/CMSIS/Core/Include/cmsis_gcc.h" 1
 565 0006 83F31188 		MSR basepri, r3
 566              	@ 0 "" 2
 567              	.LVL49:
 568              		.thumb
 569              		.syntax unified
 570              	.LBE144:
ARM GAS  /tmp/cc44xeQe.s 			page 11


 571              	.LBE145:
 572              	.LBE146:
 573              		.loc 4 356 0
 574 000a FFF7FEFF 		bl	_stats_start_measure_crit_thd
 575              	.LVL50:
 576              	.LBE147:
 577              	.LBE148:
 578              		.loc 1 302 0
 579 000e A368     		ldr	r3, [r4, #8]
 580 0010 0133     		adds	r3, r3, #1
 581 0012 002B     		cmp	r3, #0
 582 0014 A360     		str	r3, [r4, #8]
 583 0016 06DC     		bgt	.L22
 584              	.LVL51:
 585              	.LBB149:
 586              	.LBB150:
 587              		.loc 2 607 0
 588 0018 2068     		ldr	r0, [r4]
 589              	.LVL52:
 590              		.loc 2 609 0
 591 001a 0368     		ldr	r3, [r0]
 592 001c 2360     		str	r3, [r4]
 593              	.LBE150:
 594              	.LBE149:
 595              		.loc 1 303 0
 596 001e 0021     		movs	r1, #0
 597              	.LBB152:
 598              	.LBB151:
 599              		.loc 2 610 0
 600 0020 5C60     		str	r4, [r3, #4]
 601              	.LVL53:
 602              	.LBE151:
 603              	.LBE152:
 604              		.loc 1 303 0
 605 0022 FFF7FEFF 		bl	chSchWakeupS
 606              	.LVL54:
 607              	.L22:
 608              	.LBB153:
 609              	.LBB154:
 610              		.loc 4 368 0
 611 0026 FFF7FEFF 		bl	_stats_stop_measure_crit_thd
 612              	.LVL55:
 613              	.LBB155:
 614              	.LBB156:
 615              	.LBB157:
 616              		.loc 3 493 0
 617 002a 0023     		movs	r3, #0
 618              		.syntax unified
 619              	@ 493 "../../modules/ChibiOS/os/common/ext/ARM/CMSIS/Core/Include/cmsis_gcc.h" 1
 620 002c 83F31188 		MSR basepri, r3
 621              	@ 0 "" 2
 622              	.LVL56:
 623              		.thumb
 624              		.syntax unified
 625 0030 10BD     		pop	{r4, pc}
 626              	.LBE157:
 627              	.LBE156:
ARM GAS  /tmp/cc44xeQe.s 			page 12


 628              	.LBE155:
 629              	.LBE154:
 630              	.LBE153:
 631              		.cfi_endproc
 632              	.LFE297:
 633              		.size	chSemSignal, .-chSemSignal
 634              		.section	.text.chSemSignalI,"ax",%progbits
 635              		.align	1
 636              		.global	chSemSignalI
 637              		.thumb
 638              		.thumb_func
 639              		.type	chSemSignalI, %function
 640              	chSemSignalI:
 641              	.LFB298:
 642              		.loc 1 319 0
 643              		.cfi_startproc
 644              		@ args = 0, pretend = 0, frame = 0
 645              		@ frame_needed = 0, uses_anonymous_args = 0
 646              		@ link register save eliminated.
 647              	.LVL57:
 648              		.loc 1 327 0
 649 0000 8268     		ldr	r2, [r0, #8]
 650 0002 0132     		adds	r2, r2, #1
 651 0004 002A     		cmp	r2, #0
 652              		.loc 1 319 0
 653 0006 0346     		mov	r3, r0
 654              		.loc 1 327 0
 655 0008 8260     		str	r2, [r0, #8]
 656 000a 07DC     		bgt	.L23
 657              	.LVL58:
 658              	.LBB158:
 659              	.LBB159:
 660              	.LBB160:
 661              		.loc 2 607 0
 662 000c 0068     		ldr	r0, [r0]
 663              	.LVL59:
 664              		.loc 2 609 0
 665 000e 0268     		ldr	r2, [r0]
 666 0010 1A60     		str	r2, [r3]
 667              		.loc 2 610 0
 668 0012 5360     		str	r3, [r2, #4]
 669              	.LVL60:
 670              	.LBE160:
 671              	.LBE159:
 672              		.loc 1 331 0
 673 0014 0023     		movs	r3, #0
 674              	.LVL61:
 675 0016 4362     		str	r3, [r0, #36]
 676              	.LVL62:
 677              		.loc 1 332 0
 678 0018 FFF7FEBF 		b	chSchReadyI
 679              	.LVL63:
 680              	.L23:
 681 001c 7047     		bx	lr
 682              	.LBE158:
 683              		.cfi_endproc
 684              	.LFE298:
ARM GAS  /tmp/cc44xeQe.s 			page 13


 685              		.size	chSemSignalI, .-chSemSignalI
 686              		.section	.text.chSemAddCounterI,"ax",%progbits
 687              		.align	1
 688              		.global	chSemAddCounterI
 689              		.thumb
 690              		.thumb_func
 691              		.type	chSemAddCounterI, %function
 692              	chSemAddCounterI:
 693              	.LFB299:
 694              		.loc 1 349 0
 695              		.cfi_startproc
 696              		@ args = 0, pretend = 0, frame = 0
 697              		@ frame_needed = 0, uses_anonymous_args = 0
 698              	.LVL64:
 699 0000 70B5     		push	{r4, r5, r6, lr}
 700              		.cfi_def_cfa_offset 16
 701              		.cfi_offset 4, -16
 702              		.cfi_offset 5, -12
 703              		.cfi_offset 6, -8
 704              		.cfi_offset 14, -4
 705              		.loc 1 349 0
 706 0002 0446     		mov	r4, r0
 707 0004 0D46     		mov	r5, r1
 708              		.loc 1 359 0
 709 0006 0026     		movs	r6, #0
 710              	.LVL65:
 711              	.L26:
 712              		.loc 1 357 0
 713 0008 002D     		cmp	r5, #0
 714 000a 0DDD     		ble	.L29
 715              		.loc 1 358 0
 716 000c A368     		ldr	r3, [r4, #8]
 717 000e 0133     		adds	r3, r3, #1
 718 0010 002B     		cmp	r3, #0
 719 0012 A360     		str	r3, [r4, #8]
 720 0014 06DC     		bgt	.L27
 721              	.LVL66:
 722              	.LBB161:
 723              	.LBB162:
 724              		.loc 2 607 0
 725 0016 2068     		ldr	r0, [r4]
 726              	.LVL67:
 727              		.loc 2 609 0
 728 0018 0368     		ldr	r3, [r0]
 729 001a 2360     		str	r3, [r4]
 730              		.loc 2 610 0
 731 001c 5C60     		str	r4, [r3, #4]
 732              	.LVL68:
 733              	.LBE162:
 734              	.LBE161:
 735              		.loc 1 359 0
 736 001e FFF7FEFF 		bl	chSchReadyI
 737              	.LVL69:
 738 0022 4662     		str	r6, [r0, #36]
 739              	.L27:
 740              		.loc 1 361 0
 741 0024 013D     		subs	r5, r5, #1
ARM GAS  /tmp/cc44xeQe.s 			page 14


 742              	.LVL70:
 743 0026 EFE7     		b	.L26
 744              	.L29:
 745              		.loc 1 363 0
 746 0028 70BD     		pop	{r4, r5, r6, pc}
 747              		.cfi_endproc
 748              	.LFE299:
 749              		.size	chSemAddCounterI, .-chSemAddCounterI
 750              		.section	.text.chSemSignalWait,"ax",%progbits
 751              		.align	1
 752              		.global	chSemSignalWait
 753              		.thumb
 754              		.thumb_func
 755              		.type	chSemSignalWait, %function
 756              	chSemSignalWait:
 757              	.LFB300:
 758              		.loc 1 378 0
 759              		.cfi_startproc
 760              		@ args = 0, pretend = 0, frame = 0
 761              		@ frame_needed = 0, uses_anonymous_args = 0
 762              	.LVL71:
 763 0000 38B5     		push	{r3, r4, r5, lr}
 764              		.cfi_def_cfa_offset 16
 765              		.cfi_offset 3, -16
 766              		.cfi_offset 4, -12
 767              		.cfi_offset 5, -8
 768              		.cfi_offset 14, -4
 769              		.loc 1 378 0
 770 0002 0446     		mov	r4, r0
 771 0004 0D46     		mov	r5, r1
 772              	.LBB178:
 773              	.LBB179:
 774              	.LBB180:
 775              	.LBB181:
 776              	.LBB182:
 777              		.loc 3 493 0
 778 0006 2023     		movs	r3, #32
 779              		.syntax unified
 780              	@ 493 "../../modules/ChibiOS/os/common/ext/ARM/CMSIS/Core/Include/cmsis_gcc.h" 1
 781 0008 83F31188 		MSR basepri, r3
 782              	@ 0 "" 2
 783              	.LVL72:
 784              		.thumb
 785              		.syntax unified
 786              	.LBE182:
 787              	.LBE181:
 788              	.LBE180:
 789              		.loc 4 356 0
 790 000c FFF7FEFF 		bl	_stats_start_measure_crit_thd
 791              	.LVL73:
 792              	.LBE179:
 793              	.LBE178:
 794              		.loc 1 390 0
 795 0010 A368     		ldr	r3, [r4, #8]
 796 0012 0133     		adds	r3, r3, #1
 797 0014 002B     		cmp	r3, #0
 798 0016 A360     		str	r3, [r4, #8]
ARM GAS  /tmp/cc44xeQe.s 			page 15


 799 0018 07DC     		bgt	.L31
 800              	.LVL74:
 801              	.LBB183:
 802              	.LBB184:
 803              		.loc 2 607 0
 804 001a 2068     		ldr	r0, [r4]
 805              	.LVL75:
 806              		.loc 2 609 0
 807 001c 0368     		ldr	r3, [r0]
 808 001e 2360     		str	r3, [r4]
 809              		.loc 2 610 0
 810 0020 5C60     		str	r4, [r3, #4]
 811              	.LVL76:
 812              	.LBE184:
 813              	.LBE183:
 814              		.loc 1 391 0
 815 0022 FFF7FEFF 		bl	chSchReadyI
 816              	.LVL77:
 817 0026 0023     		movs	r3, #0
 818 0028 4362     		str	r3, [r0, #36]
 819              	.L31:
 820              		.loc 1 393 0
 821 002a AB68     		ldr	r3, [r5, #8]
 822 002c 013B     		subs	r3, r3, #1
 823 002e 002B     		cmp	r3, #0
 824 0030 AB60     		str	r3, [r5, #8]
 825 0032 0CDA     		bge	.L32
 826              	.LBB185:
 827              		.loc 1 394 0
 828 0034 0B4B     		ldr	r3, .L34
 829 0036 9C69     		ldr	r4, [r3, #24]
 830              	.LVL78:
 831              	.LBB186:
 832              	.LBB187:
 833              		.loc 2 601 0
 834 0038 6B68     		ldr	r3, [r5, #4]
 835              		.loc 2 600 0
 836 003a 2560     		str	r5, [r4]
 837              		.loc 2 601 0
 838 003c 6360     		str	r3, [r4, #4]
 839              	.LBE187:
 840              	.LBE186:
 841              		.loc 1 397 0
 842 003e 0520     		movs	r0, #5
 843              	.LBB189:
 844              	.LBB188:
 845              		.loc 2 602 0
 846 0040 1C60     		str	r4, [r3]
 847              		.loc 2 603 0
 848 0042 6C60     		str	r4, [r5, #4]
 849              	.LVL79:
 850              	.LBE188:
 851              	.LBE189:
 852              		.loc 1 396 0
 853 0044 6562     		str	r5, [r4, #36]
 854              		.loc 1 397 0
 855 0046 FFF7FEFF 		bl	chSchGoSleepS
ARM GAS  /tmp/cc44xeQe.s 			page 16


 856              	.LVL80:
 857              		.loc 1 398 0
 858 004a 646A     		ldr	r4, [r4, #36]
 859              	.LVL81:
 860              	.LBE185:
 861 004c 02E0     		b	.L33
 862              	.LVL82:
 863              	.L32:
 864              		.loc 1 401 0
 865 004e FFF7FEFF 		bl	chSchRescheduleS
 866              	.LVL83:
 867              		.loc 1 402 0
 868 0052 0024     		movs	r4, #0
 869              	.LVL84:
 870              	.L33:
 871              	.LBB190:
 872              	.LBB191:
 873              		.loc 4 368 0
 874 0054 FFF7FEFF 		bl	_stats_stop_measure_crit_thd
 875              	.LVL85:
 876              	.LBB192:
 877              	.LBB193:
 878              	.LBB194:
 879              		.loc 3 493 0
 880 0058 0023     		movs	r3, #0
 881              		.syntax unified
 882              	@ 493 "../../modules/ChibiOS/os/common/ext/ARM/CMSIS/Core/Include/cmsis_gcc.h" 1
 883 005a 83F31188 		MSR basepri, r3
 884              	@ 0 "" 2
 885              	.LVL86:
 886              		.thumb
 887              		.syntax unified
 888              	.LBE194:
 889              	.LBE193:
 890              	.LBE192:
 891              	.LBE191:
 892              	.LBE190:
 893              		.loc 1 407 0
 894 005e 2046     		mov	r0, r4
 895 0060 38BD     		pop	{r3, r4, r5, pc}
 896              	.LVL87:
 897              	.L35:
 898 0062 00BF     		.align	2
 899              	.L34:
 900 0064 00000000 		.word	ch
 901              		.cfi_endproc
 902              	.LFE300:
 903              		.size	chSemSignalWait, .-chSemSignalWait
 904              		.text
 905              	.Letext0:
 906              		.file 5 "/usr/include/newlib/machine/_default_types.h"
 907              		.file 6 "/usr/include/newlib/sys/_stdint.h"
 908              		.file 7 "../../modules/ChibiOS/os/common/ports/ARMCMx/compilers/GCC/chtypes.h"
 909              		.file 8 "../../modules/ChibiOS/os/rt/include/chsystypes.h"
 910              		.file 9 "../../modules/ChibiOS/os/rt/include/chtime.h"
 911              		.file 10 "../../modules/ChibiOS/os/common/ports/ARMCMx/chcore.h"
 912              		.file 11 "../../modules/ChibiOS/os/common/ports/ARMCMx/chcore_v7m.h"
ARM GAS  /tmp/cc44xeQe.s 			page 17


 913              		.file 12 "../../modules/ChibiOS/os/rt/include/chtm.h"
 914              		.file 13 "../../modules/ChibiOS/os/rt/include/chstats.h"
 915              		.file 14 "../../modules/ChibiOS/os/rt/include/chsem.h"
 916              		.file 15 "../../modules/ChibiOS/os/rt/include/chmtx.h"
 917              		.file 16 "../../modules/ChibiOS/os/common/ext/ARM/CMSIS/Core/Include/core_cm4.h"