ARM GAS  /tmp/cc4khDKp.s 			page 1


   1              		.syntax unified
   2              		.cpu cortex-m4
   3              		.eabi_attribute 27, 1
   4              		.eabi_attribute 28, 1
   5              		.fpu fpv4-sp-d16
   6              		.eabi_attribute 20, 1
   7              		.eabi_attribute 21, 1
   8              		.eabi_attribute 23, 3
   9              		.eabi_attribute 24, 1
  10              		.eabi_attribute 25, 1
  11              		.eabi_attribute 26, 1
  12              		.eabi_attribute 30, 4
  13              		.eabi_attribute 34, 1
  14              		.eabi_attribute 18, 4
  15              		.thumb
  16              		.syntax unified
  17              		.file	"chstats.c"
  18              		.text
  19              	.Ltext0:
  20              		.cfi_sections	.debug_frame
  21              		.section	.text._stats_init,"ax",%progbits
  22              		.align	1
  23              		.global	_stats_init
  24              		.thumb
  25              		.thumb_func
  26              		.type	_stats_init, %function
  27              	_stats_init:
  28              	.LFB290:
  29              		.file 1 "../../modules/ChibiOS/os/rt/src/chstats.c"
  30              		.loc 1 62 0
  31              		.cfi_startproc
  32              		@ args = 0, pretend = 0, frame = 0
  33              		@ frame_needed = 0, uses_anonymous_args = 0
  34 0000 10B5     		push	{r4, lr}
  35              		.cfi_def_cfa_offset 8
  36              		.cfi_offset 4, -8
  37              		.cfi_offset 14, -4
  38              		.loc 1 64 0
  39 0002 084C     		ldr	r4, .L2
  40 0004 0023     		movs	r3, #0
  41              		.loc 1 66 0
  42 0006 04F1A000 		add	r0, r4, #160
  43              		.loc 1 64 0
  44 000a C4F89830 		str	r3, [r4, #152]
  45              		.loc 1 65 0
  46 000e C4F89C30 		str	r3, [r4, #156]
  47              		.loc 1 66 0
  48 0012 FFF7FEFF 		bl	chTMObjectInit
  49              	.LVL0:
  50              		.loc 1 67 0
  51 0016 04F1B800 		add	r0, r4, #184
  52              		.loc 1 68 0
  53 001a BDE81040 		pop	{r4, lr}
  54              		.cfi_restore 14
  55              		.cfi_restore 4
  56              		.cfi_def_cfa_offset 0
  57              		.loc 1 67 0
ARM GAS  /tmp/cc4khDKp.s 			page 2


  58 001e FFF7FEBF 		b	chTMObjectInit
  59              	.LVL1:
  60              	.L3:
  61 0022 00BF     		.align	2
  62              	.L2:
  63 0024 00000000 		.word	ch
  64              		.cfi_endproc
  65              	.LFE290:
  66              		.size	_stats_init, .-_stats_init
  67              		.section	.text._stats_increase_irq,"ax",%progbits
  68              		.align	1
  69              		.global	_stats_increase_irq
  70              		.thumb
  71              		.thumb_func
  72              		.type	_stats_increase_irq, %function
  73              	_stats_increase_irq:
  74              	.LFB291:
  75              		.loc 1 73 0
  76              		.cfi_startproc
  77              		@ args = 0, pretend = 0, frame = 0
  78              		@ frame_needed = 0, uses_anonymous_args = 0
  79              		@ link register save eliminated.
  80              	.LVL2:
  81              	.LBB24:
  82              	.LBB25:
  83              	.LBB26:
  84              	.LBB27:
  85              		.file 2 "../../modules/ChibiOS/os/common/ext/ARM/CMSIS/Core/Include/cmsis_gcc.h"
  86              		.loc 2 493 0
  87 0000 2023     		movs	r3, #32
  88              		.syntax unified
  89              	@ 493 "../../modules/ChibiOS/os/common/ext/ARM/CMSIS/Core/Include/cmsis_gcc.h" 1
  90 0002 83F31188 		MSR basepri, r3
  91              	@ 0 "" 2
  92              	.LVL3:
  93              		.thumb
  94              		.syntax unified
  95              	.LBE27:
  96              	.LBE26:
  97              	.LBE25:
  98              	.LBE24:
  99              		.loc 1 76 0
 100 0006 054A     		ldr	r2, .L5
 101 0008 D2F89830 		ldr	r3, [r2, #152]
 102 000c 0133     		adds	r3, r3, #1
 103 000e C2F89830 		str	r3, [r2, #152]
 104              	.LVL4:
 105              	.LBB28:
 106              	.LBB29:
 107              	.LBB30:
 108              	.LBB31:
 109              		.loc 2 493 0
 110 0012 0023     		movs	r3, #0
 111              		.syntax unified
 112              	@ 493 "../../modules/ChibiOS/os/common/ext/ARM/CMSIS/Core/Include/cmsis_gcc.h" 1
 113 0014 83F31188 		MSR basepri, r3
 114              	@ 0 "" 2
ARM GAS  /tmp/cc4khDKp.s 			page 3


 115              	.LVL5:
 116              		.thumb
 117              		.syntax unified
 118 0018 7047     		bx	lr
 119              	.L6:
 120 001a 00BF     		.align	2
 121              	.L5:
 122 001c 00000000 		.word	ch
 123              	.LBE31:
 124              	.LBE30:
 125              	.LBE29:
 126              	.LBE28:
 127              		.cfi_endproc
 128              	.LFE291:
 129              		.size	_stats_increase_irq, .-_stats_increase_irq
 130              		.section	.text._stats_ctxswc,"ax",%progbits
 131              		.align	1
 132              		.global	_stats_ctxswc
 133              		.thumb
 134              		.thumb_func
 135              		.type	_stats_ctxswc, %function
 136              	_stats_ctxswc:
 137              	.LFB292:
 138              		.loc 1 86 0
 139              		.cfi_startproc
 140              		@ args = 0, pretend = 0, frame = 0
 141              		@ frame_needed = 0, uses_anonymous_args = 0
 142              		@ link register save eliminated.
 143              	.LVL6:
 144              		.loc 1 88 0
 145 0000 064A     		ldr	r2, .L8
 146 0002 D2F89C30 		ldr	r3, [r2, #156]
 147 0006 0133     		adds	r3, r3, #1
 148 0008 C2F89C30 		str	r3, [r2, #156]
 149              		.loc 1 89 0
 150 000c 01F14803 		add	r3, r1, #72
 151 0010 00F14801 		add	r1, r0, #72
 152              	.LVL7:
 153 0014 1846     		mov	r0, r3
 154              	.LVL8:
 155 0016 FFF7FEBF 		b	chTMChainMeasurementToX
 156              	.LVL9:
 157              	.L9:
 158 001a 00BF     		.align	2
 159              	.L8:
 160 001c 00000000 		.word	ch
 161              		.cfi_endproc
 162              	.LFE292:
 163              		.size	_stats_ctxswc, .-_stats_ctxswc
 164              		.section	.text._stats_start_measure_crit_thd,"ax",%progbits
 165              		.align	1
 166              		.global	_stats_start_measure_crit_thd
 167              		.thumb
 168              		.thumb_func
 169              		.type	_stats_start_measure_crit_thd, %function
 170              	_stats_start_measure_crit_thd:
 171              	.LFB293:
ARM GAS  /tmp/cc4khDKp.s 			page 4


 172              		.loc 1 95 0
 173              		.cfi_startproc
 174              		@ args = 0, pretend = 0, frame = 0
 175              		@ frame_needed = 0, uses_anonymous_args = 0
 176              		@ link register save eliminated.
 177              		.loc 1 97 0
 178 0000 0148     		ldr	r0, .L11
 179 0002 FFF7FEBF 		b	chTMStartMeasurementX
 180              	.LVL10:
 181              	.L12:
 182 0006 00BF     		.align	2
 183              	.L11:
 184 0008 A0000000 		.word	ch+160
 185              		.cfi_endproc
 186              	.LFE293:
 187              		.size	_stats_start_measure_crit_thd, .-_stats_start_measure_crit_thd
 188              		.section	.text._stats_stop_measure_crit_thd,"ax",%progbits
 189              		.align	1
 190              		.global	_stats_stop_measure_crit_thd
 191              		.thumb
 192              		.thumb_func
 193              		.type	_stats_stop_measure_crit_thd, %function
 194              	_stats_stop_measure_crit_thd:
 195              	.LFB294:
 196              		.loc 1 103 0
 197              		.cfi_startproc
 198              		@ args = 0, pretend = 0, frame = 0
 199              		@ frame_needed = 0, uses_anonymous_args = 0
 200              		@ link register save eliminated.
 201              		.loc 1 105 0
 202 0000 0148     		ldr	r0, .L14
 203 0002 FFF7FEBF 		b	chTMStopMeasurementX
 204              	.LVL11:
 205              	.L15:
 206 0006 00BF     		.align	2
 207              	.L14:
 208 0008 A0000000 		.word	ch+160
 209              		.cfi_endproc
 210              	.LFE294:
 211              		.size	_stats_stop_measure_crit_thd, .-_stats_stop_measure_crit_thd
 212              		.section	.text._stats_start_measure_crit_isr,"ax",%progbits
 213              		.align	1
 214              		.global	_stats_start_measure_crit_isr
 215              		.thumb
 216              		.thumb_func
 217              		.type	_stats_start_measure_crit_isr, %function
 218              	_stats_start_measure_crit_isr:
 219              	.LFB295:
 220              		.loc 1 111 0
 221              		.cfi_startproc
 222              		@ args = 0, pretend = 0, frame = 0
 223              		@ frame_needed = 0, uses_anonymous_args = 0
 224              		@ link register save eliminated.
 225              		.loc 1 113 0
 226 0000 0148     		ldr	r0, .L17
 227 0002 FFF7FEBF 		b	chTMStartMeasurementX
 228              	.LVL12:
ARM GAS  /tmp/cc4khDKp.s 			page 5


 229              	.L18:
 230 0006 00BF     		.align	2
 231              	.L17:
 232 0008 B8000000 		.word	ch+184
 233              		.cfi_endproc
 234              	.LFE295:
 235              		.size	_stats_start_measure_crit_isr, .-_stats_start_measure_crit_isr
 236              		.section	.text._stats_stop_measure_crit_isr,"ax",%progbits
 237              		.align	1
 238              		.global	_stats_stop_measure_crit_isr
 239              		.thumb
 240              		.thumb_func
 241              		.type	_stats_stop_measure_crit_isr, %function
 242              	_stats_stop_measure_crit_isr:
 243              	.LFB296:
 244              		.loc 1 119 0
 245              		.cfi_startproc
 246              		@ args = 0, pretend = 0, frame = 0
 247              		@ frame_needed = 0, uses_anonymous_args = 0
 248              		@ link register save eliminated.
 249              		.loc 1 121 0
 250 0000 0148     		ldr	r0, .L20
 251 0002 FFF7FEBF 		b	chTMStopMeasurementX
 252              	.LVL13:
 253              	.L21:
 254 0006 00BF     		.align	2
 255              	.L20:
 256 0008 B8000000 		.word	ch+184
 257              		.cfi_endproc
 258              	.LFE296:
 259              		.size	_stats_stop_measure_crit_isr, .-_stats_stop_measure_crit_isr
 260              		.text
 261              	.Letext0:
 262              		.file 3 "/usr/include/newlib/machine/_default_types.h"
 263              		.file 4 "/usr/include/newlib/sys/_stdint.h"
 264              		.file 5 "../../modules/ChibiOS/os/common/ports/ARMCMx/compilers/GCC/chtypes.h"
 265              		.file 6 "../../modules/ChibiOS/os/rt/include/chsystypes.h"
 266              		.file 7 "../../modules/ChibiOS/os/rt/include/chschd.h"
 267              		.file 8 "../../modules/ChibiOS/os/rt/include/chtime.h"
 268              		.file 9 "../../modules/ChibiOS/os/common/ports/ARMCMx/chcore.h"
 269              		.file 10 "../../modules/ChibiOS/os/common/ports/ARMCMx/chcore_v7m.h"
 270              		.file 11 "../../modules/ChibiOS/os/rt/include/chtm.h"
 271              		.file 12 "../../modules/ChibiOS/os/rt/include/chstats.h"
 272              		.file 13 "../../modules/ChibiOS/os/rt/include/chsem.h"
 273              		.file 14 "../../modules/ChibiOS/os/rt/include/chmtx.h"
 274              		.file 15 "../../modules/ChibiOS/os/common/ext/ARM/CMSIS/Core/Include/core_cm4.h"