ARM GAS  /tmp/ccxAdmWE.s 			page 1


   1              		.syntax unified
   2              		.cpu cortex-m4
   3              		.eabi_attribute 27, 1
   4              		.eabi_attribute 28, 1
   5              		.fpu fpv4-sp-d16
   6              		.eabi_attribute 20, 1
   7              		.eabi_attribute 21, 1
   8              		.eabi_attribute 23, 3
   9              		.eabi_attribute 24, 1
  10              		.eabi_attribute 25, 1
  11              		.eabi_attribute 26, 1
  12              		.eabi_attribute 30, 4
  13              		.eabi_attribute 34, 1
  14              		.eabi_attribute 18, 4
  15              		.thumb
  16              		.syntax unified
  17              		.file	"chthreads.c"
  18              		.text
  19              	.Ltext0:
  20              		.cfi_sections	.debug_frame
  21              		.section	.text.chSysLock,"ax",%progbits
  22              		.align	1
  23              		.thumb
  24              		.thumb_func
  25              		.type	chSysLock, %function
  26              	chSysLock:
  27              	.LFB184:
  28              		.file 1 "../../modules/ChibiOS/os/rt/include/chsys.h"
  29              		.loc 1 353 0
  30              		.cfi_startproc
  31              		@ args = 0, pretend = 0, frame = 0
  32              		@ frame_needed = 0, uses_anonymous_args = 0
  33              		@ link register save eliminated.
  34              	.LVL0:
  35              	.LBB74:
  36              	.LBB75:
  37              	.LBB76:
  38              		.file 2 "../../modules/ChibiOS/os/common/ext/ARM/CMSIS/Core/Include/cmsis_gcc.h"
  39              		.loc 2 493 0
  40 0000 2023     		movs	r3, #32
  41              		.syntax unified
  42              	@ 493 "../../modules/ChibiOS/os/common/ext/ARM/CMSIS/Core/Include/cmsis_gcc.h" 1
  43 0002 83F31188 		MSR basepri, r3
  44              	@ 0 "" 2
  45              	.LVL1:
  46              		.thumb
  47              		.syntax unified
  48              	.LBE76:
  49              	.LBE75:
  50              	.LBE74:
  51              		.loc 1 356 0
  52 0006 FFF7FEBF 		b	_stats_start_measure_crit_thd
  53              	.LVL2:
  54              		.cfi_endproc
  55              	.LFE184:
  56              		.size	chSysLock, .-chSysLock
  57              		.section	.text.chSysUnlock,"ax",%progbits
ARM GAS  /tmp/ccxAdmWE.s 			page 2


  58              		.align	1
  59              		.thumb
  60              		.thumb_func
  61              		.type	chSysUnlock, %function
  62              	chSysUnlock:
  63              	.LFB185:
  64              		.loc 1 365 0
  65              		.cfi_startproc
  66              		@ args = 0, pretend = 0, frame = 0
  67              		@ frame_needed = 0, uses_anonymous_args = 0
  68 0000 08B5     		push	{r3, lr}
  69              		.cfi_def_cfa_offset 8
  70              		.cfi_offset 3, -8
  71              		.cfi_offset 14, -4
  72              		.loc 1 368 0
  73 0002 FFF7FEFF 		bl	_stats_stop_measure_crit_thd
  74              	.LVL3:
  75              	.LBB77:
  76              	.LBB78:
  77              	.LBB79:
  78              		.loc 2 493 0
  79 0006 0023     		movs	r3, #0
  80              		.syntax unified
  81              	@ 493 "../../modules/ChibiOS/os/common/ext/ARM/CMSIS/Core/Include/cmsis_gcc.h" 1
  82 0008 83F31188 		MSR basepri, r3
  83              	@ 0 "" 2
  84              	.LVL4:
  85              		.thumb
  86              		.syntax unified
  87 000c 08BD     		pop	{r3, pc}
  88              	.LBE79:
  89              	.LBE78:
  90              	.LBE77:
  91              		.cfi_endproc
  92              	.LFE185:
  93              		.size	chSysUnlock, .-chSysUnlock
  94              		.section	.text._thread_init,"ax",%progbits
  95              		.align	1
  96              		.global	_thread_init
  97              		.thumb
  98              		.thumb_func
  99              		.type	_thread_init, %function
 100              	_thread_init:
 101              	.LFB290:
 102              		.file 3 "../../modules/ChibiOS/os/rt/src/chthreads.c"
 103              		.loc 3 88 0
 104              		.cfi_startproc
 105              		@ args = 0, pretend = 0, frame = 0
 106              		@ frame_needed = 0, uses_anonymous_args = 0
 107              	.LVL5:
 108              		.loc 3 91 0
 109 0000 0223     		movs	r3, #2
 110              		.loc 3 88 0
 111 0002 10B5     		push	{r4, lr}
 112              		.cfi_def_cfa_offset 8
 113              		.cfi_offset 4, -8
 114              		.cfi_offset 14, -4
ARM GAS  /tmp/ccxAdmWE.s 			page 3


 115              		.loc 3 91 0
 116 0004 80F82030 		strb	r3, [r0, #32]
 117              		.loc 3 92 0
 118 0008 0023     		movs	r3, #0
 119 000a 80F82130 		strb	r3, [r0, #33]
 120              		.loc 3 98 0
 121 000e 8363     		str	r3, [r0, #56]
 122              		.loc 3 101 0
 123 0010 4363     		str	r3, [r0, #52]
 124              		.loc 3 107 0
 125 0012 0123     		movs	r3, #1
 126 0014 80F82230 		strb	r3, [r0, #34]
 127              		.loc 3 109 0
 128 0018 0A4B     		ldr	r3, .L4
 129              		.loc 3 90 0
 130 001a 8260     		str	r2, [r0, #8]
 131              		.loc 3 97 0
 132 001c C263     		str	r2, [r0, #60]
 133              		.loc 3 109 0
 134 001e 5A69     		ldr	r2, [r3, #20]
 135              	.LVL6:
 136 0020 0361     		str	r3, [r0, #16]
 137 0022 4261     		str	r2, [r0, #20]
 138              		.loc 3 108 0
 139 0024 8161     		str	r1, [r0, #24]
 140              		.loc 3 109 0
 141 0026 1061     		str	r0, [r2, #16]
 142 0028 5861     		str	r0, [r3, #20]
 143              	.LVL7:
 144              		.loc 3 114 0
 145 002a 00F12803 		add	r3, r0, #40
 146              	.LVL8:
 147              	.LBB80:
 148              	.LBB81:
 149              		.file 4 "../../modules/ChibiOS/os/rt/include/chschd.h"
 150              		.loc 4 501 0
 151 002e 8362     		str	r3, [r0, #40]
 152              	.LVL9:
 153              	.LBE81:
 154              	.LBE80:
 155              		.loc 3 117 0
 156 0030 00F12C03 		add	r3, r0, #44
 157              	.LVL10:
 158              	.LBB82:
 159              	.LBB83:
 160              		.loc 4 539 0
 161 0034 C362     		str	r3, [r0, #44]
 162              		.loc 4 540 0
 163 0036 0363     		str	r3, [r0, #48]
 164              	.LVL11:
 165              	.LBE83:
 166              	.LBE82:
 167              		.loc 3 88 0
 168 0038 0446     		mov	r4, r0
 169              		.loc 3 120 0
 170 003a 4830     		adds	r0, r0, #72
 171              	.LVL12:
ARM GAS  /tmp/ccxAdmWE.s 			page 4


 172 003c FFF7FEFF 		bl	chTMObjectInit
 173              	.LVL13:
 174              		.loc 3 124 0
 175 0040 2046     		mov	r0, r4
 176 0042 10BD     		pop	{r4, pc}
 177              	.LVL14:
 178              	.L5:
 179              		.align	2
 180              	.L4:
 181 0044 00000000 		.word	ch
 182              		.cfi_endproc
 183              	.LFE290:
 184              		.size	_thread_init, .-_thread_init
 185              		.section	.text._thread_memfill,"ax",%progbits
 186              		.align	1
 187              		.global	_thread_memfill
 188              		.thumb
 189              		.thumb_func
 190              		.type	_thread_memfill, %function
 191              	_thread_memfill:
 192              	.LFB291:
 193              		.loc 3 136 0
 194              		.cfi_startproc
 195              		@ args = 0, pretend = 0, frame = 0
 196              		@ frame_needed = 0, uses_anonymous_args = 0
 197              		@ link register save eliminated.
 198              	.LVL15:
 199              	.L7:
 200              		.loc 3 138 0
 201 0000 8842     		cmp	r0, r1
 202 0002 02D2     		bcs	.L10
 203              		.loc 3 139 0
 204 0004 00F8012B 		strb	r2, [r0], #1
 205              	.LVL16:
 206 0008 FAE7     		b	.L7
 207              	.LVL17:
 208              	.L10:
 209              		.loc 3 141 0
 210 000a 7047     		bx	lr
 211              		.cfi_endproc
 212              	.LFE291:
 213              		.size	_thread_memfill, .-_thread_memfill
 214              		.section	.text.chThdCreateSuspendedI,"ax",%progbits
 215              		.align	1
 216              		.global	chThdCreateSuspendedI
 217              		.thumb
 218              		.thumb_func
 219              		.type	chThdCreateSuspendedI, %function
 220              	chThdCreateSuspendedI:
 221              	.LFB292:
 222              		.loc 3 167 0
 223              		.cfi_startproc
 224              		@ args = 0, pretend = 0, frame = 0
 225              		@ frame_needed = 0, uses_anonymous_args = 0
 226              		@ link register save eliminated.
 227              	.LVL18:
 228              		.loc 3 181 0
ARM GAS  /tmp/ccxAdmWE.s 			page 5


 229 0000 8368     		ldr	r3, [r0, #8]
 230              	.LVL19:
 231              		.loc 3 186 0
 232 0002 4268     		ldr	r2, [r0, #4]
 233 0004 43F8442C 		str	r2, [r3, #-68]
 234              		.loc 3 190 0
 235 0008 A3F1C402 		sub	r2, r3, #196
 236 000c 43F8542C 		str	r2, [r3, #-84]
 237 0010 0269     		ldr	r2, [r0, #16]
 238 0012 43F8842C 		str	r2, [r3, #-132]
 239 0016 4269     		ldr	r2, [r0, #20]
 240 0018 43F8802C 		str	r2, [r3, #-128]
 241 001c 044A     		ldr	r2, .L12
 242 001e 43F8642C 		str	r2, [r3, #-100]
 243              		.loc 3 193 0
 244 0022 0168     		ldr	r1, [r0]
 245 0024 C268     		ldr	r2, [r0, #12]
 246 0026 A3F16000 		sub	r0, r3, #96
 247              	.LVL20:
 248 002a FFF7FEBF 		b	_thread_init
 249              	.LVL21:
 250              	.L13:
 251 002e 00BF     		.align	2
 252              	.L12:
 253 0030 00000000 		.word	_port_thread_start
 254              		.cfi_endproc
 255              	.LFE292:
 256              		.size	chThdCreateSuspendedI, .-chThdCreateSuspendedI
 257              		.section	.text.chThdCreateSuspended,"ax",%progbits
 258              		.align	1
 259              		.global	chThdCreateSuspended
 260              		.thumb
 261              		.thumb_func
 262              		.type	chThdCreateSuspended, %function
 263              	chThdCreateSuspended:
 264              	.LFB293:
 265              		.loc 3 216 0
 266              		.cfi_startproc
 267              		@ args = 0, pretend = 0, frame = 0
 268              		@ frame_needed = 0, uses_anonymous_args = 0
 269              	.LVL22:
 270              		.loc 3 225 0
 271 0000 4368     		ldr	r3, [r0, #4]
 272              		.loc 3 226 0
 273 0002 8268     		ldr	r2, [r0, #8]
 274              	.LVL23:
 275              		.loc 3 216 0
 276 0004 10B5     		push	{r4, lr}
 277              		.cfi_def_cfa_offset 8
 278              		.cfi_offset 4, -8
 279              		.cfi_offset 14, -4
 280              	.LBB84:
 281              	.LBB85:
 282              		.loc 3 139 0
 283 0006 5521     		movs	r1, #85
 284              	.LBE85:
 285              	.LBE84:
ARM GAS  /tmp/ccxAdmWE.s 			page 6


 286              		.loc 3 216 0
 287 0008 0446     		mov	r4, r0
 288              	.LVL24:
 289              	.L15:
 290              	.LBB87:
 291              	.LBB86:
 292              		.loc 3 138 0
 293 000a 9A42     		cmp	r2, r3
 294 000c 02D9     		bls	.L17
 295              		.loc 3 139 0
 296 000e 03F8011B 		strb	r1, [r3], #1
 297              	.LVL25:
 298 0012 FAE7     		b	.L15
 299              	.LVL26:
 300              	.L17:
 301              	.LBE86:
 302              	.LBE87:
 303              		.loc 3 230 0
 304 0014 FFF7FEFF 		bl	chSysLock
 305              	.LVL27:
 306              		.loc 3 231 0
 307 0018 2046     		mov	r0, r4
 308 001a FFF7FEFF 		bl	chThdCreateSuspendedI
 309              	.LVL28:
 310 001e 0446     		mov	r4, r0
 311              	.LVL29:
 312              		.loc 3 232 0
 313 0020 FFF7FEFF 		bl	chSysUnlock
 314              	.LVL30:
 315              		.loc 3 235 0
 316 0024 2046     		mov	r0, r4
 317 0026 10BD     		pop	{r4, pc}
 318              		.cfi_endproc
 319              	.LFE293:
 320              		.size	chThdCreateSuspended, .-chThdCreateSuspended
 321              		.section	.text.chThdCreateI,"ax",%progbits
 322              		.align	1
 323              		.global	chThdCreateI
 324              		.thumb
 325              		.thumb_func
 326              		.type	chThdCreateI, %function
 327              	chThdCreateI:
 328              	.LFB294:
 329              		.loc 3 259 0
 330              		.cfi_startproc
 331              		@ args = 0, pretend = 0, frame = 0
 332              		@ frame_needed = 0, uses_anonymous_args = 0
 333              	.LVL31:
 334 0000 08B5     		push	{r3, lr}
 335              		.cfi_def_cfa_offset 8
 336              		.cfi_offset 3, -8
 337              		.cfi_offset 14, -4
 338              		.loc 3 261 0
 339 0002 FFF7FEFF 		bl	chThdCreateSuspendedI
 340              	.LVL32:
 341              		.loc 3 262 0
 342 0006 BDE80840 		pop	{r3, lr}
ARM GAS  /tmp/ccxAdmWE.s 			page 7


 343              		.cfi_restore 14
 344              		.cfi_restore 3
 345              		.cfi_def_cfa_offset 0
 346              		.loc 3 261 0
 347 000a FFF7FEBF 		b	chSchReadyI
 348              	.LVL33:
 349              		.cfi_endproc
 350              	.LFE294:
 351              		.size	chThdCreateI, .-chThdCreateI
 352              		.section	.text.chThdCreate,"ax",%progbits
 353              		.align	1
 354              		.global	chThdCreate
 355              		.thumb
 356              		.thumb_func
 357              		.type	chThdCreate, %function
 358              	chThdCreate:
 359              	.LFB295:
 360              		.loc 3 280 0
 361              		.cfi_startproc
 362              		@ args = 0, pretend = 0, frame = 0
 363              		@ frame_needed = 0, uses_anonymous_args = 0
 364              	.LVL34:
 365              		.loc 3 290 0
 366 0000 4368     		ldr	r3, [r0, #4]
 367              		.loc 3 291 0
 368 0002 8268     		ldr	r2, [r0, #8]
 369              	.LVL35:
 370              		.loc 3 280 0
 371 0004 10B5     		push	{r4, lr}
 372              		.cfi_def_cfa_offset 8
 373              		.cfi_offset 4, -8
 374              		.cfi_offset 14, -4
 375              	.LBB88:
 376              	.LBB89:
 377              		.loc 3 139 0
 378 0006 5521     		movs	r1, #85
 379              	.LBE89:
 380              	.LBE88:
 381              		.loc 3 280 0
 382 0008 0446     		mov	r4, r0
 383              	.LVL36:
 384              	.L20:
 385              	.LBB91:
 386              	.LBB90:
 387              		.loc 3 138 0
 388 000a 9A42     		cmp	r2, r3
 389 000c 02D9     		bls	.L22
 390              		.loc 3 139 0
 391 000e 03F8011B 		strb	r1, [r3], #1
 392              	.LVL37:
 393 0012 FAE7     		b	.L20
 394              	.LVL38:
 395              	.L22:
 396              	.LBE90:
 397              	.LBE91:
 398              		.loc 3 295 0
 399 0014 FFF7FEFF 		bl	chSysLock
ARM GAS  /tmp/ccxAdmWE.s 			page 8


 400              	.LVL39:
 401              		.loc 3 296 0
 402 0018 2046     		mov	r0, r4
 403 001a FFF7FEFF 		bl	chThdCreateSuspendedI
 404              	.LVL40:
 405              		.loc 3 297 0
 406 001e 0021     		movs	r1, #0
 407              		.loc 3 296 0
 408 0020 0446     		mov	r4, r0
 409              	.LVL41:
 410              		.loc 3 297 0
 411 0022 FFF7FEFF 		bl	chSchWakeupS
 412              	.LVL42:
 413              		.loc 3 298 0
 414 0026 FFF7FEFF 		bl	chSysUnlock
 415              	.LVL43:
 416              		.loc 3 301 0
 417 002a 2046     		mov	r0, r4
 418 002c 10BD     		pop	{r4, pc}
 419              		.cfi_endproc
 420              	.LFE295:
 421              		.size	chThdCreate, .-chThdCreate
 422              		.section	.text.chThdCreateStatic,"ax",%progbits
 423              		.align	1
 424              		.global	chThdCreateStatic
 425              		.thumb
 426              		.thumb_func
 427              		.type	chThdCreateStatic, %function
 428              	chThdCreateStatic:
 429              	.LFB296:
 430              		.loc 3 324 0
 431              		.cfi_startproc
 432              		@ args = 4, pretend = 0, frame = 0
 433              		@ frame_needed = 0, uses_anonymous_args = 0
 434              	.LVL44:
 435 0000 F8B5     		push	{r3, r4, r5, r6, r7, lr}
 436              		.cfi_def_cfa_offset 24
 437              		.cfi_offset 3, -24
 438              		.cfi_offset 4, -20
 439              		.cfi_offset 5, -16
 440              		.cfi_offset 6, -12
 441              		.cfi_offset 7, -8
 442              		.cfi_offset 14, -4
 443              		.loc 3 324 0
 444 0002 0C46     		mov	r4, r1
 445 0004 1646     		mov	r6, r2
 446 0006 1F46     		mov	r7, r3
 447 0008 0546     		mov	r5, r0
 448              		.loc 3 340 0
 449 000a 4318     		adds	r3, r0, r1
 450              	.LVL45:
 451              	.LBB92:
 452              	.LBB93:
 453              		.loc 3 139 0
 454 000c 5522     		movs	r2, #85
 455              	.LVL46:
 456              	.LBE93:
ARM GAS  /tmp/ccxAdmWE.s 			page 9


 457              	.LBE92:
 458              		.loc 3 340 0
 459 000e 0146     		mov	r1, r0
 460              	.LVL47:
 461              	.L24:
 462              	.LBB95:
 463              	.LBB94:
 464              		.loc 3 138 0
 465 0010 8B42     		cmp	r3, r1
 466 0012 02D9     		bls	.L26
 467              		.loc 3 139 0
 468 0014 01F8012B 		strb	r2, [r1], #1
 469              	.LVL48:
 470 0018 FAE7     		b	.L24
 471              	.LVL49:
 472              	.L26:
 473              	.LBE94:
 474              	.LBE95:
 475              		.loc 3 350 0
 476 001a 603C     		subs	r4, r4, #96
 477              	.LVL50:
 478              		.loc 3 345 0
 479 001c FFF7FEFF 		bl	chSysLock
 480              	.LVL51:
 481              		.loc 3 350 0
 482 0020 2819     		adds	r0, r5, r4
 483              	.LVL52:
 484              		.loc 3 359 0
 485 0022 A0F16403 		sub	r3, r0, #100
 486 0026 C360     		str	r3, [r0, #12]
 487 0028 069B     		ldr	r3, [sp, #24]
 488 002a 40F8203C 		str	r3, [r0, #-32]
 489 002e 094B     		ldr	r3, .L27
 490 0030 40F8043C 		str	r3, [r0, #-4]
 491              		.loc 3 361 0
 492 0034 3246     		mov	r2, r6
 493              		.loc 3 355 0
 494 0036 C561     		str	r5, [r0, #28]
 495              		.loc 3 359 0
 496 0038 40F8247C 		str	r7, [r0, #-36]
 497              		.loc 3 361 0
 498 003c 0649     		ldr	r1, .L27+4
 499 003e FFF7FEFF 		bl	_thread_init
 500              	.LVL53:
 501              		.loc 3 364 0
 502 0042 0021     		movs	r1, #0
 503              		.loc 3 361 0
 504 0044 0446     		mov	r4, r0
 505              	.LVL54:
 506              		.loc 3 364 0
 507 0046 FFF7FEFF 		bl	chSchWakeupS
 508              	.LVL55:
 509              		.loc 3 365 0
 510 004a FFF7FEFF 		bl	chSysUnlock
 511              	.LVL56:
 512              		.loc 3 368 0
 513 004e 2046     		mov	r0, r4
ARM GAS  /tmp/ccxAdmWE.s 			page 10


 514 0050 F8BD     		pop	{r3, r4, r5, r6, r7, pc}
 515              	.LVL57:
 516              	.L28:
 517 0052 00BF     		.align	2
 518              	.L27:
 519 0054 00000000 		.word	_port_thread_start
 520 0058 00000000 		.word	.LC0
 521              		.cfi_endproc
 522              	.LFE296:
 523              		.size	chThdCreateStatic, .-chThdCreateStatic
 524              		.section	.text.chThdStart,"ax",%progbits
 525              		.align	1
 526              		.global	chThdStart
 527              		.thumb
 528              		.thumb_func
 529              		.type	chThdStart, %function
 530              	chThdStart:
 531              	.LFB297:
 532              		.loc 3 379 0
 533              		.cfi_startproc
 534              		@ args = 0, pretend = 0, frame = 0
 535              		@ frame_needed = 0, uses_anonymous_args = 0
 536              	.LVL58:
 537 0000 10B5     		push	{r4, lr}
 538              		.cfi_def_cfa_offset 8
 539              		.cfi_offset 4, -8
 540              		.cfi_offset 14, -4
 541              		.loc 3 379 0
 542 0002 0446     		mov	r4, r0
 543              		.loc 3 381 0
 544 0004 FFF7FEFF 		bl	chSysLock
 545              	.LVL59:
 546              		.loc 3 383 0
 547 0008 2046     		mov	r0, r4
 548 000a 0021     		movs	r1, #0
 549 000c FFF7FEFF 		bl	chSchWakeupS
 550              	.LVL60:
 551              		.loc 3 384 0
 552 0010 FFF7FEFF 		bl	chSysUnlock
 553              	.LVL61:
 554              		.loc 3 387 0
 555 0014 2046     		mov	r0, r4
 556 0016 10BD     		pop	{r4, pc}
 557              		.cfi_endproc
 558              	.LFE297:
 559              		.size	chThdStart, .-chThdStart
 560              		.section	.text.chThdAddRef,"ax",%progbits
 561              		.align	1
 562              		.global	chThdAddRef
 563              		.thumb
 564              		.thumb_func
 565              		.type	chThdAddRef, %function
 566              	chThdAddRef:
 567              	.LFB298:
 568              		.loc 3 401 0
 569              		.cfi_startproc
 570              		@ args = 0, pretend = 0, frame = 0
ARM GAS  /tmp/ccxAdmWE.s 			page 11


 571              		@ frame_needed = 0, uses_anonymous_args = 0
 572              	.LVL62:
 573 0000 10B5     		push	{r4, lr}
 574              		.cfi_def_cfa_offset 8
 575              		.cfi_offset 4, -8
 576              		.cfi_offset 14, -4
 577              		.loc 3 401 0
 578 0002 0446     		mov	r4, r0
 579              		.loc 3 403 0
 580 0004 FFF7FEFF 		bl	chSysLock
 581              	.LVL63:
 582              		.loc 3 405 0
 583 0008 94F82230 		ldrb	r3, [r4, #34]	@ zero_extendqisi2
 584 000c 0133     		adds	r3, r3, #1
 585 000e 84F82230 		strb	r3, [r4, #34]
 586              		.loc 3 406 0
 587 0012 FFF7FEFF 		bl	chSysUnlock
 588              	.LVL64:
 589              		.loc 3 409 0
 590 0016 2046     		mov	r0, r4
 591 0018 10BD     		pop	{r4, pc}
 592              		.cfi_endproc
 593              	.LFE298:
 594              		.size	chThdAddRef, .-chThdAddRef
 595              		.section	.text.chThdRelease,"ax",%progbits
 596              		.align	1
 597              		.global	chThdRelease
 598              		.thumb
 599              		.thumb_func
 600              		.type	chThdRelease, %function
 601              	chThdRelease:
 602              	.LFB299:
 603              		.loc 3 427 0
 604              		.cfi_startproc
 605              		@ args = 0, pretend = 0, frame = 0
 606              		@ frame_needed = 0, uses_anonymous_args = 0
 607              	.LVL65:
 608 0000 10B5     		push	{r4, lr}
 609              		.cfi_def_cfa_offset 8
 610              		.cfi_offset 4, -8
 611              		.cfi_offset 14, -4
 612              		.loc 3 427 0
 613 0002 0446     		mov	r4, r0
 614              		.loc 3 429 0
 615 0004 FFF7FEFF 		bl	chSysLock
 616              	.LVL66:
 617              		.loc 3 431 0
 618 0008 94F82230 		ldrb	r3, [r4, #34]	@ zero_extendqisi2
 619 000c 013B     		subs	r3, r3, #1
 620 000e 84F82230 		strb	r3, [r4, #34]
 621              		.loc 3 436 0
 622 0012 236A     		ldr	r3, [r4, #32]
 623 0014 03F0FF13 		and	r3, r3, #16711935
 624 0018 0F2B     		cmp	r3, #15
 625 001a 1AD1     		bne	.L32
 626              		.loc 3 437 0
 627 001c 6369     		ldr	r3, [r4, #20]
ARM GAS  /tmp/ccxAdmWE.s 			page 12


 628 001e 2269     		ldr	r2, [r4, #16]
 629 0020 1A61     		str	r2, [r3, #16]
 630 0022 2269     		ldr	r2, [r4, #16]
 631 0024 5361     		str	r3, [r2, #20]
 632              		.loc 3 438 0
 633 0026 FFF7FEFF 		bl	chSysUnlock
 634              	.LVL67:
 635              		.loc 3 441 0
 636 002a 94F82130 		ldrb	r3, [r4, #33]	@ zero_extendqisi2
 637 002e 03F00303 		and	r3, r3, #3
 638 0032 012B     		cmp	r3, #1
 639 0034 02D0     		beq	.L34
 640 0036 022B     		cmp	r3, #2
 641 0038 05D0     		beq	.L35
 642 003a 10BD     		pop	{r4, pc}
 643              	.LVL68:
 644              	.L34:
 645              		.loc 3 444 0
 646 003c E069     		ldr	r0, [r4, #28]
 647              		.loc 3 460 0
 648 003e BDE81040 		pop	{r4, lr}
 649              		.cfi_remember_state
 650              		.cfi_restore 14
 651              		.cfi_restore 4
 652              		.cfi_def_cfa_offset 0
 653              	.LVL69:
 654              		.loc 3 444 0
 655 0042 FFF7FEBF 		b	chHeapFree
 656              	.LVL70:
 657              	.L35:
 658              		.cfi_restore_state
 659              	.LBB102:
 660              	.LBB103:
 661              		.loc 3 449 0
 662 0046 E169     		ldr	r1, [r4, #28]
 663 0048 206C     		ldr	r0, [r4, #64]
 664              	.LBE103:
 665              	.LBE102:
 666              		.loc 3 460 0
 667 004a BDE81040 		pop	{r4, lr}
 668              		.cfi_remember_state
 669              		.cfi_restore 14
 670              		.cfi_restore 4
 671              		.cfi_def_cfa_offset 0
 672              	.LVL71:
 673              	.LBB105:
 674              	.LBB104:
 675              		.loc 3 449 0
 676 004e FFF7FEBF 		b	chPoolFree
 677              	.LVL72:
 678              	.L32:
 679              		.cfi_restore_state
 680              	.LBE104:
 681              	.LBE105:
 682              		.loc 3 460 0
 683 0052 BDE81040 		pop	{r4, lr}
 684              		.cfi_restore 14
ARM GAS  /tmp/ccxAdmWE.s 			page 13


 685              		.cfi_restore 4
 686              		.cfi_def_cfa_offset 0
 687              	.LVL73:
 688              		.loc 3 459 0
 689 0056 FFF7FEBF 		b	chSysUnlock
 690              	.LVL74:
 691              		.cfi_endproc
 692              	.LFE299:
 693              		.size	chThdRelease, .-chThdRelease
 694              		.section	.text.chThdExitS,"ax",%progbits
 695              		.align	1
 696              		.global	chThdExitS
 697              		.thumb
 698              		.thumb_func
 699              		.type	chThdExitS, %function
 700              	chThdExitS:
 701              	.LFB301:
 702              		.loc 3 501 0
 703              		.cfi_startproc
 704              		@ args = 0, pretend = 0, frame = 0
 705              		@ frame_needed = 0, uses_anonymous_args = 0
 706              	.LVL75:
 707 0000 38B5     		push	{r3, r4, r5, lr}
 708              		.cfi_def_cfa_offset 16
 709              		.cfi_offset 3, -16
 710              		.cfi_offset 4, -12
 711              		.cfi_offset 5, -8
 712              		.cfi_offset 14, -4
 713              		.loc 3 502 0
 714 0002 0F4B     		ldr	r3, .L42
 715 0004 9C69     		ldr	r4, [r3, #24]
 716              	.LVL76:
 717              		.loc 3 505 0
 718 0006 6062     		str	r0, [r4, #36]
 719              		.loc 3 512 0
 720 0008 04F12805 		add	r5, r4, #40
 721              	.LVL77:
 722              	.L38:
 723              	.LBB106:
 724              	.LBB107:
 725              		.loc 4 527 0
 726 000c A06A     		ldr	r0, [r4, #40]
 727              	.LVL78:
 728              	.LBE107:
 729              	.LBE106:
 730              		.loc 3 512 0
 731 000e A842     		cmp	r0, r5
 732 0010 04D0     		beq	.L41
 733              	.LVL79:
 734              	.LBB108:
 735              	.LBB109:
 736              		.loc 4 581 0
 737 0012 0368     		ldr	r3, [r0]
 738 0014 A362     		str	r3, [r4, #40]
 739              	.LVL80:
 740              	.LBE109:
 741              	.LBE108:
ARM GAS  /tmp/ccxAdmWE.s 			page 14


 742              		.loc 3 513 0
 743 0016 FFF7FEFF 		bl	chSchReadyI
 744              	.LVL81:
 745 001a F7E7     		b	.L38
 746              	.L41:
 747              		.loc 3 521 0
 748 001c 94F82230 		ldrb	r3, [r4, #34]	@ zero_extendqisi2
 749 0020 43B9     		cbnz	r3, .L40
 750              		.loc 3 521 0 is_stmt 0 discriminator 1
 751 0022 94F82130 		ldrb	r3, [r4, #33]	@ zero_extendqisi2
 752 0026 9B07     		lsls	r3, r3, #30
 753 0028 04D1     		bne	.L40
 754              		.loc 3 523 0 is_stmt 1
 755 002a 6369     		ldr	r3, [r4, #20]
 756 002c 2269     		ldr	r2, [r4, #16]
 757 002e 1A61     		str	r2, [r3, #16]
 758 0030 2269     		ldr	r2, [r4, #16]
 759 0032 5361     		str	r3, [r2, #20]
 760              	.L40:
 761              		.loc 3 533 0
 762 0034 0F20     		movs	r0, #15
 763              		.loc 3 537 0
 764 0036 BDE83840 		pop	{r3, r4, r5, lr}
 765              		.cfi_restore 14
 766              		.cfi_restore 5
 767              		.cfi_restore 4
 768              		.cfi_restore 3
 769              		.cfi_def_cfa_offset 0
 770              	.LVL82:
 771              		.loc 3 533 0
 772 003a FFF7FEBF 		b	chSchGoSleepS
 773              	.LVL83:
 774              	.L43:
 775 003e 00BF     		.align	2
 776              	.L42:
 777 0040 00000000 		.word	ch
 778              		.cfi_endproc
 779              	.LFE301:
 780              		.size	chThdExitS, .-chThdExitS
 781              		.section	.text.chThdExit,"ax",%progbits
 782              		.align	1
 783              		.global	chThdExit
 784              		.thumb
 785              		.thumb_func
 786              		.type	chThdExit, %function
 787              	chThdExit:
 788              	.LFB300:
 789              		.loc 3 477 0
 790              		.cfi_startproc
 791              		@ args = 0, pretend = 0, frame = 0
 792              		@ frame_needed = 0, uses_anonymous_args = 0
 793              	.LVL84:
 794 0000 10B5     		push	{r4, lr}
 795              		.cfi_def_cfa_offset 8
 796              		.cfi_offset 4, -8
 797              		.cfi_offset 14, -4
 798              		.loc 3 477 0
ARM GAS  /tmp/ccxAdmWE.s 			page 15


 799 0002 0446     		mov	r4, r0
 800              		.loc 3 479 0
 801 0004 FFF7FEFF 		bl	chSysLock
 802              	.LVL85:
 803              		.loc 3 480 0
 804 0008 2046     		mov	r0, r4
 805              		.loc 3 482 0
 806 000a BDE81040 		pop	{r4, lr}
 807              		.cfi_restore 14
 808              		.cfi_restore 4
 809              		.cfi_def_cfa_offset 0
 810              	.LVL86:
 811              		.loc 3 480 0
 812 000e FFF7FEBF 		b	chThdExitS
 813              	.LVL87:
 814              		.cfi_endproc
 815              	.LFE300:
 816              		.size	chThdExit, .-chThdExit
 817              		.section	.text.chThdWait,"ax",%progbits
 818              		.align	1
 819              		.global	chThdWait
 820              		.thumb
 821              		.thumb_func
 822              		.type	chThdWait, %function
 823              	chThdWait:
 824              	.LFB302:
 825              		.loc 3 559 0
 826              		.cfi_startproc
 827              		@ args = 0, pretend = 0, frame = 0
 828              		@ frame_needed = 0, uses_anonymous_args = 0
 829              	.LVL88:
 830 0000 38B5     		push	{r3, r4, r5, lr}
 831              		.cfi_def_cfa_offset 16
 832              		.cfi_offset 3, -16
 833              		.cfi_offset 4, -12
 834              		.cfi_offset 5, -8
 835              		.cfi_offset 14, -4
 836              		.loc 3 559 0
 837 0002 0446     		mov	r4, r0
 838              		.loc 3 564 0
 839 0004 FFF7FEFF 		bl	chSysLock
 840              	.LVL89:
 841              		.loc 3 570 0
 842 0008 94F82030 		ldrb	r3, [r4, #32]	@ zero_extendqisi2
 843 000c 0F2B     		cmp	r3, #15
 844 000e 07D0     		beq	.L46
 845              		.loc 3 571 0
 846 0010 074B     		ldr	r3, .L50
 847              	.LBB110:
 848              	.LBB111:
 849              		.loc 4 574 0
 850 0012 A26A     		ldr	r2, [r4, #40]
 851              	.LBE111:
 852              	.LBE110:
 853              		.loc 3 571 0
 854 0014 9B69     		ldr	r3, [r3, #24]
 855              	.LVL90:
ARM GAS  /tmp/ccxAdmWE.s 			page 16


 856              		.loc 3 572 0
 857 0016 0920     		movs	r0, #9
 858              	.LBB113:
 859              	.LBB112:
 860              		.loc 4 574 0
 861 0018 1A60     		str	r2, [r3]
 862              		.loc 4 575 0
 863 001a A362     		str	r3, [r4, #40]
 864              	.LVL91:
 865              	.LBE112:
 866              	.LBE113:
 867              		.loc 3 572 0
 868 001c FFF7FEFF 		bl	chSchGoSleepS
 869              	.LVL92:
 870              	.L46:
 871              		.loc 3 574 0
 872 0020 656A     		ldr	r5, [r4, #36]
 873              	.LVL93:
 874              		.loc 3 575 0
 875 0022 FFF7FEFF 		bl	chSysUnlock
 876              	.LVL94:
 877              		.loc 3 579 0
 878 0026 2046     		mov	r0, r4
 879 0028 FFF7FEFF 		bl	chThdRelease
 880              	.LVL95:
 881              		.loc 3 583 0
 882 002c 2846     		mov	r0, r5
 883 002e 38BD     		pop	{r3, r4, r5, pc}
 884              	.LVL96:
 885              	.L51:
 886              		.align	2
 887              	.L50:
 888 0030 00000000 		.word	ch
 889              		.cfi_endproc
 890              	.LFE302:
 891              		.size	chThdWait, .-chThdWait
 892              		.section	.text.chThdSetPriority,"ax",%progbits
 893              		.align	1
 894              		.global	chThdSetPriority
 895              		.thumb
 896              		.thumb_func
 897              		.type	chThdSetPriority, %function
 898              	chThdSetPriority:
 899              	.LFB303:
 900              		.loc 3 598 0
 901              		.cfi_startproc
 902              		@ args = 0, pretend = 0, frame = 0
 903              		@ frame_needed = 0, uses_anonymous_args = 0
 904              	.LVL97:
 905 0000 38B5     		push	{r3, r4, r5, lr}
 906              		.cfi_def_cfa_offset 16
 907              		.cfi_offset 3, -16
 908              		.cfi_offset 4, -12
 909              		.cfi_offset 5, -8
 910              		.cfi_offset 14, -4
 911              		.loc 3 598 0
 912 0002 0446     		mov	r4, r0
ARM GAS  /tmp/ccxAdmWE.s 			page 17


 913              		.loc 3 603 0
 914 0004 FFF7FEFF 		bl	chSysLock
 915              	.LVL98:
 916              		.loc 3 605 0
 917 0008 074B     		ldr	r3, .L55
 918 000a 9B69     		ldr	r3, [r3, #24]
 919 000c DD6B     		ldr	r5, [r3, #60]
 920              	.LVL99:
 921              		.loc 3 606 0
 922 000e 9A68     		ldr	r2, [r3, #8]
 923 0010 9542     		cmp	r5, r2
 924 0012 01D0     		beq	.L53
 925              		.loc 3 606 0 is_stmt 0 discriminator 1
 926 0014 A242     		cmp	r2, r4
 927 0016 00D2     		bcs	.L54
 928              	.L53:
 929              		.loc 3 607 0 is_stmt 1
 930 0018 9C60     		str	r4, [r3, #8]
 931              	.L54:
 932              		.loc 3 609 0
 933 001a DC63     		str	r4, [r3, #60]
 934              		.loc 3 614 0
 935 001c FFF7FEFF 		bl	chSchRescheduleS
 936              	.LVL100:
 937              		.loc 3 615 0
 938 0020 FFF7FEFF 		bl	chSysUnlock
 939              	.LVL101:
 940              		.loc 3 618 0
 941 0024 2846     		mov	r0, r5
 942 0026 38BD     		pop	{r3, r4, r5, pc}
 943              	.LVL102:
 944              	.L56:
 945              		.align	2
 946              	.L55:
 947 0028 00000000 		.word	ch
 948              		.cfi_endproc
 949              	.LFE303:
 950              		.size	chThdSetPriority, .-chThdSetPriority
 951              		.section	.text.chThdTerminate,"ax",%progbits
 952              		.align	1
 953              		.global	chThdTerminate
 954              		.thumb
 955              		.thumb_func
 956              		.type	chThdTerminate, %function
 957              	chThdTerminate:
 958              	.LFB304:
 959              		.loc 3 632 0
 960              		.cfi_startproc
 961              		@ args = 0, pretend = 0, frame = 0
 962              		@ frame_needed = 0, uses_anonymous_args = 0
 963              	.LVL103:
 964 0000 10B5     		push	{r4, lr}
 965              		.cfi_def_cfa_offset 8
 966              		.cfi_offset 4, -8
 967              		.cfi_offset 14, -4
 968              		.loc 3 632 0
 969 0002 0446     		mov	r4, r0
ARM GAS  /tmp/ccxAdmWE.s 			page 18


 970              		.loc 3 634 0
 971 0004 FFF7FEFF 		bl	chSysLock
 972              	.LVL104:
 973              		.loc 3 635 0
 974 0008 94F82130 		ldrb	r3, [r4, #33]	@ zero_extendqisi2
 975 000c 43F00403 		orr	r3, r3, #4
 976 0010 84F82130 		strb	r3, [r4, #33]
 977              		.loc 3 637 0
 978 0014 BDE81040 		pop	{r4, lr}
 979              		.cfi_restore 14
 980              		.cfi_restore 4
 981              		.cfi_def_cfa_offset 0
 982              	.LVL105:
 983              		.loc 3 636 0
 984 0018 FFF7FEBF 		b	chSysUnlock
 985              	.LVL106:
 986              		.cfi_endproc
 987              	.LFE304:
 988              		.size	chThdTerminate, .-chThdTerminate
 989              		.section	.text.chThdSleep,"ax",%progbits
 990              		.align	1
 991              		.global	chThdSleep
 992              		.thumb
 993              		.thumb_func
 994              		.type	chThdSleep, %function
 995              	chThdSleep:
 996              	.LFB305:
 997              		.loc 3 651 0
 998              		.cfi_startproc
 999              		@ args = 0, pretend = 0, frame = 0
 1000              		@ frame_needed = 0, uses_anonymous_args = 0
 1001              	.LVL107:
 1002 0000 10B5     		push	{r4, lr}
 1003              		.cfi_def_cfa_offset 8
 1004              		.cfi_offset 4, -8
 1005              		.cfi_offset 14, -4
 1006              		.loc 3 651 0
 1007 0002 0446     		mov	r4, r0
 1008              		.loc 3 653 0
 1009 0004 FFF7FEFF 		bl	chSysLock
 1010              	.LVL108:
 1011              	.LBB116:
 1012              	.LBB117:
 1013              		.file 5 "../../modules/ChibiOS/os/rt/include/chthreads.h"
 1014              		.loc 5 382 0
 1015 0008 2146     		mov	r1, r4
 1016 000a 0820     		movs	r0, #8
 1017 000c FFF7FEFF 		bl	chSchGoSleepTimeoutS
 1018              	.LVL109:
 1019              	.LBE117:
 1020              	.LBE116:
 1021              		.loc 3 656 0
 1022 0010 BDE81040 		pop	{r4, lr}
 1023              		.cfi_restore 14
 1024              		.cfi_restore 4
 1025              		.cfi_def_cfa_offset 0
 1026              	.LVL110:
ARM GAS  /tmp/ccxAdmWE.s 			page 19


 1027              		.loc 3 655 0
 1028 0014 FFF7FEBF 		b	chSysUnlock
 1029              	.LVL111:
 1030              		.cfi_endproc
 1031              	.LFE305:
 1032              		.size	chThdSleep, .-chThdSleep
 1033              		.section	.text.chThdSleepUntil,"ax",%progbits
 1034              		.align	1
 1035              		.global	chThdSleepUntil
 1036              		.thumb
 1037              		.thumb_func
 1038              		.type	chThdSleepUntil, %function
 1039              	chThdSleepUntil:
 1040              	.LFB306:
 1041              		.loc 3 671 0
 1042              		.cfi_startproc
 1043              		@ args = 0, pretend = 0, frame = 0
 1044              		@ frame_needed = 0, uses_anonymous_args = 0
 1045              	.LVL112:
 1046 0000 10B5     		push	{r4, lr}
 1047              		.cfi_def_cfa_offset 8
 1048              		.cfi_offset 4, -8
 1049              		.cfi_offset 14, -4
 1050              		.loc 3 671 0
 1051 0002 0446     		mov	r4, r0
 1052              		.loc 3 674 0
 1053 0004 FFF7FEFF 		bl	chSysLock
 1054              	.LVL113:
 1055              	.LBB126:
 1056              	.LBB127:
 1057              	.LBB128:
 1058              	.LBB129:
 1059              		.file 6 "../../modules/ChibiOS/os/hal/ports/STM32/LLD/TIMv1/hal_st_lld.h"
 1060              		.loc 6 147 0
 1061 0008 054B     		ldr	r3, .L64
 1062 000a 596A     		ldr	r1, [r3, #36]
 1063              	.LBE129:
 1064              	.LBE128:
 1065              	.LBE127:
 1066              	.LBE126:
 1067              		.loc 3 676 0
 1068 000c 611A     		subs	r1, r4, r1
 1069 000e 02D0     		beq	.L60
 1070              	.LVL114:
 1071              	.LBB130:
 1072              	.LBB131:
 1073              		.loc 5 382 0
 1074 0010 0820     		movs	r0, #8
 1075 0012 FFF7FEFF 		bl	chSchGoSleepTimeoutS
 1076              	.LVL115:
 1077              	.L60:
 1078              	.LBE131:
 1079              	.LBE130:
 1080              		.loc 3 680 0
 1081 0016 BDE81040 		pop	{r4, lr}
 1082              		.cfi_restore 14
 1083              		.cfi_restore 4
ARM GAS  /tmp/ccxAdmWE.s 			page 20


 1084              		.cfi_def_cfa_offset 0
 1085              	.LVL116:
 1086              		.loc 3 679 0
 1087 001a FFF7FEBF 		b	chSysUnlock
 1088              	.LVL117:
 1089              	.L65:
 1090 001e 00BF     		.align	2
 1091              	.L64:
 1092 0020 000C0040 		.word	1073744896
 1093              		.cfi_endproc
 1094              	.LFE306:
 1095              		.size	chThdSleepUntil, .-chThdSleepUntil
 1096              		.section	.text.chThdSleepUntilWindowed,"ax",%progbits
 1097              		.align	1
 1098              		.global	chThdSleepUntilWindowed
 1099              		.thumb
 1100              		.thumb_func
 1101              		.type	chThdSleepUntilWindowed, %function
 1102              	chThdSleepUntilWindowed:
 1103              	.LFB307:
 1104              		.loc 3 696 0
 1105              		.cfi_startproc
 1106              		@ args = 0, pretend = 0, frame = 0
 1107              		@ frame_needed = 0, uses_anonymous_args = 0
 1108              	.LVL118:
 1109 0000 38B5     		push	{r3, r4, r5, lr}
 1110              		.cfi_def_cfa_offset 16
 1111              		.cfi_offset 3, -16
 1112              		.cfi_offset 4, -12
 1113              		.cfi_offset 5, -8
 1114              		.cfi_offset 14, -4
 1115              		.loc 3 696 0
 1116 0002 0446     		mov	r4, r0
 1117 0004 0D46     		mov	r5, r1
 1118              		.loc 3 699 0
 1119 0006 FFF7FEFF 		bl	chSysLock
 1120              	.LVL119:
 1121              	.LBB142:
 1122              	.LBB143:
 1123              	.LBB144:
 1124              	.LBB145:
 1125              		.loc 6 147 0
 1126 000a 074B     		ldr	r3, .L68
 1127 000c 596A     		ldr	r1, [r3, #36]
 1128              	.LBE145:
 1129              	.LBE144:
 1130              	.LBE143:
 1131              	.LBE142:
 1132              		.loc 3 701 0
 1133 000e 2B1B     		subs	r3, r5, r4
 1134 0010 0C1B     		subs	r4, r1, r4
 1135              	.LVL120:
 1136 0012 A342     		cmp	r3, r4
 1137 0014 03D9     		bls	.L67
 1138              	.LVL121:
 1139              	.LBB146:
 1140              	.LBB147:
ARM GAS  /tmp/ccxAdmWE.s 			page 21


 1141              		.loc 5 382 0
 1142 0016 691A     		subs	r1, r5, r1
 1143              	.LVL122:
 1144 0018 0820     		movs	r0, #8
 1145 001a FFF7FEFF 		bl	chSchGoSleepTimeoutS
 1146              	.LVL123:
 1147              	.L67:
 1148              	.LBE147:
 1149              	.LBE146:
 1150              		.loc 3 704 0
 1151 001e FFF7FEFF 		bl	chSysUnlock
 1152              	.LVL124:
 1153              		.loc 3 707 0
 1154 0022 2846     		mov	r0, r5
 1155 0024 38BD     		pop	{r3, r4, r5, pc}
 1156              	.LVL125:
 1157              	.L69:
 1158 0026 00BF     		.align	2
 1159              	.L68:
 1160 0028 000C0040 		.word	1073744896
 1161              		.cfi_endproc
 1162              	.LFE307:
 1163              		.size	chThdSleepUntilWindowed, .-chThdSleepUntilWindowed
 1164              		.section	.text.chThdYield,"ax",%progbits
 1165              		.align	1
 1166              		.global	chThdYield
 1167              		.thumb
 1168              		.thumb_func
 1169              		.type	chThdYield, %function
 1170              	chThdYield:
 1171              	.LFB308:
 1172              		.loc 3 716 0
 1173              		.cfi_startproc
 1174              		@ args = 0, pretend = 0, frame = 0
 1175              		@ frame_needed = 0, uses_anonymous_args = 0
 1176 0000 08B5     		push	{r3, lr}
 1177              		.cfi_def_cfa_offset 8
 1178              		.cfi_offset 3, -8
 1179              		.cfi_offset 14, -4
 1180              		.loc 3 718 0
 1181 0002 FFF7FEFF 		bl	chSysLock
 1182              	.LVL126:
 1183              	.LBB152:
 1184              	.LBB153:
 1185              	.LBB154:
 1186              	.LBB155:
 1187              		.loc 4 666 0
 1188 0006 064B     		ldr	r3, .L72
 1189 0008 1A68     		ldr	r2, [r3]
 1190 000a 9B69     		ldr	r3, [r3, #24]
 1191              	.LBE155:
 1192              	.LBE154:
 1193              		.loc 4 680 0
 1194 000c 9268     		ldr	r2, [r2, #8]
 1195 000e 9B68     		ldr	r3, [r3, #8]
 1196 0010 9A42     		cmp	r2, r3
 1197 0012 01D3     		bcc	.L71
ARM GAS  /tmp/ccxAdmWE.s 			page 22


 1198              		.loc 4 681 0
 1199 0014 FFF7FEFF 		bl	chSchDoRescheduleBehind
 1200              	.LVL127:
 1201              	.L71:
 1202              	.LBE153:
 1203              	.LBE152:
 1204              		.loc 3 721 0
 1205 0018 BDE80840 		pop	{r3, lr}
 1206              		.cfi_restore 14
 1207              		.cfi_restore 3
 1208              		.cfi_def_cfa_offset 0
 1209              		.loc 3 720 0
 1210 001c FFF7FEBF 		b	chSysUnlock
 1211              	.LVL128:
 1212              	.L73:
 1213              		.align	2
 1214              	.L72:
 1215 0020 00000000 		.word	ch
 1216              		.cfi_endproc
 1217              	.LFE308:
 1218              		.size	chThdYield, .-chThdYield
 1219              		.section	.text.chThdSuspendS,"ax",%progbits
 1220              		.align	1
 1221              		.global	chThdSuspendS
 1222              		.thumb
 1223              		.thumb_func
 1224              		.type	chThdSuspendS, %function
 1225              	chThdSuspendS:
 1226              	.LFB309:
 1227              		.loc 3 733 0
 1228              		.cfi_startproc
 1229              		@ args = 0, pretend = 0, frame = 0
 1230              		@ frame_needed = 0, uses_anonymous_args = 0
 1231              	.LVL129:
 1232 0000 10B5     		push	{r4, lr}
 1233              		.cfi_def_cfa_offset 8
 1234              		.cfi_offset 4, -8
 1235              		.cfi_offset 14, -4
 1236              	.LBB156:
 1237              	.LBB157:
 1238              		.loc 5 274 0
 1239 0002 054C     		ldr	r4, .L75
 1240 0004 A369     		ldr	r3, [r4, #24]
 1241              	.LBE157:
 1242              	.LBE156:
 1243              		.loc 3 738 0
 1244 0006 0360     		str	r3, [r0]
 1245              		.loc 3 739 0
 1246 0008 5862     		str	r0, [r3, #36]
 1247              		.loc 3 740 0
 1248 000a 0320     		movs	r0, #3
 1249              	.LVL130:
 1250 000c FFF7FEFF 		bl	chSchGoSleepS
 1251              	.LVL131:
 1252              		.loc 3 742 0
 1253 0010 A369     		ldr	r3, [r4, #24]
 1254              		.loc 3 743 0
ARM GAS  /tmp/ccxAdmWE.s 			page 23


 1255 0012 586A     		ldr	r0, [r3, #36]
 1256 0014 10BD     		pop	{r4, pc}
 1257              	.L76:
 1258 0016 00BF     		.align	2
 1259              	.L75:
 1260 0018 00000000 		.word	ch
 1261              		.cfi_endproc
 1262              	.LFE309:
 1263              		.size	chThdSuspendS, .-chThdSuspendS
 1264              		.section	.text.chThdSuspendTimeoutS,"ax",%progbits
 1265              		.align	1
 1266              		.global	chThdSuspendTimeoutS
 1267              		.thumb
 1268              		.thumb_func
 1269              		.type	chThdSuspendTimeoutS, %function
 1270              	chThdSuspendTimeoutS:
 1271              	.LFB310:
 1272              		.loc 3 764 0
 1273              		.cfi_startproc
 1274              		@ args = 0, pretend = 0, frame = 0
 1275              		@ frame_needed = 0, uses_anonymous_args = 0
 1276              		@ link register save eliminated.
 1277              	.LVL132:
 1278              	.LBB158:
 1279              	.LBB159:
 1280              		.loc 5 274 0
 1281 0000 054B     		ldr	r3, .L79
 1282 0002 9B69     		ldr	r3, [r3, #24]
 1283              	.LBE159:
 1284              	.LBE158:
 1285              		.loc 3 769 0
 1286 0004 21B1     		cbz	r1, .L78
 1287              		.loc 3 773 0
 1288 0006 0360     		str	r3, [r0]
 1289              		.loc 3 774 0
 1290 0008 5862     		str	r0, [r3, #36]
 1291              		.loc 3 776 0
 1292 000a 0320     		movs	r0, #3
 1293              	.LVL133:
 1294 000c FFF7FEBF 		b	chSchGoSleepTimeoutS
 1295              	.LVL134:
 1296              	.L78:
 1297              		.loc 3 777 0
 1298 0010 4FF0FF30 		mov	r0, #-1
 1299              	.LVL135:
 1300 0014 7047     		bx	lr
 1301              	.L80:
 1302 0016 00BF     		.align	2
 1303              	.L79:
 1304 0018 00000000 		.word	ch
 1305              		.cfi_endproc
 1306              	.LFE310:
 1307              		.size	chThdSuspendTimeoutS, .-chThdSuspendTimeoutS
 1308              		.section	.text.chThdResumeI,"ax",%progbits
 1309              		.align	1
 1310              		.global	chThdResumeI
 1311              		.thumb
ARM GAS  /tmp/ccxAdmWE.s 			page 24


 1312              		.thumb_func
 1313              		.type	chThdResumeI, %function
 1314              	chThdResumeI:
 1315              	.LFB311:
 1316              		.loc 3 789 0
 1317              		.cfi_startproc
 1318              		@ args = 0, pretend = 0, frame = 0
 1319              		@ frame_needed = 0, uses_anonymous_args = 0
 1320              		@ link register save eliminated.
 1321              	.LVL136:
 1322              		.loc 3 791 0
 1323 0000 0368     		ldr	r3, [r0]
 1324 0002 2BB1     		cbz	r3, .L81
 1325              	.LVL137:
 1326              	.LBB160:
 1327              		.loc 3 796 0
 1328 0004 0022     		movs	r2, #0
 1329 0006 0260     		str	r2, [r0]
 1330              		.loc 3 797 0
 1331 0008 5962     		str	r1, [r3, #36]
 1332              		.loc 3 798 0
 1333 000a 1846     		mov	r0, r3
 1334              	.LVL138:
 1335 000c FFF7FEBF 		b	chSchReadyI
 1336              	.LVL139:
 1337              	.L81:
 1338 0010 7047     		bx	lr
 1339              	.LBE160:
 1340              		.cfi_endproc
 1341              	.LFE311:
 1342              		.size	chThdResumeI, .-chThdResumeI
 1343              		.section	.text.chThdResumeS,"ax",%progbits
 1344              		.align	1
 1345              		.global	chThdResumeS
 1346              		.thumb
 1347              		.thumb_func
 1348              		.type	chThdResumeS, %function
 1349              	chThdResumeS:
 1350              	.LFB312:
 1351              		.loc 3 812 0
 1352              		.cfi_startproc
 1353              		@ args = 0, pretend = 0, frame = 0
 1354              		@ frame_needed = 0, uses_anonymous_args = 0
 1355              		@ link register save eliminated.
 1356              	.LVL140:
 1357              		.loc 3 814 0
 1358 0000 0368     		ldr	r3, [r0]
 1359 0002 23B1     		cbz	r3, .L83
 1360              	.LVL141:
 1361              	.LBB161:
 1362              		.loc 3 819 0
 1363 0004 0022     		movs	r2, #0
 1364 0006 0260     		str	r2, [r0]
 1365              		.loc 3 820 0
 1366 0008 1846     		mov	r0, r3
 1367              	.LVL142:
 1368 000a FFF7FEBF 		b	chSchWakeupS
ARM GAS  /tmp/ccxAdmWE.s 			page 25


 1369              	.LVL143:
 1370              	.L83:
 1371 000e 7047     		bx	lr
 1372              	.LBE161:
 1373              		.cfi_endproc
 1374              	.LFE312:
 1375              		.size	chThdResumeS, .-chThdResumeS
 1376              		.section	.text.chThdResume,"ax",%progbits
 1377              		.align	1
 1378              		.global	chThdResume
 1379              		.thumb
 1380              		.thumb_func
 1381              		.type	chThdResume, %function
 1382              	chThdResume:
 1383              	.LFB313:
 1384              		.loc 3 834 0
 1385              		.cfi_startproc
 1386              		@ args = 0, pretend = 0, frame = 0
 1387              		@ frame_needed = 0, uses_anonymous_args = 0
 1388              	.LVL144:
 1389 0000 38B5     		push	{r3, r4, r5, lr}
 1390              		.cfi_def_cfa_offset 16
 1391              		.cfi_offset 3, -16
 1392              		.cfi_offset 4, -12
 1393              		.cfi_offset 5, -8
 1394              		.cfi_offset 14, -4
 1395              		.loc 3 834 0
 1396 0002 0446     		mov	r4, r0
 1397 0004 0D46     		mov	r5, r1
 1398              		.loc 3 836 0
 1399 0006 FFF7FEFF 		bl	chSysLock
 1400              	.LVL145:
 1401              		.loc 3 837 0
 1402 000a 2946     		mov	r1, r5
 1403 000c 2046     		mov	r0, r4
 1404 000e FFF7FEFF 		bl	chThdResumeS
 1405              	.LVL146:
 1406              		.loc 3 839 0
 1407 0012 BDE83840 		pop	{r3, r4, r5, lr}
 1408              		.cfi_restore 14
 1409              		.cfi_restore 5
 1410              		.cfi_restore 4
 1411              		.cfi_restore 3
 1412              		.cfi_def_cfa_offset 0
 1413              	.LVL147:
 1414              		.loc 3 838 0
 1415 0016 FFF7FEBF 		b	chSysUnlock
 1416              	.LVL148:
 1417              		.cfi_endproc
 1418              	.LFE313:
 1419              		.size	chThdResume, .-chThdResume
 1420              		.section	.text.chThdEnqueueTimeoutS,"ax",%progbits
 1421              		.align	1
 1422              		.global	chThdEnqueueTimeoutS
 1423              		.thumb
 1424              		.thumb_func
 1425              		.type	chThdEnqueueTimeoutS, %function
ARM GAS  /tmp/ccxAdmWE.s 			page 26


 1426              	chThdEnqueueTimeoutS:
 1427              	.LFB314:
 1428              		.loc 3 864 0
 1429              		.cfi_startproc
 1430              		@ args = 0, pretend = 0, frame = 0
 1431              		@ frame_needed = 0, uses_anonymous_args = 0
 1432              		@ link register save eliminated.
 1433              	.LVL149:
 1434              		.loc 3 866 0
 1435 0000 49B1     		cbz	r1, .L87
 1436              		.loc 3 870 0
 1437 0002 064B     		ldr	r3, .L88
 1438              	.LBB162:
 1439              	.LBB163:
 1440              		.loc 4 601 0
 1441 0004 4268     		ldr	r2, [r0, #4]
 1442              	.LBE163:
 1443              	.LBE162:
 1444              		.loc 3 870 0
 1445 0006 9B69     		ldr	r3, [r3, #24]
 1446              	.LVL150:
 1447              	.LBB165:
 1448              	.LBB164:
 1449              		.loc 4 600 0
 1450 0008 1860     		str	r0, [r3]
 1451              		.loc 4 601 0
 1452 000a 5A60     		str	r2, [r3, #4]
 1453              		.loc 4 602 0
 1454 000c 1360     		str	r3, [r2]
 1455              		.loc 4 603 0
 1456 000e 4360     		str	r3, [r0, #4]
 1457              	.LVL151:
 1458              	.LBE164:
 1459              	.LBE165:
 1460              		.loc 3 872 0
 1461 0010 0420     		movs	r0, #4
 1462              	.LVL152:
 1463 0012 FFF7FEBF 		b	chSchGoSleepTimeoutS
 1464              	.LVL153:
 1465              	.L87:
 1466              		.loc 3 873 0
 1467 0016 4FF0FF30 		mov	r0, #-1
 1468              	.LVL154:
 1469 001a 7047     		bx	lr
 1470              	.L89:
 1471              		.align	2
 1472              	.L88:
 1473 001c 00000000 		.word	ch
 1474              		.cfi_endproc
 1475              	.LFE314:
 1476              		.size	chThdEnqueueTimeoutS, .-chThdEnqueueTimeoutS
 1477              		.section	.text.chThdDequeueNextI,"ax",%progbits
 1478              		.align	1
 1479              		.global	chThdDequeueNextI
 1480              		.thumb
 1481              		.thumb_func
 1482              		.type	chThdDequeueNextI, %function
ARM GAS  /tmp/ccxAdmWE.s 			page 27


 1483              	chThdDequeueNextI:
 1484              	.LFB315:
 1485              		.loc 3 884 0
 1486              		.cfi_startproc
 1487              		@ args = 0, pretend = 0, frame = 0
 1488              		@ frame_needed = 0, uses_anonymous_args = 0
 1489              		@ link register save eliminated.
 1490              	.LVL155:
 1491              	.LBB172:
 1492              	.LBB173:
 1493              		.loc 4 566 0
 1494 0000 0368     		ldr	r3, [r0]
 1495              	.LVL156:
 1496              	.LBE173:
 1497              	.LBE172:
 1498              		.loc 3 886 0
 1499 0002 9842     		cmp	r0, r3
 1500 0004 06D0     		beq	.L90
 1501              	.LVL157:
 1502              	.LBB174:
 1503              	.LBB175:
 1504              	.LBB176:
 1505              	.LBB177:
 1506              		.loc 4 609 0
 1507 0006 1A68     		ldr	r2, [r3]
 1508 0008 0260     		str	r2, [r0]
 1509              		.loc 4 610 0
 1510 000a 5060     		str	r0, [r2, #4]
 1511              	.LVL158:
 1512              	.LBE177:
 1513              	.LBE176:
 1514              		.loc 5 434 0
 1515 000c 5962     		str	r1, [r3, #36]
 1516              		.loc 5 435 0
 1517 000e 1846     		mov	r0, r3
 1518              	.LVL159:
 1519 0010 FFF7FEBF 		b	chSchReadyI
 1520              	.LVL160:
 1521              	.L90:
 1522 0014 7047     		bx	lr
 1523              	.LBE175:
 1524              	.LBE174:
 1525              		.cfi_endproc
 1526              	.LFE315:
 1527              		.size	chThdDequeueNextI, .-chThdDequeueNextI
 1528              		.section	.text.chThdDequeueAllI,"ax",%progbits
 1529              		.align	1
 1530              		.global	chThdDequeueAllI
 1531              		.thumb
 1532              		.thumb_func
 1533              		.type	chThdDequeueAllI, %function
 1534              	chThdDequeueAllI:
 1535              	.LFB316:
 1536              		.loc 3 899 0
 1537              		.cfi_startproc
 1538              		@ args = 0, pretend = 0, frame = 0
 1539              		@ frame_needed = 0, uses_anonymous_args = 0
ARM GAS  /tmp/ccxAdmWE.s 			page 28


 1540              	.LVL161:
 1541 0000 38B5     		push	{r3, r4, r5, lr}
 1542              		.cfi_def_cfa_offset 16
 1543              		.cfi_offset 3, -16
 1544              		.cfi_offset 4, -12
 1545              		.cfi_offset 5, -8
 1546              		.cfi_offset 14, -4
 1547 0002 0446     		mov	r4, r0
 1548 0004 0D46     		mov	r5, r1
 1549              	.LVL162:
 1550              	.L93:
 1551              	.LBB184:
 1552              	.LBB185:
 1553              		.loc 4 566 0
 1554 0006 2068     		ldr	r0, [r4]
 1555              	.LVL163:
 1556              	.LBE185:
 1557              	.LBE184:
 1558              		.loc 3 901 0
 1559 0008 8442     		cmp	r4, r0
 1560 000a 06D0     		beq	.L95
 1561              	.LVL164:
 1562              	.LBB186:
 1563              	.LBB187:
 1564              	.LBB188:
 1565              	.LBB189:
 1566              		.loc 4 609 0
 1567 000c 0368     		ldr	r3, [r0]
 1568 000e 2360     		str	r3, [r4]
 1569              		.loc 4 610 0
 1570 0010 5C60     		str	r4, [r3, #4]
 1571              	.LVL165:
 1572              	.LBE189:
 1573              	.LBE188:
 1574              		.loc 5 434 0
 1575 0012 4562     		str	r5, [r0, #36]
 1576              		.loc 5 435 0
 1577 0014 FFF7FEFF 		bl	chSchReadyI
 1578              	.LVL166:
 1579 0018 F5E7     		b	.L93
 1580              	.LVL167:
 1581              	.L95:
 1582              	.LBE187:
 1583              	.LBE186:
 1584              		.loc 3 904 0
 1585 001a 38BD     		pop	{r3, r4, r5, pc}
 1586              		.cfi_endproc
 1587              	.LFE316:
 1588              		.size	chThdDequeueAllI, .-chThdDequeueAllI
 1589              		.section	.rodata.str1.1,"aMS",%progbits,1
 1590              	.LC0:
 1591 0000 6E6F6E61 		.ascii	"noname\000"
 1591      6D6500
 1592              		.text
 1593              	.Letext0:
 1594              		.file 7 "/usr/lib/gcc/arm-none-eabi/5.4.1/include/stddef.h"
 1595              		.file 8 "/usr/include/newlib/machine/_default_types.h"
ARM GAS  /tmp/ccxAdmWE.s 			page 29


 1596              		.file 9 "/usr/include/newlib/sys/_stdint.h"
 1597              		.file 10 "../../modules/ChibiOS/os/common/ports/ARMCMx/compilers/GCC/chtypes.h"
 1598              		.file 11 "../../modules/ChibiOS/os/rt/include/chsystypes.h"
 1599              		.file 12 "../../modules/ChibiOS/os/rt/include/chtime.h"
 1600              		.file 13 "../../modules/ChibiOS/os/common/ports/ARMCMx/chcore.h"
 1601              		.file 14 "../../modules/ChibiOS/os/common/ports/ARMCMx/chcore_v7m.h"
 1602              		.file 15 "../../modules/ChibiOS/os/hal/ports/STM32/LLD/TIMv1/stm32_tim.h"
 1603              		.file 16 "../../modules/ChibiOS/os/rt/include/chtm.h"
 1604              		.file 17 "../../modules/ChibiOS/os/rt/include/chstats.h"
 1605              		.file 18 "../../modules/ChibiOS/os/rt/include/chsem.h"
 1606              		.file 19 "../../modules/ChibiOS/os/rt/include/chmtx.h"
 1607              		.file 20 "../../modules/ChibiOS/os/common/ports/ARMCMx/chcore_timer.h"
 1608              		.file 21 "../../modules/ChibiOS/os/rt/include/chvt.h"
 1609              		.file 22 "../../modules/ChibiOS/os/oslib/include/chmempools.h"
 1610              		.file 23 "../../modules/ChibiOS/os/oslib/include/chmemheaps.h"
 1611              		.file 24 "../../modules/ChibiOS/os/common/ext/ARM/CMSIS/Core/Include/core_cm4.h"