ARM GAS  /tmp/ccz5QjuS.s 			page 1


   1              		.syntax unified
   2              		.cpu cortex-m4
   3              		.eabi_attribute 27, 1
   4              		.eabi_attribute 28, 1
   5              		.fpu fpv4-sp-d16
   6              		.eabi_attribute 20, 1
   7              		.eabi_attribute 21, 1
   8              		.eabi_attribute 23, 3
   9              		.eabi_attribute 24, 1
  10              		.eabi_attribute 25, 1
  11              		.eabi_attribute 26, 1
  12              		.eabi_attribute 30, 4
  13              		.eabi_attribute 34, 1
  14              		.eabi_attribute 18, 4
  15              		.thumb
  16              		.syntax unified
  17              		.file	"chvt.c"
  18              		.text
  19              	.Ltext0:
  20              		.cfi_sections	.debug_frame
  21              		.section	.text._vt_init,"ax",%progbits
  22              		.align	1
  23              		.global	_vt_init
  24              		.thumb
  25              		.thumb_func
  26              		.type	_vt_init, %function
  27              	_vt_init:
  28              	.LFB290:
  29              		.file 1 "../../modules/ChibiOS/os/rt/src/chvt.c"
  30              		.loc 1 61 0
  31              		.cfi_startproc
  32              		@ args = 0, pretend = 0, frame = 0
  33              		@ frame_needed = 0, uses_anonymous_args = 0
  34              		@ link register save eliminated.
  35              		.loc 1 63 0
  36 0000 054B     		ldr	r3, .L2
  37 0002 03F11C02 		add	r2, r3, #28
  38 0006 DA61     		str	r2, [r3, #28]
  39              		.loc 1 64 0
  40 0008 1A62     		str	r2, [r3, #32]
  41              		.loc 1 65 0
  42 000a 4FF0FF32 		mov	r2, #-1
  43 000e 5A62     		str	r2, [r3, #36]
  44              		.loc 1 69 0
  45 0010 0022     		movs	r2, #0
  46 0012 9A62     		str	r2, [r3, #40]
  47 0014 7047     		bx	lr
  48              	.L3:
  49 0016 00BF     		.align	2
  50              	.L2:
  51 0018 00000000 		.word	ch
  52              		.cfi_endproc
  53              	.LFE290:
  54              		.size	_vt_init, .-_vt_init
  55              		.section	.text.chVTDoSetI,"ax",%progbits
  56              		.align	1
  57              		.global	chVTDoSetI
ARM GAS  /tmp/ccz5QjuS.s 			page 2


  58              		.thumb
  59              		.thumb_func
  60              		.type	chVTDoSetI, %function
  61              	chVTDoSetI:
  62              	.LFB291:
  63              		.loc 1 96 0
  64              		.cfi_startproc
  65              		@ args = 0, pretend = 0, frame = 0
  66              		@ frame_needed = 0, uses_anonymous_args = 0
  67              	.LVL0:
  68 0000 F8B5     		push	{r3, r4, r5, r6, r7, lr}
  69              		.cfi_def_cfa_offset 24
  70              		.cfi_offset 3, -24
  71              		.cfi_offset 4, -20
  72              		.cfi_offset 5, -16
  73              		.cfi_offset 6, -12
  74              		.cfi_offset 7, -8
  75              		.cfi_offset 14, -4
  76              		.loc 1 103 0
  77 0002 0361     		str	r3, [r0, #16]
  78              	.LBB40:
  79              	.LBB41:
  80              	.LBB42:
  81              	.LBB43:
  82              	.LBB44:
  83              		.file 2 "../../modules/ChibiOS/os/hal/ports/STM32/LLD/TIMv1/hal_st_lld.h"
  84              		.loc 2 147 0
  85 0004 1A4B     		ldr	r3, .L12
  86              	.LVL1:
  87              	.LBE44:
  88              	.LBE43:
  89              	.LBE42:
  90              	.LBE41:
  91              	.LBE40:
  92              		.loc 1 104 0
  93 0006 C260     		str	r2, [r0, #12]
  94              	.LBB58:
  95              	.LBB48:
  96              	.LBB47:
  97              	.LBB46:
  98              	.LBB45:
  99              		.loc 2 147 0
 100 0008 5C6A     		ldr	r4, [r3, #36]
 101              	.LBE45:
 102              	.LBE46:
 103              	.LBE47:
 104              	.LBE48:
 105              		.loc 1 117 0
 106 000a 1A4B     		ldr	r3, .L12+4
 107 000c 1A46     		mov	r2, r3
 108              	.LVL2:
 109              		.loc 1 113 0
 110 000e 0129     		cmp	r1, #1
 111 0010 98BF     		it	ls
 112 0012 0221     		movls	r1, #2
 113              	.LVL3:
 114              		.loc 1 117 0
ARM GAS  /tmp/ccz5QjuS.s 			page 3


 115 0014 52F81C5F 		ldr	r5, [r2, #28]!
 116 0018 9542     		cmp	r5, r2
 117              	.LBE58:
 118              		.loc 1 96 0
 119 001a 0646     		mov	r6, r0
 120 001c 1F46     		mov	r7, r3
 121              	.LBB59:
 122              		.loc 1 117 0
 123 001e 0AD1     		bne	.L6
 124              		.loc 1 122 0
 125 0020 D861     		str	r0, [r3, #28]
 126              		.loc 1 123 0
 127 0022 1862     		str	r0, [r3, #32]
 128              		.loc 1 121 0
 129 0024 9C62     		str	r4, [r3, #40]
 130              		.loc 1 124 0
 131 0026 0560     		str	r5, [r0]
 132              		.loc 1 125 0
 133 0028 4560     		str	r5, [r0, #4]
 134              		.loc 1 126 0
 135 002a 8160     		str	r1, [r0, #8]
 136              	.LBB49:
 137              	.LBB50:
 138              		.file 3 "../../modules/ChibiOS/os/common/ports/ARMCMx/chcore_timer.h"
 139              		.loc 3 73 0
 140 002c 0819     		adds	r0, r1, r4
 141              	.LVL4:
 142              	.LBE50:
 143              	.LBE49:
 144              	.LBE59:
 145              		.loc 1 201 0
 146 002e BDE8F840 		pop	{r3, r4, r5, r6, r7, lr}
 147              		.cfi_remember_state
 148              		.cfi_restore 14
 149              		.cfi_restore 7
 150              		.cfi_restore 6
 151              		.cfi_restore 5
 152              		.cfi_restore 4
 153              		.cfi_restore 3
 154              		.cfi_def_cfa_offset 0
 155              	.LVL5:
 156              	.LBB60:
 157              	.LBB52:
 158              	.LBB51:
 159              		.loc 3 73 0
 160 0032 FFF7FEBF 		b	stStartAlarm
 161              	.LVL6:
 162              	.L6:
 163              		.cfi_restore_state
 164              	.LBE51:
 165              	.LBE52:
 166              		.loc 1 146 0
 167 0036 986A     		ldr	r0, [r3, #40]
 168              	.LVL7:
 169 0038 AB68     		ldr	r3, [r5, #8]
 170              	.LBB53:
 171              	.LBB54:
ARM GAS  /tmp/ccz5QjuS.s 			page 4


 172              		.file 4 "../../modules/ChibiOS/os/rt/include/chtime.h"
 173              		.loc 4 514 0
 174 003a 241A     		subs	r4, r4, r0
 175              	.LVL8:
 176              	.LBE54:
 177              	.LBE53:
 178              		.loc 1 148 0
 179 003c 0C19     		adds	r4, r1, r4
 180              	.LVL9:
 181 003e 05D2     		bcs	.L10
 182              		.loc 1 155 0
 183 0040 9C42     		cmp	r4, r3
 184 0042 05D2     		bcs	.L8
 185              	.LVL10:
 186              	.LBB55:
 187              	.LBB56:
 188              	.LBB57:
 189              		.loc 3 95 0
 190 0044 2044     		add	r0, r0, r4
 191 0046 FFF7FEFF 		bl	stSetAlarm
 192              	.LVL11:
 193 004a 01E0     		b	.L8
 194              	.LVL12:
 195              	.L10:
 196              	.LBE57:
 197              	.LBE56:
 198              	.LBE55:
 199              	.LBE60:
 200              		.loc 1 185 0
 201 004c 2D68     		ldr	r5, [r5]
 202              	.LVL13:
 203              		.loc 1 184 0
 204 004e E41A     		subs	r4, r4, r3
 205              	.LVL14:
 206              	.L8:
 207              		.loc 1 180 0
 208 0050 AB68     		ldr	r3, [r5, #8]
 209 0052 9C42     		cmp	r4, r3
 210 0054 FAD8     		bhi	.L10
 211              		.loc 1 190 0
 212 0056 6B68     		ldr	r3, [r5, #4]
 213 0058 7360     		str	r3, [r6, #4]
 214              		.loc 1 189 0
 215 005a 3560     		str	r5, [r6]
 216              		.loc 1 191 0
 217 005c 1E60     		str	r6, [r3]
 218              		.loc 1 192 0
 219 005e 6E60     		str	r6, [r5, #4]
 220              		.loc 1 193 0
 221 0060 B460     		str	r4, [r6, #8]
 222              		.loc 1 196 0
 223 0062 A968     		ldr	r1, [r5, #8]
 224              		.loc 1 200 0
 225 0064 4FF0FF33 		mov	r3, #-1
 226              		.loc 1 196 0
 227 0068 091B     		subs	r1, r1, r4
 228 006a A960     		str	r1, [r5, #8]
ARM GAS  /tmp/ccz5QjuS.s 			page 5


 229              		.loc 1 200 0
 230 006c 7B62     		str	r3, [r7, #36]
 231 006e F8BD     		pop	{r3, r4, r5, r6, r7, pc}
 232              	.LVL15:
 233              	.L13:
 234              		.align	2
 235              	.L12:
 236 0070 000C0040 		.word	1073744896
 237 0074 00000000 		.word	ch
 238              		.cfi_endproc
 239              	.LFE291:
 240              		.size	chVTDoSetI, .-chVTDoSetI
 241              		.section	.text.chVTDoResetI,"ax",%progbits
 242              		.align	1
 243              		.global	chVTDoResetI
 244              		.thumb
 245              		.thumb_func
 246              		.type	chVTDoResetI, %function
 247              	chVTDoResetI:
 248              	.LFB292:
 249              		.loc 1 211 0
 250              		.cfi_startproc
 251              		@ args = 0, pretend = 0, frame = 0
 252              		@ frame_needed = 0, uses_anonymous_args = 0
 253              		@ link register save eliminated.
 254              	.LVL16:
 255 0000 10B4     		push	{r4}
 256              		.cfi_def_cfa_offset 4
 257              		.cfi_offset 4, -4
 258              		.loc 1 235 0
 259 0002 1B4C     		ldr	r4, .L21
 260 0004 2346     		mov	r3, r4
 261 0006 53F81C1F 		ldr	r1, [r3, #28]!
 262 000a 8142     		cmp	r1, r0
 263 000c 0ED0     		beq	.L15
 264              		.loc 1 237 0
 265 000e 4168     		ldr	r1, [r0, #4]
 266 0010 0268     		ldr	r2, [r0]
 267 0012 0A60     		str	r2, [r1]
 268              		.loc 1 238 0
 269 0014 0268     		ldr	r2, [r0]
 270 0016 5160     		str	r1, [r2, #4]
 271              		.loc 1 242 0
 272 0018 9A42     		cmp	r2, r3
 273              		.loc 1 239 0
 274 001a 4FF00001 		mov	r1, #0
 275 001e C160     		str	r1, [r0, #12]
 276              		.loc 1 242 0
 277 0020 22D0     		beq	.L14
 278              		.loc 1 243 0
 279 0022 9168     		ldr	r1, [r2, #8]
 280 0024 8368     		ldr	r3, [r0, #8]
 281 0026 0B44     		add	r3, r3, r1
 282 0028 9360     		str	r3, [r2, #8]
 283 002a 1DE0     		b	.L14
 284              	.L15:
 285              		.loc 1 249 0
ARM GAS  /tmp/ccz5QjuS.s 			page 6


 286 002c 0A68     		ldr	r2, [r1]
 287 002e E261     		str	r2, [r4, #28]
 288              		.loc 1 251 0
 289 0030 0020     		movs	r0, #0
 290              	.LVL17:
 291              		.loc 1 254 0
 292 0032 9A42     		cmp	r2, r3
 293              		.loc 1 250 0
 294 0034 5360     		str	r3, [r2, #4]
 295              		.loc 1 251 0
 296 0036 C860     		str	r0, [r1, #12]
 297              		.loc 1 254 0
 298 0038 03D1     		bne	.L18
 299              		.loc 1 297 0
 300 003a 5DF8044B 		ldr	r4, [sp], #4
 301              		.cfi_remember_state
 302              		.cfi_restore 4
 303              		.cfi_def_cfa_offset 0
 304              	.LBB61:
 305              	.LBB62:
 306              		.loc 3 83 0
 307 003e FFF7FEBF 		b	stStopAlarm
 308              	.LVL18:
 309              	.L18:
 310              		.cfi_restore_state
 311              	.LBE62:
 312              	.LBE61:
 313              		.loc 1 261 0
 314 0042 9068     		ldr	r0, [r2, #8]
 315 0044 8B68     		ldr	r3, [r1, #8]
 316 0046 0344     		add	r3, r3, r0
 317 0048 9360     		str	r3, [r2, #8]
 318              	.LBB63:
 319              	.LBB64:
 320              	.LBB65:
 321              	.LBB66:
 322              		.loc 2 147 0
 323 004a 0A4A     		ldr	r2, .L21+4
 324              	.LBE66:
 325              	.LBE65:
 326              	.LBE64:
 327              	.LBE63:
 328              		.loc 1 270 0
 329 004c A06A     		ldr	r0, [r4, #40]
 330              	.LBB70:
 331              	.LBB69:
 332              	.LBB68:
 333              	.LBB67:
 334              		.loc 2 147 0
 335 004e 526A     		ldr	r2, [r2, #36]
 336              	.LVL19:
 337              	.LBE67:
 338              	.LBE68:
 339              	.LBE69:
 340              	.LBE70:
 341              	.LBB71:
 342              	.LBB72:
ARM GAS  /tmp/ccz5QjuS.s 			page 7


 343              		.loc 4 514 0
 344 0050 121A     		subs	r2, r2, r0
 345              	.LVL20:
 346              	.LBE72:
 347              	.LBE71:
 348              		.loc 1 274 0
 349 0052 9A42     		cmp	r2, r3
 350 0054 08D2     		bcs	.L14
 351              	.LVL21:
 352              		.loc 1 283 0
 353 0056 991A     		subs	r1, r3, r2
 354              	.LVL22:
 355 0058 0129     		cmp	r1, #1
 356              		.loc 1 284 0
 357 005a 98BF     		it	ls
 358 005c 931C     		addls	r3, r2, #2
 359              	.LVL23:
 360              	.LBB73:
 361              	.LBB74:
 362              		.loc 3 95 0
 363 005e 1844     		add	r0, r0, r3
 364              	.LBE74:
 365              	.LBE73:
 366              		.loc 1 297 0
 367 0060 5DF8044B 		ldr	r4, [sp], #4
 368              		.cfi_remember_state
 369              		.cfi_restore 4
 370              		.cfi_def_cfa_offset 0
 371              	.LBB76:
 372              	.LBB75:
 373              		.loc 3 95 0
 374 0064 FFF7FEBF 		b	stSetAlarm
 375              	.LVL24:
 376              	.L14:
 377              		.cfi_restore_state
 378              	.LBE75:
 379              	.LBE76:
 380              		.loc 1 297 0
 381 0068 5DF8044B 		ldr	r4, [sp], #4
 382              		.cfi_restore 4
 383              		.cfi_def_cfa_offset 0
 384 006c 7047     		bx	lr
 385              	.L22:
 386 006e 00BF     		.align	2
 387              	.L21:
 388 0070 00000000 		.word	ch
 389 0074 000C0040 		.word	1073744896
 390              		.cfi_endproc
 391              	.LFE292:
 392              		.size	chVTDoResetI, .-chVTDoResetI
 393              		.text
 394              	.Letext0:
 395              		.file 5 "/usr/include/newlib/machine/_default_types.h"
 396              		.file 6 "/usr/include/newlib/sys/_stdint.h"
 397              		.file 7 "../../modules/ChibiOS/os/common/ports/ARMCMx/compilers/GCC/chtypes.h"
 398              		.file 8 "../../modules/ChibiOS/os/rt/include/chsystypes.h"
 399              		.file 9 "../../modules/ChibiOS/os/rt/include/chschd.h"
ARM GAS  /tmp/ccz5QjuS.s 			page 8


 400              		.file 10 "../../modules/ChibiOS/os/common/ports/ARMCMx/chcore.h"
 401              		.file 11 "../../modules/ChibiOS/os/common/ports/ARMCMx/chcore_v7m.h"
 402              		.file 12 "../../modules/ChibiOS/os/hal/ports/STM32/LLD/TIMv1/stm32_tim.h"
 403              		.file 13 "../../modules/ChibiOS/os/rt/include/chtm.h"
 404              		.file 14 "../../modules/ChibiOS/os/rt/include/chstats.h"
 405              		.file 15 "../../modules/ChibiOS/os/rt/include/chsem.h"
 406              		.file 16 "../../modules/ChibiOS/os/rt/include/chmtx.h"
 407              		.file 17 "../../modules/ChibiOS/os/rt/include/chvt.h"
 408              		.file 18 "../../modules/ChibiOS/os/hal/include/hal_st.h"
 409              		.file 19 "../../modules/ChibiOS/os/common/ext/ARM/CMSIS/Core/Include/core_cm4.h"