ARM GAS  /tmp/ccz5QjuS.s 			page 1


   1              		.syntax unified
   2              		.cpu cortex-m4
   3              		.eabi_attribute 27, 1
   4              		.eabi_attribute 28, 1
   5              		.fpu fpv4-sp-d16
   6              		.eabi_attribute 20, 1
   7              		.eabi_attribute 21, 1
   8              		.eabi_attribute 23, 3
   9              		.eabi_attribute 24, 1
  10              		.eabi_attribute 25, 1
  11              		.eabi_attribute 26, 1
  12              		.eabi_attribute 30, 4
  13              		.eabi_attribute 34, 1
  14              		.eabi_attribute 18, 4
  15              		.thumb
  16              		.syntax unified
  17              		.file	"chvt.c"
  18              		.text
  19              	.Ltext0:
  20              		.cfi_sections	.debug_frame
  21              		.section	.text._vt_init,"ax",%progbits
  22              		.align	1
  23              		.global	_vt_init
  24              		.thumb
  25              		.thumb_func
  26              		.type	_vt_init, %function
  27              	_vt_init:
  28              	.LFB290:
  29              		.file 1 "../../modules/ChibiOS/os/rt/src/chvt.c"
  30              		.loc 1 61 0
  31              		.cfi_startproc
  32              		@ args = 0, pretend = 0, frame = 0
  33              		@ frame_needed = 0, uses_anonymous_args = 0
  34              		@ link register save eliminated.
  35              		.loc 1 63 0
  36 0000 054B     		ldr	r3, .L2
  37 0002 03F11C02 		add	r2, r3, #28
  38 0006 DA61     		str	r2, [r3, #28]
  39              		.loc 1 64 0
  40 0008 1A62     		str	r2, [r3, #32]
  41              		.loc 1 65 0
  42 000a 4FF0FF32 		mov	r2, #-1
  43 000e 5A62     		str	r2, [r3, #36]
  44              		.loc 1 69 0
  45 0010 0022     		movs	r2, #0
  46 0012 9A62     		str	r2, [r3, #40]
  47 0014 7047     		bx	lr
  48              	.L3:
  49 0016 00BF     		.align	2
  50              	.L2:
  51 0018 00000000 		.word	ch
  52              		.cfi_endproc
  53              	.LFE290:
  54              		.size	_vt_init, .-_vt_init
  55              		.section	.text.chVTDoSetI,"ax",%progbits
  56              		.align	1
  57              		.global	chVTDoSetI
ARM GAS  /tmp/ccz5QjuS.s 			page 2


  58              		.thumb
  59              		.thumb_func
  60              		.type	chVTDoSetI, %function
  61              	chVTDoSetI:
  62              	.LFB291:
  63              		.loc 1 96 0
  64              		.cfi_startproc
  65              		@ args = 0, pretend = 0, frame = 0
  66              		@ frame_needed = 0, uses_anonymous_args = 0
  67              	.LVL0:
  68 0000 F8B5     		push	{r3, r4, r5, r6, r7, lr}
  69              		.cfi_def_cfa_offset 24
  70              		.cfi_offset 3, -24
  71              		.cfi_offset 4, -20
  72              		.cfi_offset 5, -16
  73              		.cfi_offset 6, -12
  74              		.cfi_offset 7, -8
  75              		.cfi_offset 14, -4
  76              		.loc 1 103 0
  77 0002 0361     		str	r3, [r0, #16]
  78              	.LBB40:
  79              	.LBB41:
  80              	.LBB42:
  81              	.LBB43:
  82              	.LBB44:
  83              		.file 2 "../../modules/ChibiOS/os/hal/ports/STM32/LLD/TIMv1/hal_st_lld.h"
  84              		.loc 2 147 0
  85 0004 1A4B     		ldr	r3, .L12
  86              	.LVL1:
  87              	.LBE44:
  88              	.LBE43:
  89              	.LBE42:
  90              	.LBE41:
  91              	.LBE40:
  92              		.loc 1 104 0
  93 0006 C260     		str	r2, [r0, #12]
  94              	.LBB58:
  95              	.LBB48:
  96              	.LBB47:
  97              	.LBB46:
  98              	.LBB45:
  99              		.loc 2 147 0
 100 0008 5C6A     		ldr	r4, [r3, #36]
 101              	.LBE45:
 102              	.LBE46:
 103              	.LBE47:
 104              	.LBE48:
 105              		.loc 1 117 0
 106 000a 1A4B     		ldr	r3, .L12+4
 107 000c 1A46     		mov	r2, r3
 108              	.LVL2:
 109              		.loc 1 113 0
 110 000e 0129     		cmp	r1, #1
 111 0010 98BF     		it	ls
 112 0012 0221     		movls	r1, #2
 113              	.LVL3:
 114              		.loc 1 117 0
ARM GAS  /tmp/ccz5QjuS.s 			page 3


 115 0014 52F81C5F 		ldr	r5, [r2, #28]!
 116 0018 9542     		cmp	r5, r2
 117              	.LBE58:
 118              		.loc 1 96 0
 119 001a 0646     		mov	r6, r0
 120 001c 1F46     		mov	r7, r3
 121              	.LBB59:
 122              		.loc 1 117 0
 123 001e 0AD1     		bne	.L6
 124              		.loc 1 122 0
 125 0020 D861     		str	r0, [r3, #28]
 126              		.loc 1 123 0
 127 0022 1862     		str	r0, [r3, #32]
 128              		.loc 1 121 0
 129 0024 9C62     		str	r4, [r3, #40]
 130              		.loc 1 124 0
 131 0026 0560     		str	r5, [r0]
 132              		.loc 1 125 0
 133 0028 4560     		str	r5, [r0, #4]
 134              		.loc 1 126 0
 135 002a 8160     		str	r1, [r0, #8]
 136              	.LBB49:
 137              	.LBB50:
 138              		.file 3 "../../modules/ChibiOS/os/common/ports/ARMCMx/chcore_timer.h"
 139              		.loc 3 73 0
 140 002c 0819     		adds	r0, r1, r4
 141              	.LVL4:
 142              	.LBE50:
 143              	.LBE49:
 144              	.LBE59:
 145              		.loc 1 201 0
 146 002e BDE8F840 		pop	{r3, r4, r5, r6, r7, lr}
 147              		.cfi_remember_state
 148              		.cfi_restore 14
 149              		.cfi_restore 7
 150              		.cfi_restore 6
 151              		.cfi_restore 5
 152              		.cfi_restore 4
 153              		.cfi_restore 3
 154              		.cfi_def_cfa_offset 0
 155              	.LVL5:
 156              	.LBB60:
 157              	.LBB52:
 158              	.LBB51:
 159              		.loc 3 73 0
 160 0032 FFF7FEBF 		b	stStartAlarm
 161              	.LVL6:
 162              	.L6:
 163              		.cfi_restore_state
 164              	.LBE51:
 165              	.LBE52:
 166              		.loc 1 146 0
 167 0036 986A     		ldr	r0, [r3, #40]
 168              	.LVL7:
 169 0038 AB68     		ldr	r3, [r5, #8]
 170              	.LBB53:
 171              	.LBB54:
ARM GAS  /tmp/ccz5QjuS.s 			page 4


 172              		.file 4 "../../modules/ChibiOS/os/rt/include/chtime.h"
 173              		.loc 4 514 0
 174 003a 241A     		subs	r4, r4, r0
 175              	.LVL8:
 176              	.LBE54:
 177              	.LBE53:
 178              		.loc 1 148 0
 179 003c 0C19     		adds	r4, r1, r4
 180              	.LVL9:
 181 003e 05D2     		bcs	.L10
 182              		.loc 1 155 0
 183 0040 9C42     		cmp	r4, r3
 184 0042 05D2     		bcs	.L8
 185              	.LVL10:
 186              	.LBB55:
 187              	.LBB56:
 188              	.LBB57:
 189              		.loc 3 95 0
 190 0044 2044     		add	r0, r0, r4
 191 0046 FFF7FEFF 		bl	stSetAlarm
 192              	.LVL11:
 193 004a 01E0     		b	.L8
 194              	.LVL12:
 195              	.L10:
 196              	.LBE57:
 197              	.LBE56:
 198              	.LBE55:
 199              	.LBE60:
 200              		.loc 1 185 0
 201 004c 2D68     		ldr	r5, [r5]
 202              	.LVL13:
 203              		.loc 1 184 0
 204 004e E41A     		subs	r4, r4, r3
 205              	.LVL14:
 206              	.L8:
 207              		.loc 1 180 0
 208 0050 AB68     		ldr	r3, [r5, #8]
 209 0052 9C42     		cmp	r4, r3
 210 0054 FAD8     		bhi	.L10
 211              		.loc 1 190 0
 212 0056 6B68     		ldr	r3, [r5, #4]
 213 0058 7360     		str	r3, [r6, #4]
 214              		.loc 1 189 0
 215 005a 3560     		str	r5, [r6]
 216              		.loc 1 191 0
 217 005c 1E60     		str	r6, [r3]
 218              		.loc 1 192 0
 219 005e 6E60     		str	r6, [r5, #4]
 220              		.loc 1 193 0
 221 0060 B460     		str	r4, [r6, #8]
 222              		.loc 1 196 0
 223 0062 A968     		ldr	r1, [r5, #8]
 224              		.loc 1 200 0
 225 0064 4FF0FF33 		mov	r3, #-1
 226              		.loc 1 196 0
 227 0068 091B     		subs	r1, r1, r4
 228 006a A960     		str	r1, [r5, #8]
ARM GAS  /tmp/ccz5QjuS.s 			page 5


 229              		.loc 1 200 0
 230 006c 7B62     		str	r3, [r7, #36]
 231 006e F8BD     		pop	{r3, r4, r5, r6, r7, pc}
 232              	.LVL15:
 233              	.L13:
 234              		.align	2
 235              	.L12:
 236 0070 000C0040 		.word	1073744896
 237 0074 00000000 		.word	ch
 238              		.cfi_endproc
 239              	.LFE291:
 240              		.size	chVTDoSetI, .-chVTDoSetI
 241              		.section	.text.chVTDoResetI,"ax",%progbits
 242              		.align	1
 243              		.global	chVTDoResetI
 244              		.thumb
 245              		.thumb_func
 246              		.type	chVTDoResetI, %function
 247              	chVTDoResetI:
 248              	.LFB292:
 249              		.loc 1 211 0
 250              		.cfi_startproc
 251              		@ args = 0, pretend = 0, frame = 0
 252              		@ frame_needed = 0, uses_anonymous_args = 0
 253              		@ link register save eliminated.
 254              	.LVL16:
 255 0000 10B4     		push	{r4}
 256              		.cfi_def_cfa_offset 4
 257              		.cfi_offset 4, -4
 258              		.loc 1 235 0
 259 0002 1B4C     		ldr	r4, .L21
 260 0004 2346     		mov	r3, r4
 261 0006 53F81C1F 		ldr	r1, [r3, #28]!
 262 000a 8142     		cmp	r1, r0
 263 000c 0ED0     		beq	.L15
 264              		.loc 1 237 0
 265 000e 4168     		ldr	r1, [r0, #4]
 266 0010 0268     		ldr	r2, [r0]
 267 0012 0A60     		str	r2, [r1]
 268              		.loc 1 238 0
 269 0014 0268     		ldr	r2, [r0]
 270 0016 5160     		str	r1, [r2, #4]
 271              		.loc 1 242 0
 272 0018 9A42     		cmp	r2, r3
 273              		.loc 1 239 0
 274 001a 4FF00001 		mov	r1, #0
 275 001e C160     		str	r1, [r0, #12]
 276              		.loc 1 242 0
 277 0020 22D0     		beq	.L14
 278              		.loc 1 243 0
 279 0022 9168     		ldr	r1, [r2, #8]
 280 0024 8368     		ldr	r3, [r0, #8]
 281 0026 0B44     		add	r3, r3, r1
 282 0028 9360     		str	r3, [r2, #8]
 283 002a 1DE0     		b	.L14
 284              	.L15:
 285              		.loc 1 249 0
ARM GAS  /tmp/ccz5QjuS.s 			page 6


 286 002c 0A68     		ldr	r2, [r1]
 287 002e E261     		str	r2, [r4, #28]
 288              		.loc 1 251 0
 289 0030 0020     		movs	r0, #0
 290              	.LVL17:
 291              		.loc 1 254 0
 292 0032 9A42     		cmp	r2, r3
 293              		.loc 1 250 0
 294 0034 5360     		str	r3, [r2, #4]
 295              		.loc 1 251 0
 296 0036 C860     		str	r0, [r1, #12]
 297              		.loc 1 254 0
 298 0038 03D1     		bne	.L18
 299              		.loc 1 297 0
 300 003a 5DF8044B 		ldr	r4, [sp], #4
 301              		.cfi_remember_state
 302              		.cfi_restore 4
 303              		.cfi_def_cfa_offset 0
 304              	.LBB61:
 305              	.LBB62:
 306              		.loc 3 83 0
 307 003e FFF7FEBF 		b	stStopAlarm
 308              	.LVL18:
 309              	.L18:
 310              		.cfi_restore_state
 311              	.LBE62:
 312              	.LBE61:
 313              		.loc 1 261 0
 314 0042 9068     		ldr	r0, [r2, #8]
 315 0044 8B68     		ldr	r3, [r1, #8]
 316 0046 0344     		add	r3, r3, r0
 317 0048 9360     		str	r3, [r2, #8]
 318              	.LBB63:
 319              	.LBB64:
 320              	.LBB65:
 321              	.LBB66:
 322              		.loc 2 147 0
 323 004a 0A4A     		ldr	r2, .L21+4
 324              	.LBE66:
 325              	.LBE65:
 326              	.LBE64:
 327              	.LBE63:
 328              		.loc 1 270 0
 329 004c A06A     		ldr	r0, [r4, #40]
 330              	.LBB70:
 331              	.LBB69:
 332              	.LBB68:
 333              	.LBB67:
 334              		.loc 2 147 0
 335 004e 526A     		ldr	r2, [r2, #36]
 336              	.LVL19:
 337              	.LBE67:
 338              	.LBE68:
 339              	.LBE69:
 340              	.LBE70:
 341              	.LBB71:
 342              	.LBB72:
ARM GAS  /tmp/ccz5QjuS.s 			page 7


 343              		.loc 4 514 0
 344 0050 121A     		subs	r2, r2, r0
 345              	.LVL20:
 346              	.LBE72:
 347              	.LBE71:
 348              		.loc 1 274 0
 349 0052 9A42     		cmp	r2, r3
 350 0054 08D2     		bcs	.L14
 351              	.LVL21:
 352              		.loc 1 283 0
 353 0056 991A     		subs	r1, r3, r2
 354              	.LVL22:
 355 0058 0129     		cmp	r1, #1
 356              		.loc 1 284 0
 357 005a 98BF     		it	ls
 358 005c 931C     		addls	r3, r2, #2
 359              	.LVL23:
 360              	.LBB73:
 361              	.LBB74:
 362              		.loc 3 95 0
 363 005e 1844     		add	r0, r0, r3
 364              	.LBE74:
 365              	.LBE73:
 366              		.loc 1 297 0
 367 0060 5DF8044B 		ldr	r4, [sp], #4
 368              		.cfi_remember_state
 369              		.cfi_restore 4
 370              		.cfi_def_cfa_offset 0
 371              	.LBB76:
 372              	.LBB75:
 373              		.loc 3 95 0
 374 0064 FFF7FEBF 		b	stSetAlarm
 375              	.LVL24:
 376              	.L14:
 377              		.cfi_restore_state
 378              	.LBE75:
 379              	.LBE76:
 380              		.loc 1 297 0
 381 0068 5DF8044B 		ldr	r4, [sp], #4
 382              		.cfi_restore 4
 383              		.cfi_def_cfa_offset 0
 384 006c 7047     		bx	lr
 385              	.L22:
 386 006e 00BF     		.align	2
 387              	.L21:
 388 0070 00000000 		.word	ch
 389 0074 000C0040 		.word	1073744896
 390              		.cfi_endproc
 391              	.LFE292:
 392              		.size	chVTDoResetI, .-chVTDoResetI
 393              		.text
 394              	.Letext0:
 395              		.file 5 "/usr/include/newlib/machine/_default_types.h"
 396              		.file 6 "/usr/include/newlib/sys/_stdint.h"
 397              		.file 7 "../../modules/ChibiOS/os/common/ports/ARMCMx/compilers/GCC/chtypes.h"
 398              		.file 8 "../../modules/ChibiOS/os/rt/include/chsystypes.h"
 399              		.file 9 "../../modules/ChibiOS/os/rt/include/chschd.h"
ARM GAS  /tmp/ccz5QjuS.s 			page 8


 400              		.file 10 "../../modules/ChibiOS/os/common/ports/ARMCMx/chcore.h"
 401              		.file 11 "../../modules/ChibiOS/os/common/ports/ARMCMx/chcore_v7m.h"
 402              		.file 12 "../../modules/ChibiOS/os/hal/ports/STM32/LLD/TIMv1/stm32_tim.h"
 403              		.file 13 "../../modules/ChibiOS/os/rt/include/chtm.h"
 404              		.file 14 "../../modules/ChibiOS/os/rt/include/chstats.h"
 405              		.file 15 "../../modules/ChibiOS/os/rt/include/chsem.h"
 406              		.file 16 "../../modules/ChibiOS/os/rt/include/chmtx.h"
 407              		.file 17 "../../modules/ChibiOS/os/rt/include/chvt.h"
 408              		.file 18 "../../modules/ChibiOS/os/hal/include/hal_st.h"
 409              		.file 19 "../../modules/ChibiOS/os/common/ext/ARM/CMSIS/Core/Include/core_cm4.h"
 410              		.section	.debug_info,"",%progbits
 411              	.Ldebug_info0:
 412 0000 200C0000 		.4byte	0xc20
 413 0004 0400     		.2byte	0x4
 414 0006 00000000 		.4byte	.Ldebug_abbrev0
 415 000a 04       		.byte	0x4
 416 000b 01       		.uleb128 0x1
 417 000c 93000000 		.4byte	.LASF138
 418 0010 0C       		.byte	0xc
 419 0011 09040000 		.4byte	.LASF139
 420 0015 2A050000 		.4byte	.LASF140
 421 0019 88000000 		.4byte	.Ldebug_ranges0+0x88
 422 001d 00000000 		.4byte	0
 423 0021 00000000 		.4byte	.Ldebug_line0
 424 0025 02       		.uleb128 0x2
 425 0026 04       		.byte	0x4
 426 0027 05       		.byte	0x5
 427 0028 696E7400 		.ascii	"int\000"
 428 002c 03       		.uleb128 0x3
 429 002d 04       		.byte	0x4
 430 002e 07       		.byte	0x7
 431 002f BA050000 		.4byte	.LASF0
 432 0033 03       		.uleb128 0x3
 433 0034 08       		.byte	0x8
 434 0035 05       		.byte	0x5
 435 0036 8A020000 		.4byte	.LASF1
 436 003a 03       		.uleb128 0x3
 437 003b 08       		.byte	0x8
 438 003c 04       		.byte	0x4
 439 003d DF030000 		.4byte	.LASF2
 440 0041 03       		.uleb128 0x3
 441 0042 01       		.byte	0x1
 442 0043 06       		.byte	0x6
 443 0044 16020000 		.4byte	.LASF3
 444 0048 04       		.uleb128 0x4
 445 0049 4C000000 		.4byte	.LASF7
 446 004d 05       		.byte	0x5
 447 004e 1D       		.byte	0x1d
 448 004f 53000000 		.4byte	0x53
 449 0053 03       		.uleb128 0x3
 450 0054 01       		.byte	0x1
 451 0055 08       		.byte	0x8
 452 0056 AB040000 		.4byte	.LASF4
 453 005a 03       		.uleb128 0x3
 454 005b 02       		.byte	0x2
 455 005c 05       		.byte	0x5
 456 005d BF040000 		.4byte	.LASF5
ARM GAS  /tmp/ccz5QjuS.s 			page 9


 457 0061 03       		.uleb128 0x3
 458 0062 02       		.byte	0x2
 459 0063 07       		.byte	0x7
 460 0064 0B060000 		.4byte	.LASF6
 461 0068 04       		.uleb128 0x4
 462 0069 88030000 		.4byte	.LASF8
 463 006d 05       		.byte	0x5
 464 006e 3F       		.byte	0x3f
 465 006f 73000000 		.4byte	0x73
 466 0073 03       		.uleb128 0x3
 467 0074 04       		.byte	0x4
 468 0075 05       		.byte	0x5
 469 0076 38020000 		.4byte	.LASF9
 470 007a 04       		.uleb128 0x4
 471 007b 5E020000 		.4byte	.LASF10
 472 007f 05       		.byte	0x5
 473 0080 41       		.byte	0x41
 474 0081 85000000 		.4byte	0x85
 475 0085 03       		.uleb128 0x3
 476 0086 04       		.byte	0x4
 477 0087 07       		.byte	0x7
 478 0088 8A050000 		.4byte	.LASF11
 479 008c 04       		.uleb128 0x4
 480 008d 4D040000 		.4byte	.LASF12
 481 0091 05       		.byte	0x5
 482 0092 5B       		.byte	0x5b
 483 0093 97000000 		.4byte	0x97
 484 0097 03       		.uleb128 0x3
 485 0098 08       		.byte	0x8
 486 0099 07       		.byte	0x7
 487 009a 90010000 		.4byte	.LASF13
 488 009e 04       		.uleb128 0x4
 489 009f E3040000 		.4byte	.LASF14
 490 00a3 06       		.byte	0x6
 491 00a4 18       		.byte	0x18
 492 00a5 48000000 		.4byte	0x48
 493 00a9 04       		.uleb128 0x4
 494 00aa A3040000 		.4byte	.LASF15
 495 00ae 06       		.byte	0x6
 496 00af 2C       		.byte	0x2c
 497 00b0 68000000 		.4byte	0x68
 498 00b4 04       		.uleb128 0x4
 499 00b5 3A060000 		.4byte	.LASF16
 500 00b9 06       		.byte	0x6
 501 00ba 30       		.byte	0x30
 502 00bb 7A000000 		.4byte	0x7a
 503 00bf 04       		.uleb128 0x4
 504 00c0 2A000000 		.4byte	.LASF17
 505 00c4 06       		.byte	0x6
 506 00c5 3C       		.byte	0x3c
 507 00c6 8C000000 		.4byte	0x8c
 508 00ca 04       		.uleb128 0x4
 509 00cb 32060000 		.4byte	.LASF18
 510 00cf 07       		.byte	0x7
 511 00d0 27       		.byte	0x27
 512 00d1 B4000000 		.4byte	0xb4
 513 00d5 04       		.uleb128 0x4
ARM GAS  /tmp/ccz5QjuS.s 			page 10


 514 00d6 F8010000 		.4byte	.LASF19
 515 00da 07       		.byte	0x7
 516 00db 28       		.byte	0x28
 517 00dc BF000000 		.4byte	0xbf
 518 00e0 04       		.uleb128 0x4
 519 00e1 BB060000 		.4byte	.LASF20
 520 00e5 07       		.byte	0x7
 521 00e6 2A       		.byte	0x2a
 522 00e7 9E000000 		.4byte	0x9e
 523 00eb 04       		.uleb128 0x4
 524 00ec 41020000 		.4byte	.LASF21
 525 00f0 07       		.byte	0x7
 526 00f1 2B       		.byte	0x2b
 527 00f2 9E000000 		.4byte	0x9e
 528 00f6 04       		.uleb128 0x4
 529 00f7 63040000 		.4byte	.LASF22
 530 00fb 07       		.byte	0x7
 531 00fc 2C       		.byte	0x2c
 532 00fd 9E000000 		.4byte	0x9e
 533 0101 04       		.uleb128 0x4
 534 0102 8C040000 		.4byte	.LASF23
 535 0106 07       		.byte	0x7
 536 0107 2E       		.byte	0x2e
 537 0108 B4000000 		.4byte	0xb4
 538 010c 04       		.uleb128 0x4
 539 010d 56000000 		.4byte	.LASF24
 540 0111 07       		.byte	0x7
 541 0112 2F       		.byte	0x2f
 542 0113 A9000000 		.4byte	0xa9
 543 0117 04       		.uleb128 0x4
 544 0118 40000000 		.4byte	.LASF25
 545 011c 07       		.byte	0x7
 546 011d 31       		.byte	0x31
 547 011e B4000000 		.4byte	0xb4
 548 0122 04       		.uleb128 0x4
 549 0123 A6020000 		.4byte	.LASF26
 550 0127 07       		.byte	0x7
 551 0128 33       		.byte	0x33
 552 0129 A9000000 		.4byte	0xa9
 553 012d 04       		.uleb128 0x4
 554 012e 34030000 		.4byte	.LASF27
 555 0132 07       		.byte	0x7
 556 0133 34       		.byte	0x34
 557 0134 B4000000 		.4byte	0xb4
 558 0138 04       		.uleb128 0x4
 559 0139 CC050000 		.4byte	.LASF28
 560 013d 08       		.byte	0x8
 561 013e 34       		.byte	0x34
 562 013f 43010000 		.4byte	0x143
 563 0143 05       		.uleb128 0x5
 564 0144 0E030000 		.4byte	.LASF47
 565 0148 60       		.byte	0x60
 566 0149 09       		.byte	0x9
 567 014a 8E       		.byte	0x8e
 568 014b 2E020000 		.4byte	0x22e
 569 014f 06       		.uleb128 0x6
 570 0150 E4020000 		.4byte	.LASF29
ARM GAS  /tmp/ccz5QjuS.s 			page 11


 571 0154 09       		.byte	0x9
 572 0155 8F       		.byte	0x8f
 573 0156 63020000 		.4byte	0x263
 574 015a 00       		.byte	0
 575 015b 06       		.uleb128 0x6
 576 015c 35040000 		.4byte	.LASF30
 577 0160 09       		.byte	0x9
 578 0161 90       		.byte	0x90
 579 0162 01010000 		.4byte	0x101
 580 0166 08       		.byte	0x8
 581 0167 07       		.uleb128 0x7
 582 0168 63747800 		.ascii	"ctx\000"
 583 016c 09       		.byte	0x9
 584 016d 91       		.byte	0x91
 585 016e A3040000 		.4byte	0x4a3
 586 0172 0C       		.byte	0xc
 587 0173 06       		.uleb128 0x6
 588 0174 9D030000 		.4byte	.LASF31
 589 0178 09       		.byte	0x9
 590 0179 93       		.byte	0x93
 591 017a 39020000 		.4byte	0x239
 592 017e 10       		.byte	0x10
 593 017f 06       		.uleb128 0x6
 594 0180 B4050000 		.4byte	.LASF32
 595 0184 09       		.byte	0x9
 596 0185 94       		.byte	0x94
 597 0186 39020000 		.4byte	0x239
 598 018a 14       		.byte	0x14
 599 018b 06       		.uleb128 0x6
 600 018c 09030000 		.4byte	.LASF33
 601 0190 09       		.byte	0x9
 602 0191 9B       		.byte	0x9b
 603 0192 AB080000 		.4byte	0x8ab
 604 0196 18       		.byte	0x18
 605 0197 06       		.uleb128 0x6
 606 0198 9C050000 		.4byte	.LASF34
 607 019c 09       		.byte	0x9
 608 019d A4       		.byte	0xa4
 609 019e BD080000 		.4byte	0x8bd
 610 01a2 1C       		.byte	0x1c
 611 01a3 06       		.uleb128 0x6
 612 01a4 32020000 		.4byte	.LASF35
 613 01a8 09       		.byte	0x9
 614 01a9 A9       		.byte	0xa9
 615 01aa EB000000 		.4byte	0xeb
 616 01ae 20       		.byte	0x20
 617 01af 06       		.uleb128 0x6
 618 01b0 74060000 		.4byte	.LASF36
 619 01b4 09       		.byte	0x9
 620 01b5 AD       		.byte	0xad
 621 01b6 E0000000 		.4byte	0xe0
 622 01ba 21       		.byte	0x21
 623 01bb 06       		.uleb128 0x6
 624 01bc 6B040000 		.4byte	.LASF37
 625 01c0 09       		.byte	0x9
 626 01c1 B2       		.byte	0xb2
 627 01c2 F6000000 		.4byte	0xf6
ARM GAS  /tmp/ccz5QjuS.s 			page 12


 628 01c6 22       		.byte	0x22
 629 01c7 08       		.uleb128 0x8
 630 01c8 7500     		.ascii	"u\000"
 631 01ca 09       		.byte	0x9
 632 01cb 0301     		.2byte	0x103
 633 01cd E1070000 		.4byte	0x7e1
 634 01d1 24       		.byte	0x24
 635 01d2 09       		.uleb128 0x9
 636 01d3 82020000 		.4byte	.LASF38
 637 01d7 09       		.byte	0x9
 638 01d8 0801     		.2byte	0x108
 639 01da 3F020000 		.4byte	0x23f
 640 01de 28       		.byte	0x28
 641 01df 09       		.uleb128 0x9
 642 01e0 29020000 		.4byte	.LASF39
 643 01e4 09       		.byte	0x9
 644 01e5 0E01     		.2byte	0x10e
 645 01e7 63020000 		.4byte	0x263
 646 01eb 2C       		.byte	0x2c
 647 01ec 09       		.uleb128 0x9
 648 01ed 3B030000 		.4byte	.LASF40
 649 01f1 09       		.byte	0x9
 650 01f2 1401     		.2byte	0x114
 651 01f4 17010000 		.4byte	0x117
 652 01f8 34       		.byte	0x34
 653 01f9 09       		.uleb128 0x9
 654 01fa C9060000 		.4byte	.LASF41
 655 01fe 09       		.byte	0x9
 656 01ff 1B01     		.2byte	0x11b
 657 0201 A5080000 		.4byte	0x8a5
 658 0205 38       		.byte	0x38
 659 0206 09       		.uleb128 0x9
 660 0207 A3030000 		.4byte	.LASF42
 661 020b 09       		.byte	0x9
 662 020c 1F01     		.2byte	0x11f
 663 020e 01010000 		.4byte	0x101
 664 0212 3C       		.byte	0x3c
 665 0213 09       		.uleb128 0x9
 666 0214 EA020000 		.4byte	.LASF43
 667 0218 09       		.byte	0x9
 668 0219 2601     		.2byte	0x126
 669 021b 16030000 		.4byte	0x316
 670 021f 40       		.byte	0x40
 671 0220 09       		.uleb128 0x9
 672 0221 4F020000 		.4byte	.LASF44
 673 0225 09       		.byte	0x9
 674 0226 2C01     		.2byte	0x12c
 675 0228 92070000 		.4byte	0x792
 676 022c 48       		.byte	0x48
 677 022d 00       		.byte	0
 678 022e 04       		.uleb128 0x4
 679 022f B5030000 		.4byte	.LASF45
 680 0233 08       		.byte	0x8
 681 0234 39       		.byte	0x39
 682 0235 39020000 		.4byte	0x239
 683 0239 0A       		.uleb128 0xa
 684 023a 04       		.byte	0x4
ARM GAS  /tmp/ccz5QjuS.s 			page 13


 685 023b 38010000 		.4byte	0x138
 686 023f 04       		.uleb128 0x4
 687 0240 AC060000 		.4byte	.LASF46
 688 0244 08       		.byte	0x8
 689 0245 3E       		.byte	0x3e
 690 0246 4A020000 		.4byte	0x24a
 691 024a 05       		.uleb128 0x5
 692 024b 74050000 		.4byte	.LASF48
 693 024f 04       		.byte	0x4
 694 0250 09       		.byte	0x9
 695 0251 7C       		.byte	0x7c
 696 0252 63020000 		.4byte	0x263
 697 0256 06       		.uleb128 0x6
 698 0257 18000000 		.4byte	.LASF49
 699 025b 09       		.byte	0x9
 700 025c 7D       		.byte	0x7d
 701 025d 39020000 		.4byte	0x239
 702 0261 00       		.byte	0
 703 0262 00       		.byte	0
 704 0263 04       		.uleb128 0x4
 705 0264 4A060000 		.4byte	.LASF50
 706 0268 08       		.byte	0x8
 707 0269 45       		.byte	0x45
 708 026a 6E020000 		.4byte	0x26e
 709 026e 05       		.uleb128 0x5
 710 026f 6D000000 		.4byte	.LASF51
 711 0273 08       		.byte	0x8
 712 0274 09       		.byte	0x9
 713 0275 83       		.byte	0x83
 714 0276 93020000 		.4byte	0x293
 715 027a 06       		.uleb128 0x6
 716 027b 18000000 		.4byte	.LASF49
 717 027f 09       		.byte	0x9
 718 0280 84       		.byte	0x84
 719 0281 39020000 		.4byte	0x239
 720 0285 00       		.byte	0
 721 0286 06       		.uleb128 0x6
 722 0287 5C000000 		.4byte	.LASF52
 723 028b 09       		.byte	0x9
 724 028c 85       		.byte	0x85
 725 028d 39020000 		.4byte	0x239
 726 0291 04       		.byte	0x4
 727 0292 00       		.byte	0
 728 0293 04       		.uleb128 0x4
 729 0294 00000000 		.4byte	.LASF53
 730 0298 08       		.byte	0x8
 731 0299 4C       		.byte	0x4c
 732 029a 9E020000 		.4byte	0x29e
 733 029e 0B       		.uleb128 0xb
 734 029f 6F030000 		.4byte	.LASF54
 735 02a3 1C       		.byte	0x1c
 736 02a4 09       		.byte	0x9
 737 02a5 5E01     		.2byte	0x15e
 738 02a7 FA020000 		.4byte	0x2fa
 739 02ab 09       		.uleb128 0x9
 740 02ac E4020000 		.4byte	.LASF29
 741 02b0 09       		.byte	0x9
ARM GAS  /tmp/ccz5QjuS.s 			page 14


 742 02b1 5F01     		.2byte	0x15f
 743 02b3 63020000 		.4byte	0x263
 744 02b7 00       		.byte	0
 745 02b8 09       		.uleb128 0x9
 746 02b9 35040000 		.4byte	.LASF30
 747 02bd 09       		.byte	0x9
 748 02be 6001     		.2byte	0x160
 749 02c0 01010000 		.4byte	0x101
 750 02c4 08       		.byte	0x8
 751 02c5 08       		.uleb128 0x8
 752 02c6 63747800 		.ascii	"ctx\000"
 753 02ca 09       		.byte	0x9
 754 02cb 6201     		.2byte	0x162
 755 02cd A3040000 		.4byte	0x4a3
 756 02d1 0C       		.byte	0xc
 757 02d2 09       		.uleb128 0x9
 758 02d3 9D030000 		.4byte	.LASF31
 759 02d7 09       		.byte	0x9
 760 02d8 6501     		.2byte	0x165
 761 02da 39020000 		.4byte	0x239
 762 02de 10       		.byte	0x10
 763 02df 09       		.uleb128 0x9
 764 02e0 B4050000 		.4byte	.LASF32
 765 02e4 09       		.byte	0x9
 766 02e5 6601     		.2byte	0x166
 767 02e7 39020000 		.4byte	0x239
 768 02eb 14       		.byte	0x14
 769 02ec 09       		.uleb128 0x9
 770 02ed 3A040000 		.4byte	.LASF55
 771 02f1 09       		.byte	0x9
 772 02f2 6901     		.2byte	0x169
 773 02f4 39020000 		.4byte	0x239
 774 02f8 18       		.byte	0x18
 775 02f9 00       		.byte	0
 776 02fa 04       		.uleb128 0x4
 777 02fb E4050000 		.4byte	.LASF56
 778 02ff 08       		.byte	0x8
 779 0300 51       		.byte	0x51
 780 0301 05030000 		.4byte	0x305
 781 0305 0A       		.uleb128 0xa
 782 0306 04       		.byte	0x4
 783 0307 0B030000 		.4byte	0x30b
 784 030b 0C       		.uleb128 0xc
 785 030c 16030000 		.4byte	0x316
 786 0310 0D       		.uleb128 0xd
 787 0311 16030000 		.4byte	0x316
 788 0315 00       		.byte	0
 789 0316 0E       		.uleb128 0xe
 790 0317 04       		.byte	0x4
 791 0318 04       		.uleb128 0x4
 792 0319 70040000 		.4byte	.LASF57
 793 031d 08       		.byte	0x8
 794 031e 56       		.byte	0x56
 795 031f 23030000 		.4byte	0x323
 796 0323 0B       		.uleb128 0xb
 797 0324 F4040000 		.4byte	.LASF58
 798 0328 14       		.byte	0x14
ARM GAS  /tmp/ccz5QjuS.s 			page 15


 799 0329 09       		.byte	0x9
 800 032a 3901     		.2byte	0x139
 801 032c 72030000 		.4byte	0x372
 802 0330 09       		.uleb128 0x9
 803 0331 18000000 		.4byte	.LASF49
 804 0335 09       		.byte	0x9
 805 0336 3A01     		.2byte	0x13a
 806 0338 C3080000 		.4byte	0x8c3
 807 033c 00       		.byte	0
 808 033d 09       		.uleb128 0x9
 809 033e 5C000000 		.4byte	.LASF52
 810 0342 09       		.byte	0x9
 811 0343 3B01     		.2byte	0x13b
 812 0345 C3080000 		.4byte	0x8c3
 813 0349 04       		.byte	0x4
 814 034a 09       		.uleb128 0x9
 815 034b 1D000000 		.4byte	.LASF59
 816 034f 09       		.byte	0x9
 817 0350 3C01     		.2byte	0x13c
 818 0352 56040000 		.4byte	0x456
 819 0356 08       		.byte	0x8
 820 0357 09       		.uleb128 0x9
 821 0358 4A020000 		.4byte	.LASF60
 822 035c 09       		.byte	0x9
 823 035d 3D01     		.2byte	0x13d
 824 035f FA020000 		.4byte	0x2fa
 825 0363 0C       		.byte	0xc
 826 0364 08       		.uleb128 0x8
 827 0365 70617200 		.ascii	"par\000"
 828 0369 09       		.byte	0x9
 829 036a 3F01     		.2byte	0x13f
 830 036c 16030000 		.4byte	0x316
 831 0370 10       		.byte	0x10
 832 0371 00       		.byte	0
 833 0372 04       		.uleb128 0x4
 834 0373 D0010000 		.4byte	.LASF61
 835 0377 08       		.byte	0x8
 836 0378 5B       		.byte	0x5b
 837 0379 7D030000 		.4byte	0x37d
 838 037d 0B       		.uleb128 0xb
 839 037e C8030000 		.4byte	.LASF62
 840 0382 10       		.byte	0x10
 841 0383 09       		.byte	0x9
 842 0384 4901     		.2byte	0x149
 843 0386 BF030000 		.4byte	0x3bf
 844 038a 09       		.uleb128 0x9
 845 038b 18000000 		.4byte	.LASF49
 846 038f 09       		.byte	0x9
 847 0390 4A01     		.2byte	0x14a
 848 0392 C3080000 		.4byte	0x8c3
 849 0396 00       		.byte	0
 850 0397 09       		.uleb128 0x9
 851 0398 5C000000 		.4byte	.LASF52
 852 039c 09       		.byte	0x9
 853 039d 4C01     		.2byte	0x14c
 854 039f C3080000 		.4byte	0x8c3
 855 03a3 04       		.byte	0x4
ARM GAS  /tmp/ccz5QjuS.s 			page 16


 856 03a4 09       		.uleb128 0x9
 857 03a5 1D000000 		.4byte	.LASF59
 858 03a9 09       		.byte	0x9
 859 03aa 4E01     		.2byte	0x14e
 860 03ac 56040000 		.4byte	0x456
 861 03b0 08       		.byte	0x8
 862 03b1 09       		.uleb128 0x9
 863 03b2 C9040000 		.4byte	.LASF63
 864 03b6 09       		.byte	0x9
 865 03b7 5601     		.2byte	0x156
 866 03b9 4B040000 		.4byte	0x44b
 867 03bd 0C       		.byte	0xc
 868 03be 00       		.byte	0
 869 03bf 04       		.uleb128 0x4
 870 03c0 7E000000 		.4byte	.LASF64
 871 03c4 08       		.byte	0x8
 872 03c5 60       		.byte	0x60
 873 03c6 CA030000 		.4byte	0x3ca
 874 03ca 0B       		.uleb128 0xb
 875 03cb 72020000 		.4byte	.LASF65
 876 03cf 04       		.byte	0x4
 877 03d0 09       		.byte	0x9
 878 03d1 7001     		.2byte	0x170
 879 03d3 E5030000 		.4byte	0x3e5
 880 03d7 09       		.uleb128 0x9
 881 03d8 ED050000 		.4byte	.LASF66
 882 03dc 09       		.byte	0x9
 883 03dd 7801     		.2byte	0x178
 884 03df C9080000 		.4byte	0x8c9
 885 03e3 00       		.byte	0
 886 03e4 00       		.byte	0
 887 03e5 04       		.uleb128 0x4
 888 03e6 44030000 		.4byte	.LASF67
 889 03ea 08       		.byte	0x8
 890 03eb 65       		.byte	0x65
 891 03ec F0030000 		.4byte	0x3f0
 892 03f0 0B       		.uleb128 0xb
 893 03f1 D9040000 		.4byte	.LASF68
 894 03f5 D0       		.byte	0xd0
 895 03f6 09       		.byte	0x9
 896 03f7 9001     		.2byte	0x190
 897 03f9 4B040000 		.4byte	0x44b
 898 03fd 09       		.uleb128 0x9
 899 03fe 63060000 		.4byte	.LASF69
 900 0402 09       		.byte	0x9
 901 0403 9401     		.2byte	0x194
 902 0405 93020000 		.4byte	0x293
 903 0409 00       		.byte	0
 904 040a 09       		.uleb128 0x9
 905 040b 22020000 		.4byte	.LASF70
 906 040f 09       		.byte	0x9
 907 0410 9801     		.2byte	0x198
 908 0412 72030000 		.4byte	0x372
 909 0416 1C       		.byte	0x1c
 910 0417 08       		.uleb128 0x8
 911 0418 64626700 		.ascii	"dbg\000"
 912 041c 09       		.byte	0x9
ARM GAS  /tmp/ccz5QjuS.s 			page 17


 913 041d 9C01     		.2byte	0x19c
 914 041f BF030000 		.4byte	0x3bf
 915 0423 2C       		.byte	0x2c
 916 0424 09       		.uleb128 0x9
 917 0425 BD010000 		.4byte	.LASF71
 918 0429 09       		.byte	0x9
 919 042a A001     		.2byte	0x1a0
 920 042c 38010000 		.4byte	0x138
 921 0430 30       		.byte	0x30
 922 0431 08       		.uleb128 0x8
 923 0432 746D00   		.ascii	"tm\000"
 924 0435 09       		.byte	0x9
 925 0436 A501     		.2byte	0x1a5
 926 0438 44070000 		.4byte	0x744
 927 043c 90       		.byte	0x90
 928 043d 09       		.uleb128 0x9
 929 043e 33000000 		.4byte	.LASF72
 930 0442 09       		.byte	0x9
 931 0443 AB01     		.2byte	0x1ab
 932 0445 D6070000 		.4byte	0x7d6
 933 0449 98       		.byte	0x98
 934 044a 00       		.byte	0
 935 044b 04       		.uleb128 0x4
 936 044c DA050000 		.4byte	.LASF73
 937 0450 04       		.byte	0x4
 938 0451 6D       		.byte	0x6d
 939 0452 B4000000 		.4byte	0xb4
 940 0456 04       		.uleb128 0x4
 941 0457 98020000 		.4byte	.LASF74
 942 045b 04       		.byte	0x4
 943 045c 79       		.byte	0x79
 944 045d B4000000 		.4byte	0xb4
 945 0461 03       		.uleb128 0x3
 946 0462 04       		.byte	0x4
 947 0463 07       		.byte	0x7
 948 0464 AC030000 		.4byte	.LASF75
 949 0468 0F       		.uleb128 0xf
 950 0469 B4000000 		.4byte	0xb4
 951 046d 10       		.uleb128 0x10
 952 046e 68040000 		.4byte	0x468
 953 0472 7D040000 		.4byte	0x47d
 954 0476 11       		.uleb128 0x11
 955 0477 61040000 		.4byte	0x461
 956 047b 01       		.byte	0x1
 957 047c 00       		.byte	0
 958 047d 10       		.uleb128 0x10
 959 047e 68040000 		.4byte	0x468
 960 0482 8D040000 		.4byte	0x48d
 961 0486 11       		.uleb128 0x11
 962 0487 61040000 		.4byte	0x461
 963 048b 03       		.byte	0x3
 964 048c 00       		.byte	0
 965 048d 04       		.uleb128 0x4
 966 048e 69020000 		.4byte	.LASF76
 967 0492 0A       		.byte	0xa
 968 0493 65       		.byte	0x65
 969 0494 16030000 		.4byte	0x316
ARM GAS  /tmp/ccz5QjuS.s 			page 18


 970 0498 04       		.uleb128 0x4
 971 0499 92030000 		.4byte	.LASF77
 972 049d 0A       		.byte	0xa
 973 049e 6D       		.byte	0x6d
 974 049f BF000000 		.4byte	0xbf
 975 04a3 05       		.uleb128 0x5
 976 04a4 EB030000 		.4byte	.LASF78
 977 04a8 04       		.byte	0x4
 978 04a9 0A       		.byte	0xa
 979 04aa 89       		.byte	0x89
 980 04ab BB040000 		.4byte	0x4bb
 981 04af 07       		.uleb128 0x7
 982 04b0 737000   		.ascii	"sp\000"
 983 04b3 0A       		.byte	0xa
 984 04b4 8A       		.byte	0x8a
 985 04b5 07060000 		.4byte	0x607
 986 04b9 00       		.byte	0
 987 04ba 00       		.byte	0
 988 04bb 0B       		.uleb128 0xb
 989 04bc 61000000 		.4byte	.LASF79
 990 04c0 64       		.byte	0x64
 991 04c1 0B       		.byte	0xb
 992 04c2 5901     		.2byte	0x159
 993 04c4 07060000 		.4byte	0x607
 994 04c8 08       		.uleb128 0x8
 995 04c9 73313600 		.ascii	"s16\000"
 996 04cd 0B       		.byte	0xb
 997 04ce 5B01     		.2byte	0x15b
 998 04d0 8D040000 		.4byte	0x48d
 999 04d4 00       		.byte	0
 1000 04d5 08       		.uleb128 0x8
 1001 04d6 73313700 		.ascii	"s17\000"
 1002 04da 0B       		.byte	0xb
 1003 04db 5C01     		.2byte	0x15c
 1004 04dd 8D040000 		.4byte	0x48d
 1005 04e1 04       		.byte	0x4
 1006 04e2 08       		.uleb128 0x8
 1007 04e3 73313800 		.ascii	"s18\000"
 1008 04e7 0B       		.byte	0xb
 1009 04e8 5D01     		.2byte	0x15d
 1010 04ea 8D040000 		.4byte	0x48d
 1011 04ee 08       		.byte	0x8
 1012 04ef 08       		.uleb128 0x8
 1013 04f0 73313900 		.ascii	"s19\000"
 1014 04f4 0B       		.byte	0xb
 1015 04f5 5E01     		.2byte	0x15e
 1016 04f7 8D040000 		.4byte	0x48d
 1017 04fb 0C       		.byte	0xc
 1018 04fc 08       		.uleb128 0x8
 1019 04fd 73323000 		.ascii	"s20\000"
 1020 0501 0B       		.byte	0xb
 1021 0502 5F01     		.2byte	0x15f
 1022 0504 8D040000 		.4byte	0x48d
 1023 0508 10       		.byte	0x10
 1024 0509 08       		.uleb128 0x8
 1025 050a 73323100 		.ascii	"s21\000"
 1026 050e 0B       		.byte	0xb
ARM GAS  /tmp/ccz5QjuS.s 			page 19


 1027 050f 6001     		.2byte	0x160
 1028 0511 8D040000 		.4byte	0x48d
 1029 0515 14       		.byte	0x14
 1030 0516 08       		.uleb128 0x8
 1031 0517 73323200 		.ascii	"s22\000"
 1032 051b 0B       		.byte	0xb
 1033 051c 6101     		.2byte	0x161
 1034 051e 8D040000 		.4byte	0x48d
 1035 0522 18       		.byte	0x18
 1036 0523 08       		.uleb128 0x8
 1037 0524 73323300 		.ascii	"s23\000"
 1038 0528 0B       		.byte	0xb
 1039 0529 6201     		.2byte	0x162
 1040 052b 8D040000 		.4byte	0x48d
 1041 052f 1C       		.byte	0x1c
 1042 0530 08       		.uleb128 0x8
 1043 0531 73323400 		.ascii	"s24\000"
 1044 0535 0B       		.byte	0xb
 1045 0536 6301     		.2byte	0x163
 1046 0538 8D040000 		.4byte	0x48d
 1047 053c 20       		.byte	0x20
 1048 053d 08       		.uleb128 0x8
 1049 053e 73323500 		.ascii	"s25\000"
 1050 0542 0B       		.byte	0xb
 1051 0543 6401     		.2byte	0x164
 1052 0545 8D040000 		.4byte	0x48d
 1053 0549 24       		.byte	0x24
 1054 054a 08       		.uleb128 0x8
 1055 054b 73323600 		.ascii	"s26\000"
 1056 054f 0B       		.byte	0xb
 1057 0550 6501     		.2byte	0x165
 1058 0552 8D040000 		.4byte	0x48d
 1059 0556 28       		.byte	0x28
 1060 0557 08       		.uleb128 0x8
 1061 0558 73323700 		.ascii	"s27\000"
 1062 055c 0B       		.byte	0xb
 1063 055d 6601     		.2byte	0x166
 1064 055f 8D040000 		.4byte	0x48d
 1065 0563 2C       		.byte	0x2c
 1066 0564 08       		.uleb128 0x8
 1067 0565 73323800 		.ascii	"s28\000"
 1068 0569 0B       		.byte	0xb
 1069 056a 6701     		.2byte	0x167
 1070 056c 8D040000 		.4byte	0x48d
 1071 0570 30       		.byte	0x30
 1072 0571 08       		.uleb128 0x8
 1073 0572 73323900 		.ascii	"s29\000"
 1074 0576 0B       		.byte	0xb
 1075 0577 6801     		.2byte	0x168
 1076 0579 8D040000 		.4byte	0x48d
 1077 057d 34       		.byte	0x34
 1078 057e 08       		.uleb128 0x8
 1079 057f 73333000 		.ascii	"s30\000"
 1080 0583 0B       		.byte	0xb
 1081 0584 6901     		.2byte	0x169
 1082 0586 8D040000 		.4byte	0x48d
 1083 058a 38       		.byte	0x38
ARM GAS  /tmp/ccz5QjuS.s 			page 20


 1084 058b 08       		.uleb128 0x8
 1085 058c 73333100 		.ascii	"s31\000"
 1086 0590 0B       		.byte	0xb
 1087 0591 6A01     		.2byte	0x16a
 1088 0593 8D040000 		.4byte	0x48d
 1089 0597 3C       		.byte	0x3c
 1090 0598 08       		.uleb128 0x8
 1091 0599 723400   		.ascii	"r4\000"
 1092 059c 0B       		.byte	0xb
 1093 059d 6C01     		.2byte	0x16c
 1094 059f 8D040000 		.4byte	0x48d
 1095 05a3 40       		.byte	0x40
 1096 05a4 08       		.uleb128 0x8
 1097 05a5 723500   		.ascii	"r5\000"
 1098 05a8 0B       		.byte	0xb
 1099 05a9 6D01     		.2byte	0x16d
 1100 05ab 8D040000 		.4byte	0x48d
 1101 05af 44       		.byte	0x44
 1102 05b0 08       		.uleb128 0x8
 1103 05b1 723600   		.ascii	"r6\000"
 1104 05b4 0B       		.byte	0xb
 1105 05b5 6E01     		.2byte	0x16e
 1106 05b7 8D040000 		.4byte	0x48d
 1107 05bb 48       		.byte	0x48
 1108 05bc 08       		.uleb128 0x8
 1109 05bd 723700   		.ascii	"r7\000"
 1110 05c0 0B       		.byte	0xb
 1111 05c1 6F01     		.2byte	0x16f
 1112 05c3 8D040000 		.4byte	0x48d
 1113 05c7 4C       		.byte	0x4c
 1114 05c8 08       		.uleb128 0x8
 1115 05c9 723800   		.ascii	"r8\000"
 1116 05cc 0B       		.byte	0xb
 1117 05cd 7001     		.2byte	0x170
 1118 05cf 8D040000 		.4byte	0x48d
 1119 05d3 50       		.byte	0x50
 1120 05d4 08       		.uleb128 0x8
 1121 05d5 723900   		.ascii	"r9\000"
 1122 05d8 0B       		.byte	0xb
 1123 05d9 7101     		.2byte	0x171
 1124 05db 8D040000 		.4byte	0x48d
 1125 05df 54       		.byte	0x54
 1126 05e0 08       		.uleb128 0x8
 1127 05e1 72313000 		.ascii	"r10\000"
 1128 05e5 0B       		.byte	0xb
 1129 05e6 7201     		.2byte	0x172
 1130 05e8 8D040000 		.4byte	0x48d
 1131 05ec 58       		.byte	0x58
 1132 05ed 08       		.uleb128 0x8
 1133 05ee 72313100 		.ascii	"r11\000"
 1134 05f2 0B       		.byte	0xb
 1135 05f3 7301     		.2byte	0x173
 1136 05f5 8D040000 		.4byte	0x48d
 1137 05f9 5C       		.byte	0x5c
 1138 05fa 08       		.uleb128 0x8
 1139 05fb 6C7200   		.ascii	"lr\000"
 1140 05fe 0B       		.byte	0xb
ARM GAS  /tmp/ccz5QjuS.s 			page 21


 1141 05ff 7401     		.2byte	0x174
 1142 0601 8D040000 		.4byte	0x48d
 1143 0605 60       		.byte	0x60
 1144 0606 00       		.byte	0
 1145 0607 0A       		.uleb128 0xa
 1146 0608 04       		.byte	0x4
 1147 0609 BB040000 		.4byte	0x4bb
 1148 060d 12       		.uleb128 0x12
 1149 060e 60       		.byte	0x60
 1150 060f 0C       		.byte	0xc
 1151 0610 F501     		.2byte	0x1f5
 1152 0612 19070000 		.4byte	0x719
 1153 0616 08       		.uleb128 0x8
 1154 0617 43523100 		.ascii	"CR1\000"
 1155 061b 0C       		.byte	0xc
 1156 061c F601     		.2byte	0x1f6
 1157 061e 68040000 		.4byte	0x468
 1158 0622 00       		.byte	0
 1159 0623 08       		.uleb128 0x8
 1160 0624 43523200 		.ascii	"CR2\000"
 1161 0628 0C       		.byte	0xc
 1162 0629 F701     		.2byte	0x1f7
 1163 062b 68040000 		.4byte	0x468
 1164 062f 04       		.byte	0x4
 1165 0630 09       		.uleb128 0x9
 1166 0631 F5020000 		.4byte	.LASF80
 1167 0635 0C       		.byte	0xc
 1168 0636 F801     		.2byte	0x1f8
 1169 0638 68040000 		.4byte	0x468
 1170 063c 08       		.byte	0x8
 1171 063d 09       		.uleb128 0x9
 1172 063e 0D000000 		.4byte	.LASF81
 1173 0642 0C       		.byte	0xc
 1174 0643 F901     		.2byte	0x1f9
 1175 0645 68040000 		.4byte	0x468
 1176 0649 0C       		.byte	0xc
 1177 064a 08       		.uleb128 0x8
 1178 064b 535200   		.ascii	"SR\000"
 1179 064e 0C       		.byte	0xc
 1180 064f FA01     		.2byte	0x1fa
 1181 0651 68040000 		.4byte	0x468
 1182 0655 10       		.byte	0x10
 1183 0656 08       		.uleb128 0x8
 1184 0657 45475200 		.ascii	"EGR\000"
 1185 065b 0C       		.byte	0xc
 1186 065c FB01     		.2byte	0x1fb
 1187 065e 68040000 		.4byte	0x468
 1188 0662 14       		.byte	0x14
 1189 0663 09       		.uleb128 0x9
 1190 0664 01020000 		.4byte	.LASF82
 1191 0668 0C       		.byte	0xc
 1192 0669 FC01     		.2byte	0x1fc
 1193 066b 68040000 		.4byte	0x468
 1194 066f 18       		.byte	0x18
 1195 0670 09       		.uleb128 0x9
 1196 0671 8D000000 		.4byte	.LASF83
 1197 0675 0C       		.byte	0xc
ARM GAS  /tmp/ccz5QjuS.s 			page 22


 1198 0676 FD01     		.2byte	0x1fd
 1199 0678 68040000 		.4byte	0x468
 1200 067c 1C       		.byte	0x1c
 1201 067d 09       		.uleb128 0x9
 1202 067e D5050000 		.4byte	.LASF84
 1203 0682 0C       		.byte	0xc
 1204 0683 FE01     		.2byte	0x1fe
 1205 0685 68040000 		.4byte	0x468
 1206 0689 20       		.byte	0x20
 1207 068a 08       		.uleb128 0x8
 1208 068b 434E5400 		.ascii	"CNT\000"
 1209 068f 0C       		.byte	0xc
 1210 0690 FF01     		.2byte	0x1ff
 1211 0692 68040000 		.4byte	0x468
 1212 0696 24       		.byte	0x24
 1213 0697 08       		.uleb128 0x8
 1214 0698 50534300 		.ascii	"PSC\000"
 1215 069c 0C       		.byte	0xc
 1216 069d 0002     		.2byte	0x200
 1217 069f 68040000 		.4byte	0x468
 1218 06a3 28       		.byte	0x28
 1219 06a4 08       		.uleb128 0x8
 1220 06a5 41525200 		.ascii	"ARR\000"
 1221 06a9 0C       		.byte	0xc
 1222 06aa 0102     		.2byte	0x201
 1223 06ac 68040000 		.4byte	0x468
 1224 06b0 2C       		.byte	0x2c
 1225 06b1 08       		.uleb128 0x8
 1226 06b2 52435200 		.ascii	"RCR\000"
 1227 06b6 0C       		.byte	0xc
 1228 06b7 0202     		.2byte	0x202
 1229 06b9 68040000 		.4byte	0x468
 1230 06bd 30       		.byte	0x30
 1231 06be 08       		.uleb128 0x8
 1232 06bf 43435200 		.ascii	"CCR\000"
 1233 06c3 0C       		.byte	0xc
 1234 06c4 0302     		.2byte	0x203
 1235 06c6 19070000 		.4byte	0x719
 1236 06ca 34       		.byte	0x34
 1237 06cb 09       		.uleb128 0x9
 1238 06cc F3010000 		.4byte	.LASF85
 1239 06d0 0C       		.byte	0xc
 1240 06d1 0402     		.2byte	0x204
 1241 06d3 68040000 		.4byte	0x468
 1242 06d7 44       		.byte	0x44
 1243 06d8 08       		.uleb128 0x8
 1244 06d9 44435200 		.ascii	"DCR\000"
 1245 06dd 0C       		.byte	0xc
 1246 06de 0502     		.2byte	0x205
 1247 06e0 68040000 		.4byte	0x468
 1248 06e4 48       		.byte	0x48
 1249 06e5 09       		.uleb128 0x9
 1250 06e6 C7050000 		.4byte	.LASF86
 1251 06ea 0C       		.byte	0xc
 1252 06eb 0602     		.2byte	0x206
 1253 06ed 68040000 		.4byte	0x468
 1254 06f1 4C       		.byte	0x4c
ARM GAS  /tmp/ccz5QjuS.s 			page 23


 1255 06f2 08       		.uleb128 0x8
 1256 06f3 4F5200   		.ascii	"OR\000"
 1257 06f6 0C       		.byte	0xc
 1258 06f7 0702     		.2byte	0x207
 1259 06f9 68040000 		.4byte	0x468
 1260 06fd 50       		.byte	0x50
 1261 06fe 09       		.uleb128 0x9
 1262 06ff 10020000 		.4byte	.LASF87
 1263 0703 0C       		.byte	0xc
 1264 0704 0802     		.2byte	0x208
 1265 0706 68040000 		.4byte	0x468
 1266 070a 54       		.byte	0x54
 1267 070b 09       		.uleb128 0x9
 1268 070c 12050000 		.4byte	.LASF88
 1269 0710 0C       		.byte	0xc
 1270 0711 0902     		.2byte	0x209
 1271 0713 1E070000 		.4byte	0x71e
 1272 0717 58       		.byte	0x58
 1273 0718 00       		.byte	0
 1274 0719 0F       		.uleb128 0xf
 1275 071a 7D040000 		.4byte	0x47d
 1276 071e 0F       		.uleb128 0xf
 1277 071f 6D040000 		.4byte	0x46d
 1278 0723 13       		.uleb128 0x13
 1279 0724 50030000 		.4byte	.LASF89
 1280 0728 0C       		.byte	0xc
 1281 0729 0A02     		.2byte	0x20a
 1282 072b 0D060000 		.4byte	0x60d
 1283 072f 14       		.uleb128 0x14
 1284 0730 04       		.byte	0x4
 1285 0731 0D       		.byte	0xd
 1286 0732 38       		.byte	0x38
 1287 0733 44070000 		.4byte	0x744
 1288 0737 06       		.uleb128 0x6
 1289 0738 F7050000 		.4byte	.LASF90
 1290 073c 0D       		.byte	0xd
 1291 073d 3C       		.byte	0x3c
 1292 073e CA000000 		.4byte	0xca
 1293 0742 00       		.byte	0
 1294 0743 00       		.byte	0
 1295 0744 04       		.uleb128 0x4
 1296 0745 F8030000 		.4byte	.LASF91
 1297 0749 0D       		.byte	0xd
 1298 074a 3D       		.byte	0x3d
 1299 074b 2F070000 		.4byte	0x72f
 1300 074f 14       		.uleb128 0x14
 1301 0750 18       		.byte	0x18
 1302 0751 0D       		.byte	0xd
 1303 0752 48       		.byte	0x48
 1304 0753 92070000 		.4byte	0x792
 1305 0757 06       		.uleb128 0x6
 1306 0758 F0020000 		.4byte	.LASF92
 1307 075c 0D       		.byte	0xd
 1308 075d 49       		.byte	0x49
 1309 075e CA000000 		.4byte	0xca
 1310 0762 00       		.byte	0
 1311 0763 06       		.uleb128 0x6
ARM GAS  /tmp/ccz5QjuS.s 			page 24


 1312 0764 77010000 		.4byte	.LASF93
 1313 0768 0D       		.byte	0xd
 1314 0769 4A       		.byte	0x4a
 1315 076a CA000000 		.4byte	0xca
 1316 076e 04       		.byte	0x4
 1317 076f 06       		.uleb128 0x6
 1318 0770 2F030000 		.4byte	.LASF94
 1319 0774 0D       		.byte	0xd
 1320 0775 4B       		.byte	0x4b
 1321 0776 CA000000 		.4byte	0xca
 1322 077a 08       		.byte	0x8
 1323 077b 07       		.uleb128 0x7
 1324 077c 6E00     		.ascii	"n\000"
 1325 077e 0D       		.byte	0xd
 1326 077f 4C       		.byte	0x4c
 1327 0780 2D010000 		.4byte	0x12d
 1328 0784 0C       		.byte	0xc
 1329 0785 06       		.uleb128 0x6
 1330 0786 58040000 		.4byte	.LASF95
 1331 078a 0D       		.byte	0xd
 1332 078b 4D       		.byte	0x4d
 1333 078c D5000000 		.4byte	0xd5
 1334 0790 10       		.byte	0x10
 1335 0791 00       		.byte	0
 1336 0792 04       		.uleb128 0x4
 1337 0793 7D010000 		.4byte	.LASF96
 1338 0797 0D       		.byte	0xd
 1339 0798 4E       		.byte	0x4e
 1340 0799 4F070000 		.4byte	0x74f
 1341 079d 14       		.uleb128 0x14
 1342 079e 38       		.byte	0x38
 1343 079f 0E       		.byte	0xe
 1344 07a0 38       		.byte	0x38
 1345 07a1 D6070000 		.4byte	0x7d6
 1346 07a5 06       		.uleb128 0x6
 1347 07a6 DE020000 		.4byte	.LASF97
 1348 07aa 0E       		.byte	0xe
 1349 07ab 39       		.byte	0x39
 1350 07ac 2D010000 		.4byte	0x12d
 1351 07b0 00       		.byte	0
 1352 07b1 06       		.uleb128 0x6
 1353 07b2 94040000 		.4byte	.LASF98
 1354 07b6 0E       		.byte	0xe
 1355 07b7 3A       		.byte	0x3a
 1356 07b8 2D010000 		.4byte	0x12d
 1357 07bc 04       		.byte	0x4
 1358 07bd 06       		.uleb128 0x6
 1359 07be D9060000 		.4byte	.LASF99
 1360 07c2 0E       		.byte	0xe
 1361 07c3 3B       		.byte	0x3b
 1362 07c4 92070000 		.4byte	0x792
 1363 07c8 08       		.byte	0x8
 1364 07c9 06       		.uleb128 0x6
 1365 07ca 64030000 		.4byte	.LASF100
 1366 07ce 0E       		.byte	0xe
 1367 07cf 3D       		.byte	0x3d
 1368 07d0 92070000 		.4byte	0x792
ARM GAS  /tmp/ccz5QjuS.s 			page 25


 1369 07d4 20       		.byte	0x20
 1370 07d5 00       		.byte	0
 1371 07d6 04       		.uleb128 0x4
 1372 07d7 FA020000 		.4byte	.LASF101
 1373 07db 0E       		.byte	0xe
 1374 07dc 3F       		.byte	0x3f
 1375 07dd 9D070000 		.4byte	0x79d
 1376 07e1 15       		.uleb128 0x15
 1377 07e2 04       		.byte	0x4
 1378 07e3 09       		.byte	0x9
 1379 07e4 C6       		.byte	0xc6
 1380 07e5 43080000 		.4byte	0x843
 1381 07e9 16       		.uleb128 0x16
 1382 07ea 23000000 		.4byte	.LASF102
 1383 07ee 09       		.byte	0x9
 1384 07ef CD       		.byte	0xcd
 1385 07f0 0C010000 		.4byte	0x10c
 1386 07f4 16       		.uleb128 0x16
 1387 07f5 B4010000 		.4byte	.LASF103
 1388 07f9 09       		.byte	0x9
 1389 07fa D4       		.byte	0xd4
 1390 07fb 0C010000 		.4byte	0x10c
 1391 07ff 16       		.uleb128 0x16
 1392 0800 A5060000 		.4byte	.LASF104
 1393 0804 09       		.byte	0x9
 1394 0805 DB       		.byte	0xdb
 1395 0806 16030000 		.4byte	0x316
 1396 080a 16       		.uleb128 0x16
 1397 080b 12000000 		.4byte	.LASF105
 1398 080f 09       		.byte	0x9
 1399 0810 E2       		.byte	0xe2
 1400 0811 43080000 		.4byte	0x843
 1401 0815 16       		.uleb128 0x16
 1402 0816 C8010000 		.4byte	.LASF106
 1403 081a 09       		.byte	0x9
 1404 081b E7       		.byte	0xe7
 1405 081c 0C010000 		.4byte	0x10c
 1406 0820 16       		.uleb128 0x16
 1407 0821 C8020000 		.4byte	.LASF107
 1408 0825 09       		.byte	0x9
 1409 0826 F0       		.byte	0xf0
 1410 0827 6E080000 		.4byte	0x86e
 1411 082b 16       		.uleb128 0x16
 1412 082c 6D050000 		.4byte	.LASF108
 1413 0830 09       		.byte	0x9
 1414 0831 F9       		.byte	0xf9
 1415 0832 A5080000 		.4byte	0x8a5
 1416 0836 17       		.uleb128 0x17
 1417 0837 D2040000 		.4byte	.LASF109
 1418 083b 09       		.byte	0x9
 1419 083c 0101     		.2byte	0x101
 1420 083e 17010000 		.4byte	0x117
 1421 0842 00       		.byte	0
 1422 0843 0A       		.uleb128 0xa
 1423 0844 04       		.byte	0x4
 1424 0845 2E020000 		.4byte	0x22e
 1425 0849 05       		.uleb128 0x5
ARM GAS  /tmp/ccz5QjuS.s 			page 26


 1426 084a 05050000 		.4byte	.LASF110
 1427 084e 0C       		.byte	0xc
 1428 084f 0F       		.byte	0xf
 1429 0850 34       		.byte	0x34
 1430 0851 6E080000 		.4byte	0x86e
 1431 0855 06       		.uleb128 0x6
 1432 0856 E4020000 		.4byte	.LASF29
 1433 085a 0F       		.byte	0xf
 1434 085b 35       		.byte	0x35
 1435 085c 63020000 		.4byte	0x263
 1436 0860 00       		.byte	0
 1437 0861 07       		.uleb128 0x7
 1438 0862 636E7400 		.ascii	"cnt\000"
 1439 0866 0F       		.byte	0xf
 1440 0867 37       		.byte	0x37
 1441 0868 22010000 		.4byte	0x122
 1442 086c 08       		.byte	0x8
 1443 086d 00       		.byte	0
 1444 086e 0A       		.uleb128 0xa
 1445 086f 04       		.byte	0x4
 1446 0870 49080000 		.4byte	0x849
 1447 0874 05       		.uleb128 0x5
 1448 0875 5A060000 		.4byte	.LASF111
 1449 0879 10       		.byte	0x10
 1450 087a 10       		.byte	0x10
 1451 087b 39       		.byte	0x39
 1452 087c A5080000 		.4byte	0x8a5
 1453 0880 06       		.uleb128 0x6
 1454 0881 E4020000 		.4byte	.LASF29
 1455 0885 10       		.byte	0x10
 1456 0886 3A       		.byte	0x3a
 1457 0887 63020000 		.4byte	0x263
 1458 088b 00       		.byte	0
 1459 088c 06       		.uleb128 0x6
 1460 088d 84050000 		.4byte	.LASF112
 1461 0891 10       		.byte	0x10
 1462 0892 3C       		.byte	0x3c
 1463 0893 39020000 		.4byte	0x239
 1464 0897 08       		.byte	0x8
 1465 0898 06       		.uleb128 0x6
 1466 0899 18000000 		.4byte	.LASF49
 1467 089d 10       		.byte	0x10
 1468 089e 3E       		.byte	0x3e
 1469 089f D9080000 		.4byte	0x8d9
 1470 08a3 0C       		.byte	0xc
 1471 08a4 00       		.byte	0
 1472 08a5 0A       		.uleb128 0xa
 1473 08a6 04       		.byte	0x4
 1474 08a7 74080000 		.4byte	0x874
 1475 08ab 0A       		.uleb128 0xa
 1476 08ac 04       		.byte	0x4
 1477 08ad B8080000 		.4byte	0x8b8
 1478 08b1 03       		.uleb128 0x3
 1479 08b2 01       		.byte	0x1
 1480 08b3 08       		.byte	0x8
 1481 08b4 AF050000 		.4byte	.LASF113
 1482 08b8 18       		.uleb128 0x18
ARM GAS  /tmp/ccz5QjuS.s 			page 27


 1483 08b9 B1080000 		.4byte	0x8b1
 1484 08bd 0A       		.uleb128 0xa
 1485 08be 04       		.byte	0x4
 1486 08bf 98040000 		.4byte	0x498
 1487 08c3 0A       		.uleb128 0xa
 1488 08c4 04       		.byte	0x4
 1489 08c5 18030000 		.4byte	0x318
 1490 08c9 0F       		.uleb128 0xf
 1491 08ca AB080000 		.4byte	0x8ab
 1492 08ce 04       		.uleb128 0x4
 1493 08cf D1060000 		.4byte	.LASF114
 1494 08d3 10       		.byte	0x10
 1495 08d4 34       		.byte	0x34
 1496 08d5 74080000 		.4byte	0x874
 1497 08d9 0A       		.uleb128 0xa
 1498 08da 04       		.byte	0x4
 1499 08db CE080000 		.4byte	0x8ce
 1500 08df 03       		.uleb128 0x3
 1501 08e0 01       		.byte	0x1
 1502 08e1 02       		.byte	0x2
 1503 08e2 9D040000 		.4byte	.LASF115
 1504 08e6 19       		.uleb128 0x19
 1505 08e7 17050000 		.4byte	.LASF116
 1506 08eb 02       		.byte	0x2
 1507 08ec 91       		.byte	0x91
 1508 08ed 4B040000 		.4byte	0x44b
 1509 08f1 03       		.byte	0x3
 1510 08f2 19       		.uleb128 0x19
 1511 08f3 1E060000 		.4byte	.LASF117
 1512 08f7 03       		.byte	0x3
 1513 08f8 69       		.byte	0x69
 1514 08f9 4B040000 		.4byte	0x44b
 1515 08fd 03       		.byte	0x3
 1516 08fe 19       		.uleb128 0x19
 1517 08ff AC020000 		.4byte	.LASF118
 1518 0903 11       		.byte	0x11
 1519 0904 73       		.byte	0x73
 1520 0905 4B040000 		.4byte	0x44b
 1521 0909 03       		.byte	0x3
 1522 090a 1A       		.uleb128 0x1a
 1523 090b 18030000 		.4byte	.LASF125
 1524 090f 03       		.byte	0x3
 1525 0910 47       		.byte	0x47
 1526 0911 03       		.byte	0x3
 1527 0912 22090000 		.4byte	0x922
 1528 0916 1B       		.uleb128 0x1b
 1529 0917 30040000 		.4byte	.LASF119
 1530 091b 03       		.byte	0x3
 1531 091c 47       		.byte	0x47
 1532 091d 4B040000 		.4byte	0x44b
 1533 0921 00       		.byte	0
 1534 0922 1C       		.uleb128 0x1c
 1535 0923 42040000 		.4byte	.LASF122
 1536 0927 04       		.byte	0x4
 1537 0928 EB01     		.2byte	0x1eb
 1538 092a 4B040000 		.4byte	0x44b
 1539 092e 03       		.byte	0x3
ARM GAS  /tmp/ccz5QjuS.s 			page 28


 1540 092f 4C090000 		.4byte	0x94c
 1541 0933 1D       		.uleb128 0x1d
 1542 0934 5C030000 		.4byte	.LASF120
 1543 0938 04       		.byte	0x4
 1544 0939 EB01     		.2byte	0x1eb
 1545 093b 4B040000 		.4byte	0x44b
 1546 093f 1D       		.uleb128 0x1d
 1547 0940 55020000 		.4byte	.LASF121
 1548 0944 04       		.byte	0x4
 1549 0945 EC01     		.2byte	0x1ec
 1550 0947 56040000 		.4byte	0x456
 1551 094b 00       		.byte	0
 1552 094c 1C       		.uleb128 0x1c
 1553 094d 80040000 		.4byte	.LASF123
 1554 0951 04       		.byte	0x4
 1555 0952 FE01     		.2byte	0x1fe
 1556 0954 56040000 		.4byte	0x456
 1557 0958 03       		.byte	0x3
 1558 0959 76090000 		.4byte	0x976
 1559 095d 1D       		.uleb128 0x1d
 1560 095e C3060000 		.4byte	.LASF124
 1561 0962 04       		.byte	0x4
 1562 0963 FE01     		.2byte	0x1fe
 1563 0965 4B040000 		.4byte	0x44b
 1564 0969 1E       		.uleb128 0x1e
 1565 096a 656E6400 		.ascii	"end\000"
 1566 096e 04       		.byte	0x4
 1567 096f FE01     		.2byte	0x1fe
 1568 0971 4B040000 		.4byte	0x44b
 1569 0975 00       		.byte	0
 1570 0976 1A       		.uleb128 0x1a
 1571 0977 90060000 		.4byte	.LASF126
 1572 097b 03       		.byte	0x3
 1573 097c 5D       		.byte	0x5d
 1574 097d 03       		.byte	0x3
 1575 097e 8E090000 		.4byte	0x98e
 1576 0982 1B       		.uleb128 0x1b
 1577 0983 30040000 		.4byte	.LASF119
 1578 0987 03       		.byte	0x3
 1579 0988 5D       		.byte	0x5d
 1580 0989 4B040000 		.4byte	0x44b
 1581 098d 00       		.byte	0
 1582 098e 1F       		.uleb128 0x1f
 1583 098f 7A060000 		.4byte	.LASF141
 1584 0993 03       		.byte	0x3
 1585 0994 51       		.byte	0x51
 1586 0995 03       		.byte	0x3
 1587 0996 20       		.uleb128 0x20
 1588 0997 07020000 		.4byte	.LASF142
 1589 099b 01       		.byte	0x1
 1590 099c 3D       		.byte	0x3d
 1591 099d 00000000 		.4byte	.LFB290
 1592 09a1 1C000000 		.4byte	.LFE290-.LFB290
 1593 09a5 01       		.uleb128 0x1
 1594 09a6 9C       		.byte	0x9c
 1595 09a7 21       		.uleb128 0x21
 1596 09a8 7D030000 		.4byte	.LASF130
ARM GAS  /tmp/ccz5QjuS.s 			page 29


 1597 09ac 01       		.byte	0x1
 1598 09ad 5F       		.byte	0x5f
 1599 09ae 00000000 		.4byte	.LFB291
 1600 09b2 78000000 		.4byte	.LFE291-.LFB291
 1601 09b6 01       		.uleb128 0x1
 1602 09b7 9C       		.byte	0x9c
 1603 09b8 E10A0000 		.4byte	0xae1
 1604 09bc 22       		.uleb128 0x22
 1605 09bd 76747000 		.ascii	"vtp\000"
 1606 09c1 01       		.byte	0x1
 1607 09c2 5F       		.byte	0x5f
 1608 09c3 C3080000 		.4byte	0x8c3
 1609 09c7 00000000 		.4byte	.LLST0
 1610 09cb 23       		.uleb128 0x23
 1611 09cc B9040000 		.4byte	.LASF127
 1612 09d0 01       		.byte	0x1
 1613 09d1 5F       		.byte	0x5f
 1614 09d2 56040000 		.4byte	0x456
 1615 09d6 5C000000 		.4byte	.LLST1
 1616 09da 23       		.uleb128 0x23
 1617 09db 43060000 		.4byte	.LASF128
 1618 09df 01       		.byte	0x1
 1619 09e0 60       		.byte	0x60
 1620 09e1 FA020000 		.4byte	0x2fa
 1621 09e5 C7000000 		.4byte	.LLST2
 1622 09e9 22       		.uleb128 0x22
 1623 09ea 70617200 		.ascii	"par\000"
 1624 09ee 01       		.byte	0x1
 1625 09ef 60       		.byte	0x60
 1626 09f0 16030000 		.4byte	0x316
 1627 09f4 35010000 		.4byte	.LLST3
 1628 09f8 24       		.uleb128 0x24
 1629 09f9 7000     		.ascii	"p\000"
 1630 09fb 01       		.byte	0x1
 1631 09fc 61       		.byte	0x61
 1632 09fd C3080000 		.4byte	0x8c3
 1633 0a01 A3010000 		.4byte	.LLST4
 1634 0a05 25       		.uleb128 0x25
 1635 0a06 1D000000 		.4byte	.LASF59
 1636 0a0a 01       		.byte	0x1
 1637 0a0b 62       		.byte	0x62
 1638 0a0c 56040000 		.4byte	0x456
 1639 0a10 C1010000 		.4byte	.LLST5
 1640 0a14 26       		.uleb128 0x26
 1641 0a15 EB040000 		.4byte	.LASF132
 1642 0a19 F10A0000 		.4byte	0xaf1
 1643 0a1d 27       		.uleb128 0x27
 1644 0a1e 00000000 		.4byte	.Ldebug_ranges0+0
 1645 0a22 28       		.uleb128 0x28
 1646 0a23 6E6F7700 		.ascii	"now\000"
 1647 0a27 01       		.byte	0x1
 1648 0a28 6C       		.byte	0x6c
 1649 0a29 4B040000 		.4byte	0x44b
 1650 0a2d 29       		.uleb128 0x29
 1651 0a2e FE080000 		.4byte	0x8fe
 1652 0a32 04000000 		.4byte	.LBB41
 1653 0a36 28000000 		.4byte	.Ldebug_ranges0+0x28
ARM GAS  /tmp/ccz5QjuS.s 			page 30


 1654 0a3a 01       		.byte	0x1
 1655 0a3b 6C       		.byte	0x6c
 1656 0a3c 600A0000 		.4byte	0xa60
 1657 0a40 2A       		.uleb128 0x2a
 1658 0a41 F2080000 		.4byte	0x8f2
 1659 0a45 04000000 		.4byte	.LBB42
 1660 0a49 28000000 		.4byte	.Ldebug_ranges0+0x28
 1661 0a4d 11       		.byte	0x11
 1662 0a4e 78       		.byte	0x78
 1663 0a4f 2B       		.uleb128 0x2b
 1664 0a50 E6080000 		.4byte	0x8e6
 1665 0a54 04000000 		.4byte	.LBB43
 1666 0a58 28000000 		.4byte	.Ldebug_ranges0+0x28
 1667 0a5c 03       		.byte	0x3
 1668 0a5d 6B       		.byte	0x6b
 1669 0a5e 00       		.byte	0
 1670 0a5f 00       		.byte	0
 1671 0a60 29       		.uleb128 0x29
 1672 0a61 0A090000 		.4byte	0x90a
 1673 0a65 2C000000 		.4byte	.LBB49
 1674 0a69 40000000 		.4byte	.Ldebug_ranges0+0x40
 1675 0a6d 01       		.byte	0x1
 1676 0a6e 88       		.byte	0x88
 1677 0a6f 820A0000 		.4byte	0xa82
 1678 0a73 2C       		.uleb128 0x2c
 1679 0a74 16090000 		.4byte	0x916
 1680 0a78 2D       		.uleb128 0x2d
 1681 0a79 36000000 		.4byte	.LVL6
 1682 0a7d 020C0000 		.4byte	0xc02
 1683 0a81 00       		.byte	0
 1684 0a82 2E       		.uleb128 0x2e
 1685 0a83 4C090000 		.4byte	0x94c
 1686 0a87 3A000000 		.4byte	.LBB53
 1687 0a8b 02000000 		.4byte	.LBE53-.LBB53
 1688 0a8f 01       		.byte	0x1
 1689 0a90 92       		.byte	0x92
 1690 0a91 A80A0000 		.4byte	0xaa8
 1691 0a95 2F       		.uleb128 0x2f
 1692 0a96 69090000 		.4byte	0x969
 1693 0a9a E4010000 		.4byte	.LLST6
 1694 0a9e 2F       		.uleb128 0x2f
 1695 0a9f 5D090000 		.4byte	0x95d
 1696 0aa3 F7010000 		.4byte	.LLST7
 1697 0aa7 00       		.byte	0
 1698 0aa8 30       		.uleb128 0x30
 1699 0aa9 44000000 		.4byte	.LBB55
 1700 0aad 08000000 		.4byte	.LBE55-.LBB55
 1701 0ab1 25       		.uleb128 0x25
 1702 0ab2 CF020000 		.4byte	.LASF129
 1703 0ab6 01       		.byte	0x1
 1704 0ab7 9C       		.byte	0x9c
 1705 0ab8 56040000 		.4byte	0x456
 1706 0abc 0A020000 		.4byte	.LLST8
 1707 0ac0 31       		.uleb128 0x31
 1708 0ac1 76090000 		.4byte	0x976
 1709 0ac5 44000000 		.4byte	.LBB56
 1710 0ac9 08000000 		.4byte	.LBE56-.LBB56
ARM GAS  /tmp/ccz5QjuS.s 			page 31


 1711 0acd 01       		.byte	0x1
 1712 0ace A7       		.byte	0xa7
 1713 0acf 2C       		.uleb128 0x2c
 1714 0ad0 82090000 		.4byte	0x982
 1715 0ad4 32       		.uleb128 0x32
 1716 0ad5 4A000000 		.4byte	.LVL11
 1717 0ad9 0D0C0000 		.4byte	0xc0d
 1718 0add 00       		.byte	0
 1719 0ade 00       		.byte	0
 1720 0adf 00       		.byte	0
 1721 0ae0 00       		.byte	0
 1722 0ae1 10       		.uleb128 0x10
 1723 0ae2 B8080000 		.4byte	0x8b8
 1724 0ae6 F10A0000 		.4byte	0xaf1
 1725 0aea 11       		.uleb128 0x11
 1726 0aeb 61040000 		.4byte	0x461
 1727 0aef 0A       		.byte	0xa
 1728 0af0 00       		.byte	0
 1729 0af1 18       		.uleb128 0x18
 1730 0af2 E10A0000 		.4byte	0xae1
 1731 0af6 21       		.uleb128 0x21
 1732 0af7 A7010000 		.4byte	.LASF131
 1733 0afb 01       		.byte	0x1
 1734 0afc D3       		.byte	0xd3
 1735 0afd 00000000 		.4byte	.LFB292
 1736 0b01 78000000 		.4byte	.LFE292-.LFB292
 1737 0b05 01       		.uleb128 0x1
 1738 0b06 9C       		.byte	0x9c
 1739 0b07 D10B0000 		.4byte	0xbd1
 1740 0b0b 22       		.uleb128 0x22
 1741 0b0c 76747000 		.ascii	"vtp\000"
 1742 0b10 01       		.byte	0x1
 1743 0b11 D3       		.byte	0xd3
 1744 0b12 C3080000 		.4byte	0x8c3
 1745 0b16 1D020000 		.4byte	.LLST9
 1746 0b1a 26       		.uleb128 0x26
 1747 0b1b EB040000 		.4byte	.LASF132
 1748 0b1f E10B0000 		.4byte	0xbe1
 1749 0b23 33       		.uleb128 0x33
 1750 0b24 BF020000 		.4byte	.LASF133
 1751 0b28 01       		.byte	0x1
 1752 0b29 E7       		.byte	0xe7
 1753 0b2a 56040000 		.4byte	0x456
 1754 0b2e 25       		.uleb128 0x25
 1755 0b2f 1D000000 		.4byte	.LASF59
 1756 0b33 01       		.byte	0x1
 1757 0b34 E7       		.byte	0xe7
 1758 0b35 56040000 		.4byte	0x456
 1759 0b39 3E020000 		.4byte	.LLST10
 1760 0b3d 2E       		.uleb128 0x2e
 1761 0b3e 8E090000 		.4byte	0x98e
 1762 0b42 3E000000 		.4byte	.LBB61
 1763 0b46 04000000 		.4byte	.LBE61-.LBB61
 1764 0b4a 01       		.byte	0x1
 1765 0b4b FF       		.byte	0xff
 1766 0b4c 5A0B0000 		.4byte	0xb5a
 1767 0b50 2D       		.uleb128 0x2d
ARM GAS  /tmp/ccz5QjuS.s 			page 32


 1768 0b51 42000000 		.4byte	.LVL18
 1769 0b55 180C0000 		.4byte	0xc18
 1770 0b59 00       		.byte	0
 1771 0b5a 34       		.uleb128 0x34
 1772 0b5b FE080000 		.4byte	0x8fe
 1773 0b5f 4A000000 		.4byte	.LBB63
 1774 0b63 58000000 		.4byte	.Ldebug_ranges0+0x58
 1775 0b67 01       		.byte	0x1
 1776 0b68 0E01     		.2byte	0x10e
 1777 0b6a 8E0B0000 		.4byte	0xb8e
 1778 0b6e 2A       		.uleb128 0x2a
 1779 0b6f F2080000 		.4byte	0x8f2
 1780 0b73 4A000000 		.4byte	.LBB64
 1781 0b77 58000000 		.4byte	.Ldebug_ranges0+0x58
 1782 0b7b 11       		.byte	0x11
 1783 0b7c 78       		.byte	0x78
 1784 0b7d 2B       		.uleb128 0x2b
 1785 0b7e E6080000 		.4byte	0x8e6
 1786 0b82 4A000000 		.4byte	.LBB65
 1787 0b86 58000000 		.4byte	.Ldebug_ranges0+0x58
 1788 0b8a 03       		.byte	0x3
 1789 0b8b 6B       		.byte	0x6b
 1790 0b8c 00       		.byte	0
 1791 0b8d 00       		.byte	0
 1792 0b8e 35       		.uleb128 0x35
 1793 0b8f 4C090000 		.4byte	0x94c
 1794 0b93 50000000 		.4byte	.LBB71
 1795 0b97 02000000 		.4byte	.LBE71-.LBB71
 1796 0b9b 01       		.byte	0x1
 1797 0b9c 0E01     		.2byte	0x10e
 1798 0b9e B10B0000 		.4byte	0xbb1
 1799 0ba2 2C       		.uleb128 0x2c
 1800 0ba3 69090000 		.4byte	0x969
 1801 0ba7 2F       		.uleb128 0x2f
 1802 0ba8 5D090000 		.4byte	0x95d
 1803 0bac 6C020000 		.4byte	.LLST11
 1804 0bb0 00       		.byte	0
 1805 0bb1 36       		.uleb128 0x36
 1806 0bb2 76090000 		.4byte	0x976
 1807 0bb6 5E000000 		.4byte	.LBB73
 1808 0bba 70000000 		.4byte	.Ldebug_ranges0+0x70
 1809 0bbe 01       		.byte	0x1
 1810 0bbf 2701     		.2byte	0x127
 1811 0bc1 2C       		.uleb128 0x2c
 1812 0bc2 82090000 		.4byte	0x982
 1813 0bc6 2D       		.uleb128 0x2d
 1814 0bc7 68000000 		.4byte	.LVL24
 1815 0bcb 0D0C0000 		.4byte	0xc0d
 1816 0bcf 00       		.byte	0
 1817 0bd0 00       		.byte	0
 1818 0bd1 10       		.uleb128 0x10
 1819 0bd2 B8080000 		.4byte	0x8b8
 1820 0bd6 E10B0000 		.4byte	0xbe1
 1821 0bda 11       		.uleb128 0x11
 1822 0bdb 61040000 		.4byte	0x461
 1823 0bdf 0C       		.byte	0xc
 1824 0be0 00       		.byte	0
ARM GAS  /tmp/ccz5QjuS.s 			page 33


 1825 0be1 18       		.uleb128 0x18
 1826 0be2 D10B0000 		.4byte	0xbd1
 1827 0be6 37       		.uleb128 0x37
 1828 0be7 E6010000 		.4byte	.LASF134
 1829 0beb 13       		.byte	0x13
 1830 0bec 0408     		.2byte	0x804
 1831 0bee F20B0000 		.4byte	0xbf2
 1832 0bf2 0F       		.uleb128 0xf
 1833 0bf3 A9000000 		.4byte	0xa9
 1834 0bf7 38       		.uleb128 0x38
 1835 0bf8 636800   		.ascii	"ch\000"
 1836 0bfb 09       		.byte	0x9
 1837 0bfc C701     		.2byte	0x1c7
 1838 0bfe E5030000 		.4byte	0x3e5
 1839 0c02 39       		.uleb128 0x39
 1840 0c03 FE050000 		.4byte	.LASF135
 1841 0c07 FE050000 		.4byte	.LASF135
 1842 0c0b 12       		.byte	0x12
 1843 0c0c 57       		.byte	0x57
 1844 0c0d 39       		.uleb128 0x39
 1845 0c0e 69060000 		.4byte	.LASF136
 1846 0c12 69060000 		.4byte	.LASF136
 1847 0c16 12       		.byte	0x12
 1848 0c17 59       		.byte	0x59
 1849 0c18 39       		.uleb128 0x39
 1850 0c19 A3050000 		.4byte	.LASF137
 1851 0c1d A3050000 		.4byte	.LASF137
 1852 0c21 12       		.byte	0x12
 1853 0c22 58       		.byte	0x58
 1854 0c23 00       		.byte	0
 1855              		.section	.debug_abbrev,"",%progbits
 1856              	.Ldebug_abbrev0:
 1857 0000 01       		.uleb128 0x1
 1858 0001 11       		.uleb128 0x11
 1859 0002 01       		.byte	0x1
 1860 0003 25       		.uleb128 0x25
 1861 0004 0E       		.uleb128 0xe
 1862 0005 13       		.uleb128 0x13
 1863 0006 0B       		.uleb128 0xb
 1864 0007 03       		.uleb128 0x3
 1865 0008 0E       		.uleb128 0xe
 1866 0009 1B       		.uleb128 0x1b
 1867 000a 0E       		.uleb128 0xe
 1868 000b 55       		.uleb128 0x55
 1869 000c 17       		.uleb128 0x17
 1870 000d 11       		.uleb128 0x11
 1871 000e 01       		.uleb128 0x1
 1872 000f 10       		.uleb128 0x10
 1873 0010 17       		.uleb128 0x17
 1874 0011 00       		.byte	0
 1875 0012 00       		.byte	0
 1876 0013 02       		.uleb128 0x2
 1877 0014 24       		.uleb128 0x24
 1878 0015 00       		.byte	0
 1879 0016 0B       		.uleb128 0xb
 1880 0017 0B       		.uleb128 0xb
 1881 0018 3E       		.uleb128 0x3e
ARM GAS  /tmp/ccz5QjuS.s 			page 34


 1882 0019 0B       		.uleb128 0xb
 1883 001a 03       		.uleb128 0x3
 1884 001b 08       		.uleb128 0x8
 1885 001c 00       		.byte	0
 1886 001d 00       		.byte	0
 1887 001e 03       		.uleb128 0x3
 1888 001f 24       		.uleb128 0x24
 1889 0020 00       		.byte	0
 1890 0021 0B       		.uleb128 0xb
 1891 0022 0B       		.uleb128 0xb
 1892 0023 3E       		.uleb128 0x3e
 1893 0024 0B       		.uleb128 0xb
 1894 0025 03       		.uleb128 0x3
 1895 0026 0E       		.uleb128 0xe
 1896 0027 00       		.byte	0
 1897 0028 00       		.byte	0
 1898 0029 04       		.uleb128 0x4
 1899 002a 16       		.uleb128 0x16
 1900 002b 00       		.byte	0
 1901 002c 03       		.uleb128 0x3
 1902 002d 0E       		.uleb128 0xe
 1903 002e 3A       		.uleb128 0x3a
 1904 002f 0B       		.uleb128 0xb
 1905 0030 3B       		.uleb128 0x3b
 1906 0031 0B       		.uleb128 0xb
 1907 0032 49       		.uleb128 0x49
 1908 0033 13       		.uleb128 0x13
 1909 0034 00       		.byte	0
 1910 0035 00       		.byte	0
 1911 0036 05       		.uleb128 0x5
 1912 0037 13       		.uleb128 0x13
 1913 0038 01       		.byte	0x1
 1914 0039 03       		.uleb128 0x3
 1915 003a 0E       		.uleb128 0xe
 1916 003b 0B       		.uleb128 0xb
 1917 003c 0B       		.uleb128 0xb
 1918 003d 3A       		.uleb128 0x3a
 1919 003e 0B       		.uleb128 0xb
 1920 003f 3B       		.uleb128 0x3b
 1921 0040 0B       		.uleb128 0xb
 1922 0041 01       		.uleb128 0x1
 1923 0042 13       		.uleb128 0x13
 1924 0043 00       		.byte	0
 1925 0044 00       		.byte	0
 1926 0045 06       		.uleb128 0x6
 1927 0046 0D       		.uleb128 0xd
 1928 0047 00       		.byte	0
 1929 0048 03       		.uleb128 0x3
 1930 0049 0E       		.uleb128 0xe
 1931 004a 3A       		.uleb128 0x3a
 1932 004b 0B       		.uleb128 0xb
 1933 004c 3B       		.uleb128 0x3b
 1934 004d 0B       		.uleb128 0xb
 1935 004e 49       		.uleb128 0x49
 1936 004f 13       		.uleb128 0x13
 1937 0050 38       		.uleb128 0x38
 1938 0051 0B       		.uleb128 0xb
ARM GAS  /tmp/ccz5QjuS.s 			page 35


 1939 0052 00       		.byte	0
 1940 0053 00       		.byte	0
 1941 0054 07       		.uleb128 0x7
 1942 0055 0D       		.uleb128 0xd
 1943 0056 00       		.byte	0
 1944 0057 03       		.uleb128 0x3
 1945 0058 08       		.uleb128 0x8
 1946 0059 3A       		.uleb128 0x3a
 1947 005a 0B       		.uleb128 0xb
 1948 005b 3B       		.uleb128 0x3b
 1949 005c 0B       		.uleb128 0xb
 1950 005d 49       		.uleb128 0x49
 1951 005e 13       		.uleb128 0x13
 1952 005f 38       		.uleb128 0x38
 1953 0060 0B       		.uleb128 0xb
 1954 0061 00       		.byte	0
 1955 0062 00       		.byte	0
 1956 0063 08       		.uleb128 0x8
 1957 0064 0D       		.uleb128 0xd
 1958 0065 00       		.byte	0
 1959 0066 03       		.uleb128 0x3
 1960 0067 08       		.uleb128 0x8
 1961 0068 3A       		.uleb128 0x3a
 1962 0069 0B       		.uleb128 0xb
 1963 006a 3B       		.uleb128 0x3b
 1964 006b 05       		.uleb128 0x5
 1965 006c 49       		.uleb128 0x49
 1966 006d 13       		.uleb128 0x13
 1967 006e 38       		.uleb128 0x38
 1968 006f 0B       		.uleb128 0xb
 1969 0070 00       		.byte	0
 1970 0071 00       		.byte	0
 1971 0072 09       		.uleb128 0x9
 1972 0073 0D       		.uleb128 0xd
 1973 0074 00       		.byte	0
 1974 0075 03       		.uleb128 0x3
 1975 0076 0E       		.uleb128 0xe
 1976 0077 3A       		.uleb128 0x3a
 1977 0078 0B       		.uleb128 0xb
 1978 0079 3B       		.uleb128 0x3b
 1979 007a 05       		.uleb128 0x5
 1980 007b 49       		.uleb128 0x49
 1981 007c 13       		.uleb128 0x13
 1982 007d 38       		.uleb128 0x38
 1983 007e 0B       		.uleb128 0xb
 1984 007f 00       		.byte	0
 1985 0080 00       		.byte	0
 1986 0081 0A       		.uleb128 0xa
 1987 0082 0F       		.uleb128 0xf
 1988 0083 00       		.byte	0
 1989 0084 0B       		.uleb128 0xb
 1990 0085 0B       		.uleb128 0xb
 1991 0086 49       		.uleb128 0x49
 1992 0087 13       		.uleb128 0x13
 1993 0088 00       		.byte	0
 1994 0089 00       		.byte	0
 1995 008a 0B       		.uleb128 0xb
ARM GAS  /tmp/ccz5QjuS.s 			page 36


 1996 008b 13       		.uleb128 0x13
 1997 008c 01       		.byte	0x1
 1998 008d 03       		.uleb128 0x3
 1999 008e 0E       		.uleb128 0xe
 2000 008f 0B       		.uleb128 0xb
 2001 0090 0B       		.uleb128 0xb
 2002 0091 3A       		.uleb128 0x3a
 2003 0092 0B       		.uleb128 0xb
 2004 0093 3B       		.uleb128 0x3b
 2005 0094 05       		.uleb128 0x5
 2006 0095 01       		.uleb128 0x1
 2007 0096 13       		.uleb128 0x13
 2008 0097 00       		.byte	0
 2009 0098 00       		.byte	0
 2010 0099 0C       		.uleb128 0xc
 2011 009a 15       		.uleb128 0x15
 2012 009b 01       		.byte	0x1
 2013 009c 27       		.uleb128 0x27
 2014 009d 19       		.uleb128 0x19
 2015 009e 01       		.uleb128 0x1
 2016 009f 13       		.uleb128 0x13
 2017 00a0 00       		.byte	0
 2018 00a1 00       		.byte	0
 2019 00a2 0D       		.uleb128 0xd
 2020 00a3 05       		.uleb128 0x5
 2021 00a4 00       		.byte	0
 2022 00a5 49       		.uleb128 0x49
 2023 00a6 13       		.uleb128 0x13
 2024 00a7 00       		.byte	0
 2025 00a8 00       		.byte	0
 2026 00a9 0E       		.uleb128 0xe
 2027 00aa 0F       		.uleb128 0xf
 2028 00ab 00       		.byte	0
 2029 00ac 0B       		.uleb128 0xb
 2030 00ad 0B       		.uleb128 0xb
 2031 00ae 00       		.byte	0
 2032 00af 00       		.byte	0
 2033 00b0 0F       		.uleb128 0xf
 2034 00b1 35       		.uleb128 0x35
 2035 00b2 00       		.byte	0
 2036 00b3 49       		.uleb128 0x49
 2037 00b4 13       		.uleb128 0x13
 2038 00b5 00       		.byte	0
 2039 00b6 00       		.byte	0
 2040 00b7 10       		.uleb128 0x10
 2041 00b8 01       		.uleb128 0x1
 2042 00b9 01       		.byte	0x1
 2043 00ba 49       		.uleb128 0x49
 2044 00bb 13       		.uleb128 0x13
 2045 00bc 01       		.uleb128 0x1
 2046 00bd 13       		.uleb128 0x13
 2047 00be 00       		.byte	0
 2048 00bf 00       		.byte	0
 2049 00c0 11       		.uleb128 0x11
 2050 00c1 21       		.uleb128 0x21
 2051 00c2 00       		.byte	0
 2052 00c3 49       		.uleb128 0x49
ARM GAS  /tmp/ccz5QjuS.s 			page 37


 2053 00c4 13       		.uleb128 0x13
 2054 00c5 2F       		.uleb128 0x2f
 2055 00c6 0B       		.uleb128 0xb
 2056 00c7 00       		.byte	0
 2057 00c8 00       		.byte	0
 2058 00c9 12       		.uleb128 0x12
 2059 00ca 13       		.uleb128 0x13
 2060 00cb 01       		.byte	0x1
 2061 00cc 0B       		.uleb128 0xb
 2062 00cd 0B       		.uleb128 0xb
 2063 00ce 3A       		.uleb128 0x3a
 2064 00cf 0B       		.uleb128 0xb
 2065 00d0 3B       		.uleb128 0x3b
 2066 00d1 05       		.uleb128 0x5
 2067 00d2 01       		.uleb128 0x1
 2068 00d3 13       		.uleb128 0x13
 2069 00d4 00       		.byte	0
 2070 00d5 00       		.byte	0
 2071 00d6 13       		.uleb128 0x13
 2072 00d7 16       		.uleb128 0x16
 2073 00d8 00       		.byte	0
 2074 00d9 03       		.uleb128 0x3
 2075 00da 0E       		.uleb128 0xe
 2076 00db 3A       		.uleb128 0x3a
 2077 00dc 0B       		.uleb128 0xb
 2078 00dd 3B       		.uleb128 0x3b
 2079 00de 05       		.uleb128 0x5
 2080 00df 49       		.uleb128 0x49
 2081 00e0 13       		.uleb128 0x13
 2082 00e1 00       		.byte	0
 2083 00e2 00       		.byte	0
 2084 00e3 14       		.uleb128 0x14
 2085 00e4 13       		.uleb128 0x13
 2086 00e5 01       		.byte	0x1
 2087 00e6 0B       		.uleb128 0xb
 2088 00e7 0B       		.uleb128 0xb
 2089 00e8 3A       		.uleb128 0x3a
 2090 00e9 0B       		.uleb128 0xb
 2091 00ea 3B       		.uleb128 0x3b
 2092 00eb 0B       		.uleb128 0xb
 2093 00ec 01       		.uleb128 0x1
 2094 00ed 13       		.uleb128 0x13
 2095 00ee 00       		.byte	0
 2096 00ef 00       		.byte	0
 2097 00f0 15       		.uleb128 0x15
 2098 00f1 17       		.uleb128 0x17
 2099 00f2 01       		.byte	0x1
 2100 00f3 0B       		.uleb128 0xb
 2101 00f4 0B       		.uleb128 0xb
 2102 00f5 3A       		.uleb128 0x3a
 2103 00f6 0B       		.uleb128 0xb
 2104 00f7 3B       		.uleb128 0x3b
 2105 00f8 0B       		.uleb128 0xb
 2106 00f9 01       		.uleb128 0x1
 2107 00fa 13       		.uleb128 0x13
 2108 00fb 00       		.byte	0
 2109 00fc 00       		.byte	0
ARM GAS  /tmp/ccz5QjuS.s 			page 38


 2110 00fd 16       		.uleb128 0x16
 2111 00fe 0D       		.uleb128 0xd
 2112 00ff 00       		.byte	0
 2113 0100 03       		.uleb128 0x3
 2114 0101 0E       		.uleb128 0xe
 2115 0102 3A       		.uleb128 0x3a
 2116 0103 0B       		.uleb128 0xb
 2117 0104 3B       		.uleb128 0x3b
 2118 0105 0B       		.uleb128 0xb
 2119 0106 49       		.uleb128 0x49
 2120 0107 13       		.uleb128 0x13
 2121 0108 00       		.byte	0
 2122 0109 00       		.byte	0
 2123 010a 17       		.uleb128 0x17
 2124 010b 0D       		.uleb128 0xd
 2125 010c 00       		.byte	0
 2126 010d 03       		.uleb128 0x3
 2127 010e 0E       		.uleb128 0xe
 2128 010f 3A       		.uleb128 0x3a
 2129 0110 0B       		.uleb128 0xb
 2130 0111 3B       		.uleb128 0x3b
 2131 0112 05       		.uleb128 0x5
 2132 0113 49       		.uleb128 0x49
 2133 0114 13       		.uleb128 0x13
 2134 0115 00       		.byte	0
 2135 0116 00       		.byte	0
 2136 0117 18       		.uleb128 0x18
 2137 0118 26       		.uleb128 0x26
 2138 0119 00       		.byte	0
 2139 011a 49       		.uleb128 0x49
 2140 011b 13       		.uleb128 0x13
 2141 011c 00       		.byte	0
 2142 011d 00       		.byte	0
 2143 011e 19       		.uleb128 0x19
 2144 011f 2E       		.uleb128 0x2e
 2145 0120 00       		.byte	0
 2146 0121 03       		.uleb128 0x3
 2147 0122 0E       		.uleb128 0xe
 2148 0123 3A       		.uleb128 0x3a
 2149 0124 0B       		.uleb128 0xb
 2150 0125 3B       		.uleb128 0x3b
 2151 0126 0B       		.uleb128 0xb
 2152 0127 27       		.uleb128 0x27
 2153 0128 19       		.uleb128 0x19
 2154 0129 49       		.uleb128 0x49
 2155 012a 13       		.uleb128 0x13
 2156 012b 20       		.uleb128 0x20
 2157 012c 0B       		.uleb128 0xb
 2158 012d 00       		.byte	0
 2159 012e 00       		.byte	0
 2160 012f 1A       		.uleb128 0x1a
 2161 0130 2E       		.uleb128 0x2e
 2162 0131 01       		.byte	0x1
 2163 0132 03       		.uleb128 0x3
 2164 0133 0E       		.uleb128 0xe
 2165 0134 3A       		.uleb128 0x3a
 2166 0135 0B       		.uleb128 0xb
ARM GAS  /tmp/ccz5QjuS.s 			page 39


 2167 0136 3B       		.uleb128 0x3b
 2168 0137 0B       		.uleb128 0xb
 2169 0138 27       		.uleb128 0x27
 2170 0139 19       		.uleb128 0x19
 2171 013a 20       		.uleb128 0x20
 2172 013b 0B       		.uleb128 0xb
 2173 013c 01       		.uleb128 0x1
 2174 013d 13       		.uleb128 0x13
 2175 013e 00       		.byte	0
 2176 013f 00       		.byte	0
 2177 0140 1B       		.uleb128 0x1b
 2178 0141 05       		.uleb128 0x5
 2179 0142 00       		.byte	0
 2180 0143 03       		.uleb128 0x3
 2181 0144 0E       		.uleb128 0xe
 2182 0145 3A       		.uleb128 0x3a
 2183 0146 0B       		.uleb128 0xb
 2184 0147 3B       		.uleb128 0x3b
 2185 0148 0B       		.uleb128 0xb
 2186 0149 49       		.uleb128 0x49
 2187 014a 13       		.uleb128 0x13
 2188 014b 00       		.byte	0
 2189 014c 00       		.byte	0
 2190 014d 1C       		.uleb128 0x1c
 2191 014e 2E       		.uleb128 0x2e
 2192 014f 01       		.byte	0x1
 2193 0150 03       		.uleb128 0x3
 2194 0151 0E       		.uleb128 0xe
 2195 0152 3A       		.uleb128 0x3a
 2196 0153 0B       		.uleb128 0xb
 2197 0154 3B       		.uleb128 0x3b
 2198 0155 05       		.uleb128 0x5
 2199 0156 27       		.uleb128 0x27
 2200 0157 19       		.uleb128 0x19
 2201 0158 49       		.uleb128 0x49
 2202 0159 13       		.uleb128 0x13
 2203 015a 20       		.uleb128 0x20
 2204 015b 0B       		.uleb128 0xb
 2205 015c 01       		.uleb128 0x1
 2206 015d 13       		.uleb128 0x13
 2207 015e 00       		.byte	0
 2208 015f 00       		.byte	0
 2209 0160 1D       		.uleb128 0x1d
 2210 0161 05       		.uleb128 0x5
 2211 0162 00       		.byte	0
 2212 0163 03       		.uleb128 0x3
 2213 0164 0E       		.uleb128 0xe
 2214 0165 3A       		.uleb128 0x3a
 2215 0166 0B       		.uleb128 0xb
 2216 0167 3B       		.uleb128 0x3b
 2217 0168 05       		.uleb128 0x5
 2218 0169 49       		.uleb128 0x49
 2219 016a 13       		.uleb128 0x13
 2220 016b 00       		.byte	0
 2221 016c 00       		.byte	0
 2222 016d 1E       		.uleb128 0x1e
 2223 016e 05       		.uleb128 0x5
ARM GAS  /tmp/ccz5QjuS.s 			page 40


 2224 016f 00       		.byte	0
 2225 0170 03       		.uleb128 0x3
 2226 0171 08       		.uleb128 0x8
 2227 0172 3A       		.uleb128 0x3a
 2228 0173 0B       		.uleb128 0xb
 2229 0174 3B       		.uleb128 0x3b
 2230 0175 05       		.uleb128 0x5
 2231 0176 49       		.uleb128 0x49
 2232 0177 13       		.uleb128 0x13
 2233 0178 00       		.byte	0
 2234 0179 00       		.byte	0
 2235 017a 1F       		.uleb128 0x1f
 2236 017b 2E       		.uleb128 0x2e
 2237 017c 00       		.byte	0
 2238 017d 03       		.uleb128 0x3
 2239 017e 0E       		.uleb128 0xe
 2240 017f 3A       		.uleb128 0x3a
 2241 0180 0B       		.uleb128 0xb
 2242 0181 3B       		.uleb128 0x3b
 2243 0182 0B       		.uleb128 0xb
 2244 0183 27       		.uleb128 0x27
 2245 0184 19       		.uleb128 0x19
 2246 0185 20       		.uleb128 0x20
 2247 0186 0B       		.uleb128 0xb
 2248 0187 00       		.byte	0
 2249 0188 00       		.byte	0
 2250 0189 20       		.uleb128 0x20
 2251 018a 2E       		.uleb128 0x2e
 2252 018b 00       		.byte	0
 2253 018c 3F       		.uleb128 0x3f
 2254 018d 19       		.uleb128 0x19
 2255 018e 03       		.uleb128 0x3
 2256 018f 0E       		.uleb128 0xe
 2257 0190 3A       		.uleb128 0x3a
 2258 0191 0B       		.uleb128 0xb
 2259 0192 3B       		.uleb128 0x3b
 2260 0193 0B       		.uleb128 0xb
 2261 0194 27       		.uleb128 0x27
 2262 0195 19       		.uleb128 0x19
 2263 0196 11       		.uleb128 0x11
 2264 0197 01       		.uleb128 0x1
 2265 0198 12       		.uleb128 0x12
 2266 0199 06       		.uleb128 0x6
 2267 019a 40       		.uleb128 0x40
 2268 019b 18       		.uleb128 0x18
 2269 019c 9742     		.uleb128 0x2117
 2270 019e 19       		.uleb128 0x19
 2271 019f 00       		.byte	0
 2272 01a0 00       		.byte	0
 2273 01a1 21       		.uleb128 0x21
 2274 01a2 2E       		.uleb128 0x2e
 2275 01a3 01       		.byte	0x1
 2276 01a4 3F       		.uleb128 0x3f
 2277 01a5 19       		.uleb128 0x19
 2278 01a6 03       		.uleb128 0x3
 2279 01a7 0E       		.uleb128 0xe
 2280 01a8 3A       		.uleb128 0x3a
ARM GAS  /tmp/ccz5QjuS.s 			page 41


 2281 01a9 0B       		.uleb128 0xb
 2282 01aa 3B       		.uleb128 0x3b
 2283 01ab 0B       		.uleb128 0xb
 2284 01ac 27       		.uleb128 0x27
 2285 01ad 19       		.uleb128 0x19
 2286 01ae 11       		.uleb128 0x11
 2287 01af 01       		.uleb128 0x1
 2288 01b0 12       		.uleb128 0x12
 2289 01b1 06       		.uleb128 0x6
 2290 01b2 40       		.uleb128 0x40
 2291 01b3 18       		.uleb128 0x18
 2292 01b4 9742     		.uleb128 0x2117
 2293 01b6 19       		.uleb128 0x19
 2294 01b7 01       		.uleb128 0x1
 2295 01b8 13       		.uleb128 0x13
 2296 01b9 00       		.byte	0
 2297 01ba 00       		.byte	0
 2298 01bb 22       		.uleb128 0x22
 2299 01bc 05       		.uleb128 0x5
 2300 01bd 00       		.byte	0
 2301 01be 03       		.uleb128 0x3
 2302 01bf 08       		.uleb128 0x8
 2303 01c0 3A       		.uleb128 0x3a
 2304 01c1 0B       		.uleb128 0xb
 2305 01c2 3B       		.uleb128 0x3b
 2306 01c3 0B       		.uleb128 0xb
 2307 01c4 49       		.uleb128 0x49
 2308 01c5 13       		.uleb128 0x13
 2309 01c6 02       		.uleb128 0x2
 2310 01c7 17       		.uleb128 0x17
 2311 01c8 00       		.byte	0
 2312 01c9 00       		.byte	0
 2313 01ca 23       		.uleb128 0x23
 2314 01cb 05       		.uleb128 0x5
 2315 01cc 00       		.byte	0
 2316 01cd 03       		.uleb128 0x3
 2317 01ce 0E       		.uleb128 0xe
 2318 01cf 3A       		.uleb128 0x3a
 2319 01d0 0B       		.uleb128 0xb
 2320 01d1 3B       		.uleb128 0x3b
 2321 01d2 0B       		.uleb128 0xb
 2322 01d3 49       		.uleb128 0x49
 2323 01d4 13       		.uleb128 0x13
 2324 01d5 02       		.uleb128 0x2
 2325 01d6 17       		.uleb128 0x17
 2326 01d7 00       		.byte	0
 2327 01d8 00       		.byte	0
 2328 01d9 24       		.uleb128 0x24
 2329 01da 34       		.uleb128 0x34
 2330 01db 00       		.byte	0
 2331 01dc 03       		.uleb128 0x3
 2332 01dd 08       		.uleb128 0x8
 2333 01de 3A       		.uleb128 0x3a
 2334 01df 0B       		.uleb128 0xb
 2335 01e0 3B       		.uleb128 0x3b
 2336 01e1 0B       		.uleb128 0xb
 2337 01e2 49       		.uleb128 0x49
ARM GAS  /tmp/ccz5QjuS.s 			page 42


 2338 01e3 13       		.uleb128 0x13
 2339 01e4 02       		.uleb128 0x2
 2340 01e5 17       		.uleb128 0x17
 2341 01e6 00       		.byte	0
 2342 01e7 00       		.byte	0
 2343 01e8 25       		.uleb128 0x25
 2344 01e9 34       		.uleb128 0x34
 2345 01ea 00       		.byte	0
 2346 01eb 03       		.uleb128 0x3
 2347 01ec 0E       		.uleb128 0xe
 2348 01ed 3A       		.uleb128 0x3a
 2349 01ee 0B       		.uleb128 0xb
 2350 01ef 3B       		.uleb128 0x3b
 2351 01f0 0B       		.uleb128 0xb
 2352 01f1 49       		.uleb128 0x49
 2353 01f2 13       		.uleb128 0x13
 2354 01f3 02       		.uleb128 0x2
 2355 01f4 17       		.uleb128 0x17
 2356 01f5 00       		.byte	0
 2357 01f6 00       		.byte	0
 2358 01f7 26       		.uleb128 0x26
 2359 01f8 34       		.uleb128 0x34
 2360 01f9 00       		.byte	0
 2361 01fa 03       		.uleb128 0x3
 2362 01fb 0E       		.uleb128 0xe
 2363 01fc 49       		.uleb128 0x49
 2364 01fd 13       		.uleb128 0x13
 2365 01fe 34       		.uleb128 0x34
 2366 01ff 19       		.uleb128 0x19
 2367 0200 00       		.byte	0
 2368 0201 00       		.byte	0
 2369 0202 27       		.uleb128 0x27
 2370 0203 0B       		.uleb128 0xb
 2371 0204 01       		.byte	0x1
 2372 0205 55       		.uleb128 0x55
 2373 0206 17       		.uleb128 0x17
 2374 0207 00       		.byte	0
 2375 0208 00       		.byte	0
 2376 0209 28       		.uleb128 0x28
 2377 020a 34       		.uleb128 0x34
 2378 020b 00       		.byte	0
 2379 020c 03       		.uleb128 0x3
 2380 020d 08       		.uleb128 0x8
 2381 020e 3A       		.uleb128 0x3a
 2382 020f 0B       		.uleb128 0xb
 2383 0210 3B       		.uleb128 0x3b
 2384 0211 0B       		.uleb128 0xb
 2385 0212 49       		.uleb128 0x49
 2386 0213 13       		.uleb128 0x13
 2387 0214 00       		.byte	0
 2388 0215 00       		.byte	0
 2389 0216 29       		.uleb128 0x29
 2390 0217 1D       		.uleb128 0x1d
 2391 0218 01       		.byte	0x1
 2392 0219 31       		.uleb128 0x31
 2393 021a 13       		.uleb128 0x13
 2394 021b 52       		.uleb128 0x52
ARM GAS  /tmp/ccz5QjuS.s 			page 43


 2395 021c 01       		.uleb128 0x1
 2396 021d 55       		.uleb128 0x55
 2397 021e 17       		.uleb128 0x17
 2398 021f 58       		.uleb128 0x58
 2399 0220 0B       		.uleb128 0xb
 2400 0221 59       		.uleb128 0x59
 2401 0222 0B       		.uleb128 0xb
 2402 0223 01       		.uleb128 0x1
 2403 0224 13       		.uleb128 0x13
 2404 0225 00       		.byte	0
 2405 0226 00       		.byte	0
 2406 0227 2A       		.uleb128 0x2a
 2407 0228 1D       		.uleb128 0x1d
 2408 0229 01       		.byte	0x1
 2409 022a 31       		.uleb128 0x31
 2410 022b 13       		.uleb128 0x13
 2411 022c 52       		.uleb128 0x52
 2412 022d 01       		.uleb128 0x1
 2413 022e 55       		.uleb128 0x55
 2414 022f 17       		.uleb128 0x17
 2415 0230 58       		.uleb128 0x58
 2416 0231 0B       		.uleb128 0xb
 2417 0232 59       		.uleb128 0x59
 2418 0233 0B       		.uleb128 0xb
 2419 0234 00       		.byte	0
 2420 0235 00       		.byte	0
 2421 0236 2B       		.uleb128 0x2b
 2422 0237 1D       		.uleb128 0x1d
 2423 0238 00       		.byte	0
 2424 0239 31       		.uleb128 0x31
 2425 023a 13       		.uleb128 0x13
 2426 023b 52       		.uleb128 0x52
 2427 023c 01       		.uleb128 0x1
 2428 023d 55       		.uleb128 0x55
 2429 023e 17       		.uleb128 0x17
 2430 023f 58       		.uleb128 0x58
 2431 0240 0B       		.uleb128 0xb
 2432 0241 59       		.uleb128 0x59
 2433 0242 0B       		.uleb128 0xb
 2434 0243 00       		.byte	0
 2435 0244 00       		.byte	0
 2436 0245 2C       		.uleb128 0x2c
 2437 0246 05       		.uleb128 0x5
 2438 0247 00       		.byte	0
 2439 0248 31       		.uleb128 0x31
 2440 0249 13       		.uleb128 0x13
 2441 024a 00       		.byte	0
 2442 024b 00       		.byte	0
 2443 024c 2D       		.uleb128 0x2d
 2444 024d 898201   		.uleb128 0x4109
 2445 0250 00       		.byte	0
 2446 0251 11       		.uleb128 0x11
 2447 0252 01       		.uleb128 0x1
 2448 0253 9542     		.uleb128 0x2115
 2449 0255 19       		.uleb128 0x19
 2450 0256 31       		.uleb128 0x31
 2451 0257 13       		.uleb128 0x13
ARM GAS  /tmp/ccz5QjuS.s 			page 44


 2452 0258 00       		.byte	0
 2453 0259 00       		.byte	0
 2454 025a 2E       		.uleb128 0x2e
 2455 025b 1D       		.uleb128 0x1d
 2456 025c 01       		.byte	0x1
 2457 025d 31       		.uleb128 0x31
 2458 025e 13       		.uleb128 0x13
 2459 025f 11       		.uleb128 0x11
 2460 0260 01       		.uleb128 0x1
 2461 0261 12       		.uleb128 0x12
 2462 0262 06       		.uleb128 0x6
 2463 0263 58       		.uleb128 0x58
 2464 0264 0B       		.uleb128 0xb
 2465 0265 59       		.uleb128 0x59
 2466 0266 0B       		.uleb128 0xb
 2467 0267 01       		.uleb128 0x1
 2468 0268 13       		.uleb128 0x13
 2469 0269 00       		.byte	0
 2470 026a 00       		.byte	0
 2471 026b 2F       		.uleb128 0x2f
 2472 026c 05       		.uleb128 0x5
 2473 026d 00       		.byte	0
 2474 026e 31       		.uleb128 0x31
 2475 026f 13       		.uleb128 0x13
 2476 0270 02       		.uleb128 0x2
 2477 0271 17       		.uleb128 0x17
 2478 0272 00       		.byte	0
 2479 0273 00       		.byte	0
 2480 0274 30       		.uleb128 0x30
 2481 0275 0B       		.uleb128 0xb
 2482 0276 01       		.byte	0x1
 2483 0277 11       		.uleb128 0x11
 2484 0278 01       		.uleb128 0x1
 2485 0279 12       		.uleb128 0x12
 2486 027a 06       		.uleb128 0x6
 2487 027b 00       		.byte	0
 2488 027c 00       		.byte	0
 2489 027d 31       		.uleb128 0x31
 2490 027e 1D       		.uleb128 0x1d
 2491 027f 01       		.byte	0x1
 2492 0280 31       		.uleb128 0x31
 2493 0281 13       		.uleb128 0x13
 2494 0282 11       		.uleb128 0x11
 2495 0283 01       		.uleb128 0x1
 2496 0284 12       		.uleb128 0x12
 2497 0285 06       		.uleb128 0x6
 2498 0286 58       		.uleb128 0x58
 2499 0287 0B       		.uleb128 0xb
 2500 0288 59       		.uleb128 0x59
 2501 0289 0B       		.uleb128 0xb
 2502 028a 00       		.byte	0
 2503 028b 00       		.byte	0
 2504 028c 32       		.uleb128 0x32
 2505 028d 898201   		.uleb128 0x4109
 2506 0290 00       		.byte	0
 2507 0291 11       		.uleb128 0x11
 2508 0292 01       		.uleb128 0x1
ARM GAS  /tmp/ccz5QjuS.s 			page 45


 2509 0293 31       		.uleb128 0x31
 2510 0294 13       		.uleb128 0x13
 2511 0295 00       		.byte	0
 2512 0296 00       		.byte	0
 2513 0297 33       		.uleb128 0x33
 2514 0298 34       		.uleb128 0x34
 2515 0299 00       		.byte	0
 2516 029a 03       		.uleb128 0x3
 2517 029b 0E       		.uleb128 0xe
 2518 029c 3A       		.uleb128 0x3a
 2519 029d 0B       		.uleb128 0xb
 2520 029e 3B       		.uleb128 0x3b
 2521 029f 0B       		.uleb128 0xb
 2522 02a0 49       		.uleb128 0x49
 2523 02a1 13       		.uleb128 0x13
 2524 02a2 00       		.byte	0
 2525 02a3 00       		.byte	0
 2526 02a4 34       		.uleb128 0x34
 2527 02a5 1D       		.uleb128 0x1d
 2528 02a6 01       		.byte	0x1
 2529 02a7 31       		.uleb128 0x31
 2530 02a8 13       		.uleb128 0x13
 2531 02a9 52       		.uleb128 0x52
 2532 02aa 01       		.uleb128 0x1
 2533 02ab 55       		.uleb128 0x55
 2534 02ac 17       		.uleb128 0x17
 2535 02ad 58       		.uleb128 0x58
 2536 02ae 0B       		.uleb128 0xb
 2537 02af 59       		.uleb128 0x59
 2538 02b0 05       		.uleb128 0x5
 2539 02b1 01       		.uleb128 0x1
 2540 02b2 13       		.uleb128 0x13
 2541 02b3 00       		.byte	0
 2542 02b4 00       		.byte	0
 2543 02b5 35       		.uleb128 0x35
 2544 02b6 1D       		.uleb128 0x1d
 2545 02b7 01       		.byte	0x1
 2546 02b8 31       		.uleb128 0x31
 2547 02b9 13       		.uleb128 0x13
 2548 02ba 11       		.uleb128 0x11
 2549 02bb 01       		.uleb128 0x1
 2550 02bc 12       		.uleb128 0x12
 2551 02bd 06       		.uleb128 0x6
 2552 02be 58       		.uleb128 0x58
 2553 02bf 0B       		.uleb128 0xb
 2554 02c0 59       		.uleb128 0x59
 2555 02c1 05       		.uleb128 0x5
 2556 02c2 01       		.uleb128 0x1
 2557 02c3 13       		.uleb128 0x13
 2558 02c4 00       		.byte	0
 2559 02c5 00       		.byte	0
 2560 02c6 36       		.uleb128 0x36
 2561 02c7 1D       		.uleb128 0x1d
 2562 02c8 01       		.byte	0x1
 2563 02c9 31       		.uleb128 0x31
 2564 02ca 13       		.uleb128 0x13
 2565 02cb 52       		.uleb128 0x52
ARM GAS  /tmp/ccz5QjuS.s 			page 46


 2566 02cc 01       		.uleb128 0x1
 2567 02cd 55       		.uleb128 0x55
 2568 02ce 17       		.uleb128 0x17
 2569 02cf 58       		.uleb128 0x58
 2570 02d0 0B       		.uleb128 0xb
 2571 02d1 59       		.uleb128 0x59
 2572 02d2 05       		.uleb128 0x5
 2573 02d3 00       		.byte	0
 2574 02d4 00       		.byte	0
 2575 02d5 37       		.uleb128 0x37
 2576 02d6 34       		.uleb128 0x34
 2577 02d7 00       		.byte	0
 2578 02d8 03       		.uleb128 0x3
 2579 02d9 0E       		.uleb128 0xe
 2580 02da 3A       		.uleb128 0x3a
 2581 02db 0B       		.uleb128 0xb
 2582 02dc 3B       		.uleb128 0x3b
 2583 02dd 05       		.uleb128 0x5
 2584 02de 49       		.uleb128 0x49
 2585 02df 13       		.uleb128 0x13
 2586 02e0 3F       		.uleb128 0x3f
 2587 02e1 19       		.uleb128 0x19
 2588 02e2 3C       		.uleb128 0x3c
 2589 02e3 19       		.uleb128 0x19
 2590 02e4 00       		.byte	0
 2591 02e5 00       		.byte	0
 2592 02e6 38       		.uleb128 0x38
 2593 02e7 34       		.uleb128 0x34
 2594 02e8 00       		.byte	0
 2595 02e9 03       		.uleb128 0x3
 2596 02ea 08       		.uleb128 0x8
 2597 02eb 3A       		.uleb128 0x3a
 2598 02ec 0B       		.uleb128 0xb
 2599 02ed 3B       		.uleb128 0x3b
 2600 02ee 05       		.uleb128 0x5
 2601 02ef 49       		.uleb128 0x49
 2602 02f0 13       		.uleb128 0x13
 2603 02f1 3F       		.uleb128 0x3f
 2604 02f2 19       		.uleb128 0x19
 2605 02f3 3C       		.uleb128 0x3c
 2606 02f4 19       		.uleb128 0x19
 2607 02f5 00       		.byte	0
 2608 02f6 00       		.byte	0
 2609 02f7 39       		.uleb128 0x39
 2610 02f8 2E       		.uleb128 0x2e
 2611 02f9 00       		.byte	0
 2612 02fa 3F       		.uleb128 0x3f
 2613 02fb 19       		.uleb128 0x19
 2614 02fc 3C       		.uleb128 0x3c
 2615 02fd 19       		.uleb128 0x19
 2616 02fe 6E       		.uleb128 0x6e
 2617 02ff 0E       		.uleb128 0xe
 2618 0300 03       		.uleb128 0x3
 2619 0301 0E       		.uleb128 0xe
 2620 0302 3A       		.uleb128 0x3a
 2621 0303 0B       		.uleb128 0xb
 2622 0304 3B       		.uleb128 0x3b
ARM GAS  /tmp/ccz5QjuS.s 			page 47


 2623 0305 0B       		.uleb128 0xb
 2624 0306 00       		.byte	0
 2625 0307 00       		.byte	0
 2626 0308 00       		.byte	0
 2627              		.section	.debug_loc,"",%progbits
 2628              	.Ldebug_loc0:
 2629              	.LLST0:
 2630 0000 00000000 		.4byte	.LVL0
 2631 0004 2E000000 		.4byte	.LVL4
 2632 0008 0100     		.2byte	0x1
 2633 000a 50       		.byte	0x50
 2634 000b 2E000000 		.4byte	.LVL4
 2635 000f 32000000 		.4byte	.LVL5
 2636 0013 0100     		.2byte	0x1
 2637 0015 56       		.byte	0x56
 2638 0016 32000000 		.4byte	.LVL5
 2639 001a 35000000 		.4byte	.LVL6-1
 2640 001e 0200     		.2byte	0x2
 2641 0020 72       		.byte	0x72
 2642 0021 00       		.sleb128 0
 2643 0022 35000000 		.4byte	.LVL6-1
 2644 0026 36000000 		.4byte	.LVL6
 2645 002a 0400     		.2byte	0x4
 2646 002c F3       		.byte	0xf3
 2647 002d 01       		.uleb128 0x1
 2648 002e 50       		.byte	0x50
 2649 002f 9F       		.byte	0x9f
 2650 0030 36000000 		.4byte	.LVL6
 2651 0034 38000000 		.4byte	.LVL7
 2652 0038 0100     		.2byte	0x1
 2653 003a 50       		.byte	0x50
 2654 003b 38000000 		.4byte	.LVL7
 2655 003f 70000000 		.4byte	.LVL15
 2656 0043 0100     		.2byte	0x1
 2657 0045 56       		.byte	0x56
 2658 0046 70000000 		.4byte	.LVL15
 2659 004a 78000000 		.4byte	.LFE291
 2660 004e 0400     		.2byte	0x4
 2661 0050 F3       		.byte	0xf3
 2662 0051 01       		.uleb128 0x1
 2663 0052 50       		.byte	0x50
 2664 0053 9F       		.byte	0x9f
 2665 0054 00000000 		.4byte	0
 2666 0058 00000000 		.4byte	0
 2667              	.LLST1:
 2668 005c 00000000 		.4byte	.LVL0
 2669 0060 14000000 		.4byte	.LVL3
 2670 0064 0100     		.2byte	0x1
 2671 0066 51       		.byte	0x51
 2672 0067 14000000 		.4byte	.LVL3
 2673 006b 35000000 		.4byte	.LVL6-1
 2674 006f 0100     		.2byte	0x1
 2675 0071 51       		.byte	0x51
 2676 0072 35000000 		.4byte	.LVL6-1
 2677 0076 36000000 		.4byte	.LVL6
 2678 007a 1700     		.2byte	0x17
 2679 007c F3       		.byte	0xf3
ARM GAS  /tmp/ccz5QjuS.s 			page 48


 2680 007d 01       		.uleb128 0x1
 2681 007e 51       		.byte	0x51
 2682 007f 32       		.byte	0x32
 2683 0080 F3       		.byte	0xf3
 2684 0081 01       		.uleb128 0x1
 2685 0082 51       		.byte	0x51
 2686 0083 40       		.byte	0x40
 2687 0084 4B       		.byte	0x4b
 2688 0085 24       		.byte	0x24
 2689 0086 22       		.byte	0x22
 2690 0087 0C       		.byte	0xc
 2691 0088 01000080 		.4byte	0x80000001
 2692 008c 2B       		.byte	0x2b
 2693 008d 28       		.byte	0x28
 2694 008e 0100     		.2byte	0x1
 2695 0090 16       		.byte	0x16
 2696 0091 13       		.byte	0x13
 2697 0092 9F       		.byte	0x9f
 2698 0093 36000000 		.4byte	.LVL6
 2699 0097 49000000 		.4byte	.LVL11-1
 2700 009b 0100     		.2byte	0x1
 2701 009d 51       		.byte	0x51
 2702 009e 49000000 		.4byte	.LVL11-1
 2703 00a2 78000000 		.4byte	.LFE291
 2704 00a6 1700     		.2byte	0x17
 2705 00a8 F3       		.byte	0xf3
 2706 00a9 01       		.uleb128 0x1
 2707 00aa 51       		.byte	0x51
 2708 00ab 32       		.byte	0x32
 2709 00ac F3       		.byte	0xf3
 2710 00ad 01       		.uleb128 0x1
 2711 00ae 51       		.byte	0x51
 2712 00af 40       		.byte	0x40
 2713 00b0 4B       		.byte	0x4b
 2714 00b1 24       		.byte	0x24
 2715 00b2 22       		.byte	0x22
 2716 00b3 0C       		.byte	0xc
 2717 00b4 01000080 		.4byte	0x80000001
 2718 00b8 2B       		.byte	0x2b
 2719 00b9 28       		.byte	0x28
 2720 00ba 0100     		.2byte	0x1
 2721 00bc 16       		.byte	0x16
 2722 00bd 13       		.byte	0x13
 2723 00be 9F       		.byte	0x9f
 2724 00bf 00000000 		.4byte	0
 2725 00c3 00000000 		.4byte	0
 2726              	.LLST2:
 2727 00c7 00000000 		.4byte	.LVL0
 2728 00cb 0E000000 		.4byte	.LVL2
 2729 00cf 0100     		.2byte	0x1
 2730 00d1 52       		.byte	0x52
 2731 00d2 0E000000 		.4byte	.LVL2
 2732 00d6 2E000000 		.4byte	.LVL4
 2733 00da 0200     		.2byte	0x2
 2734 00dc 70       		.byte	0x70
 2735 00dd 0C       		.sleb128 12
 2736 00de 2E000000 		.4byte	.LVL4
ARM GAS  /tmp/ccz5QjuS.s 			page 49


 2737 00e2 32000000 		.4byte	.LVL5
 2738 00e6 0200     		.2byte	0x2
 2739 00e8 76       		.byte	0x76
 2740 00e9 0C       		.sleb128 12
 2741 00ea 32000000 		.4byte	.LVL5
 2742 00ee 35000000 		.4byte	.LVL6-1
 2743 00f2 0500     		.2byte	0x5
 2744 00f4 72       		.byte	0x72
 2745 00f5 00       		.sleb128 0
 2746 00f6 06       		.byte	0x6
 2747 00f7 23       		.byte	0x23
 2748 00f8 0C       		.uleb128 0xc
 2749 00f9 35000000 		.4byte	.LVL6-1
 2750 00fd 36000000 		.4byte	.LVL6
 2751 0101 0400     		.2byte	0x4
 2752 0103 F3       		.byte	0xf3
 2753 0104 01       		.uleb128 0x1
 2754 0105 52       		.byte	0x52
 2755 0106 9F       		.byte	0x9f
 2756 0107 36000000 		.4byte	.LVL6
 2757 010b 38000000 		.4byte	.LVL7
 2758 010f 0200     		.2byte	0x2
 2759 0111 70       		.byte	0x70
 2760 0112 0C       		.sleb128 12
 2761 0113 38000000 		.4byte	.LVL7
 2762 0117 49000000 		.4byte	.LVL11-1
 2763 011b 0200     		.2byte	0x2
 2764 011d 76       		.byte	0x76
 2765 011e 0C       		.sleb128 12
 2766 011f 49000000 		.4byte	.LVL11-1
 2767 0123 78000000 		.4byte	.LFE291
 2768 0127 0400     		.2byte	0x4
 2769 0129 F3       		.byte	0xf3
 2770 012a 01       		.uleb128 0x1
 2771 012b 52       		.byte	0x52
 2772 012c 9F       		.byte	0x9f
 2773 012d 00000000 		.4byte	0
 2774 0131 00000000 		.4byte	0
 2775              	.LLST3:
 2776 0135 00000000 		.4byte	.LVL0
 2777 0139 06000000 		.4byte	.LVL1
 2778 013d 0100     		.2byte	0x1
 2779 013f 53       		.byte	0x53
 2780 0140 06000000 		.4byte	.LVL1
 2781 0144 2E000000 		.4byte	.LVL4
 2782 0148 0200     		.2byte	0x2
 2783 014a 70       		.byte	0x70
 2784 014b 10       		.sleb128 16
 2785 014c 2E000000 		.4byte	.LVL4
 2786 0150 32000000 		.4byte	.LVL5
 2787 0154 0200     		.2byte	0x2
 2788 0156 76       		.byte	0x76
 2789 0157 10       		.sleb128 16
 2790 0158 32000000 		.4byte	.LVL5
 2791 015c 35000000 		.4byte	.LVL6-1
 2792 0160 0500     		.2byte	0x5
 2793 0162 72       		.byte	0x72
ARM GAS  /tmp/ccz5QjuS.s 			page 50


 2794 0163 00       		.sleb128 0
 2795 0164 06       		.byte	0x6
 2796 0165 23       		.byte	0x23
 2797 0166 10       		.uleb128 0x10
 2798 0167 35000000 		.4byte	.LVL6-1
 2799 016b 36000000 		.4byte	.LVL6
 2800 016f 0400     		.2byte	0x4
 2801 0171 F3       		.byte	0xf3
 2802 0172 01       		.uleb128 0x1
 2803 0173 53       		.byte	0x53
 2804 0174 9F       		.byte	0x9f
 2805 0175 36000000 		.4byte	.LVL6
 2806 0179 38000000 		.4byte	.LVL7
 2807 017d 0200     		.2byte	0x2
 2808 017f 70       		.byte	0x70
 2809 0180 10       		.sleb128 16
 2810 0181 38000000 		.4byte	.LVL7
 2811 0185 49000000 		.4byte	.LVL11-1
 2812 0189 0200     		.2byte	0x2
 2813 018b 76       		.byte	0x76
 2814 018c 10       		.sleb128 16
 2815 018d 49000000 		.4byte	.LVL11-1
 2816 0191 78000000 		.4byte	.LFE291
 2817 0195 0400     		.2byte	0x4
 2818 0197 F3       		.byte	0xf3
 2819 0198 01       		.uleb128 0x1
 2820 0199 53       		.byte	0x53
 2821 019a 9F       		.byte	0x9f
 2822 019b 00000000 		.4byte	0
 2823 019f 00000000 		.4byte	0
 2824              	.LLST4:
 2825 01a3 36000000 		.4byte	.LVL6
 2826 01a7 4E000000 		.4byte	.LVL13
 2827 01ab 0100     		.2byte	0x1
 2828 01ad 55       		.byte	0x55
 2829 01ae 50000000 		.4byte	.LVL14
 2830 01b2 70000000 		.4byte	.LVL15
 2831 01b6 0100     		.2byte	0x1
 2832 01b8 55       		.byte	0x55
 2833 01b9 00000000 		.4byte	0
 2834 01bd 00000000 		.4byte	0
 2835              	.LLST5:
 2836 01c1 3C000000 		.4byte	.LVL8
 2837 01c5 3E000000 		.4byte	.LVL9
 2838 01c9 0600     		.2byte	0x6
 2839 01cb 71       		.byte	0x71
 2840 01cc 00       		.sleb128 0
 2841 01cd 74       		.byte	0x74
 2842 01ce 00       		.sleb128 0
 2843 01cf 22       		.byte	0x22
 2844 01d0 9F       		.byte	0x9f
 2845 01d1 3E000000 		.4byte	.LVL9
 2846 01d5 70000000 		.4byte	.LVL15
 2847 01d9 0100     		.2byte	0x1
 2848 01db 54       		.byte	0x54
 2849 01dc 00000000 		.4byte	0
 2850 01e0 00000000 		.4byte	0
ARM GAS  /tmp/ccz5QjuS.s 			page 51


 2851              	.LLST6:
 2852 01e4 38000000 		.4byte	.LVL7
 2853 01e8 3C000000 		.4byte	.LVL8
 2854 01ec 0100     		.2byte	0x1
 2855 01ee 54       		.byte	0x54
 2856 01ef 00000000 		.4byte	0
 2857 01f3 00000000 		.4byte	0
 2858              	.LLST7:
 2859 01f7 38000000 		.4byte	.LVL7
 2860 01fb 3C000000 		.4byte	.LVL8
 2861 01ff 0100     		.2byte	0x1
 2862 0201 50       		.byte	0x50
 2863 0202 00000000 		.4byte	0
 2864 0206 00000000 		.4byte	0
 2865              	.LLST8:
 2866 020a 44000000 		.4byte	.LVL10
 2867 020e 4C000000 		.4byte	.LVL12
 2868 0212 0100     		.2byte	0x1
 2869 0214 54       		.byte	0x54
 2870 0215 00000000 		.4byte	0
 2871 0219 00000000 		.4byte	0
 2872              	.LLST9:
 2873 021d 00000000 		.4byte	.LVL16
 2874 0221 32000000 		.4byte	.LVL17
 2875 0225 0100     		.2byte	0x1
 2876 0227 50       		.byte	0x50
 2877 0228 32000000 		.4byte	.LVL17
 2878 022c 78000000 		.4byte	.LFE292
 2879 0230 0400     		.2byte	0x4
 2880 0232 F3       		.byte	0xf3
 2881 0233 01       		.uleb128 0x1
 2882 0234 50       		.byte	0x50
 2883 0235 9F       		.byte	0x9f
 2884 0236 00000000 		.4byte	0
 2885 023a 00000000 		.4byte	0
 2886              	.LLST10:
 2887 023e 56000000 		.4byte	.LVL21
 2888 0242 58000000 		.4byte	.LVL22
 2889 0246 0600     		.2byte	0x6
 2890 0248 73       		.byte	0x73
 2891 0249 00       		.sleb128 0
 2892 024a 72       		.byte	0x72
 2893 024b 00       		.sleb128 0
 2894 024c 1C       		.byte	0x1c
 2895 024d 9F       		.byte	0x9f
 2896 024e 58000000 		.4byte	.LVL22
 2897 0252 5E000000 		.4byte	.LVL23
 2898 0256 0100     		.2byte	0x1
 2899 0258 51       		.byte	0x51
 2900 0259 5E000000 		.4byte	.LVL23
 2901 025d 67000000 		.4byte	.LVL24-1
 2902 0261 0100     		.2byte	0x1
 2903 0263 53       		.byte	0x53
 2904 0264 00000000 		.4byte	0
 2905 0268 00000000 		.4byte	0
 2906              	.LLST11:
 2907 026c 50000000 		.4byte	.LVL19
ARM GAS  /tmp/ccz5QjuS.s 			page 52


 2908 0270 52000000 		.4byte	.LVL20
 2909 0274 0100     		.2byte	0x1
 2910 0276 50       		.byte	0x50
 2911 0277 00000000 		.4byte	0
 2912 027b 00000000 		.4byte	0
 2913              		.section	.debug_aranges,"",%progbits
 2914 0000 2C000000 		.4byte	0x2c
 2915 0004 0200     		.2byte	0x2
 2916 0006 00000000 		.4byte	.Ldebug_info0
 2917 000a 04       		.byte	0x4
 2918 000b 00       		.byte	0
 2919 000c 0000     		.2byte	0
 2920 000e 0000     		.2byte	0
 2921 0010 00000000 		.4byte	.LFB290
 2922 0014 1C000000 		.4byte	.LFE290-.LFB290
 2923 0018 00000000 		.4byte	.LFB291
 2924 001c 78000000 		.4byte	.LFE291-.LFB291
 2925 0020 00000000 		.4byte	.LFB292
 2926 0024 78000000 		.4byte	.LFE292-.LFB292
 2927 0028 00000000 		.4byte	0
 2928 002c 00000000 		.4byte	0
 2929              		.section	.debug_ranges,"",%progbits
 2930              	.Ldebug_ranges0:
 2931 0000 04000000 		.4byte	.LBB40
 2932 0004 06000000 		.4byte	.LBE40
 2933 0008 08000000 		.4byte	.LBB58
 2934 000c 1A000000 		.4byte	.LBE58
 2935 0010 1E000000 		.4byte	.LBB59
 2936 0014 2E000000 		.4byte	.LBE59
 2937 0018 32000000 		.4byte	.LBB60
 2938 001c 4C000000 		.4byte	.LBE60
 2939 0020 00000000 		.4byte	0
 2940 0024 00000000 		.4byte	0
 2941 0028 04000000 		.4byte	.LBB41
 2942 002c 06000000 		.4byte	.LBE41
 2943 0030 08000000 		.4byte	.LBB48
 2944 0034 0A000000 		.4byte	.LBE48
 2945 0038 00000000 		.4byte	0
 2946 003c 00000000 		.4byte	0
 2947 0040 2C000000 		.4byte	.LBB49
 2948 0044 2E000000 		.4byte	.LBE49
 2949 0048 32000000 		.4byte	.LBB52
 2950 004c 36000000 		.4byte	.LBE52
 2951 0050 00000000 		.4byte	0
 2952 0054 00000000 		.4byte	0
 2953 0058 4A000000 		.4byte	.LBB63
 2954 005c 4C000000 		.4byte	.LBE63
 2955 0060 4E000000 		.4byte	.LBB70
 2956 0064 50000000 		.4byte	.LBE70
 2957 0068 00000000 		.4byte	0
 2958 006c 00000000 		.4byte	0
 2959 0070 5E000000 		.4byte	.LBB73
 2960 0074 60000000 		.4byte	.LBE73
 2961 0078 64000000 		.4byte	.LBB76
 2962 007c 68000000 		.4byte	.LBE76
 2963 0080 00000000 		.4byte	0
 2964 0084 00000000 		.4byte	0
ARM GAS  /tmp/ccz5QjuS.s 			page 53


 2965 0088 00000000 		.4byte	.LFB290
 2966 008c 1C000000 		.4byte	.LFE290
 2967 0090 00000000 		.4byte	.LFB291
 2968 0094 78000000 		.4byte	.LFE291
 2969 0098 00000000 		.4byte	.LFB292
 2970 009c 78000000 		.4byte	.LFE292
 2971 00a0 00000000 		.4byte	0
 2972 00a4 00000000 		.4byte	0
 2973              		.section	.debug_line,"",%progbits
 2974              	.Ldebug_line0:
 2975 0000 74030000 		.section	.debug_str,"MS",%progbits,1
 2975      02008402 
 2975      00000201 
 2975      FB0E0D00 
 2975      01010101 
 2976              	.LASF53:
 2977 0000 72656164 		.ascii	"ready_list_t\000"
 2977      795F6C69 
 2977      73745F74 
 2977      00
 2978              	.LASF81:
 2979 000d 44494552 		.ascii	"DIER\000"
 2979      00
 2980              	.LASF105:
 2981 0012 77747472 		.ascii	"wttrp\000"
 2981      7000
 2982              	.LASF49:
 2983 0018 6E657874 		.ascii	"next\000"
 2983      00
 2984              	.LASF59:
 2985 001d 64656C74 		.ascii	"delta\000"
 2985      6100
 2986              	.LASF102:
 2987 0023 7264796D 		.ascii	"rdymsg\000"
 2987      736700
 2988              	.LASF17:
 2989 002a 75696E74 		.ascii	"uint64_t\000"
 2989      36345F74 
 2989      00
 2990              	.LASF72:
 2991 0033 6B65726E 		.ascii	"kernel_stats\000"
 2991      656C5F73 
 2991      74617473 
 2991      00
 2992              	.LASF25:
 2993 0040 6576656E 		.ascii	"eventmask_t\000"
 2993      746D6173 
 2993      6B5F7400 
 2994              	.LASF7:
 2995 004c 5F5F7569 		.ascii	"__uint8_t\000"
 2995      6E74385F 
 2995      7400
 2996              	.LASF24:
 2997 0056 6D73675F 		.ascii	"msg_t\000"
 2997      7400
 2998              	.LASF52:
 2999 005c 70726576 		.ascii	"prev\000"
ARM GAS  /tmp/ccz5QjuS.s 			page 54


 2999      00
 3000              	.LASF79:
 3001 0061 706F7274 		.ascii	"port_intctx\000"
 3001      5F696E74 
 3001      63747800 
 3002              	.LASF51:
 3003 006d 63685F74 		.ascii	"ch_threads_queue\000"
 3003      68726561 
 3003      64735F71 
 3003      75657565 
 3003      00
 3004              	.LASF64:
 3005 007e 73797374 		.ascii	"system_debug_t\000"
 3005      656D5F64 
 3005      65627567 
 3005      5F7400
 3006              	.LASF83:
 3007 008d 43434D52 		.ascii	"CCMR2\000"
 3007      3200
 3008              	.LASF138:
 3009 0093 474E5520 		.ascii	"GNU C11 5.4.1 20160919 -mcpu=cortex-m4 -mfloat-abi="
 3009      43313120 
 3009      352E342E 
 3009      31203230 
 3009      31363039 
 3010 00c6 68617264 		.ascii	"hard -mfpu=fpv4-sp-d16 -mno-thumb-interwork -mthumb"
 3010      202D6D66 
 3010      70753D66 
 3010      7076342D 
 3010      73702D64 
 3011 00f9 202D6720 		.ascii	" -g -Os -fomit-frame-pointer -falign-functions=16 -"
 3011      2D4F7320 
 3011      2D666F6D 
 3011      69742D66 
 3011      72616D65 
 3012 012c 6666756E 		.ascii	"ffunction-sections -fdata-sections -fno-common -fsi"
 3012      6374696F 
 3012      6E2D7365 
 3012      6374696F 
 3012      6E73202D 
 3013 015f 6E676C65 		.ascii	"ngle-precision-constant\000"
 3013      2D707265 
 3013      63697369 
 3013      6F6E2D63 
 3013      6F6E7374 
 3014              	.LASF93:
 3015 0177 776F7273 		.ascii	"worst\000"
 3015      7400
 3016              	.LASF96:
 3017 017d 74696D65 		.ascii	"time_measurement_t\000"
 3017      5F6D6561 
 3017      73757265 
 3017      6D656E74 
 3017      5F7400
 3018              	.LASF13:
 3019 0190 6C6F6E67 		.ascii	"long long unsigned int\000"
 3019      206C6F6E 
ARM GAS  /tmp/ccz5QjuS.s 			page 55


 3019      6720756E 
 3019      7369676E 
 3019      65642069 
 3020              	.LASF131:
 3021 01a7 63685654 		.ascii	"chVTDoResetI\000"
 3021      446F5265 
 3021      73657449 
 3021      00
 3022              	.LASF103:
 3023 01b4 65786974 		.ascii	"exitcode\000"
 3023      636F6465 
 3023      00
 3024              	.LASF71:
 3025 01bd 6D61696E 		.ascii	"mainthread\000"
 3025      74687265 
 3025      616400
 3026              	.LASF106:
 3027 01c8 73656E74 		.ascii	"sentmsg\000"
 3027      6D736700 
 3028              	.LASF61:
 3029 01d0 76697274 		.ascii	"virtual_timers_list_t\000"
 3029      75616C5F 
 3029      74696D65 
 3029      72735F6C 
 3029      6973745F 
 3030              	.LASF134:
 3031 01e6 49544D5F 		.ascii	"ITM_RxBuffer\000"
 3031      52784275 
 3031      66666572 
 3031      00
 3032              	.LASF85:
 3033 01f3 42445452 		.ascii	"BDTR\000"
 3033      00
 3034              	.LASF19:
 3035 01f8 72747469 		.ascii	"rttime_t\000"
 3035      6D655F74 
 3035      00
 3036              	.LASF82:
 3037 0201 43434D52 		.ascii	"CCMR1\000"
 3037      3100
 3038              	.LASF142:
 3039 0207 5F76745F 		.ascii	"_vt_init\000"
 3039      696E6974 
 3039      00
 3040              	.LASF87:
 3041 0210 43434D52 		.ascii	"CCMR3\000"
 3041      3300
 3042              	.LASF3:
 3043 0216 7369676E 		.ascii	"signed char\000"
 3043      65642063 
 3043      68617200 
 3044              	.LASF70:
 3045 0222 76746C69 		.ascii	"vtlist\000"
 3045      737400
 3046              	.LASF39:
 3047 0229 6D736771 		.ascii	"msgqueue\000"
 3047      75657565 
ARM GAS  /tmp/ccz5QjuS.s 			page 56


 3047      00
 3048              	.LASF35:
 3049 0232 73746174 		.ascii	"state\000"
 3049      6500
 3050              	.LASF9:
 3051 0238 6C6F6E67 		.ascii	"long int\000"
 3051      20696E74 
 3051      00
 3052              	.LASF21:
 3053 0241 74737461 		.ascii	"tstate_t\000"
 3053      74655F74 
 3053      00
 3054              	.LASF60:
 3055 024a 66756E63 		.ascii	"func\000"
 3055      00
 3056              	.LASF44:
 3057 024f 73746174 		.ascii	"stats\000"
 3057      7300
 3058              	.LASF121:
 3059 0255 696E7465 		.ascii	"interval\000"
 3059      7276616C 
 3059      00
 3060              	.LASF10:
 3061 025e 5F5F7569 		.ascii	"__uint32_t\000"
 3061      6E743332 
 3061      5F7400
 3062              	.LASF76:
 3063 0269 72656761 		.ascii	"regarm_t\000"
 3063      726D5F74 
 3063      00
 3064              	.LASF65:
 3065 0272 63685F73 		.ascii	"ch_system_debug\000"
 3065      79737465 
 3065      6D5F6465 
 3065      62756700 
 3066              	.LASF38:
 3067 0282 77616974 		.ascii	"waiting\000"
 3067      696E6700 
 3068              	.LASF1:
 3069 028a 6C6F6E67 		.ascii	"long long int\000"
 3069      206C6F6E 
 3069      6720696E 
 3069      7400
 3070              	.LASF74:
 3071 0298 73797369 		.ascii	"sysinterval_t\000"
 3071      6E746572 
 3071      76616C5F 
 3071      7400
 3072              	.LASF26:
 3073 02a6 636E745F 		.ascii	"cnt_t\000"
 3073      7400
 3074              	.LASF118:
 3075 02ac 63685654 		.ascii	"chVTGetSystemTimeX\000"
 3075      47657453 
 3075      79737465 
 3075      6D54696D 
 3075      655800
ARM GAS  /tmp/ccz5QjuS.s 			page 57


 3076              	.LASF133:
 3077 02bf 6E6F7764 		.ascii	"nowdelta\000"
 3077      656C7461 
 3077      00
 3078              	.LASF107:
 3079 02c8 77747365 		.ascii	"wtsemp\000"
 3079      6D7000
 3080              	.LASF129:
 3081 02cf 64656164 		.ascii	"deadline_delta\000"
 3081      6C696E65 
 3081      5F64656C 
 3081      746100
 3082              	.LASF97:
 3083 02de 6E5F6972 		.ascii	"n_irq\000"
 3083      7100
 3084              	.LASF29:
 3085 02e4 71756575 		.ascii	"queue\000"
 3085      6500
 3086              	.LASF43:
 3087 02ea 6D706F6F 		.ascii	"mpool\000"
 3087      6C00
 3088              	.LASF92:
 3089 02f0 62657374 		.ascii	"best\000"
 3089      00
 3090              	.LASF80:
 3091 02f5 534D4352 		.ascii	"SMCR\000"
 3091      00
 3092              	.LASF101:
 3093 02fa 6B65726E 		.ascii	"kernel_stats_t\000"
 3093      656C5F73 
 3093      74617473 
 3093      5F7400
 3094              	.LASF33:
 3095 0309 6E616D65 		.ascii	"name\000"
 3095      00
 3096              	.LASF47:
 3097 030e 63685F74 		.ascii	"ch_thread\000"
 3097      68726561 
 3097      6400
 3098              	.LASF125:
 3099 0318 706F7274 		.ascii	"port_timer_start_alarm\000"
 3099      5F74696D 
 3099      65725F73 
 3099      74617274 
 3099      5F616C61 
 3100              	.LASF94:
 3101 032f 6C617374 		.ascii	"last\000"
 3101      00
 3102              	.LASF27:
 3103 0334 75636E74 		.ascii	"ucnt_t\000"
 3103      5F7400
 3104              	.LASF40:
 3105 033b 6570656E 		.ascii	"epending\000"
 3105      64696E67 
 3105      00
 3106              	.LASF67:
 3107 0344 63685F73 		.ascii	"ch_system_t\000"
ARM GAS  /tmp/ccz5QjuS.s 			page 58


 3107      79737465 
 3107      6D5F7400 
 3108              	.LASF89:
 3109 0350 73746D33 		.ascii	"stm32_tim_t\000"
 3109      325F7469 
 3109      6D5F7400 
 3110              	.LASF120:
 3111 035c 73797374 		.ascii	"systime\000"
 3111      696D6500 
 3112              	.LASF100:
 3113 0364 6D5F6372 		.ascii	"m_crit_isr\000"
 3113      69745F69 
 3113      737200
 3114              	.LASF54:
 3115 036f 63685F72 		.ascii	"ch_ready_list\000"
 3115      65616479 
 3115      5F6C6973 
 3115      7400
 3116              	.LASF130:
 3117 037d 63685654 		.ascii	"chVTDoSetI\000"
 3117      446F5365 
 3117      744900
 3118              	.LASF8:
 3119 0388 5F5F696E 		.ascii	"__int32_t\000"
 3119      7433325F 
 3119      7400
 3120              	.LASF77:
 3121 0392 73746B61 		.ascii	"stkalign_t\000"
 3121      6C69676E 
 3121      5F7400
 3122              	.LASF31:
 3123 039d 6E657765 		.ascii	"newer\000"
 3123      7200
 3124              	.LASF42:
 3125 03a3 7265616C 		.ascii	"realprio\000"
 3125      7072696F 
 3125      00
 3126              	.LASF75:
 3127 03ac 73697A65 		.ascii	"sizetype\000"
 3127      74797065 
 3127      00
 3128              	.LASF45:
 3129 03b5 74687265 		.ascii	"thread_reference_t\000"
 3129      61645F72 
 3129      65666572 
 3129      656E6365 
 3129      5F7400
 3130              	.LASF62:
 3131 03c8 63685F76 		.ascii	"ch_virtual_timers_list\000"
 3131      69727475 
 3131      616C5F74 
 3131      696D6572 
 3131      735F6C69 
 3132              	.LASF2:
 3133 03df 6C6F6E67 		.ascii	"long double\000"
 3133      20646F75 
 3133      626C6500 
ARM GAS  /tmp/ccz5QjuS.s 			page 59


 3134              	.LASF78:
 3135 03eb 706F7274 		.ascii	"port_context\000"
 3135      5F636F6E 
 3135      74657874 
 3135      00
 3136              	.LASF91:
 3137 03f8 746D5F63 		.ascii	"tm_calibration_t\000"
 3137      616C6962 
 3137      72617469 
 3137      6F6E5F74 
 3137      00
 3138              	.LASF139:
 3139 0409 2E2E2F2E 		.ascii	"../../modules/ChibiOS/os/rt/src/chvt.c\000"
 3139      2E2F6D6F 
 3139      64756C65 
 3139      732F4368 
 3139      6962694F 
 3140              	.LASF119:
 3141 0430 74696D65 		.ascii	"time\000"
 3141      00
 3142              	.LASF30:
 3143 0435 7072696F 		.ascii	"prio\000"
 3143      00
 3144              	.LASF55:
 3145 043a 63757272 		.ascii	"current\000"
 3145      656E7400 
 3146              	.LASF122:
 3147 0442 63685469 		.ascii	"chTimeAddX\000"
 3147      6D654164 
 3147      645800
 3148              	.LASF12:
 3149 044d 5F5F7569 		.ascii	"__uint64_t\000"
 3149      6E743634 
 3149      5F7400
 3150              	.LASF95:
 3151 0458 63756D75 		.ascii	"cumulative\000"
 3151      6C617469 
 3151      766500
 3152              	.LASF22:
 3153 0463 74726566 		.ascii	"trefs_t\000"
 3153      735F7400 
 3154              	.LASF37:
 3155 046b 72656673 		.ascii	"refs\000"
 3155      00
 3156              	.LASF57:
 3157 0470 76697274 		.ascii	"virtual_timer_t\000"
 3157      75616C5F 
 3157      74696D65 
 3157      725F7400 
 3158              	.LASF123:
 3159 0480 63685469 		.ascii	"chTimeDiffX\000"
 3159      6D654469 
 3159      66665800 
 3160              	.LASF23:
 3161 048c 74707269 		.ascii	"tprio_t\000"
 3161      6F5F7400 
 3162              	.LASF98:
ARM GAS  /tmp/ccz5QjuS.s 			page 60


 3163 0494 6E5F6374 		.ascii	"n_ctxswc\000"
 3163      78737763 
 3163      00
 3164              	.LASF115:
 3165 049d 5F426F6F 		.ascii	"_Bool\000"
 3165      6C00
 3166              	.LASF15:
 3167 04a3 696E7433 		.ascii	"int32_t\000"
 3167      325F7400 
 3168              	.LASF4:
 3169 04ab 756E7369 		.ascii	"unsigned char\000"
 3169      676E6564 
 3169      20636861 
 3169      7200
 3170              	.LASF127:
 3171 04b9 64656C61 		.ascii	"delay\000"
 3171      7900
 3172              	.LASF5:
 3173 04bf 73686F72 		.ascii	"short int\000"
 3173      7420696E 
 3173      7400
 3174              	.LASF63:
 3175 04c9 6C617374 		.ascii	"lasttime\000"
 3175      74696D65 
 3175      00
 3176              	.LASF109:
 3177 04d2 65776D61 		.ascii	"ewmask\000"
 3177      736B00
 3178              	.LASF68:
 3179 04d9 63685F73 		.ascii	"ch_system\000"
 3179      79737465 
 3179      6D00
 3180              	.LASF14:
 3181 04e3 75696E74 		.ascii	"uint8_t\000"
 3181      385F7400 
 3182              	.LASF132:
 3183 04eb 5F5F6675 		.ascii	"__func__\000"
 3183      6E635F5F 
 3183      00
 3184              	.LASF58:
 3185 04f4 63685F76 		.ascii	"ch_virtual_timer\000"
 3185      69727475 
 3185      616C5F74 
 3185      696D6572 
 3185      00
 3186              	.LASF110:
 3187 0505 63685F73 		.ascii	"ch_semaphore\000"
 3187      656D6170 
 3187      686F7265 
 3187      00
 3188              	.LASF88:
 3189 0512 43435852 		.ascii	"CCXR\000"
 3189      00
 3190              	.LASF116:
 3191 0517 73745F6C 		.ascii	"st_lld_get_counter\000"
 3191      6C645F67 
 3191      65745F63 
ARM GAS  /tmp/ccz5QjuS.s 			page 61


 3191      6F756E74 
 3191      657200
 3192              	.LASF140:
 3193 052a 2F686F6D 		.ascii	"/home/user/csse4011/project/4011-surfbee/ardupilot/"
 3193      652F7573 
 3193      65722F63 
 3193      73736534 
 3193      3031312F 
 3194 055d 6275696C 		.ascii	"build/stm32l475\000"
 3194      642F7374 
 3194      6D33326C 
 3194      34373500 
 3195              	.LASF108:
 3196 056d 77746D74 		.ascii	"wtmtxp\000"
 3196      787000
 3197              	.LASF48:
 3198 0574 63685F74 		.ascii	"ch_threads_list\000"
 3198      68726561 
 3198      64735F6C 
 3198      69737400 
 3199              	.LASF112:
 3200 0584 6F776E65 		.ascii	"owner\000"
 3200      7200
 3201              	.LASF11:
 3202 058a 6C6F6E67 		.ascii	"long unsigned int\000"
 3202      20756E73 
 3202      69676E65 
 3202      6420696E 
 3202      7400
 3203              	.LASF34:
 3204 059c 77616261 		.ascii	"wabase\000"
 3204      736500
 3205              	.LASF137:
 3206 05a3 73745374 		.ascii	"stStopAlarm\000"
 3206      6F70416C 
 3206      61726D00 
 3207              	.LASF113:
 3208 05af 63686172 		.ascii	"char\000"
 3208      00
 3209              	.LASF32:
 3210 05b4 6F6C6465 		.ascii	"older\000"
 3210      7200
 3211              	.LASF0:
 3212 05ba 756E7369 		.ascii	"unsigned int\000"
 3212      676E6564 
 3212      20696E74 
 3212      00
 3213              	.LASF86:
 3214 05c7 444D4152 		.ascii	"DMAR\000"
 3214      00
 3215              	.LASF28:
 3216 05cc 74687265 		.ascii	"thread_t\000"
 3216      61645F74 
 3216      00
 3217              	.LASF84:
 3218 05d5 43434552 		.ascii	"CCER\000"
 3218      00
ARM GAS  /tmp/ccz5QjuS.s 			page 62


 3219              	.LASF73:
 3220 05da 73797374 		.ascii	"systime_t\000"
 3220      696D655F 
 3220      7400
 3221              	.LASF56:
 3222 05e4 76746675 		.ascii	"vtfunc_t\000"
 3222      6E635F74 
 3222      00
 3223              	.LASF66:
 3224 05ed 70616E69 		.ascii	"panic_msg\000"
 3224      635F6D73 
 3224      6700
 3225              	.LASF90:
 3226 05f7 6F666673 		.ascii	"offset\000"
 3226      657400
 3227              	.LASF135:
 3228 05fe 73745374 		.ascii	"stStartAlarm\000"
 3228      61727441 
 3228      6C61726D 
 3228      00
 3229              	.LASF6:
 3230 060b 73686F72 		.ascii	"short unsigned int\000"
 3230      7420756E 
 3230      7369676E 
 3230      65642069 
 3230      6E7400
 3231              	.LASF117:
 3232 061e 706F7274 		.ascii	"port_timer_get_time\000"
 3232      5F74696D 
 3232      65725F67 
 3232      65745F74 
 3232      696D6500 
 3233              	.LASF18:
 3234 0632 7274636E 		.ascii	"rtcnt_t\000"
 3234      745F7400 
 3235              	.LASF16:
 3236 063a 75696E74 		.ascii	"uint32_t\000"
 3236      33325F74 
 3236      00
 3237              	.LASF128:
 3238 0643 76746675 		.ascii	"vtfunc\000"
 3238      6E6300
 3239              	.LASF50:
 3240 064a 74687265 		.ascii	"threads_queue_t\000"
 3240      6164735F 
 3240      71756575 
 3240      655F7400 
 3241              	.LASF111:
 3242 065a 63685F6D 		.ascii	"ch_mutex\000"
 3242      75746578 
 3242      00
 3243              	.LASF69:
 3244 0663 726C6973 		.ascii	"rlist\000"
 3244      7400
 3245              	.LASF136:
 3246 0669 73745365 		.ascii	"stSetAlarm\000"
 3246      74416C61 
ARM GAS  /tmp/ccz5QjuS.s 			page 63


 3246      726D00
 3247              	.LASF36:
 3248 0674 666C6167 		.ascii	"flags\000"
 3248      7300
 3249              	.LASF141:
 3250 067a 706F7274 		.ascii	"port_timer_stop_alarm\000"
 3250      5F74696D 
 3250      65725F73 
 3250      746F705F 
 3250      616C6172 
 3251              	.LASF126:
 3252 0690 706F7274 		.ascii	"port_timer_set_alarm\000"
 3252      5F74696D 
 3252      65725F73 
 3252      65745F61 
 3252      6C61726D 
 3253              	.LASF104:
 3254 06a5 77746F62 		.ascii	"wtobjp\000"
 3254      6A7000
 3255              	.LASF46:
 3256 06ac 74687265 		.ascii	"threads_list_t\000"
 3256      6164735F 
 3256      6C697374 
 3256      5F7400
 3257              	.LASF20:
 3258 06bb 746D6F64 		.ascii	"tmode_t\000"
 3258      655F7400 
 3259              	.LASF124:
 3260 06c3 73746172 		.ascii	"start\000"
 3260      7400
 3261              	.LASF41:
 3262 06c9 6D74786C 		.ascii	"mtxlist\000"
 3262      69737400 
 3263              	.LASF114:
 3264 06d1 6D757465 		.ascii	"mutex_t\000"
 3264      785F7400 
 3265              	.LASF99:
 3266 06d9 6D5F6372 		.ascii	"m_crit_thd\000"
 3266      69745F74 
 3266      686400
 3267              		.ident	"GCC: (15:5.4.1+svn241155-1) 5.4.1 20160919"
ARM GAS  /tmp/ccz5QjuS.s 			page 64


DEFINED SYMBOLS
                            *ABS*:0000000000000000 chvt.c
     /tmp/ccz5QjuS.s:22     .text._vt_init:0000000000000000 $t
     /tmp/ccz5QjuS.s:27     .text._vt_init:0000000000000000 _vt_init
     /tmp/ccz5QjuS.s:51     .text._vt_init:0000000000000018 $d
     /tmp/ccz5QjuS.s:56     .text.chVTDoSetI:0000000000000000 $t
     /tmp/ccz5QjuS.s:61     .text.chVTDoSetI:0000000000000000 chVTDoSetI
     /tmp/ccz5QjuS.s:236    .text.chVTDoSetI:0000000000000070 $d
     /tmp/ccz5QjuS.s:242    .text.chVTDoResetI:0000000000000000 $t
     /tmp/ccz5QjuS.s:247    .text.chVTDoResetI:0000000000000000 chVTDoResetI
     /tmp/ccz5QjuS.s:388    .text.chVTDoResetI:0000000000000070 $d
                     .debug_frame:0000000000000010 $d

UNDEFINED SYMBOLS
ch
stStartAlarm
stSetAlarm
stStopAlarm
