ARM GAS  /tmp/cc57iYI0.s 			page 1


   1              		.syntax unified
   2              		.cpu cortex-m4
   3              		.eabi_attribute 27, 1
   4              		.eabi_attribute 28, 1
   5              		.fpu fpv4-sp-d16
   6              		.eabi_attribute 20, 1
   7              		.eabi_attribute 21, 1
   8              		.eabi_attribute 23, 3
   9              		.eabi_attribute 24, 1
  10              		.eabi_attribute 25, 1
  11              		.eabi_attribute 26, 1
  12              		.eabi_attribute 30, 4
  13              		.eabi_attribute 34, 1
  14              		.eabi_attribute 18, 4
  15              		.thumb
  16              		.syntax unified
  17              		.file	"crt1.c"
  18              		.text
  19              	.Ltext0:
  20              		.cfi_sections	.debug_frame
  21              		.section	.text.__core_init,"ax",%progbits
  22              		.align	1
  23              		.weak	__core_init
  24              		.thumb
  25              		.thumb_func
  26              		.type	__core_init, %function
  27              	__core_init:
  28              	.LFB130:
  29              		.file 1 "../../modules/ChibiOS/os/common/startup/ARMCMx/compilers/GCC/crt1.c"
  30              		.loc 1 137 0
  31              		.cfi_startproc
  32              		@ args = 0, pretend = 0, frame = 0
  33              		@ frame_needed = 0, uses_anonymous_args = 0
  34              		@ link register save eliminated.
  35 0000 7047     		bx	lr
  36              		.cfi_endproc
  37              	.LFE130:
  38              		.size	__core_init, .-__core_init
  39              		.section	.text.__default_exit,"ax",%progbits
  40              		.align	1
  41              		.weak	__default_exit
  42              		.thumb
  43              		.thumb_func
  44              		.type	__default_exit, %function
  45              	__default_exit:
  46              	.LFB131:
  47              		.loc 1 187 0
  48              		.cfi_startproc
  49              		@ Volatile: function does not return.
  50              		@ args = 0, pretend = 0, frame = 0
  51              		@ frame_needed = 0, uses_anonymous_args = 0
  52              		@ link register save eliminated.
  53              	.L3:
  54 0000 FEE7     		b	.L3
  55              		.cfi_endproc
  56              	.LFE131:
  57              		.size	__default_exit, .-__default_exit
ARM GAS  /tmp/cc57iYI0.s 			page 2


  58              		.section	.text.__init_ram_areas,"ax",%progbits
  59              		.align	1
  60              		.global	__init_ram_areas
  61              		.thumb
  62              		.thumb_func
  63              		.type	__init_ram_areas, %function
  64              	__init_ram_areas:
  65              	.LFB132:
  66              		.loc 1 197 0
  67              		.cfi_startproc
  68              		@ args = 0, pretend = 0, frame = 0
  69              		@ frame_needed = 0, uses_anonymous_args = 0
  70              		@ link register save eliminated.
  71              	.LVL0:
  72 0000 084A     		ldr	r2, .L12
  73              	.LBB2:
  74              		.loc 1 203 0
  75 0002 094B     		ldr	r3, .L12+4
  76              		.loc 1 206 0
  77 0004 0949     		ldr	r1, .L12+8
  78              	.L5:
  79              	.LVL1:
  80 0006 8B42     		cmp	r3, r1
  81 0008 04D2     		bcs	.L10
  82              		.loc 1 207 0
  83 000a 52F8040F 		ldr	r0, [r2, #4]!
  84 000e 43F8040B 		str	r0, [r3], #4
  85              	.LVL2:
  86 0012 F8E7     		b	.L5
  87              	.L10:
  88              		.loc 1 213 0
  89 0014 064A     		ldr	r2, .L12+12
  90              		.loc 1 214 0
  91 0016 0021     		movs	r1, #0
  92              	.LVL3:
  93              	.L7:
  94              		.loc 1 213 0
  95 0018 9342     		cmp	r3, r2
  96 001a 02D2     		bcs	.L11
  97              		.loc 1 214 0
  98 001c 43F8041B 		str	r1, [r3], #4
  99              	.LVL4:
 100 0020 FAE7     		b	.L7
 101              	.L11:
 102              	.LBE2:
 103              		.loc 1 221 0
 104 0022 7047     		bx	lr
 105              	.L13:
 106              		.align	2
 107              	.L12:
 108 0024 FCFFFFFF 		.word	__ram0_init_text__-4
 109 0028 00000000 		.word	__ram0_init__
 110 002c 00000000 		.word	__ram0_clear__
 111 0030 00000000 		.word	__ram0_noinit__
 112              		.cfi_endproc
 113              	.LFE132:
 114              		.size	__init_ram_areas, .-__init_ram_areas
ARM GAS  /tmp/cc57iYI0.s 			page 3


 115              		.text
 116              	.Letext0:
 117              		.file 2 "/usr/include/newlib/machine/_default_types.h"
 118              		.file 3 "/usr/include/newlib/sys/_stdint.h"
 119              		.file 4 "../../modules/ChibiOS/os/common/ext/ARM/CMSIS/Core/Include/core_cm4.h"