ARM GAS  /tmp/cckTIPw5.s 			page 1


   1              		.syntax unified
   2              		.cpu cortex-m4
   3              		.eabi_attribute 27, 1
   4              		.eabi_attribute 28, 1
   5              		.fpu fpv4-sp-d16
   6              		.eabi_attribute 20, 1
   7              		.eabi_attribute 21, 1
   8              		.eabi_attribute 23, 3
   9              		.eabi_attribute 24, 1
  10              		.eabi_attribute 25, 1
  11              		.eabi_attribute 26, 1
  12              		.eabi_attribute 30, 4
  13              		.eabi_attribute 34, 1
  14              		.eabi_attribute 18, 4
  15              		.thumb
  16              		.syntax unified
  17              		.file	"fatfs_syscall.c"
  18              		.text
  19              	.Ltext0:
  20              		.cfi_sections	.debug_frame
  21              		.section	.text.ff_cre_syncobj,"ax",%progbits
  22              		.align	1
  23              		.global	ff_cre_syncobj
  24              		.thumb
  25              		.thumb_func
  26              		.type	ff_cre_syncobj, %function
  27              	ff_cre_syncobj:
  28              	.LFB323:
  29              		.file 1 "../../modules/ChibiOS/os/various/fatfs_bindings/fatfs_syscall.c"
  30              		.loc 1 35 0
  31              		.cfi_startproc
  32              		@ args = 0, pretend = 0, frame = 0
  33              		@ frame_needed = 0, uses_anonymous_args = 0
  34              	.LVL0:
  35 0000 08B5     		push	{r3, lr}
  36              		.cfi_def_cfa_offset 8
  37              		.cfi_offset 3, -8
  38              		.cfi_offset 14, -4
  39              		.loc 1 37 0
  40 0002 054A     		ldr	r2, .L2
  41 0004 0C23     		movs	r3, #12
  42 0006 03FB0020 		mla	r0, r3, r0, r2
  43              	.LVL1:
  44 000a 0860     		str	r0, [r1]
  45              		.loc 1 38 0
  46 000c 0121     		movs	r1, #1
  47              	.LVL2:
  48 000e FFF7FEFF 		bl	chSemObjectInit
  49              	.LVL3:
  50              		.loc 1 40 0
  51 0012 0120     		movs	r0, #1
  52 0014 08BD     		pop	{r3, pc}
  53              	.L3:
  54 0016 00BF     		.align	2
  55              	.L2:
  56 0018 00000000 		.word	.LANCHOR0
  57              		.cfi_endproc
ARM GAS  /tmp/cckTIPw5.s 			page 2


  58              	.LFE323:
  59              		.size	ff_cre_syncobj, .-ff_cre_syncobj
  60              		.section	.text.ff_del_syncobj,"ax",%progbits
  61              		.align	1
  62              		.global	ff_del_syncobj
  63              		.thumb
  64              		.thumb_func
  65              		.type	ff_del_syncobj, %function
  66              	ff_del_syncobj:
  67              	.LFB324:
  68              		.loc 1 45 0
  69              		.cfi_startproc
  70              		@ args = 0, pretend = 0, frame = 0
  71              		@ frame_needed = 0, uses_anonymous_args = 0
  72              	.LVL4:
  73 0000 08B5     		push	{r3, lr}
  74              		.cfi_def_cfa_offset 8
  75              		.cfi_offset 3, -8
  76              		.cfi_offset 14, -4
  77              		.loc 1 47 0
  78 0002 0021     		movs	r1, #0
  79 0004 FFF7FEFF 		bl	chSemReset
  80              	.LVL5:
  81              		.loc 1 49 0
  82 0008 0120     		movs	r0, #1
  83 000a 08BD     		pop	{r3, pc}
  84              		.cfi_endproc
  85              	.LFE324:
  86              		.size	ff_del_syncobj, .-ff_del_syncobj
  87              		.section	.text.ff_req_grant,"ax",%progbits
  88              		.align	1
  89              		.global	ff_req_grant
  90              		.thumb
  91              		.thumb_func
  92              		.type	ff_req_grant, %function
  93              	ff_req_grant:
  94              	.LFB325:
  95              		.loc 1 54 0
  96              		.cfi_startproc
  97              		@ args = 0, pretend = 0, frame = 0
  98              		@ frame_needed = 0, uses_anonymous_args = 0
  99              	.LVL6:
 100 0000 08B5     		push	{r3, lr}
 101              		.cfi_def_cfa_offset 8
 102              		.cfi_offset 3, -8
 103              		.cfi_offset 14, -4
 104              		.loc 1 56 0
 105 0002 0349     		ldr	r1, .L6
 106 0004 FFF7FEFF 		bl	chSemWaitTimeout
 107              	.LVL7:
 108              		.loc 1 58 0
 109 0008 B0FA80F0 		clz	r0, r0
 110              	.LVL8:
 111 000c 4009     		lsrs	r0, r0, #5
 112 000e 08BD     		pop	{r3, pc}
 113              	.L7:
 114              		.align	2
ARM GAS  /tmp/cckTIPw5.s 			page 3


 115              	.L6:
 116 0010 40420F00 		.word	1000000
 117              		.cfi_endproc
 118              	.LFE325:
 119              		.size	ff_req_grant, .-ff_req_grant
 120              		.section	.text.ff_rel_grant,"ax",%progbits
 121              		.align	1
 122              		.global	ff_rel_grant
 123              		.thumb
 124              		.thumb_func
 125              		.type	ff_rel_grant, %function
 126              	ff_rel_grant:
 127              	.LFB326:
 128              		.loc 1 63 0
 129              		.cfi_startproc
 130              		@ args = 0, pretend = 0, frame = 0
 131              		@ frame_needed = 0, uses_anonymous_args = 0
 132              		@ link register save eliminated.
 133              	.LVL9:
 134              		.loc 1 65 0
 135 0000 FFF7FEBF 		b	chSemSignal
 136              	.LVL10:
 137              		.cfi_endproc
 138              	.LFE326:
 139              		.size	ff_rel_grant, .-ff_rel_grant
 140              		.section	.text.ff_memalloc,"ax",%progbits
 141              		.align	1
 142              		.global	ff_memalloc
 143              		.thumb
 144              		.thumb_func
 145              		.type	ff_memalloc, %function
 146              	ff_memalloc:
 147              	.LFB327:
 148              		.loc 1 73 0
 149              		.cfi_startproc
 150              		@ args = 0, pretend = 0, frame = 0
 151              		@ frame_needed = 0, uses_anonymous_args = 0
 152              		@ link register save eliminated.
 153              	.LVL11:
 154              		.loc 1 75 0
 155 0000 FFF7FEBF 		b	malloc
 156              	.LVL12:
 157              		.cfi_endproc
 158              	.LFE327:
 159              		.size	ff_memalloc, .-ff_memalloc
 160              		.section	.text.ff_memfree,"ax",%progbits
 161              		.align	1
 162              		.global	ff_memfree
 163              		.thumb
 164              		.thumb_func
 165              		.type	ff_memfree, %function
 166              	ff_memfree:
 167              	.LFB328:
 168              		.loc 1 81 0
 169              		.cfi_startproc
 170              		@ args = 0, pretend = 0, frame = 0
 171              		@ frame_needed = 0, uses_anonymous_args = 0
ARM GAS  /tmp/cckTIPw5.s 			page 4


 172              		@ link register save eliminated.
 173              	.LVL13:
 174              		.loc 1 83 0
 175 0000 FFF7FEBF 		b	free
 176              	.LVL14:
 177              		.cfi_endproc
 178              	.LFE328:
 179              		.size	ff_memfree, .-ff_memfree
 180              		.section	.bss.ff_sem,"aw",%nobits
 181              		.align	2
 182              		.set	.LANCHOR0,. + 0
 183              		.type	ff_sem, %object
 184              		.size	ff_sem, 12
 185              	ff_sem:
 186 0000 00000000 		.space	12
 186      00000000 
 186      00000000 
 187              		.text
 188              	.Letext0:
 189              		.file 2 "/usr/lib/gcc/arm-none-eabi/5.4.1/include/stddef.h"
 190              		.file 3 "/usr/include/newlib/machine/_default_types.h"
 191              		.file 4 "/usr/include/newlib/sys/_stdint.h"
 192              		.file 5 "../../modules/ChibiOS/os/common/ports/ARMCMx/compilers/GCC/chtypes.h"
 193              		.file 6 "../../modules/ChibiOS/os/rt/include/chsystypes.h"
 194              		.file 7 "../../modules/ChibiOS/os/rt/include/chschd.h"
 195              		.file 8 "../../modules/ChibiOS/os/rt/include/chtime.h"
 196              		.file 9 "../../modules/ChibiOS/os/common/ports/ARMCMx/chcore.h"
 197              		.file 10 "../../modules/ChibiOS/os/common/ports/ARMCMx/chcore_v7m.h"
 198              		.file 11 "../../modules/ChibiOS/os/rt/include/chtm.h"
 199              		.file 12 "../../modules/ChibiOS/os/rt/include/chstats.h"
 200              		.file 13 "../../modules/ChibiOS/os/rt/include/chsem.h"
 201              		.file 14 "../../modules/ChibiOS/os/rt/include/chmtx.h"
 202              		.file 15 "../../modules/ChibiOS/ext/fatfs/src/integer.h"
 203              		.file 16 "/usr/include/newlib/stdlib.h"
 204              		.file 17 "../../modules/ChibiOS/os/common/ext/ARM/CMSIS/Core/Include/core_cm4.h"