ARM GAS  /tmp/ccmX1IXZ.s 			page 1


   1              		.syntax unified
   2              		.cpu cortex-m4
   3              		.eabi_attribute 27, 1
   4              		.eabi_attribute 28, 1
   5              		.fpu fpv4-sp-d16
   6              		.eabi_attribute 20, 1
   7              		.eabi_attribute 21, 1
   8              		.eabi_attribute 23, 3
   9              		.eabi_attribute 24, 1
  10              		.eabi_attribute 25, 1
  11              		.eabi_attribute 26, 1
  12              		.eabi_attribute 30, 4
  13              		.eabi_attribute 34, 1
  14              		.eabi_attribute 18, 4
  15              		.thumb
  16              		.syntax unified
  17              		.file	"fatfs_diskio.c"
  18              		.text
  19              	.Ltext0:
  20              		.cfi_sections	.debug_frame
  21              		.section	.text.disk_status,"ax",%progbits
  22              		.align	1
  23              		.global	disk_status
  24              		.thumb
  25              		.thumb_func
  26              		.type	disk_status, %function
  27              	disk_status:
  28              	.LFB324:
  29              		.file 1 "../../modules/ChibiOS/os/various/fatfs_bindings/fatfs_diskio.c"
  30              		.loc 1 90 0
  31              		.cfi_startproc
  32              		@ args = 0, pretend = 0, frame = 0
  33              		@ frame_needed = 0, uses_anonymous_args = 0
  34              	.LVL0:
  35 0000 10B5     		push	{r4, lr}
  36              		.cfi_def_cfa_offset 8
  37              		.cfi_offset 4, -8
  38              		.cfi_offset 14, -4
  39              		.loc 1 93 0
  40 0002 58B9     		cbnz	r0, .L8
  41              	.LVL1:
  42              		.loc 1 107 0
  43 0004 0748     		ldr	r0, .L10
  44              	.LVL2:
  45              		.loc 1 105 0
  46 0006 0479     		ldrb	r4, [r0, #4]	@ zero_extendqisi2
  47 0008 053C     		subs	r4, r4, #5
  48 000a 18BF     		it	ne
  49 000c 0124     		movne	r4, #1
  50              	.LVL3:
  51              		.loc 1 109 0
  52 000e FFF7FEFF 		bl	sdc_lld_is_write_protected
  53              	.LVL4:
  54 0012 20B1     		cbz	r0, .L2
  55              		.loc 1 110 0
  56 0014 44F00404 		orr	r4, r4, #4
  57              	.LVL5:
ARM GAS  /tmp/ccmX1IXZ.s 			page 2


  58 0018 E4B2     		uxtb	r4, r4
  59 001a 00E0     		b	.L2
  60              	.LVL6:
  61              	.L8:
  62              		.loc 1 114 0
  63 001c 0124     		movs	r4, #1
  64              	.LVL7:
  65              	.L2:
  66              		.loc 1 115 0
  67 001e 2046     		mov	r0, r4
  68 0020 10BD     		pop	{r4, pc}
  69              	.L11:
  70 0022 00BF     		.align	2
  71              	.L10:
  72 0024 00000000 		.word	SDCD1
  73              		.cfi_endproc
  74              	.LFE324:
  75              		.size	disk_status, .-disk_status
  76              		.section	.text.disk_initialize,"ax",%progbits
  77              		.align	1
  78              		.global	disk_initialize
  79              		.thumb
  80              		.thumb_func
  81              		.type	disk_initialize, %function
  82              	disk_initialize:
  83              	.LFB329:
  84              		.cfi_startproc
  85              		@ args = 0, pretend = 0, frame = 0
  86              		@ frame_needed = 0, uses_anonymous_args = 0
  87              		@ link register save eliminated.
  88 0000 FFF7FEBF 		b	disk_status
  89              		.cfi_endproc
  90              	.LFE329:
  91              		.size	disk_initialize, .-disk_initialize
  92              		.section	.text.disk_read,"ax",%progbits
  93              		.align	1
  94              		.global	disk_read
  95              		.thumb
  96              		.thumb_func
  97              		.type	disk_read, %function
  98              	disk_read:
  99              	.LFB325:
 100              		.loc 1 128 0
 101              		.cfi_startproc
 102              		@ args = 0, pretend = 0, frame = 0
 103              		@ frame_needed = 0, uses_anonymous_args = 0
 104              	.LVL8:
 105              		.loc 1 128 0
 106 0000 F8B5     		push	{r3, r4, r5, r6, r7, lr}
 107              		.cfi_def_cfa_offset 24
 108              		.cfi_offset 3, -24
 109              		.cfi_offset 4, -20
 110              		.cfi_offset 5, -16
 111              		.cfi_offset 6, -12
 112              		.cfi_offset 7, -8
 113              		.cfi_offset 14, -4
 114              		.loc 1 128 0
ARM GAS  /tmp/ccmX1IXZ.s 			page 3


 115 0002 0E46     		mov	r6, r1
 116 0004 1546     		mov	r5, r2
 117 0006 1F46     		mov	r7, r3
 118              		.loc 1 129 0
 119 0008 88B9     		cbnz	r0, .L22
 120              		.loc 1 144 0
 121 000a 0B4B     		ldr	r3, .L24
 122              	.LVL9:
 123 000c 1C79     		ldrb	r4, [r3, #4]	@ zero_extendqisi2
 124 000e 052C     		cmp	r4, #5
 125 0010 0FD1     		bne	.L20
 126              	.LVL10:
 127              	.L17:
 128              	.LBB2:
 129              		.loc 1 146 0 discriminator 5
 130 0012 3B46     		mov	r3, r7
 131 0014 3246     		mov	r2, r6
 132 0016 2946     		mov	r1, r5
 133 0018 0748     		ldr	r0, .L24
 134 001a FFF7FEFF 		bl	sdcRead
 135              	.LVL11:
 136 001e 28B1     		cbz	r0, .L23
 137 0020 013C     		subs	r4, r4, #1
 138              	.LVL12:
 139              		.loc 1 146 0 is_stmt 0 discriminator 2
 140 0022 14F0FF04 		ands	r4, r4, #255
 141 0026 F4D1     		bne	.L17
 142              		.loc 1 146 0
 143 0028 0120     		movs	r0, #1
 144              	.LBE2:
 145              		.loc 1 151 0 is_stmt 1
 146 002a F8BD     		pop	{r3, r4, r5, r6, r7, pc}
 147              	.LVL13:
 148              	.L23:
 149              	.LBB3:
 150 002c F8BD     		pop	{r3, r4, r5, r6, r7, pc}
 151              	.LVL14:
 152              	.L22:
 153              	.LBE3:
 154              		.loc 1 150 0
 155 002e 0420     		movs	r0, #4
 156              	.LVL15:
 157 0030 F8BD     		pop	{r3, r4, r5, r6, r7, pc}
 158              	.LVL16:
 159              	.L20:
 160              		.loc 1 145 0
 161 0032 0320     		movs	r0, #3
 162              	.LVL17:
 163 0034 F8BD     		pop	{r3, r4, r5, r6, r7, pc}
 164              	.LVL18:
 165              	.L25:
 166 0036 00BF     		.align	2
 167              	.L24:
 168 0038 00000000 		.word	SDCD1
 169              		.cfi_endproc
 170              	.LFE325:
 171              		.size	disk_read, .-disk_read
ARM GAS  /tmp/ccmX1IXZ.s 			page 4


 172              		.section	.text.disk_write,"ax",%progbits
 173              		.align	1
 174              		.global	disk_write
 175              		.thumb
 176              		.thumb_func
 177              		.type	disk_write, %function
 178              	disk_write:
 179              	.LFB326:
 180              		.loc 1 165 0
 181              		.cfi_startproc
 182              		@ args = 0, pretend = 0, frame = 0
 183              		@ frame_needed = 0, uses_anonymous_args = 0
 184              	.LVL19:
 185 0000 F8B5     		push	{r3, r4, r5, r6, r7, lr}
 186              		.cfi_def_cfa_offset 24
 187              		.cfi_offset 3, -24
 188              		.cfi_offset 4, -20
 189              		.cfi_offset 5, -16
 190              		.cfi_offset 6, -12
 191              		.cfi_offset 7, -8
 192              		.cfi_offset 14, -4
 193              		.loc 1 165 0
 194 0002 0E46     		mov	r6, r1
 195 0004 1546     		mov	r5, r2
 196 0006 1F46     		mov	r7, r3
 197              		.loc 1 166 0
 198 0008 88B9     		cbnz	r0, .L35
 199              		.loc 1 183 0
 200 000a 0B4B     		ldr	r3, .L37
 201              	.LVL20:
 202 000c 1C79     		ldrb	r4, [r3, #4]	@ zero_extendqisi2
 203 000e 052C     		cmp	r4, #5
 204 0010 0FD1     		bne	.L33
 205              	.LVL21:
 206              	.L30:
 207              	.LBB4:
 208              		.loc 1 185 0 discriminator 5
 209 0012 3B46     		mov	r3, r7
 210 0014 3246     		mov	r2, r6
 211 0016 2946     		mov	r1, r5
 212 0018 0748     		ldr	r0, .L37
 213 001a FFF7FEFF 		bl	sdcWrite
 214              	.LVL22:
 215 001e 28B1     		cbz	r0, .L36
 216 0020 013C     		subs	r4, r4, #1
 217              	.LVL23:
 218              		.loc 1 185 0 is_stmt 0 discriminator 2
 219 0022 14F0FF04 		ands	r4, r4, #255
 220 0026 F4D1     		bne	.L30
 221              		.loc 1 185 0
 222 0028 0120     		movs	r0, #1
 223              	.LBE4:
 224              		.loc 1 190 0 is_stmt 1
 225 002a F8BD     		pop	{r3, r4, r5, r6, r7, pc}
 226              	.LVL24:
 227              	.L36:
 228              	.LBB5:
ARM GAS  /tmp/ccmX1IXZ.s 			page 5


 229 002c F8BD     		pop	{r3, r4, r5, r6, r7, pc}
 230              	.LVL25:
 231              	.L35:
 232              	.LBE5:
 233              		.loc 1 189 0
 234 002e 0420     		movs	r0, #4
 235              	.LVL26:
 236 0030 F8BD     		pop	{r3, r4, r5, r6, r7, pc}
 237              	.LVL27:
 238              	.L33:
 239              		.loc 1 184 0
 240 0032 0320     		movs	r0, #3
 241              	.LVL28:
 242 0034 F8BD     		pop	{r3, r4, r5, r6, r7, pc}
 243              	.LVL29:
 244              	.L38:
 245 0036 00BF     		.align	2
 246              	.L37:
 247 0038 00000000 		.word	SDCD1
 248              		.cfi_endproc
 249              	.LFE326:
 250              		.size	disk_write, .-disk_write
 251              		.section	.text.disk_ioctl,"ax",%progbits
 252              		.align	1
 253              		.global	disk_ioctl
 254              		.thumb
 255              		.thumb_func
 256              		.type	disk_ioctl, %function
 257              	disk_ioctl:
 258              	.LFB327:
 259              		.loc 1 203 0
 260              		.cfi_startproc
 261              		@ args = 0, pretend = 0, frame = 0
 262              		@ frame_needed = 0, uses_anonymous_args = 0
 263              		@ link register save eliminated.
 264              	.LVL30:
 265              		.loc 1 206 0
 266 0000 58B9     		cbnz	r0, .L47
 267              		.loc 1 227 0
 268 0002 0129     		cmp	r1, #1
 269 0004 05D0     		beq	.L43
 270 0006 09D3     		bcc	.L40
 271 0008 0329     		cmp	r1, #3
 272 000a 06D1     		bne	.L47
 273              		.loc 1 239 0
 274 000c 4FF48073 		mov	r3, #256
 275 0010 01E0     		b	.L48
 276              	.L43:
 277              		.loc 1 231 0
 278 0012 034B     		ldr	r3, .L49
 279 0014 9B6A     		ldr	r3, [r3, #40]
 280              	.L48:
 281              		.loc 1 239 0
 282 0016 1360     		str	r3, [r2]
 283              		.loc 1 240 0
 284 0018 7047     		bx	lr
 285              	.L47:
ARM GAS  /tmp/ccmX1IXZ.s 			page 6


 286              		.loc 1 251 0
 287 001a 0420     		movs	r0, #4
 288              	.LVL31:
 289              	.L40:
 290              		.loc 1 252 0
 291 001c 7047     		bx	lr
 292              	.L50:
 293 001e 00BF     		.align	2
 294              	.L49:
 295 0020 00000000 		.word	SDCD1
 296              		.cfi_endproc
 297              	.LFE327:
 298              		.size	disk_ioctl, .-disk_ioctl
 299              		.text
 300              	.Letext0:
 301              		.file 2 "/usr/lib/gcc/arm-none-eabi/5.4.1/include/stddef.h"
 302              		.file 3 "/usr/include/newlib/machine/_default_types.h"
 303              		.file 4 "/usr/include/newlib/sys/_stdint.h"
 304              		.file 5 "../../modules/ChibiOS/os/common/ports/ARMCMx/compilers/GCC/chtypes.h"
 305              		.file 6 "../../modules/ChibiOS/os/rt/include/chsystypes.h"
 306              		.file 7 "../../modules/ChibiOS/os/rt/include/chschd.h"
 307              		.file 8 "../../modules/ChibiOS/os/rt/include/chtime.h"
 308              		.file 9 "../../modules/ChibiOS/os/common/ext/ST/STM32F4xx/stm32f427xx.h"
 309              		.file 10 "../../modules/ChibiOS/os/common/ports/ARMCMx/chcore.h"
 310              		.file 11 "../../modules/ChibiOS/os/common/ports/ARMCMx/chcore_v7m.h"
 311              		.file 12 "../../modules/ChibiOS/os/rt/include/chtm.h"
 312              		.file 13 "../../modules/ChibiOS/os/rt/include/chstats.h"
 313              		.file 14 "../../modules/ChibiOS/os/rt/include/chsem.h"
 314              		.file 15 "../../modules/ChibiOS/os/rt/include/chmtx.h"
 315              		.file 16 "../../modules/ChibiOS/os/hal/ports/STM32/LLD/DMAv2/stm32_dma.h"
 316              		.file 17 "../../modules/ChibiOS/os/hal/include/hal_ioblock.h"
 317              		.file 18 "../../modules/ChibiOS/os/hal/include/hal_sdc.h"
 318              		.file 19 "../../modules/ChibiOS/os/hal/ports/STM32/LLD/SDIOv1/hal_sdc_lld.h"
 319              		.file 20 "../../modules/ChibiOS/ext/fatfs/src/integer.h"
 320              		.file 21 "../../modules/ChibiOS/ext/fatfs/src/diskio.h"
 321              		.file 22 "../../modules/ChibiOS/os/common/ext/ARM/CMSIS/Core/Include/core_cm4.h"
 322              		.section	.debug_info,"",%progbits
 323              	.Ldebug_info0:
 324 0000 200F0000 		.4byte	0xf20
 325 0004 0400     		.2byte	0x4
 326 0006 00000000 		.4byte	.Ldebug_abbrev0
 327 000a 04       		.byte	0x4
 328 000b 01       		.uleb128 0x1
 329 000c 50000000 		.4byte	.LASF201
 330 0010 0C       		.byte	0xc
 331 0011 5C060000 		.4byte	.LASF202
 332 0015 DE060000 		.4byte	.LASF203
 333 0019 30000000 		.4byte	.Ldebug_ranges0+0x30
 334 001d 00000000 		.4byte	0
 335 0021 00000000 		.4byte	.Ldebug_line0
 336 0025 02       		.uleb128 0x2
 337 0026 04       		.byte	0x4
 338 0027 05       		.byte	0x5
 339 0028 696E7400 		.ascii	"int\000"
 340 002c 03       		.uleb128 0x3
 341 002d 34000000 		.4byte	.LASF4
 342 0031 02       		.byte	0x2
ARM GAS  /tmp/ccmX1IXZ.s 			page 7


 343 0032 D8       		.byte	0xd8
 344 0033 37000000 		.4byte	0x37
 345 0037 04       		.uleb128 0x4
 346 0038 04       		.byte	0x4
 347 0039 07       		.byte	0x7
 348 003a 41030000 		.4byte	.LASF0
 349 003e 04       		.uleb128 0x4
 350 003f 08       		.byte	0x8
 351 0040 05       		.byte	0x5
 352 0041 3F020000 		.4byte	.LASF1
 353 0045 04       		.uleb128 0x4
 354 0046 08       		.byte	0x8
 355 0047 04       		.byte	0x4
 356 0048 0B050000 		.4byte	.LASF2
 357 004c 04       		.uleb128 0x4
 358 004d 01       		.byte	0x1
 359 004e 06       		.byte	0x6
 360 004f 4D020000 		.4byte	.LASF3
 361 0053 03       		.uleb128 0x3
 362 0054 4A010000 		.4byte	.LASF5
 363 0058 03       		.byte	0x3
 364 0059 1D       		.byte	0x1d
 365 005a 5E000000 		.4byte	0x5e
 366 005e 04       		.uleb128 0x4
 367 005f 01       		.byte	0x1
 368 0060 08       		.byte	0x8
 369 0061 0A060000 		.4byte	.LASF6
 370 0065 04       		.uleb128 0x4
 371 0066 02       		.byte	0x2
 372 0067 05       		.byte	0x5
 373 0068 18060000 		.4byte	.LASF7
 374 006c 04       		.uleb128 0x4
 375 006d 02       		.byte	0x2
 376 006e 07       		.byte	0x7
 377 006f A0030000 		.4byte	.LASF8
 378 0073 03       		.uleb128 0x3
 379 0074 6E040000 		.4byte	.LASF9
 380 0078 03       		.byte	0x3
 381 0079 3F       		.byte	0x3f
 382 007a 7E000000 		.4byte	0x7e
 383 007e 04       		.uleb128 0x4
 384 007f 04       		.byte	0x4
 385 0080 05       		.byte	0x5
 386 0081 96020000 		.4byte	.LASF10
 387 0085 03       		.uleb128 0x3
 388 0086 DF020000 		.4byte	.LASF11
 389 008a 03       		.byte	0x3
 390 008b 41       		.byte	0x41
 391 008c 90000000 		.4byte	0x90
 392 0090 04       		.uleb128 0x4
 393 0091 04       		.byte	0x4
 394 0092 07       		.byte	0x7
 395 0093 46070000 		.4byte	.LASF12
 396 0097 03       		.uleb128 0x3
 397 0098 7E050000 		.4byte	.LASF13
 398 009c 03       		.byte	0x3
 399 009d 5B       		.byte	0x5b
ARM GAS  /tmp/ccmX1IXZ.s 			page 8


 400 009e A2000000 		.4byte	0xa2
 401 00a2 04       		.uleb128 0x4
 402 00a3 08       		.byte	0x8
 403 00a4 07       		.byte	0x7
 404 00a5 BE010000 		.4byte	.LASF14
 405 00a9 03       		.uleb128 0x3
 406 00aa 67080000 		.4byte	.LASF15
 407 00ae 04       		.byte	0x4
 408 00af 18       		.byte	0x18
 409 00b0 53000000 		.4byte	0x53
 410 00b4 03       		.uleb128 0x3
 411 00b5 02060000 		.4byte	.LASF16
 412 00b9 04       		.byte	0x4
 413 00ba 2C       		.byte	0x2c
 414 00bb 73000000 		.4byte	0x73
 415 00bf 03       		.uleb128 0x3
 416 00c0 23080000 		.4byte	.LASF17
 417 00c4 04       		.byte	0x4
 418 00c5 30       		.byte	0x30
 419 00c6 85000000 		.4byte	0x85
 420 00ca 03       		.uleb128 0x3
 421 00cb 34010000 		.4byte	.LASF18
 422 00cf 04       		.byte	0x4
 423 00d0 3C       		.byte	0x3c
 424 00d1 97000000 		.4byte	0x97
 425 00d5 03       		.uleb128 0x3
 426 00d6 02080000 		.4byte	.LASF19
 427 00da 05       		.byte	0x5
 428 00db 27       		.byte	0x27
 429 00dc BF000000 		.4byte	0xbf
 430 00e0 03       		.uleb128 0x3
 431 00e1 20020000 		.4byte	.LASF20
 432 00e5 05       		.byte	0x5
 433 00e6 28       		.byte	0x28
 434 00e7 CA000000 		.4byte	0xca
 435 00eb 03       		.uleb128 0x3
 436 00ec 32040000 		.4byte	.LASF21
 437 00f0 05       		.byte	0x5
 438 00f1 2A       		.byte	0x2a
 439 00f2 A9000000 		.4byte	0xa9
 440 00f6 03       		.uleb128 0x3
 441 00f7 AB020000 		.4byte	.LASF22
 442 00fb 05       		.byte	0x5
 443 00fc 2B       		.byte	0x2b
 444 00fd A9000000 		.4byte	0xa9
 445 0101 03       		.uleb128 0x3
 446 0102 9A050000 		.4byte	.LASF23
 447 0106 05       		.byte	0x5
 448 0107 2C       		.byte	0x2c
 449 0108 A9000000 		.4byte	0xa9
 450 010c 03       		.uleb128 0x3
 451 010d E4050000 		.4byte	.LASF24
 452 0111 05       		.byte	0x5
 453 0112 2E       		.byte	0x2e
 454 0113 BF000000 		.4byte	0xbf
 455 0117 03       		.uleb128 0x3
 456 0118 F7030000 		.4byte	.LASF25
ARM GAS  /tmp/ccmX1IXZ.s 			page 9


 457 011c 05       		.byte	0x5
 458 011d 2F       		.byte	0x2f
 459 011e B4000000 		.4byte	0xb4
 460 0122 03       		.uleb128 0x3
 461 0123 62040000 		.4byte	.LASF26
 462 0127 05       		.byte	0x5
 463 0128 31       		.byte	0x31
 464 0129 BF000000 		.4byte	0xbf
 465 012d 03       		.uleb128 0x3
 466 012e 3B030000 		.4byte	.LASF27
 467 0132 05       		.byte	0x5
 468 0133 33       		.byte	0x33
 469 0134 B4000000 		.4byte	0xb4
 470 0138 03       		.uleb128 0x3
 471 0139 07040000 		.4byte	.LASF28
 472 013d 05       		.byte	0x5
 473 013e 34       		.byte	0x34
 474 013f BF000000 		.4byte	0xbf
 475 0143 03       		.uleb128 0x3
 476 0144 88070000 		.4byte	.LASF29
 477 0148 06       		.byte	0x6
 478 0149 34       		.byte	0x34
 479 014a 4E010000 		.4byte	0x14e
 480 014e 05       		.uleb128 0x5
 481 014f CD030000 		.4byte	.LASF48
 482 0153 60       		.byte	0x60
 483 0154 07       		.byte	0x7
 484 0155 8E       		.byte	0x8e
 485 0156 39020000 		.4byte	0x239
 486 015a 06       		.uleb128 0x6
 487 015b 8C030000 		.4byte	.LASF30
 488 015f 07       		.byte	0x7
 489 0160 8F       		.byte	0x8f
 490 0161 6E020000 		.4byte	0x26e
 491 0165 00       		.byte	0
 492 0166 06       		.uleb128 0x6
 493 0167 6B050000 		.4byte	.LASF31
 494 016b 07       		.byte	0x7
 495 016c 90       		.byte	0x90
 496 016d 0C010000 		.4byte	0x10c
 497 0171 08       		.byte	0x8
 498 0172 07       		.uleb128 0x7
 499 0173 63747800 		.ascii	"ctx\000"
 500 0177 07       		.byte	0x7
 501 0178 91       		.byte	0x91
 502 0179 30060000 		.4byte	0x630
 503 017d 0C       		.byte	0xc
 504 017e 06       		.uleb128 0x6
 505 017f 93040000 		.4byte	.LASF32
 506 0183 07       		.byte	0x7
 507 0184 93       		.byte	0x93
 508 0185 44020000 		.4byte	0x244
 509 0189 10       		.byte	0x10
 510 018a 06       		.uleb128 0x6
 511 018b 69070000 		.4byte	.LASF33
 512 018f 07       		.byte	0x7
 513 0190 94       		.byte	0x94
ARM GAS  /tmp/ccmX1IXZ.s 			page 10


 514 0191 44020000 		.4byte	0x244
 515 0195 14       		.byte	0x14
 516 0196 06       		.uleb128 0x6
 517 0197 F2030000 		.4byte	.LASF34
 518 019b 07       		.byte	0x7
 519 019c 9B       		.byte	0x9b
 520 019d 16090000 		.4byte	0x916
 521 01a1 18       		.byte	0x18
 522 01a2 06       		.uleb128 0x6
 523 01a3 58070000 		.4byte	.LASF35
 524 01a7 07       		.byte	0x7
 525 01a8 A4       		.byte	0xa4
 526 01a9 28090000 		.4byte	0x928
 527 01ad 1C       		.byte	0x1c
 528 01ae 06       		.uleb128 0x6
 529 01af 90020000 		.4byte	.LASF36
 530 01b3 07       		.byte	0x7
 531 01b4 A9       		.byte	0xa9
 532 01b5 F6000000 		.4byte	0xf6
 533 01b9 20       		.byte	0x20
 534 01ba 06       		.uleb128 0x6
 535 01bb 6F080000 		.4byte	.LASF37
 536 01bf 07       		.byte	0x7
 537 01c0 AD       		.byte	0xad
 538 01c1 EB000000 		.4byte	0xeb
 539 01c5 21       		.byte	0x21
 540 01c6 06       		.uleb128 0x6
 541 01c7 B6050000 		.4byte	.LASF38
 542 01cb 07       		.byte	0x7
 543 01cc B2       		.byte	0xb2
 544 01cd 01010000 		.4byte	0x101
 545 01d1 22       		.byte	0x22
 546 01d2 08       		.uleb128 0x8
 547 01d3 7500     		.ascii	"u\000"
 548 01d5 07       		.byte	0x7
 549 01d6 0301     		.2byte	0x103
 550 01d8 4C080000 		.4byte	0x84c
 551 01dc 24       		.byte	0x24
 552 01dd 09       		.uleb128 0x9
 553 01de BA070000 		.4byte	.LASF39
 554 01e2 07       		.byte	0x7
 555 01e3 0801     		.2byte	0x108
 556 01e5 4A020000 		.4byte	0x24a
 557 01e9 28       		.byte	0x28
 558 01ea 09       		.uleb128 0x9
 559 01eb 87020000 		.4byte	.LASF40
 560 01ef 07       		.byte	0x7
 561 01f0 0E01     		.2byte	0x10e
 562 01f2 6E020000 		.4byte	0x26e
 563 01f6 2C       		.byte	0x2c
 564 01f7 09       		.uleb128 0x9
 565 01f8 0E040000 		.4byte	.LASF41
 566 01fc 07       		.byte	0x7
 567 01fd 1401     		.2byte	0x114
 568 01ff 22010000 		.4byte	0x122
 569 0203 34       		.byte	0x34
 570 0204 09       		.uleb128 0x9
ARM GAS  /tmp/ccmX1IXZ.s 			page 11


 571 0205 CC080000 		.4byte	.LASF42
 572 0209 07       		.byte	0x7
 573 020a 1B01     		.2byte	0x11b
 574 020c 10090000 		.4byte	0x910
 575 0210 38       		.byte	0x38
 576 0211 09       		.uleb128 0x9
 577 0212 AE040000 		.4byte	.LASF43
 578 0216 07       		.byte	0x7
 579 0217 1F01     		.2byte	0x11f
 580 0219 0C010000 		.4byte	0x10c
 581 021d 3C       		.byte	0x3c
 582 021e 09       		.uleb128 0x9
 583 021f 2C080000 		.4byte	.LASF44
 584 0223 07       		.byte	0x7
 585 0224 2601     		.2byte	0x126
 586 0226 21030000 		.4byte	0x321
 587 022a 40       		.byte	0x40
 588 022b 09       		.uleb128 0x9
 589 022c C4020000 		.4byte	.LASF45
 590 0230 07       		.byte	0x7
 591 0231 2C01     		.2byte	0x12c
 592 0233 FD070000 		.4byte	0x7fd
 593 0237 48       		.byte	0x48
 594 0238 00       		.byte	0
 595 0239 03       		.uleb128 0x3
 596 023a D9040000 		.4byte	.LASF46
 597 023e 06       		.byte	0x6
 598 023f 39       		.byte	0x39
 599 0240 44020000 		.4byte	0x244
 600 0244 0A       		.uleb128 0xa
 601 0245 04       		.byte	0x4
 602 0246 43010000 		.4byte	0x143
 603 024a 03       		.uleb128 0x3
 604 024b 93080000 		.4byte	.LASF47
 605 024f 06       		.byte	0x6
 606 0250 3E       		.byte	0x3e
 607 0251 55020000 		.4byte	0x255
 608 0255 05       		.uleb128 0x5
 609 0256 28070000 		.4byte	.LASF49
 610 025a 04       		.byte	0x4
 611 025b 07       		.byte	0x7
 612 025c 7C       		.byte	0x7c
 613 025d 6E020000 		.4byte	0x26e
 614 0261 06       		.uleb128 0x6
 615 0262 8E080000 		.4byte	.LASF50
 616 0266 07       		.byte	0x7
 617 0267 7D       		.byte	0x7d
 618 0268 44020000 		.4byte	0x244
 619 026c 00       		.byte	0
 620 026d 00       		.byte	0
 621 026e 03       		.uleb128 0x3
 622 026f 32080000 		.4byte	.LASF51
 623 0273 06       		.byte	0x6
 624 0274 45       		.byte	0x45
 625 0275 79020000 		.4byte	0x279
 626 0279 05       		.uleb128 0x5
 627 027a 65010000 		.4byte	.LASF52
ARM GAS  /tmp/ccmX1IXZ.s 			page 12


 628 027e 08       		.byte	0x8
 629 027f 07       		.byte	0x7
 630 0280 83       		.byte	0x83
 631 0281 9E020000 		.4byte	0x29e
 632 0285 06       		.uleb128 0x6
 633 0286 8E080000 		.4byte	.LASF50
 634 028a 07       		.byte	0x7
 635 028b 84       		.byte	0x84
 636 028c 44020000 		.4byte	0x244
 637 0290 00       		.byte	0
 638 0291 06       		.uleb128 0x6
 639 0292 54010000 		.4byte	.LASF53
 640 0296 07       		.byte	0x7
 641 0297 85       		.byte	0x85
 642 0298 44020000 		.4byte	0x244
 643 029c 04       		.byte	0x4
 644 029d 00       		.byte	0
 645 029e 03       		.uleb128 0x3
 646 029f 22000000 		.4byte	.LASF54
 647 02a3 06       		.byte	0x6
 648 02a4 4C       		.byte	0x4c
 649 02a5 A9020000 		.4byte	0x2a9
 650 02a9 0B       		.uleb128 0xb
 651 02aa 54040000 		.4byte	.LASF55
 652 02ae 1C       		.byte	0x1c
 653 02af 07       		.byte	0x7
 654 02b0 5E01     		.2byte	0x15e
 655 02b2 05030000 		.4byte	0x305
 656 02b6 09       		.uleb128 0x9
 657 02b7 8C030000 		.4byte	.LASF30
 658 02bb 07       		.byte	0x7
 659 02bc 5F01     		.2byte	0x15f
 660 02be 6E020000 		.4byte	0x26e
 661 02c2 00       		.byte	0
 662 02c3 09       		.uleb128 0x9
 663 02c4 6B050000 		.4byte	.LASF31
 664 02c8 07       		.byte	0x7
 665 02c9 6001     		.2byte	0x160
 666 02cb 0C010000 		.4byte	0x10c
 667 02cf 08       		.byte	0x8
 668 02d0 08       		.uleb128 0x8
 669 02d1 63747800 		.ascii	"ctx\000"
 670 02d5 07       		.byte	0x7
 671 02d6 6201     		.2byte	0x162
 672 02d8 30060000 		.4byte	0x630
 673 02dc 0C       		.byte	0xc
 674 02dd 09       		.uleb128 0x9
 675 02de 93040000 		.4byte	.LASF32
 676 02e2 07       		.byte	0x7
 677 02e3 6501     		.2byte	0x165
 678 02e5 44020000 		.4byte	0x244
 679 02e9 10       		.byte	0x10
 680 02ea 09       		.uleb128 0x9
 681 02eb 69070000 		.4byte	.LASF33
 682 02ef 07       		.byte	0x7
 683 02f0 6601     		.2byte	0x166
 684 02f2 44020000 		.4byte	0x244
ARM GAS  /tmp/ccmX1IXZ.s 			page 13


 685 02f6 14       		.byte	0x14
 686 02f7 09       		.uleb128 0x9
 687 02f8 1B080000 		.4byte	.LASF56
 688 02fc 07       		.byte	0x7
 689 02fd 6901     		.2byte	0x169
 690 02ff 44020000 		.4byte	0x244
 691 0303 18       		.byte	0x18
 692 0304 00       		.byte	0
 693 0305 03       		.uleb128 0x3
 694 0306 A0070000 		.4byte	.LASF57
 695 030a 06       		.byte	0x6
 696 030b 51       		.byte	0x51
 697 030c 10030000 		.4byte	0x310
 698 0310 0A       		.uleb128 0xa
 699 0311 04       		.byte	0x4
 700 0312 16030000 		.4byte	0x316
 701 0316 0C       		.uleb128 0xc
 702 0317 21030000 		.4byte	0x321
 703 031b 0D       		.uleb128 0xd
 704 031c 21030000 		.4byte	0x321
 705 0320 00       		.byte	0
 706 0321 0E       		.uleb128 0xe
 707 0322 04       		.byte	0x4
 708 0323 03       		.uleb128 0x3
 709 0324 BB050000 		.4byte	.LASF58
 710 0328 06       		.byte	0x6
 711 0329 56       		.byte	0x56
 712 032a 2E030000 		.4byte	0x32e
 713 032e 0B       		.uleb128 0xb
 714 032f B3060000 		.4byte	.LASF59
 715 0333 14       		.byte	0x14
 716 0334 07       		.byte	0x7
 717 0335 3901     		.2byte	0x139
 718 0337 7D030000 		.4byte	0x37d
 719 033b 09       		.uleb128 0x9
 720 033c 8E080000 		.4byte	.LASF50
 721 0340 07       		.byte	0x7
 722 0341 3A01     		.2byte	0x13a
 723 0343 2E090000 		.4byte	0x92e
 724 0347 00       		.byte	0
 725 0348 09       		.uleb128 0x9
 726 0349 54010000 		.4byte	.LASF53
 727 034d 07       		.byte	0x7
 728 034e 3B01     		.2byte	0x13b
 729 0350 2E090000 		.4byte	0x92e
 730 0354 04       		.byte	0x4
 731 0355 09       		.uleb128 0x9
 732 0356 43000000 		.4byte	.LASF60
 733 035a 07       		.byte	0x7
 734 035b 3C01     		.2byte	0x13c
 735 035d 61040000 		.4byte	0x461
 736 0361 08       		.byte	0x8
 737 0362 09       		.uleb128 0x9
 738 0363 BF020000 		.4byte	.LASF61
 739 0367 07       		.byte	0x7
 740 0368 3D01     		.2byte	0x13d
 741 036a 05030000 		.4byte	0x305
ARM GAS  /tmp/ccmX1IXZ.s 			page 14


 742 036e 0C       		.byte	0xc
 743 036f 08       		.uleb128 0x8
 744 0370 70617200 		.ascii	"par\000"
 745 0374 07       		.byte	0x7
 746 0375 3F01     		.2byte	0x13f
 747 0377 21030000 		.4byte	0x321
 748 037b 10       		.byte	0x10
 749 037c 00       		.byte	0
 750 037d 03       		.uleb128 0x3
 751 037e F2010000 		.4byte	.LASF62
 752 0382 06       		.byte	0x6
 753 0383 5B       		.byte	0x5b
 754 0384 88030000 		.4byte	0x388
 755 0388 0B       		.uleb128 0xb
 756 0389 EC040000 		.4byte	.LASF63
 757 038d 10       		.byte	0x10
 758 038e 07       		.byte	0x7
 759 038f 4901     		.2byte	0x149
 760 0391 CA030000 		.4byte	0x3ca
 761 0395 09       		.uleb128 0x9
 762 0396 8E080000 		.4byte	.LASF50
 763 039a 07       		.byte	0x7
 764 039b 4A01     		.2byte	0x14a
 765 039d 2E090000 		.4byte	0x92e
 766 03a1 00       		.byte	0
 767 03a2 09       		.uleb128 0x9
 768 03a3 54010000 		.4byte	.LASF53
 769 03a7 07       		.byte	0x7
 770 03a8 4C01     		.2byte	0x14c
 771 03aa 2E090000 		.4byte	0x92e
 772 03ae 04       		.byte	0x4
 773 03af 09       		.uleb128 0x9
 774 03b0 43000000 		.4byte	.LASF60
 775 03b4 07       		.byte	0x7
 776 03b5 4E01     		.2byte	0x14e
 777 03b7 61040000 		.4byte	0x461
 778 03bb 08       		.byte	0x8
 779 03bc 09       		.uleb128 0x9
 780 03bd 2A060000 		.4byte	.LASF64
 781 03c1 07       		.byte	0x7
 782 03c2 5601     		.2byte	0x156
 783 03c4 56040000 		.4byte	0x456
 784 03c8 0C       		.byte	0xc
 785 03c9 00       		.byte	0
 786 03ca 03       		.uleb128 0x3
 787 03cb 76010000 		.4byte	.LASF65
 788 03cf 06       		.byte	0x6
 789 03d0 60       		.byte	0x60
 790 03d1 D5030000 		.4byte	0x3d5
 791 03d5 0B       		.uleb128 0xb
 792 03d6 AC080000 		.4byte	.LASF66
 793 03da 04       		.byte	0x4
 794 03db 07       		.byte	0x7
 795 03dc 7001     		.2byte	0x170
 796 03de F0030000 		.4byte	0x3f0
 797 03e2 09       		.uleb128 0x9
 798 03e3 B0070000 		.4byte	.LASF67
ARM GAS  /tmp/ccmX1IXZ.s 			page 15


 799 03e7 07       		.byte	0x7
 800 03e8 7801     		.2byte	0x178
 801 03ea 34090000 		.4byte	0x934
 802 03ee 00       		.byte	0
 803 03ef 00       		.byte	0
 804 03f0 03       		.uleb128 0x3
 805 03f1 26040000 		.4byte	.LASF68
 806 03f5 06       		.byte	0x6
 807 03f6 65       		.byte	0x65
 808 03f7 FB030000 		.4byte	0x3fb
 809 03fb 0B       		.uleb128 0xb
 810 03fc 45060000 		.4byte	.LASF69
 811 0400 D0       		.byte	0xd0
 812 0401 07       		.byte	0x7
 813 0402 9001     		.2byte	0x190
 814 0404 56040000 		.4byte	0x456
 815 0408 09       		.uleb128 0x9
 816 0409 61080000 		.4byte	.LASF70
 817 040d 07       		.byte	0x7
 818 040e 9401     		.2byte	0x194
 819 0410 9E020000 		.4byte	0x29e
 820 0414 00       		.byte	0
 821 0415 09       		.uleb128 0x9
 822 0416 77020000 		.4byte	.LASF71
 823 041a 07       		.byte	0x7
 824 041b 9801     		.2byte	0x198
 825 041d 7D030000 		.4byte	0x37d
 826 0421 1C       		.byte	0x1c
 827 0422 08       		.uleb128 0x8
 828 0423 64626700 		.ascii	"dbg\000"
 829 0427 07       		.byte	0x7
 830 0428 9C01     		.2byte	0x19c
 831 042a CA030000 		.4byte	0x3ca
 832 042e 2C       		.byte	0x2c
 833 042f 09       		.uleb128 0x9
 834 0430 DE010000 		.4byte	.LASF72
 835 0434 07       		.byte	0x7
 836 0435 A001     		.2byte	0x1a0
 837 0437 43010000 		.4byte	0x143
 838 043b 30       		.byte	0x30
 839 043c 08       		.uleb128 0x8
 840 043d 746D00   		.ascii	"tm\000"
 841 0440 07       		.byte	0x7
 842 0441 A501     		.2byte	0x1a5
 843 0443 AF070000 		.4byte	0x7af
 844 0447 90       		.byte	0x90
 845 0448 09       		.uleb128 0x9
 846 0449 EA070000 		.4byte	.LASF73
 847 044d 07       		.byte	0x7
 848 044e AB01     		.2byte	0x1ab
 849 0450 41080000 		.4byte	0x841
 850 0454 98       		.byte	0x98
 851 0455 00       		.byte	0
 852 0456 03       		.uleb128 0x3
 853 0457 96070000 		.4byte	.LASF74
 854 045b 08       		.byte	0x8
 855 045c 6D       		.byte	0x6d
ARM GAS  /tmp/ccmX1IXZ.s 			page 16


 856 045d BF000000 		.4byte	0xbf
 857 0461 03       		.uleb128 0x3
 858 0462 2D030000 		.4byte	.LASF75
 859 0466 08       		.byte	0x8
 860 0467 79       		.byte	0x79
 861 0468 BF000000 		.4byte	0xbf
 862 046c 04       		.uleb128 0x4
 863 046d 04       		.byte	0x4
 864 046e 07       		.byte	0x7
 865 046f D0040000 		.4byte	.LASF76
 866 0473 0F       		.uleb128 0xf
 867 0474 BF000000 		.4byte	0xbf
 868 0478 10       		.uleb128 0x10
 869 0479 73040000 		.4byte	0x473
 870 047d 11       		.uleb128 0x11
 871 047e BF000000 		.4byte	0xbf
 872 0482 8D040000 		.4byte	0x48d
 873 0486 12       		.uleb128 0x12
 874 0487 6C040000 		.4byte	0x46c
 875 048b 01       		.byte	0x1
 876 048c 00       		.byte	0
 877 048d 13       		.uleb128 0x13
 878 048e 18       		.byte	0x18
 879 048f 09       		.byte	0x9
 880 0490 7101     		.2byte	0x171
 881 0492 E4040000 		.4byte	0x4e4
 882 0496 08       		.uleb128 0x8
 883 0497 435200   		.ascii	"CR\000"
 884 049a 09       		.byte	0x9
 885 049b 7301     		.2byte	0x173
 886 049d 73040000 		.4byte	0x473
 887 04a1 00       		.byte	0
 888 04a2 09       		.uleb128 0x9
 889 04a3 29020000 		.4byte	.LASF77
 890 04a7 09       		.byte	0x9
 891 04a8 7401     		.2byte	0x174
 892 04aa 73040000 		.4byte	0x473
 893 04ae 04       		.byte	0x4
 894 04af 08       		.uleb128 0x8
 895 04b0 50415200 		.ascii	"PAR\000"
 896 04b4 09       		.byte	0x9
 897 04b5 7501     		.2byte	0x175
 898 04b7 73040000 		.4byte	0x473
 899 04bb 08       		.byte	0x8
 900 04bc 09       		.uleb128 0x9
 901 04bd 2F000000 		.4byte	.LASF78
 902 04c1 09       		.byte	0x9
 903 04c2 7601     		.2byte	0x176
 904 04c4 73040000 		.4byte	0x473
 905 04c8 0C       		.byte	0xc
 906 04c9 09       		.uleb128 0x9
 907 04ca 16080000 		.4byte	.LASF79
 908 04ce 09       		.byte	0x9
 909 04cf 7701     		.2byte	0x177
 910 04d1 73040000 		.4byte	0x473
 911 04d5 10       		.byte	0x10
 912 04d6 08       		.uleb128 0x8
ARM GAS  /tmp/ccmX1IXZ.s 			page 17


 913 04d7 46435200 		.ascii	"FCR\000"
 914 04db 09       		.byte	0x9
 915 04dc 7801     		.2byte	0x178
 916 04de 73040000 		.4byte	0x473
 917 04e2 14       		.byte	0x14
 918 04e3 00       		.byte	0
 919 04e4 14       		.uleb128 0x14
 920 04e5 C9070000 		.4byte	.LASF80
 921 04e9 09       		.byte	0x9
 922 04ea 7901     		.2byte	0x179
 923 04ec 8D040000 		.4byte	0x48d
 924 04f0 13       		.uleb128 0x13
 925 04f1 84       		.byte	0x84
 926 04f2 09       		.byte	0x9
 927 04f3 0303     		.2byte	0x303
 928 04f5 FE050000 		.4byte	0x5fe
 929 04f9 09       		.uleb128 0x9
 930 04fa 27050000 		.4byte	.LASF81
 931 04fe 09       		.byte	0x9
 932 04ff 0503     		.2byte	0x305
 933 0501 73040000 		.4byte	0x473
 934 0505 00       		.byte	0
 935 0506 09       		.uleb128 0x9
 936 0507 94050000 		.4byte	.LASF82
 937 050b 09       		.byte	0x9
 938 050c 0603     		.2byte	0x306
 939 050e 73040000 		.4byte	0x473
 940 0512 04       		.byte	0x4
 941 0513 08       		.uleb128 0x8
 942 0514 41524700 		.ascii	"ARG\000"
 943 0518 09       		.byte	0x9
 944 0519 0703     		.2byte	0x307
 945 051b 73040000 		.4byte	0x473
 946 051f 08       		.byte	0x8
 947 0520 08       		.uleb128 0x8
 948 0521 434D4400 		.ascii	"CMD\000"
 949 0525 09       		.byte	0x9
 950 0526 0803     		.2byte	0x308
 951 0528 73040000 		.4byte	0x473
 952 052c 0C       		.byte	0xc
 953 052d 09       		.uleb128 0x9
 954 052e 3A040000 		.4byte	.LASF83
 955 0532 09       		.byte	0x9
 956 0533 0903     		.2byte	0x309
 957 0535 78040000 		.4byte	0x478
 958 0539 10       		.byte	0x10
 959 053a 09       		.uleb128 0x9
 960 053b 10000000 		.4byte	.LASF84
 961 053f 09       		.byte	0x9
 962 0540 0A03     		.2byte	0x30a
 963 0542 78040000 		.4byte	0x478
 964 0546 14       		.byte	0x14
 965 0547 09       		.uleb128 0x9
 966 0548 16000000 		.4byte	.LASF85
 967 054c 09       		.byte	0x9
 968 054d 0B03     		.2byte	0x30b
 969 054f 78040000 		.4byte	0x478
ARM GAS  /tmp/ccmX1IXZ.s 			page 18


 970 0553 18       		.byte	0x18
 971 0554 09       		.uleb128 0x9
 972 0555 1C000000 		.4byte	.LASF86
 973 0559 09       		.byte	0x9
 974 055a 0C03     		.2byte	0x30c
 975 055c 78040000 		.4byte	0x478
 976 0560 1C       		.byte	0x1c
 977 0561 09       		.uleb128 0x9
 978 0562 D0020000 		.4byte	.LASF87
 979 0566 09       		.byte	0x9
 980 0567 0D03     		.2byte	0x30d
 981 0569 78040000 		.4byte	0x478
 982 056d 20       		.byte	0x20
 983 056e 09       		.uleb128 0x9
 984 056f A9070000 		.4byte	.LASF88
 985 0573 09       		.byte	0x9
 986 0574 0E03     		.2byte	0x30e
 987 0576 73040000 		.4byte	0x473
 988 057a 24       		.byte	0x24
 989 057b 09       		.uleb128 0x9
 990 057c 99040000 		.4byte	.LASF89
 991 0580 09       		.byte	0x9
 992 0581 0F03     		.2byte	0x30f
 993 0583 73040000 		.4byte	0x473
 994 0587 28       		.byte	0x28
 995 0588 09       		.uleb128 0x9
 996 0589 54050000 		.4byte	.LASF90
 997 058d 09       		.byte	0x9
 998 058e 1003     		.2byte	0x310
 999 0590 73040000 		.4byte	0x473
 1000 0594 2C       		.byte	0x2c
 1001 0595 09       		.uleb128 0x9
 1002 0596 9F020000 		.4byte	.LASF91
 1003 059a 09       		.byte	0x9
 1004 059b 1103     		.2byte	0x311
 1005 059d 78040000 		.4byte	0x478
 1006 05a1 30       		.byte	0x30
 1007 05a2 08       		.uleb128 0x8
 1008 05a3 53544100 		.ascii	"STA\000"
 1009 05a7 09       		.byte	0x9
 1010 05a8 1203     		.2byte	0x312
 1011 05aa 78040000 		.4byte	0x478
 1012 05ae 34       		.byte	0x34
 1013 05af 08       		.uleb128 0x8
 1014 05b0 49435200 		.ascii	"ICR\000"
 1015 05b4 09       		.byte	0x9
 1016 05b5 1303     		.2byte	0x313
 1017 05b7 73040000 		.4byte	0x473
 1018 05bb 38       		.byte	0x38
 1019 05bc 09       		.uleb128 0x9
 1020 05bd 28030000 		.4byte	.LASF92
 1021 05c1 09       		.byte	0x9
 1022 05c2 1403     		.2byte	0x314
 1023 05c4 73040000 		.4byte	0x473
 1024 05c8 3C       		.byte	0x3c
 1025 05c9 09       		.uleb128 0x9
 1026 05ca A2050000 		.4byte	.LASF93
ARM GAS  /tmp/ccmX1IXZ.s 			page 19


 1027 05ce 09       		.byte	0x9
 1028 05cf 1503     		.2byte	0x315
 1029 05d1 7D040000 		.4byte	0x47d
 1030 05d5 40       		.byte	0x40
 1031 05d6 09       		.uleb128 0x9
 1032 05d7 03050000 		.4byte	.LASF94
 1033 05db 09       		.byte	0x9
 1034 05dc 1603     		.2byte	0x316
 1035 05de 78040000 		.4byte	0x478
 1036 05e2 48       		.byte	0x48
 1037 05e3 09       		.uleb128 0x9
 1038 05e4 AC050000 		.4byte	.LASF95
 1039 05e8 09       		.byte	0x9
 1040 05e9 1703     		.2byte	0x317
 1041 05eb FE050000 		.4byte	0x5fe
 1042 05ef 4C       		.byte	0x4c
 1043 05f0 09       		.uleb128 0x9
 1044 05f1 02040000 		.4byte	.LASF96
 1045 05f5 09       		.byte	0x9
 1046 05f6 1803     		.2byte	0x318
 1047 05f8 73040000 		.4byte	0x473
 1048 05fc 80       		.byte	0x80
 1049 05fd 00       		.byte	0
 1050 05fe 11       		.uleb128 0x11
 1051 05ff BF000000 		.4byte	0xbf
 1052 0603 0E060000 		.4byte	0x60e
 1053 0607 12       		.uleb128 0x12
 1054 0608 6C040000 		.4byte	0x46c
 1055 060c 0C       		.byte	0xc
 1056 060d 00       		.byte	0
 1057 060e 14       		.uleb128 0x14
 1058 060f 9B060000 		.4byte	.LASF97
 1059 0613 09       		.byte	0x9
 1060 0614 1903     		.2byte	0x319
 1061 0616 F0040000 		.4byte	0x4f0
 1062 061a 03       		.uleb128 0x3
 1063 061b EA020000 		.4byte	.LASF98
 1064 061f 0A       		.byte	0xa
 1065 0620 65       		.byte	0x65
 1066 0621 21030000 		.4byte	0x321
 1067 0625 03       		.uleb128 0x3
 1068 0626 88040000 		.4byte	.LASF99
 1069 062a 0A       		.byte	0xa
 1070 062b 6D       		.byte	0x6d
 1071 062c CA000000 		.4byte	0xca
 1072 0630 05       		.uleb128 0x5
 1073 0631 47050000 		.4byte	.LASF100
 1074 0635 04       		.byte	0x4
 1075 0636 0A       		.byte	0xa
 1076 0637 89       		.byte	0x89
 1077 0638 48060000 		.4byte	0x648
 1078 063c 07       		.uleb128 0x7
 1079 063d 737000   		.ascii	"sp\000"
 1080 0640 0A       		.byte	0xa
 1081 0641 8A       		.byte	0x8a
 1082 0642 94070000 		.4byte	0x794
 1083 0646 00       		.byte	0
ARM GAS  /tmp/ccmX1IXZ.s 			page 20


 1084 0647 00       		.byte	0
 1085 0648 0B       		.uleb128 0xb
 1086 0649 59010000 		.4byte	.LASF101
 1087 064d 64       		.byte	0x64
 1088 064e 0B       		.byte	0xb
 1089 064f 5901     		.2byte	0x159
 1090 0651 94070000 		.4byte	0x794
 1091 0655 08       		.uleb128 0x8
 1092 0656 73313600 		.ascii	"s16\000"
 1093 065a 0B       		.byte	0xb
 1094 065b 5B01     		.2byte	0x15b
 1095 065d 1A060000 		.4byte	0x61a
 1096 0661 00       		.byte	0
 1097 0662 08       		.uleb128 0x8
 1098 0663 73313700 		.ascii	"s17\000"
 1099 0667 0B       		.byte	0xb
 1100 0668 5C01     		.2byte	0x15c
 1101 066a 1A060000 		.4byte	0x61a
 1102 066e 04       		.byte	0x4
 1103 066f 08       		.uleb128 0x8
 1104 0670 73313800 		.ascii	"s18\000"
 1105 0674 0B       		.byte	0xb
 1106 0675 5D01     		.2byte	0x15d
 1107 0677 1A060000 		.4byte	0x61a
 1108 067b 08       		.byte	0x8
 1109 067c 08       		.uleb128 0x8
 1110 067d 73313900 		.ascii	"s19\000"
 1111 0681 0B       		.byte	0xb
 1112 0682 5E01     		.2byte	0x15e
 1113 0684 1A060000 		.4byte	0x61a
 1114 0688 0C       		.byte	0xc
 1115 0689 08       		.uleb128 0x8
 1116 068a 73323000 		.ascii	"s20\000"
 1117 068e 0B       		.byte	0xb
 1118 068f 5F01     		.2byte	0x15f
 1119 0691 1A060000 		.4byte	0x61a
 1120 0695 10       		.byte	0x10
 1121 0696 08       		.uleb128 0x8
 1122 0697 73323100 		.ascii	"s21\000"
 1123 069b 0B       		.byte	0xb
 1124 069c 6001     		.2byte	0x160
 1125 069e 1A060000 		.4byte	0x61a
 1126 06a2 14       		.byte	0x14
 1127 06a3 08       		.uleb128 0x8
 1128 06a4 73323200 		.ascii	"s22\000"
 1129 06a8 0B       		.byte	0xb
 1130 06a9 6101     		.2byte	0x161
 1131 06ab 1A060000 		.4byte	0x61a
 1132 06af 18       		.byte	0x18
 1133 06b0 08       		.uleb128 0x8
 1134 06b1 73323300 		.ascii	"s23\000"
 1135 06b5 0B       		.byte	0xb
 1136 06b6 6201     		.2byte	0x162
 1137 06b8 1A060000 		.4byte	0x61a
 1138 06bc 1C       		.byte	0x1c
 1139 06bd 08       		.uleb128 0x8
 1140 06be 73323400 		.ascii	"s24\000"
ARM GAS  /tmp/ccmX1IXZ.s 			page 21


 1141 06c2 0B       		.byte	0xb
 1142 06c3 6301     		.2byte	0x163
 1143 06c5 1A060000 		.4byte	0x61a
 1144 06c9 20       		.byte	0x20
 1145 06ca 08       		.uleb128 0x8
 1146 06cb 73323500 		.ascii	"s25\000"
 1147 06cf 0B       		.byte	0xb
 1148 06d0 6401     		.2byte	0x164
 1149 06d2 1A060000 		.4byte	0x61a
 1150 06d6 24       		.byte	0x24
 1151 06d7 08       		.uleb128 0x8
 1152 06d8 73323600 		.ascii	"s26\000"
 1153 06dc 0B       		.byte	0xb
 1154 06dd 6501     		.2byte	0x165
 1155 06df 1A060000 		.4byte	0x61a
 1156 06e3 28       		.byte	0x28
 1157 06e4 08       		.uleb128 0x8
 1158 06e5 73323700 		.ascii	"s27\000"
 1159 06e9 0B       		.byte	0xb
 1160 06ea 6601     		.2byte	0x166
 1161 06ec 1A060000 		.4byte	0x61a
 1162 06f0 2C       		.byte	0x2c
 1163 06f1 08       		.uleb128 0x8
 1164 06f2 73323800 		.ascii	"s28\000"
 1165 06f6 0B       		.byte	0xb
 1166 06f7 6701     		.2byte	0x167
 1167 06f9 1A060000 		.4byte	0x61a
 1168 06fd 30       		.byte	0x30
 1169 06fe 08       		.uleb128 0x8
 1170 06ff 73323900 		.ascii	"s29\000"
 1171 0703 0B       		.byte	0xb
 1172 0704 6801     		.2byte	0x168
 1173 0706 1A060000 		.4byte	0x61a
 1174 070a 34       		.byte	0x34
 1175 070b 08       		.uleb128 0x8
 1176 070c 73333000 		.ascii	"s30\000"
 1177 0710 0B       		.byte	0xb
 1178 0711 6901     		.2byte	0x169
 1179 0713 1A060000 		.4byte	0x61a
 1180 0717 38       		.byte	0x38
 1181 0718 08       		.uleb128 0x8
 1182 0719 73333100 		.ascii	"s31\000"
 1183 071d 0B       		.byte	0xb
 1184 071e 6A01     		.2byte	0x16a
 1185 0720 1A060000 		.4byte	0x61a
 1186 0724 3C       		.byte	0x3c
 1187 0725 08       		.uleb128 0x8
 1188 0726 723400   		.ascii	"r4\000"
 1189 0729 0B       		.byte	0xb
 1190 072a 6C01     		.2byte	0x16c
 1191 072c 1A060000 		.4byte	0x61a
 1192 0730 40       		.byte	0x40
 1193 0731 08       		.uleb128 0x8
 1194 0732 723500   		.ascii	"r5\000"
 1195 0735 0B       		.byte	0xb
 1196 0736 6D01     		.2byte	0x16d
 1197 0738 1A060000 		.4byte	0x61a
ARM GAS  /tmp/ccmX1IXZ.s 			page 22


 1198 073c 44       		.byte	0x44
 1199 073d 08       		.uleb128 0x8
 1200 073e 723600   		.ascii	"r6\000"
 1201 0741 0B       		.byte	0xb
 1202 0742 6E01     		.2byte	0x16e
 1203 0744 1A060000 		.4byte	0x61a
 1204 0748 48       		.byte	0x48
 1205 0749 08       		.uleb128 0x8
 1206 074a 723700   		.ascii	"r7\000"
 1207 074d 0B       		.byte	0xb
 1208 074e 6F01     		.2byte	0x16f
 1209 0750 1A060000 		.4byte	0x61a
 1210 0754 4C       		.byte	0x4c
 1211 0755 08       		.uleb128 0x8
 1212 0756 723800   		.ascii	"r8\000"
 1213 0759 0B       		.byte	0xb
 1214 075a 7001     		.2byte	0x170
 1215 075c 1A060000 		.4byte	0x61a
 1216 0760 50       		.byte	0x50
 1217 0761 08       		.uleb128 0x8
 1218 0762 723900   		.ascii	"r9\000"
 1219 0765 0B       		.byte	0xb
 1220 0766 7101     		.2byte	0x171
 1221 0768 1A060000 		.4byte	0x61a
 1222 076c 54       		.byte	0x54
 1223 076d 08       		.uleb128 0x8
 1224 076e 72313000 		.ascii	"r10\000"
 1225 0772 0B       		.byte	0xb
 1226 0773 7201     		.2byte	0x172
 1227 0775 1A060000 		.4byte	0x61a
 1228 0779 58       		.byte	0x58
 1229 077a 08       		.uleb128 0x8
 1230 077b 72313100 		.ascii	"r11\000"
 1231 077f 0B       		.byte	0xb
 1232 0780 7301     		.2byte	0x173
 1233 0782 1A060000 		.4byte	0x61a
 1234 0786 5C       		.byte	0x5c
 1235 0787 08       		.uleb128 0x8
 1236 0788 6C7200   		.ascii	"lr\000"
 1237 078b 0B       		.byte	0xb
 1238 078c 7401     		.2byte	0x174
 1239 078e 1A060000 		.4byte	0x61a
 1240 0792 60       		.byte	0x60
 1241 0793 00       		.byte	0
 1242 0794 0A       		.uleb128 0xa
 1243 0795 04       		.byte	0x4
 1244 0796 48060000 		.4byte	0x648
 1245 079a 15       		.uleb128 0x15
 1246 079b 04       		.byte	0x4
 1247 079c 0C       		.byte	0xc
 1248 079d 38       		.byte	0x38
 1249 079e AF070000 		.4byte	0x7af
 1250 07a2 06       		.uleb128 0x6
 1251 07a3 C2070000 		.4byte	.LASF102
 1252 07a7 0C       		.byte	0xc
 1253 07a8 3C       		.byte	0x3c
 1254 07a9 D5000000 		.4byte	0xd5
ARM GAS  /tmp/ccmX1IXZ.s 			page 23


 1255 07ad 00       		.byte	0
 1256 07ae 00       		.byte	0
 1257 07af 03       		.uleb128 0x3
 1258 07b0 5A050000 		.4byte	.LASF103
 1259 07b4 0C       		.byte	0xc
 1260 07b5 3D       		.byte	0x3d
 1261 07b6 9A070000 		.4byte	0x79a
 1262 07ba 15       		.uleb128 0x15
 1263 07bb 18       		.byte	0x18
 1264 07bc 0C       		.byte	0xc
 1265 07bd 48       		.byte	0x48
 1266 07be FD070000 		.4byte	0x7fd
 1267 07c2 06       		.uleb128 0x6
 1268 07c3 91070000 		.4byte	.LASF104
 1269 07c7 0C       		.byte	0xc
 1270 07c8 49       		.byte	0x49
 1271 07c9 D5000000 		.4byte	0xd5
 1272 07cd 00       		.byte	0
 1273 07ce 06       		.uleb128 0x6
 1274 07cf A5010000 		.4byte	.LASF105
 1275 07d3 0C       		.byte	0xc
 1276 07d4 4A       		.byte	0x4a
 1277 07d5 D5000000 		.4byte	0xd5
 1278 07d9 04       		.byte	0x4
 1279 07da 06       		.uleb128 0x6
 1280 07db FD030000 		.4byte	.LASF106
 1281 07df 0C       		.byte	0xc
 1282 07e0 4B       		.byte	0x4b
 1283 07e1 D5000000 		.4byte	0xd5
 1284 07e5 08       		.byte	0x8
 1285 07e6 07       		.uleb128 0x7
 1286 07e7 6E00     		.ascii	"n\000"
 1287 07e9 0C       		.byte	0xc
 1288 07ea 4C       		.byte	0x4c
 1289 07eb 38010000 		.4byte	0x138
 1290 07ef 0C       		.byte	0xc
 1291 07f0 06       		.uleb128 0x6
 1292 07f1 89050000 		.4byte	.LASF107
 1293 07f5 0C       		.byte	0xc
 1294 07f6 4D       		.byte	0x4d
 1295 07f7 E0000000 		.4byte	0xe0
 1296 07fb 10       		.byte	0x10
 1297 07fc 00       		.byte	0
 1298 07fd 03       		.uleb128 0x3
 1299 07fe AB010000 		.4byte	.LASF108
 1300 0802 0C       		.byte	0xc
 1301 0803 4E       		.byte	0x4e
 1302 0804 BA070000 		.4byte	0x7ba
 1303 0808 15       		.uleb128 0x15
 1304 0809 38       		.byte	0x38
 1305 080a 0D       		.byte	0xd
 1306 080b 38       		.byte	0x38
 1307 080c 41080000 		.4byte	0x841
 1308 0810 06       		.uleb128 0x6
 1309 0811 86030000 		.4byte	.LASF109
 1310 0815 0D       		.byte	0xd
 1311 0816 39       		.byte	0x39
ARM GAS  /tmp/ccmX1IXZ.s 			page 24


 1312 0817 38010000 		.4byte	0x138
 1313 081b 00       		.byte	0
 1314 081c 06       		.uleb128 0x6
 1315 081d F3050000 		.4byte	.LASF110
 1316 0821 0D       		.byte	0xd
 1317 0822 3A       		.byte	0x3a
 1318 0823 38010000 		.4byte	0x138
 1319 0827 04       		.byte	0x4
 1320 0828 06       		.uleb128 0x6
 1321 0829 DC080000 		.4byte	.LASF111
 1322 082d 0D       		.byte	0xd
 1323 082e 3B       		.byte	0x3b
 1324 082f FD070000 		.4byte	0x7fd
 1325 0833 08       		.byte	0x8
 1326 0834 06       		.uleb128 0x6
 1327 0835 49040000 		.4byte	.LASF112
 1328 0839 0D       		.byte	0xd
 1329 083a 3D       		.byte	0x3d
 1330 083b FD070000 		.4byte	0x7fd
 1331 083f 20       		.byte	0x20
 1332 0840 00       		.byte	0
 1333 0841 03       		.uleb128 0x3
 1334 0842 B3030000 		.4byte	.LASF113
 1335 0846 0D       		.byte	0xd
 1336 0847 3F       		.byte	0x3f
 1337 0848 08080000 		.4byte	0x808
 1338 084c 16       		.uleb128 0x16
 1339 084d 04       		.byte	0x4
 1340 084e 07       		.byte	0x7
 1341 084f C6       		.byte	0xc6
 1342 0850 AE080000 		.4byte	0x8ae
 1343 0854 17       		.uleb128 0x17
 1344 0855 49000000 		.4byte	.LASF114
 1345 0859 07       		.byte	0x7
 1346 085a CD       		.byte	0xcd
 1347 085b 17010000 		.4byte	0x117
 1348 085f 17       		.uleb128 0x17
 1349 0860 D5010000 		.4byte	.LASF115
 1350 0864 07       		.byte	0x7
 1351 0865 D4       		.byte	0xd4
 1352 0866 17010000 		.4byte	0x117
 1353 086a 17       		.uleb128 0x17
 1354 086b 7D080000 		.4byte	.LASF116
 1355 086f 07       		.byte	0x7
 1356 0870 DB       		.byte	0xdb
 1357 0871 21030000 		.4byte	0x321
 1358 0875 17       		.uleb128 0x17
 1359 0876 67030000 		.4byte	.LASF117
 1360 087a 07       		.byte	0x7
 1361 087b E2       		.byte	0xe2
 1362 087c AE080000 		.4byte	0x8ae
 1363 0880 17       		.uleb128 0x17
 1364 0881 D4080000 		.4byte	.LASF118
 1365 0885 07       		.byte	0x7
 1366 0886 E7       		.byte	0xe7
 1367 0887 17010000 		.4byte	0x117
 1368 088b 17       		.uleb128 0x17
ARM GAS  /tmp/ccmX1IXZ.s 			page 25


 1369 088c 4E030000 		.4byte	.LASF119
 1370 0890 07       		.byte	0x7
 1371 0891 F0       		.byte	0xf0
 1372 0892 D9080000 		.4byte	0x8d9
 1373 0896 17       		.uleb128 0x17
 1374 0897 21070000 		.4byte	.LASF120
 1375 089b 07       		.byte	0x7
 1376 089c F9       		.byte	0xf9
 1377 089d 10090000 		.4byte	0x910
 1378 08a1 18       		.uleb128 0x18
 1379 08a2 3E060000 		.4byte	.LASF121
 1380 08a6 07       		.byte	0x7
 1381 08a7 0101     		.2byte	0x101
 1382 08a9 22010000 		.4byte	0x122
 1383 08ad 00       		.byte	0
 1384 08ae 0A       		.uleb128 0xa
 1385 08af 04       		.byte	0x4
 1386 08b0 39020000 		.4byte	0x239
 1387 08b4 05       		.uleb128 0x5
 1388 08b5 C4060000 		.4byte	.LASF122
 1389 08b9 0C       		.byte	0xc
 1390 08ba 0E       		.byte	0xe
 1391 08bb 34       		.byte	0x34
 1392 08bc D9080000 		.4byte	0x8d9
 1393 08c0 06       		.uleb128 0x6
 1394 08c1 8C030000 		.4byte	.LASF30
 1395 08c5 0E       		.byte	0xe
 1396 08c6 35       		.byte	0x35
 1397 08c7 6E020000 		.4byte	0x26e
 1398 08cb 00       		.byte	0
 1399 08cc 07       		.uleb128 0x7
 1400 08cd 636E7400 		.ascii	"cnt\000"
 1401 08d1 0E       		.byte	0xe
 1402 08d2 37       		.byte	0x37
 1403 08d3 2D010000 		.4byte	0x12d
 1404 08d7 08       		.byte	0x8
 1405 08d8 00       		.byte	0
 1406 08d9 0A       		.uleb128 0xa
 1407 08da 04       		.byte	0x4
 1408 08db B4080000 		.4byte	0x8b4
 1409 08df 05       		.uleb128 0x5
 1410 08e0 42080000 		.4byte	.LASF123
 1411 08e4 10       		.byte	0x10
 1412 08e5 0F       		.byte	0xf
 1413 08e6 39       		.byte	0x39
 1414 08e7 10090000 		.4byte	0x910
 1415 08eb 06       		.uleb128 0x6
 1416 08ec 8C030000 		.4byte	.LASF30
 1417 08f0 0F       		.byte	0xf
 1418 08f1 3A       		.byte	0x3a
 1419 08f2 6E020000 		.4byte	0x26e
 1420 08f6 00       		.byte	0
 1421 08f7 06       		.uleb128 0x6
 1422 08f8 38070000 		.4byte	.LASF124
 1423 08fc 0F       		.byte	0xf
 1424 08fd 3C       		.byte	0x3c
 1425 08fe 44020000 		.4byte	0x244
ARM GAS  /tmp/ccmX1IXZ.s 			page 26


 1426 0902 08       		.byte	0x8
 1427 0903 06       		.uleb128 0x6
 1428 0904 8E080000 		.4byte	.LASF50
 1429 0908 0F       		.byte	0xf
 1430 0909 3E       		.byte	0x3e
 1431 090a 44090000 		.4byte	0x944
 1432 090e 0C       		.byte	0xc
 1433 090f 00       		.byte	0
 1434 0910 0A       		.uleb128 0xa
 1435 0911 04       		.byte	0x4
 1436 0912 DF080000 		.4byte	0x8df
 1437 0916 0A       		.uleb128 0xa
 1438 0917 04       		.byte	0x4
 1439 0918 23090000 		.4byte	0x923
 1440 091c 04       		.uleb128 0x4
 1441 091d 01       		.byte	0x1
 1442 091e 08       		.byte	0x8
 1443 091f 64070000 		.4byte	.LASF125
 1444 0923 10       		.uleb128 0x10
 1445 0924 1C090000 		.4byte	0x91c
 1446 0928 0A       		.uleb128 0xa
 1447 0929 04       		.byte	0x4
 1448 092a 25060000 		.4byte	0x625
 1449 092e 0A       		.uleb128 0xa
 1450 092f 04       		.byte	0x4
 1451 0930 23030000 		.4byte	0x323
 1452 0934 0F       		.uleb128 0xf
 1453 0935 16090000 		.4byte	0x916
 1454 0939 03       		.uleb128 0x3
 1455 093a 20030000 		.4byte	.LASF126
 1456 093e 0F       		.byte	0xf
 1457 093f 34       		.byte	0x34
 1458 0940 DF080000 		.4byte	0x8df
 1459 0944 0A       		.uleb128 0xa
 1460 0945 04       		.byte	0x4
 1461 0946 39090000 		.4byte	0x939
 1462 094a 04       		.uleb128 0x4
 1463 094b 01       		.byte	0x1
 1464 094c 02       		.byte	0x2
 1465 094d FC050000 		.4byte	.LASF127
 1466 0951 0A       		.uleb128 0xa
 1467 0952 04       		.byte	0x4
 1468 0953 A9000000 		.4byte	0xa9
 1469 0957 13       		.uleb128 0x13
 1470 0958 0C       		.byte	0xc
 1471 0959 10       		.byte	0x10
 1472 095a A201     		.2byte	0x1a2
 1473 095c AF090000 		.4byte	0x9af
 1474 0960 09       		.uleb128 0x9
 1475 0961 9E010000 		.4byte	.LASF128
 1476 0965 10       		.byte	0x10
 1477 0966 A301     		.2byte	0x1a3
 1478 0968 AF090000 		.4byte	0x9af
 1479 096c 00       		.byte	0
 1480 096d 09       		.uleb128 0x9
 1481 096e D9060000 		.4byte	.LASF129
 1482 0972 10       		.byte	0x10
ARM GAS  /tmp/ccmX1IXZ.s 			page 27


 1483 0973 A401     		.2byte	0x1a4
 1484 0975 B5090000 		.4byte	0x9b5
 1485 0979 04       		.byte	0x4
 1486 097a 09       		.uleb128 0x9
 1487 097b FD020000 		.4byte	.LASF130
 1488 097f 10       		.byte	0x10
 1489 0980 A801     		.2byte	0x1a8
 1490 0982 A9000000 		.4byte	0xa9
 1491 0986 08       		.byte	0x8
 1492 0987 09       		.uleb128 0x9
 1493 0988 78050000 		.4byte	.LASF131
 1494 098c 10       		.byte	0x10
 1495 098d AA01     		.2byte	0x1aa
 1496 098f A9000000 		.4byte	0xa9
 1497 0993 09       		.byte	0x9
 1498 0994 09       		.uleb128 0x9
 1499 0995 F3020000 		.4byte	.LASF132
 1500 0999 10       		.byte	0x10
 1501 099a AC01     		.2byte	0x1ac
 1502 099c A9000000 		.4byte	0xa9
 1503 09a0 0A       		.byte	0xa
 1504 09a1 09       		.uleb128 0x9
 1505 09a2 00090000 		.4byte	.LASF133
 1506 09a6 10       		.byte	0x10
 1507 09a7 AD01     		.2byte	0x1ad
 1508 09a9 A9000000 		.4byte	0xa9
 1509 09ad 0B       		.byte	0xb
 1510 09ae 00       		.byte	0
 1511 09af 0A       		.uleb128 0xa
 1512 09b0 04       		.byte	0x4
 1513 09b1 E4040000 		.4byte	0x4e4
 1514 09b5 0A       		.uleb128 0xa
 1515 09b6 04       		.byte	0x4
 1516 09b7 73040000 		.4byte	0x473
 1517 09bb 14       		.uleb128 0x14
 1518 09bc D1050000 		.4byte	.LASF134
 1519 09c0 10       		.byte	0x10
 1520 09c1 AE01     		.2byte	0x1ae
 1521 09c3 57090000 		.4byte	0x957
 1522 09c7 0A       		.uleb128 0xa
 1523 09c8 04       		.byte	0x4
 1524 09c9 CD090000 		.4byte	0x9cd
 1525 09cd 10       		.uleb128 0x10
 1526 09ce A9000000 		.4byte	0xa9
 1527 09d2 19       		.uleb128 0x19
 1528 09d3 01       		.byte	0x1
 1529 09d4 5E000000 		.4byte	0x5e
 1530 09d8 11       		.byte	0x11
 1531 09d9 28       		.byte	0x28
 1532 09da 150A0000 		.4byte	0xa15
 1533 09de 1A       		.uleb128 0x1a
 1534 09df A8060000 		.4byte	.LASF135
 1535 09e3 00       		.byte	0
 1536 09e4 1A       		.uleb128 0x1a
 1537 09e5 7E020000 		.4byte	.LASF136
 1538 09e9 01       		.byte	0x1
 1539 09ea 1A       		.uleb128 0x1a
ARM GAS  /tmp/ccmX1IXZ.s 			page 28


 1540 09eb C2030000 		.4byte	.LASF137
 1541 09ef 02       		.byte	0x2
 1542 09f0 1A       		.uleb128 0x1a
 1543 09f1 17040000 		.4byte	.LASF138
 1544 09f5 03       		.byte	0x3
 1545 09f6 1A       		.uleb128 0x1a
 1546 09f7 6F070000 		.4byte	.LASF139
 1547 09fb 04       		.byte	0x4
 1548 09fc 1A       		.uleb128 0x1a
 1549 09fd 3D050000 		.4byte	.LASF140
 1550 0a01 05       		.byte	0x5
 1551 0a02 1A       		.uleb128 0x1a
 1552 0a03 C4040000 		.4byte	.LASF141
 1553 0a07 06       		.byte	0x6
 1554 0a08 1A       		.uleb128 0x1a
 1555 0a09 2E020000 		.4byte	.LASF142
 1556 0a0d 07       		.byte	0x7
 1557 0a0e 1A       		.uleb128 0x1a
 1558 0a0f 4B080000 		.4byte	.LASF143
 1559 0a13 08       		.byte	0x8
 1560 0a14 00       		.byte	0
 1561 0a15 03       		.uleb128 0x3
 1562 0a16 15020000 		.4byte	.LASF144
 1563 0a1a 11       		.byte	0x11
 1564 0a1b 32       		.byte	0x32
 1565 0a1c D2090000 		.4byte	0x9d2
 1566 0a20 15       		.uleb128 0x15
 1567 0a21 08       		.byte	0x8
 1568 0a22 11       		.byte	0x11
 1569 0a23 37       		.byte	0x37
 1570 0a24 410A0000 		.4byte	0xa41
 1571 0a28 06       		.uleb128 0x6
 1572 0a29 08030000 		.4byte	.LASF145
 1573 0a2d 11       		.byte	0x11
 1574 0a2e 38       		.byte	0x38
 1575 0a2f BF000000 		.4byte	0xbf
 1576 0a33 00       		.byte	0
 1577 0a34 06       		.uleb128 0x6
 1578 0a35 3B000000 		.4byte	.LASF146
 1579 0a39 11       		.byte	0x11
 1580 0a3a 39       		.byte	0x39
 1581 0a3b BF000000 		.4byte	0xbf
 1582 0a3f 04       		.byte	0x4
 1583 0a40 00       		.byte	0
 1584 0a41 03       		.uleb128 0x3
 1585 0a42 00000000 		.4byte	.LASF147
 1586 0a46 11       		.byte	0x11
 1587 0a47 3A       		.byte	0x3a
 1588 0a48 200A0000 		.4byte	0xa20
 1589 0a4c 1B       		.uleb128 0x1b
 1590 0a4d 4A090000 		.4byte	0x94a
 1591 0a51 5B0A0000 		.4byte	0xa5b
 1592 0a55 0D       		.uleb128 0xd
 1593 0a56 21030000 		.4byte	0x321
 1594 0a5a 00       		.byte	0
 1595 0a5b 0A       		.uleb128 0xa
 1596 0a5c 04       		.byte	0x4
ARM GAS  /tmp/ccmX1IXZ.s 			page 29


 1597 0a5d 4C0A0000 		.4byte	0xa4c
 1598 0a61 1B       		.uleb128 0x1b
 1599 0a62 4A090000 		.4byte	0x94a
 1600 0a66 7F0A0000 		.4byte	0xa7f
 1601 0a6a 0D       		.uleb128 0xd
 1602 0a6b 21030000 		.4byte	0x321
 1603 0a6f 0D       		.uleb128 0xd
 1604 0a70 BF000000 		.4byte	0xbf
 1605 0a74 0D       		.uleb128 0xd
 1606 0a75 51090000 		.4byte	0x951
 1607 0a79 0D       		.uleb128 0xd
 1608 0a7a BF000000 		.4byte	0xbf
 1609 0a7e 00       		.byte	0
 1610 0a7f 0A       		.uleb128 0xa
 1611 0a80 04       		.byte	0x4
 1612 0a81 610A0000 		.4byte	0xa61
 1613 0a85 1B       		.uleb128 0x1b
 1614 0a86 4A090000 		.4byte	0x94a
 1615 0a8a A30A0000 		.4byte	0xaa3
 1616 0a8e 0D       		.uleb128 0xd
 1617 0a8f 21030000 		.4byte	0x321
 1618 0a93 0D       		.uleb128 0xd
 1619 0a94 BF000000 		.4byte	0xbf
 1620 0a98 0D       		.uleb128 0xd
 1621 0a99 C7090000 		.4byte	0x9c7
 1622 0a9d 0D       		.uleb128 0xd
 1623 0a9e BF000000 		.4byte	0xbf
 1624 0aa2 00       		.byte	0
 1625 0aa3 0A       		.uleb128 0xa
 1626 0aa4 04       		.byte	0x4
 1627 0aa5 850A0000 		.4byte	0xa85
 1628 0aa9 1B       		.uleb128 0x1b
 1629 0aaa 4A090000 		.4byte	0x94a
 1630 0aae BD0A0000 		.4byte	0xabd
 1631 0ab2 0D       		.uleb128 0xd
 1632 0ab3 21030000 		.4byte	0x321
 1633 0ab7 0D       		.uleb128 0xd
 1634 0ab8 BD0A0000 		.4byte	0xabd
 1635 0abc 00       		.byte	0
 1636 0abd 0A       		.uleb128 0xa
 1637 0abe 04       		.byte	0x4
 1638 0abf 410A0000 		.4byte	0xa41
 1639 0ac3 0A       		.uleb128 0xa
 1640 0ac4 04       		.byte	0x4
 1641 0ac5 A90A0000 		.4byte	0xaa9
 1642 0ac9 11       		.uleb128 0x11
 1643 0aca BF000000 		.4byte	0xbf
 1644 0ace D90A0000 		.4byte	0xad9
 1645 0ad2 12       		.uleb128 0x12
 1646 0ad3 6C040000 		.4byte	0x46c
 1647 0ad7 03       		.byte	0x3
 1648 0ad8 00       		.byte	0
 1649 0ad9 0A       		.uleb128 0xa
 1650 0ada 04       		.byte	0x4
 1651 0adb DF0A0000 		.4byte	0xadf
 1652 0adf 10       		.uleb128 0x10
 1653 0ae0 BB090000 		.4byte	0x9bb
ARM GAS  /tmp/ccmX1IXZ.s 			page 30


 1654 0ae4 19       		.uleb128 0x19
 1655 0ae5 01       		.byte	0x1
 1656 0ae6 5E000000 		.4byte	0x5e
 1657 0aea 12       		.byte	0x12
 1658 0aeb 7A       		.byte	0x7a
 1659 0aec 030B0000 		.4byte	0xb03
 1660 0af0 1A       		.uleb128 0x1a
 1661 0af1 59020000 		.4byte	.LASF148
 1662 0af5 00       		.byte	0
 1663 0af6 1A       		.uleb128 0x1a
 1664 0af7 DC070000 		.4byte	.LASF149
 1665 0afb 01       		.byte	0x1
 1666 0afc 1A       		.uleb128 0x1a
 1667 0afd 92030000 		.4byte	.LASF150
 1668 0b01 02       		.byte	0x2
 1669 0b02 00       		.byte	0
 1670 0b03 03       		.uleb128 0x3
 1671 0b04 B7040000 		.4byte	.LASF151
 1672 0b08 12       		.byte	0x12
 1673 0b09 7E       		.byte	0x7e
 1674 0b0a E40A0000 		.4byte	0xae4
 1675 0b0e 03       		.uleb128 0x3
 1676 0b0f 16030000 		.4byte	.LASF152
 1677 0b13 13       		.byte	0x13
 1678 0b14 DB       		.byte	0xdb
 1679 0b15 BF000000 		.4byte	0xbf
 1680 0b19 03       		.uleb128 0x3
 1681 0b1a 5C030000 		.4byte	.LASF153
 1682 0b1e 13       		.byte	0x13
 1683 0b1f E0       		.byte	0xe0
 1684 0b20 BF000000 		.4byte	0xbf
 1685 0b24 03       		.uleb128 0x3
 1686 0b25 F6080000 		.4byte	.LASF154
 1687 0b29 13       		.byte	0x13
 1688 0b2a E5       		.byte	0xe5
 1689 0b2b 2F0B0000 		.4byte	0xb2f
 1690 0b2f 0B       		.uleb128 0xb
 1691 0b30 F6080000 		.4byte	.LASF154
 1692 0b34 50       		.byte	0x50
 1693 0b35 13       		.byte	0x13
 1694 0b36 1501     		.2byte	0x115
 1695 0b38 F30B0000 		.4byte	0xbf3
 1696 0b3c 08       		.uleb128 0x8
 1697 0b3d 766D7400 		.ascii	"vmt\000"
 1698 0b41 13       		.byte	0x13
 1699 0b42 1901     		.2byte	0x119
 1700 0b44 B00C0000 		.4byte	0xcb0
 1701 0b48 00       		.byte	0
 1702 0b49 09       		.uleb128 0x9
 1703 0b4a 90020000 		.4byte	.LASF36
 1704 0b4e 13       		.byte	0x13
 1705 0b4f 1A01     		.2byte	0x11a
 1706 0b51 150A0000 		.4byte	0xa15
 1707 0b55 04       		.byte	0x4
 1708 0b56 08       		.uleb128 0x8
 1709 0b57 63696400 		.ascii	"cid\000"
 1710 0b5b 13       		.byte	0x13
ARM GAS  /tmp/ccmX1IXZ.s 			page 31


 1711 0b5c 1A01     		.2byte	0x11a
 1712 0b5e C90A0000 		.4byte	0xac9
 1713 0b62 08       		.byte	0x8
 1714 0b63 08       		.uleb128 0x8
 1715 0b64 63736400 		.ascii	"csd\000"
 1716 0b68 13       		.byte	0x13
 1717 0b69 1A01     		.2byte	0x11a
 1718 0b6b C90A0000 		.4byte	0xac9
 1719 0b6f 18       		.byte	0x18
 1720 0b70 09       		.uleb128 0x9
 1721 0b71 90010000 		.4byte	.LASF155
 1722 0b75 13       		.byte	0x13
 1723 0b76 1A01     		.2byte	0x11a
 1724 0b78 BF000000 		.4byte	0xbf
 1725 0b7c 28       		.byte	0x28
 1726 0b7d 09       		.uleb128 0x9
 1727 0b7e 81070000 		.4byte	.LASF156
 1728 0b82 13       		.byte	0x13
 1729 0b83 1E01     		.2byte	0x11e
 1730 0b85 BB0C0000 		.4byte	0xcbb
 1731 0b89 2C       		.byte	0x2c
 1732 0b8a 09       		.uleb128 0x9
 1733 0b8b E9010000 		.4byte	.LASF157
 1734 0b8f 13       		.byte	0x13
 1735 0b90 2201     		.2byte	0x122
 1736 0b92 0E0B0000 		.4byte	0xb0e
 1737 0b96 30       		.byte	0x30
 1738 0b97 09       		.uleb128 0x9
 1739 0b98 55030000 		.4byte	.LASF158
 1740 0b9c 13       		.byte	0x13
 1741 0b9d 2601     		.2byte	0x126
 1742 0b9f 190B0000 		.4byte	0xb19
 1743 0ba3 34       		.byte	0x34
 1744 0ba4 08       		.uleb128 0x8
 1745 0ba5 72636100 		.ascii	"rca\000"
 1746 0ba9 13       		.byte	0x13
 1747 0baa 2A01     		.2byte	0x12a
 1748 0bac BF000000 		.4byte	0xbf
 1749 0bb0 38       		.byte	0x38
 1750 0bb1 09       		.uleb128 0x9
 1751 0bb2 EC050000 		.4byte	.LASF159
 1752 0bb6 13       		.byte	0x13
 1753 0bb7 2F01     		.2byte	0x12f
 1754 0bb9 39020000 		.4byte	0x239
 1755 0bbd 3C       		.byte	0x3c
 1756 0bbe 09       		.uleb128 0x9
 1757 0bbf 75080000 		.4byte	.LASF160
 1758 0bc3 13       		.byte	0x13
 1759 0bc4 3301     		.2byte	0x133
 1760 0bc6 BF000000 		.4byte	0xbf
 1761 0bca 40       		.byte	0x40
 1762 0bcb 08       		.uleb128 0x8
 1763 0bcc 646D6100 		.ascii	"dma\000"
 1764 0bd0 13       		.byte	0x13
 1765 0bd1 3701     		.2byte	0x137
 1766 0bd3 D90A0000 		.4byte	0xad9
 1767 0bd7 44       		.byte	0x44
ARM GAS  /tmp/ccmX1IXZ.s 			page 32


 1768 0bd8 09       		.uleb128 0x9
 1769 0bd9 99010000 		.4byte	.LASF161
 1770 0bdd 13       		.byte	0x13
 1771 0bde 3C01     		.2byte	0x13c
 1772 0be0 C60C0000 		.4byte	0xcc6
 1773 0be4 48       		.byte	0x48
 1774 0be5 09       		.uleb128 0x9
 1775 0be6 6D030000 		.4byte	.LASF162
 1776 0bea 13       		.byte	0x13
 1777 0beb 3F01     		.2byte	0x13f
 1778 0bed D10C0000 		.4byte	0xcd1
 1779 0bf1 4C       		.byte	0x4c
 1780 0bf2 00       		.byte	0
 1781 0bf3 15       		.uleb128 0x15
 1782 0bf4 08       		.byte	0x8
 1783 0bf5 13       		.byte	0x13
 1784 0bf6 EB       		.byte	0xeb
 1785 0bf7 210C0000 		.4byte	0xc21
 1786 0bfb 06       		.uleb128 0x6
 1787 0bfc 33060000 		.4byte	.LASF163
 1788 0c00 13       		.byte	0x13
 1789 0c01 F4       		.byte	0xf4
 1790 0c02 51090000 		.4byte	0x951
 1791 0c06 00       		.byte	0
 1792 0c07 06       		.uleb128 0x6
 1793 0c08 A2080000 		.4byte	.LASF164
 1794 0c0c 13       		.byte	0x13
 1795 0c0d F8       		.byte	0xf8
 1796 0c0e 030B0000 		.4byte	0xb03
 1797 0c12 04       		.byte	0x4
 1798 0c13 09       		.uleb128 0x9
 1799 0c14 07090000 		.4byte	.LASF165
 1800 0c18 13       		.byte	0x13
 1801 0c19 0001     		.2byte	0x100
 1802 0c1b A9000000 		.4byte	0xa9
 1803 0c1f 05       		.byte	0x5
 1804 0c20 00       		.byte	0
 1805 0c21 14       		.uleb128 0x14
 1806 0c22 57080000 		.4byte	.LASF166
 1807 0c26 13       		.byte	0x13
 1808 0c27 0101     		.2byte	0x101
 1809 0c29 F30B0000 		.4byte	0xbf3
 1810 0c2d 0B       		.uleb128 0xb
 1811 0c2e 4F060000 		.4byte	.LASF167
 1812 0c32 24       		.byte	0x24
 1813 0c33 13       		.byte	0x13
 1814 0c34 0E01     		.2byte	0x10e
 1815 0c36 B00C0000 		.4byte	0xcb0
 1816 0c3a 09       		.uleb128 0x9
 1817 0c3b BC080000 		.4byte	.LASF168
 1818 0c3f 13       		.byte	0x13
 1819 0c40 0F01     		.2byte	0x10f
 1820 0c42 2C000000 		.4byte	0x2c
 1821 0c46 00       		.byte	0
 1822 0c47 09       		.uleb128 0x9
 1823 0c48 0A080000 		.4byte	.LASF169
 1824 0c4c 13       		.byte	0x13
ARM GAS  /tmp/ccmX1IXZ.s 			page 33


 1825 0c4d 0F01     		.2byte	0x10f
 1826 0c4f 5B0A0000 		.4byte	0xa5b
 1827 0c53 04       		.byte	0x4
 1828 0c54 09       		.uleb128 0x9
 1829 0c55 3D010000 		.4byte	.LASF170
 1830 0c59 13       		.byte	0x13
 1831 0c5a 0F01     		.2byte	0x10f
 1832 0c5c 5B0A0000 		.4byte	0xa5b
 1833 0c60 08       		.byte	0x8
 1834 0c61 09       		.uleb128 0x9
 1835 0c62 D1060000 		.4byte	.LASF171
 1836 0c66 13       		.byte	0x13
 1837 0c67 0F01     		.2byte	0x10f
 1838 0c69 5B0A0000 		.4byte	0xa5b
 1839 0c6d 0C       		.byte	0xc
 1840 0c6e 09       		.uleb128 0x9
 1841 0c6f 6C020000 		.4byte	.LASF172
 1842 0c73 13       		.byte	0x13
 1843 0c74 0F01     		.2byte	0x10f
 1844 0c76 5B0A0000 		.4byte	0xa5b
 1845 0c7a 10       		.byte	0x10
 1846 0c7b 09       		.uleb128 0x9
 1847 0c7c 5F070000 		.4byte	.LASF173
 1848 0c80 13       		.byte	0x13
 1849 0c81 0F01     		.2byte	0x10f
 1850 0c83 7F0A0000 		.4byte	0xa7f
 1851 0c87 14       		.byte	0x14
 1852 0c88 09       		.uleb128 0x9
 1853 0c89 9E040000 		.4byte	.LASF174
 1854 0c8d 13       		.byte	0x13
 1855 0c8e 0F01     		.2byte	0x10f
 1856 0c90 A30A0000 		.4byte	0xaa3
 1857 0c94 18       		.byte	0x18
 1858 0c95 09       		.uleb128 0x9
 1859 0c96 78040000 		.4byte	.LASF175
 1860 0c9a 13       		.byte	0x13
 1861 0c9b 0F01     		.2byte	0x10f
 1862 0c9d 5B0A0000 		.4byte	0xa5b
 1863 0ca1 1C       		.byte	0x1c
 1864 0ca2 09       		.uleb128 0x9
 1865 0ca3 D6020000 		.4byte	.LASF176
 1866 0ca7 13       		.byte	0x13
 1867 0ca8 0F01     		.2byte	0x10f
 1868 0caa C30A0000 		.4byte	0xac3
 1869 0cae 20       		.byte	0x20
 1870 0caf 00       		.byte	0
 1871 0cb0 0A       		.uleb128 0xa
 1872 0cb1 04       		.byte	0x4
 1873 0cb2 B60C0000 		.4byte	0xcb6
 1874 0cb6 10       		.uleb128 0x10
 1875 0cb7 2D0C0000 		.4byte	0xc2d
 1876 0cbb 0A       		.uleb128 0xa
 1877 0cbc 04       		.byte	0x4
 1878 0cbd C10C0000 		.4byte	0xcc1
 1879 0cc1 10       		.uleb128 0x10
 1880 0cc2 210C0000 		.4byte	0xc21
 1881 0cc6 0A       		.uleb128 0xa
ARM GAS  /tmp/ccmX1IXZ.s 			page 34


 1882 0cc7 04       		.byte	0x4
 1883 0cc8 0E060000 		.4byte	0x60e
 1884 0ccc 1C       		.uleb128 0x1c
 1885 0ccd E7080000 		.4byte	.LASF204
 1886 0cd1 0A       		.uleb128 0xa
 1887 0cd2 04       		.byte	0x4
 1888 0cd3 CC0C0000 		.4byte	0xccc
 1889 0cd7 03       		.uleb128 0x3
 1890 0cd8 A6020000 		.4byte	.LASF177
 1891 0cdc 14       		.byte	0x14
 1892 0cdd 13       		.byte	0x13
 1893 0cde 37000000 		.4byte	0x37
 1894 0ce2 03       		.uleb128 0x3
 1895 0ce3 11030000 		.4byte	.LASF178
 1896 0ce7 14       		.byte	0x14
 1897 0ce8 16       		.byte	0x16
 1898 0ce9 5E000000 		.4byte	0x5e
 1899 0ced 03       		.uleb128 0x3
 1900 0cee CA020000 		.4byte	.LASF179
 1901 0cf2 14       		.byte	0x14
 1902 0cf3 1F       		.byte	0x1f
 1903 0cf4 90000000 		.4byte	0x90
 1904 0cf8 03       		.uleb128 0x3
 1905 0cf9 22060000 		.4byte	.LASF180
 1906 0cfd 15       		.byte	0x15
 1907 0cfe 10       		.byte	0x10
 1908 0cff E20C0000 		.4byte	0xce2
 1909 0d03 19       		.uleb128 0x19
 1910 0d04 01       		.byte	0x1
 1911 0d05 5E000000 		.4byte	0x5e
 1912 0d09 15       		.byte	0x15
 1913 0d0a 13       		.byte	0x13
 1914 0d0b 2E0D0000 		.4byte	0xd2e
 1915 0d0f 1A       		.uleb128 0x1a
 1916 0d10 2D050000 		.4byte	.LASF181
 1917 0d14 00       		.byte	0
 1918 0d15 1A       		.uleb128 0x1a
 1919 0d16 84080000 		.4byte	.LASF182
 1920 0d1a 01       		.byte	0x1
 1921 0d1b 1A       		.uleb128 0x1a
 1922 0d1c 17050000 		.4byte	.LASF183
 1923 0d20 02       		.byte	0x2
 1924 0d21 1A       		.uleb128 0x1a
 1925 0d22 85010000 		.4byte	.LASF184
 1926 0d26 03       		.byte	0x3
 1927 0d27 1A       		.uleb128 0x1a
 1928 0d28 B4020000 		.4byte	.LASF185
 1929 0d2c 04       		.byte	0x4
 1930 0d2d 00       		.byte	0
 1931 0d2e 03       		.uleb128 0x3
 1932 0d2f 3E070000 		.4byte	.LASF186
 1933 0d33 15       		.byte	0x15
 1934 0d34 19       		.byte	0x19
 1935 0d35 030D0000 		.4byte	0xd03
 1936 0d39 1D       		.uleb128 0x1d
 1937 0d3a 7A030000 		.4byte	.LASF187
 1938 0d3e 01       		.byte	0x1
ARM GAS  /tmp/ccmX1IXZ.s 			page 35


 1939 0d3f 57       		.byte	0x57
 1940 0d40 F80C0000 		.4byte	0xcf8
 1941 0d44 00000000 		.4byte	.LFB324
 1942 0d48 28000000 		.4byte	.LFE324-.LFB324
 1943 0d4c 01       		.uleb128 0x1
 1944 0d4d 9C       		.byte	0x9c
 1945 0d4e 7A0D0000 		.4byte	0xd7a
 1946 0d52 1E       		.uleb128 0x1e
 1947 0d53 03030000 		.4byte	.LASF189
 1948 0d57 01       		.byte	0x1
 1949 0d58 58       		.byte	0x58
 1950 0d59 E20C0000 		.4byte	0xce2
 1951 0d5d 00000000 		.4byte	.LLST0
 1952 0d61 1F       		.uleb128 0x1f
 1953 0d62 3A020000 		.4byte	.LASF193
 1954 0d66 01       		.byte	0x1
 1955 0d67 5B       		.byte	0x5b
 1956 0d68 F80C0000 		.4byte	0xcf8
 1957 0d6c 3A000000 		.4byte	.LLST1
 1958 0d70 20       		.uleb128 0x20
 1959 0d71 12000000 		.4byte	.LVL4
 1960 0d75 010F0000 		.4byte	0xf01
 1961 0d79 00       		.byte	0
 1962 0d7a 1D       		.uleb128 0x1d
 1963 0d7b A4040000 		.4byte	.LASF188
 1964 0d7f 01       		.byte	0x1
 1965 0d80 7A       		.byte	0x7a
 1966 0d81 2E0D0000 		.4byte	0xd2e
 1967 0d85 00000000 		.4byte	.LFB325
 1968 0d89 3C000000 		.4byte	.LFE325-.LFB325
 1969 0d8d 01       		.uleb128 0x1
 1970 0d8e 9C       		.byte	0x9c
 1971 0d8f 000E0000 		.4byte	0xe00
 1972 0d93 1E       		.uleb128 0x1e
 1973 0d94 03030000 		.4byte	.LASF189
 1974 0d98 01       		.byte	0x1
 1975 0d99 7B       		.byte	0x7b
 1976 0d9a E20C0000 		.4byte	0xce2
 1977 0d9e 59000000 		.4byte	.LLST2
 1978 0da2 1E       		.uleb128 0x1e
 1979 0da3 67020000 		.4byte	.LASF190
 1980 0da7 01       		.byte	0x1
 1981 0da8 7C       		.byte	0x7c
 1982 0da9 000E0000 		.4byte	0xe00
 1983 0dad AC000000 		.4byte	.LLST3
 1984 0db1 1E       		.uleb128 0x1e
 1985 0db2 42040000 		.4byte	.LASF191
 1986 0db6 01       		.byte	0x1
 1987 0db7 7D       		.byte	0x7d
 1988 0db8 ED0C0000 		.4byte	0xced
 1989 0dbc D5000000 		.4byte	.LLST4
 1990 0dc0 1E       		.uleb128 0x1e
 1991 0dc1 21050000 		.4byte	.LASF192
 1992 0dc5 01       		.byte	0x1
 1993 0dc6 7E       		.byte	0x7e
 1994 0dc7 D70C0000 		.4byte	0xcd7
 1995 0dcb FE000000 		.4byte	.LLST5
ARM GAS  /tmp/ccmX1IXZ.s 			page 36


 1996 0dcf 21       		.uleb128 0x21
 1997 0dd0 00000000 		.4byte	.Ldebug_ranges0+0
 1998 0dd4 22       		.uleb128 0x22
 1999 0dd5 696900   		.ascii	"ii\000"
 2000 0dd8 01       		.byte	0x1
 2001 0dd9 92       		.byte	0x92
 2002 0dda A9000000 		.4byte	0xa9
 2003 0dde 40010000 		.4byte	.LLST6
 2004 0de2 23       		.uleb128 0x23
 2005 0de3 1E000000 		.4byte	.LVL11
 2006 0de7 0D0F0000 		.4byte	0xf0d
 2007 0deb 24       		.uleb128 0x24
 2008 0dec 01       		.uleb128 0x1
 2009 0ded 51       		.byte	0x51
 2010 0dee 02       		.uleb128 0x2
 2011 0def 75       		.byte	0x75
 2012 0df0 00       		.sleb128 0
 2013 0df1 24       		.uleb128 0x24
 2014 0df2 01       		.uleb128 0x1
 2015 0df3 52       		.byte	0x52
 2016 0df4 02       		.uleb128 0x2
 2017 0df5 76       		.byte	0x76
 2018 0df6 00       		.sleb128 0
 2019 0df7 24       		.uleb128 0x24
 2020 0df8 01       		.uleb128 0x1
 2021 0df9 53       		.byte	0x53
 2022 0dfa 02       		.uleb128 0x2
 2023 0dfb 77       		.byte	0x77
 2024 0dfc 00       		.sleb128 0
 2025 0dfd 00       		.byte	0
 2026 0dfe 00       		.byte	0
 2027 0dff 00       		.byte	0
 2028 0e00 0A       		.uleb128 0xa
 2029 0e01 04       		.byte	0x4
 2030 0e02 E20C0000 		.4byte	0xce2
 2031 0e06 1D       		.uleb128 0x1d
 2032 0e07 F7070000 		.4byte	.LASF194
 2033 0e0b 01       		.byte	0x1
 2034 0e0c 9F       		.byte	0x9f
 2035 0e0d 2E0D0000 		.4byte	0xd2e
 2036 0e11 00000000 		.4byte	.LFB326
 2037 0e15 3C000000 		.4byte	.LFE326-.LFB326
 2038 0e19 01       		.uleb128 0x1
 2039 0e1a 9C       		.byte	0x9c
 2040 0e1b 8C0E0000 		.4byte	0xe8c
 2041 0e1f 1E       		.uleb128 0x1e
 2042 0e20 03030000 		.4byte	.LASF189
 2043 0e24 01       		.byte	0x1
 2044 0e25 A0       		.byte	0xa0
 2045 0e26 E20C0000 		.4byte	0xce2
 2046 0e2a 66010000 		.4byte	.LLST7
 2047 0e2e 1E       		.uleb128 0x1e
 2048 0e2f 67020000 		.4byte	.LASF190
 2049 0e33 01       		.byte	0x1
 2050 0e34 A1       		.byte	0xa1
 2051 0e35 8C0E0000 		.4byte	0xe8c
 2052 0e39 B9010000 		.4byte	.LLST8
ARM GAS  /tmp/ccmX1IXZ.s 			page 37


 2053 0e3d 1E       		.uleb128 0x1e
 2054 0e3e 42040000 		.4byte	.LASF191
 2055 0e42 01       		.byte	0x1
 2056 0e43 A2       		.byte	0xa2
 2057 0e44 ED0C0000 		.4byte	0xced
 2058 0e48 E2010000 		.4byte	.LLST9
 2059 0e4c 1E       		.uleb128 0x1e
 2060 0e4d 21050000 		.4byte	.LASF192
 2061 0e51 01       		.byte	0x1
 2062 0e52 A3       		.byte	0xa3
 2063 0e53 D70C0000 		.4byte	0xcd7
 2064 0e57 0B020000 		.4byte	.LLST10
 2065 0e5b 21       		.uleb128 0x21
 2066 0e5c 18000000 		.4byte	.Ldebug_ranges0+0x18
 2067 0e60 22       		.uleb128 0x22
 2068 0e61 696900   		.ascii	"ii\000"
 2069 0e64 01       		.byte	0x1
 2070 0e65 B9       		.byte	0xb9
 2071 0e66 A9000000 		.4byte	0xa9
 2072 0e6a 4D020000 		.4byte	.LLST11
 2073 0e6e 23       		.uleb128 0x23
 2074 0e6f 1E000000 		.4byte	.LVL22
 2075 0e73 180F0000 		.4byte	0xf18
 2076 0e77 24       		.uleb128 0x24
 2077 0e78 01       		.uleb128 0x1
 2078 0e79 51       		.byte	0x51
 2079 0e7a 02       		.uleb128 0x2
 2080 0e7b 75       		.byte	0x75
 2081 0e7c 00       		.sleb128 0
 2082 0e7d 24       		.uleb128 0x24
 2083 0e7e 01       		.uleb128 0x1
 2084 0e7f 52       		.byte	0x52
 2085 0e80 02       		.uleb128 0x2
 2086 0e81 76       		.byte	0x76
 2087 0e82 00       		.sleb128 0
 2088 0e83 24       		.uleb128 0x24
 2089 0e84 01       		.uleb128 0x1
 2090 0e85 53       		.byte	0x53
 2091 0e86 02       		.uleb128 0x2
 2092 0e87 77       		.byte	0x77
 2093 0e88 00       		.sleb128 0
 2094 0e89 00       		.byte	0
 2095 0e8a 00       		.byte	0
 2096 0e8b 00       		.byte	0
 2097 0e8c 0A       		.uleb128 0xa
 2098 0e8d 04       		.byte	0x4
 2099 0e8e 920E0000 		.4byte	0xe92
 2100 0e92 10       		.uleb128 0x10
 2101 0e93 E20C0000 		.4byte	0xce2
 2102 0e97 1D       		.uleb128 0x1d
 2103 0e98 7D040000 		.4byte	.LASF195
 2104 0e9c 01       		.byte	0x1
 2105 0e9d C6       		.byte	0xc6
 2106 0e9e 2E0D0000 		.4byte	0xd2e
 2107 0ea2 00000000 		.4byte	.LFB327
 2108 0ea6 24000000 		.4byte	.LFE327-.LFB327
 2109 0eaa 01       		.uleb128 0x1
ARM GAS  /tmp/ccmX1IXZ.s 			page 38


 2110 0eab 9C       		.byte	0x9c
 2111 0eac DA0E0000 		.4byte	0xeda
 2112 0eb0 1E       		.uleb128 0x1e
 2113 0eb1 03030000 		.4byte	.LASF189
 2114 0eb5 01       		.byte	0x1
 2115 0eb6 C7       		.byte	0xc7
 2116 0eb7 E20C0000 		.4byte	0xce2
 2117 0ebb 73020000 		.4byte	.LLST12
 2118 0ebf 25       		.uleb128 0x25
 2119 0ec0 636D6400 		.ascii	"cmd\000"
 2120 0ec4 01       		.byte	0x1
 2121 0ec5 C8       		.byte	0xc8
 2122 0ec6 E20C0000 		.4byte	0xce2
 2123 0eca 01       		.uleb128 0x1
 2124 0ecb 51       		.byte	0x51
 2125 0ecc 26       		.uleb128 0x26
 2126 0ecd 67020000 		.4byte	.LASF190
 2127 0ed1 01       		.byte	0x1
 2128 0ed2 C9       		.byte	0xc9
 2129 0ed3 21030000 		.4byte	0x321
 2130 0ed7 01       		.uleb128 0x1
 2131 0ed8 52       		.byte	0x52
 2132 0ed9 00       		.byte	0
 2133 0eda 27       		.uleb128 0x27
 2134 0edb 08020000 		.4byte	.LASF196
 2135 0edf 16       		.byte	0x16
 2136 0ee0 0408     		.2byte	0x804
 2137 0ee2 E60E0000 		.4byte	0xee6
 2138 0ee6 0F       		.uleb128 0xf
 2139 0ee7 B4000000 		.4byte	0xb4
 2140 0eeb 28       		.uleb128 0x28
 2141 0eec 636800   		.ascii	"ch\000"
 2142 0eef 07       		.byte	0x7
 2143 0ef0 C701     		.2byte	0x1c7
 2144 0ef2 F0030000 		.4byte	0x3f0
 2145 0ef6 29       		.uleb128 0x29
 2146 0ef7 CB050000 		.4byte	.LASF197
 2147 0efb 01       		.byte	0x1
 2148 0efc 1B       		.byte	0x1b
 2149 0efd 240B0000 		.4byte	0xb24
 2150 0f01 2A       		.uleb128 0x2a
 2151 0f02 D7030000 		.4byte	.LASF198
 2152 0f06 D7030000 		.4byte	.LASF198
 2153 0f0a 13       		.byte	0x13
 2154 0f0b 6701     		.2byte	0x167
 2155 0f0d 2B       		.uleb128 0x2b
 2156 0f0e 70050000 		.4byte	.LASF199
 2157 0f12 70050000 		.4byte	.LASF199
 2158 0f16 12       		.byte	0x12
 2159 0f17 C0       		.byte	0xc0
 2160 0f18 2B       		.uleb128 0x2b
 2161 0f19 34050000 		.4byte	.LASF200
 2162 0f1d 34050000 		.4byte	.LASF200
 2163 0f21 12       		.byte	0x12
 2164 0f22 C2       		.byte	0xc2
 2165 0f23 00       		.byte	0
 2166              		.section	.debug_abbrev,"",%progbits
ARM GAS  /tmp/ccmX1IXZ.s 			page 39


 2167              	.Ldebug_abbrev0:
 2168 0000 01       		.uleb128 0x1
 2169 0001 11       		.uleb128 0x11
 2170 0002 01       		.byte	0x1
 2171 0003 25       		.uleb128 0x25
 2172 0004 0E       		.uleb128 0xe
 2173 0005 13       		.uleb128 0x13
 2174 0006 0B       		.uleb128 0xb
 2175 0007 03       		.uleb128 0x3
 2176 0008 0E       		.uleb128 0xe
 2177 0009 1B       		.uleb128 0x1b
 2178 000a 0E       		.uleb128 0xe
 2179 000b 55       		.uleb128 0x55
 2180 000c 17       		.uleb128 0x17
 2181 000d 11       		.uleb128 0x11
 2182 000e 01       		.uleb128 0x1
 2183 000f 10       		.uleb128 0x10
 2184 0010 17       		.uleb128 0x17
 2185 0011 00       		.byte	0
 2186 0012 00       		.byte	0
 2187 0013 02       		.uleb128 0x2
 2188 0014 24       		.uleb128 0x24
 2189 0015 00       		.byte	0
 2190 0016 0B       		.uleb128 0xb
 2191 0017 0B       		.uleb128 0xb
 2192 0018 3E       		.uleb128 0x3e
 2193 0019 0B       		.uleb128 0xb
 2194 001a 03       		.uleb128 0x3
 2195 001b 08       		.uleb128 0x8
 2196 001c 00       		.byte	0
 2197 001d 00       		.byte	0
 2198 001e 03       		.uleb128 0x3
 2199 001f 16       		.uleb128 0x16
 2200 0020 00       		.byte	0
 2201 0021 03       		.uleb128 0x3
 2202 0022 0E       		.uleb128 0xe
 2203 0023 3A       		.uleb128 0x3a
 2204 0024 0B       		.uleb128 0xb
 2205 0025 3B       		.uleb128 0x3b
 2206 0026 0B       		.uleb128 0xb
 2207 0027 49       		.uleb128 0x49
 2208 0028 13       		.uleb128 0x13
 2209 0029 00       		.byte	0
 2210 002a 00       		.byte	0
 2211 002b 04       		.uleb128 0x4
 2212 002c 24       		.uleb128 0x24
 2213 002d 00       		.byte	0
 2214 002e 0B       		.uleb128 0xb
 2215 002f 0B       		.uleb128 0xb
 2216 0030 3E       		.uleb128 0x3e
 2217 0031 0B       		.uleb128 0xb
 2218 0032 03       		.uleb128 0x3
 2219 0033 0E       		.uleb128 0xe
 2220 0034 00       		.byte	0
 2221 0035 00       		.byte	0
 2222 0036 05       		.uleb128 0x5
 2223 0037 13       		.uleb128 0x13
ARM GAS  /tmp/ccmX1IXZ.s 			page 40


 2224 0038 01       		.byte	0x1
 2225 0039 03       		.uleb128 0x3
 2226 003a 0E       		.uleb128 0xe
 2227 003b 0B       		.uleb128 0xb
 2228 003c 0B       		.uleb128 0xb
 2229 003d 3A       		.uleb128 0x3a
 2230 003e 0B       		.uleb128 0xb
 2231 003f 3B       		.uleb128 0x3b
 2232 0040 0B       		.uleb128 0xb
 2233 0041 01       		.uleb128 0x1
 2234 0042 13       		.uleb128 0x13
 2235 0043 00       		.byte	0
 2236 0044 00       		.byte	0
 2237 0045 06       		.uleb128 0x6
 2238 0046 0D       		.uleb128 0xd
 2239 0047 00       		.byte	0
 2240 0048 03       		.uleb128 0x3
 2241 0049 0E       		.uleb128 0xe
 2242 004a 3A       		.uleb128 0x3a
 2243 004b 0B       		.uleb128 0xb
 2244 004c 3B       		.uleb128 0x3b
 2245 004d 0B       		.uleb128 0xb
 2246 004e 49       		.uleb128 0x49
 2247 004f 13       		.uleb128 0x13
 2248 0050 38       		.uleb128 0x38
 2249 0051 0B       		.uleb128 0xb
 2250 0052 00       		.byte	0
 2251 0053 00       		.byte	0
 2252 0054 07       		.uleb128 0x7
 2253 0055 0D       		.uleb128 0xd
 2254 0056 00       		.byte	0
 2255 0057 03       		.uleb128 0x3
 2256 0058 08       		.uleb128 0x8
 2257 0059 3A       		.uleb128 0x3a
 2258 005a 0B       		.uleb128 0xb
 2259 005b 3B       		.uleb128 0x3b
 2260 005c 0B       		.uleb128 0xb
 2261 005d 49       		.uleb128 0x49
 2262 005e 13       		.uleb128 0x13
 2263 005f 38       		.uleb128 0x38
 2264 0060 0B       		.uleb128 0xb
 2265 0061 00       		.byte	0
 2266 0062 00       		.byte	0
 2267 0063 08       		.uleb128 0x8
 2268 0064 0D       		.uleb128 0xd
 2269 0065 00       		.byte	0
 2270 0066 03       		.uleb128 0x3
 2271 0067 08       		.uleb128 0x8
 2272 0068 3A       		.uleb128 0x3a
 2273 0069 0B       		.uleb128 0xb
 2274 006a 3B       		.uleb128 0x3b
 2275 006b 05       		.uleb128 0x5
 2276 006c 49       		.uleb128 0x49
 2277 006d 13       		.uleb128 0x13
 2278 006e 38       		.uleb128 0x38
 2279 006f 0B       		.uleb128 0xb
 2280 0070 00       		.byte	0
ARM GAS  /tmp/ccmX1IXZ.s 			page 41


 2281 0071 00       		.byte	0
 2282 0072 09       		.uleb128 0x9
 2283 0073 0D       		.uleb128 0xd
 2284 0074 00       		.byte	0
 2285 0075 03       		.uleb128 0x3
 2286 0076 0E       		.uleb128 0xe
 2287 0077 3A       		.uleb128 0x3a
 2288 0078 0B       		.uleb128 0xb
 2289 0079 3B       		.uleb128 0x3b
 2290 007a 05       		.uleb128 0x5
 2291 007b 49       		.uleb128 0x49
 2292 007c 13       		.uleb128 0x13
 2293 007d 38       		.uleb128 0x38
 2294 007e 0B       		.uleb128 0xb
 2295 007f 00       		.byte	0
 2296 0080 00       		.byte	0
 2297 0081 0A       		.uleb128 0xa
 2298 0082 0F       		.uleb128 0xf
 2299 0083 00       		.byte	0
 2300 0084 0B       		.uleb128 0xb
 2301 0085 0B       		.uleb128 0xb
 2302 0086 49       		.uleb128 0x49
 2303 0087 13       		.uleb128 0x13
 2304 0088 00       		.byte	0
 2305 0089 00       		.byte	0
 2306 008a 0B       		.uleb128 0xb
 2307 008b 13       		.uleb128 0x13
 2308 008c 01       		.byte	0x1
 2309 008d 03       		.uleb128 0x3
 2310 008e 0E       		.uleb128 0xe
 2311 008f 0B       		.uleb128 0xb
 2312 0090 0B       		.uleb128 0xb
 2313 0091 3A       		.uleb128 0x3a
 2314 0092 0B       		.uleb128 0xb
 2315 0093 3B       		.uleb128 0x3b
 2316 0094 05       		.uleb128 0x5
 2317 0095 01       		.uleb128 0x1
 2318 0096 13       		.uleb128 0x13
 2319 0097 00       		.byte	0
 2320 0098 00       		.byte	0
 2321 0099 0C       		.uleb128 0xc
 2322 009a 15       		.uleb128 0x15
 2323 009b 01       		.byte	0x1
 2324 009c 27       		.uleb128 0x27
 2325 009d 19       		.uleb128 0x19
 2326 009e 01       		.uleb128 0x1
 2327 009f 13       		.uleb128 0x13
 2328 00a0 00       		.byte	0
 2329 00a1 00       		.byte	0
 2330 00a2 0D       		.uleb128 0xd
 2331 00a3 05       		.uleb128 0x5
 2332 00a4 00       		.byte	0
 2333 00a5 49       		.uleb128 0x49
 2334 00a6 13       		.uleb128 0x13
 2335 00a7 00       		.byte	0
 2336 00a8 00       		.byte	0
 2337 00a9 0E       		.uleb128 0xe
ARM GAS  /tmp/ccmX1IXZ.s 			page 42


 2338 00aa 0F       		.uleb128 0xf
 2339 00ab 00       		.byte	0
 2340 00ac 0B       		.uleb128 0xb
 2341 00ad 0B       		.uleb128 0xb
 2342 00ae 00       		.byte	0
 2343 00af 00       		.byte	0
 2344 00b0 0F       		.uleb128 0xf
 2345 00b1 35       		.uleb128 0x35
 2346 00b2 00       		.byte	0
 2347 00b3 49       		.uleb128 0x49
 2348 00b4 13       		.uleb128 0x13
 2349 00b5 00       		.byte	0
 2350 00b6 00       		.byte	0
 2351 00b7 10       		.uleb128 0x10
 2352 00b8 26       		.uleb128 0x26
 2353 00b9 00       		.byte	0
 2354 00ba 49       		.uleb128 0x49
 2355 00bb 13       		.uleb128 0x13
 2356 00bc 00       		.byte	0
 2357 00bd 00       		.byte	0
 2358 00be 11       		.uleb128 0x11
 2359 00bf 01       		.uleb128 0x1
 2360 00c0 01       		.byte	0x1
 2361 00c1 49       		.uleb128 0x49
 2362 00c2 13       		.uleb128 0x13
 2363 00c3 01       		.uleb128 0x1
 2364 00c4 13       		.uleb128 0x13
 2365 00c5 00       		.byte	0
 2366 00c6 00       		.byte	0
 2367 00c7 12       		.uleb128 0x12
 2368 00c8 21       		.uleb128 0x21
 2369 00c9 00       		.byte	0
 2370 00ca 49       		.uleb128 0x49
 2371 00cb 13       		.uleb128 0x13
 2372 00cc 2F       		.uleb128 0x2f
 2373 00cd 0B       		.uleb128 0xb
 2374 00ce 00       		.byte	0
 2375 00cf 00       		.byte	0
 2376 00d0 13       		.uleb128 0x13
 2377 00d1 13       		.uleb128 0x13
 2378 00d2 01       		.byte	0x1
 2379 00d3 0B       		.uleb128 0xb
 2380 00d4 0B       		.uleb128 0xb
 2381 00d5 3A       		.uleb128 0x3a
 2382 00d6 0B       		.uleb128 0xb
 2383 00d7 3B       		.uleb128 0x3b
 2384 00d8 05       		.uleb128 0x5
 2385 00d9 01       		.uleb128 0x1
 2386 00da 13       		.uleb128 0x13
 2387 00db 00       		.byte	0
 2388 00dc 00       		.byte	0
 2389 00dd 14       		.uleb128 0x14
 2390 00de 16       		.uleb128 0x16
 2391 00df 00       		.byte	0
 2392 00e0 03       		.uleb128 0x3
 2393 00e1 0E       		.uleb128 0xe
 2394 00e2 3A       		.uleb128 0x3a
ARM GAS  /tmp/ccmX1IXZ.s 			page 43


 2395 00e3 0B       		.uleb128 0xb
 2396 00e4 3B       		.uleb128 0x3b
 2397 00e5 05       		.uleb128 0x5
 2398 00e6 49       		.uleb128 0x49
 2399 00e7 13       		.uleb128 0x13
 2400 00e8 00       		.byte	0
 2401 00e9 00       		.byte	0
 2402 00ea 15       		.uleb128 0x15
 2403 00eb 13       		.uleb128 0x13
 2404 00ec 01       		.byte	0x1
 2405 00ed 0B       		.uleb128 0xb
 2406 00ee 0B       		.uleb128 0xb
 2407 00ef 3A       		.uleb128 0x3a
 2408 00f0 0B       		.uleb128 0xb
 2409 00f1 3B       		.uleb128 0x3b
 2410 00f2 0B       		.uleb128 0xb
 2411 00f3 01       		.uleb128 0x1
 2412 00f4 13       		.uleb128 0x13
 2413 00f5 00       		.byte	0
 2414 00f6 00       		.byte	0
 2415 00f7 16       		.uleb128 0x16
 2416 00f8 17       		.uleb128 0x17
 2417 00f9 01       		.byte	0x1
 2418 00fa 0B       		.uleb128 0xb
 2419 00fb 0B       		.uleb128 0xb
 2420 00fc 3A       		.uleb128 0x3a
 2421 00fd 0B       		.uleb128 0xb
 2422 00fe 3B       		.uleb128 0x3b
 2423 00ff 0B       		.uleb128 0xb
 2424 0100 01       		.uleb128 0x1
 2425 0101 13       		.uleb128 0x13
 2426 0102 00       		.byte	0
 2427 0103 00       		.byte	0
 2428 0104 17       		.uleb128 0x17
 2429 0105 0D       		.uleb128 0xd
 2430 0106 00       		.byte	0
 2431 0107 03       		.uleb128 0x3
 2432 0108 0E       		.uleb128 0xe
 2433 0109 3A       		.uleb128 0x3a
 2434 010a 0B       		.uleb128 0xb
 2435 010b 3B       		.uleb128 0x3b
 2436 010c 0B       		.uleb128 0xb
 2437 010d 49       		.uleb128 0x49
 2438 010e 13       		.uleb128 0x13
 2439 010f 00       		.byte	0
 2440 0110 00       		.byte	0
 2441 0111 18       		.uleb128 0x18
 2442 0112 0D       		.uleb128 0xd
 2443 0113 00       		.byte	0
 2444 0114 03       		.uleb128 0x3
 2445 0115 0E       		.uleb128 0xe
 2446 0116 3A       		.uleb128 0x3a
 2447 0117 0B       		.uleb128 0xb
 2448 0118 3B       		.uleb128 0x3b
 2449 0119 05       		.uleb128 0x5
 2450 011a 49       		.uleb128 0x49
 2451 011b 13       		.uleb128 0x13
ARM GAS  /tmp/ccmX1IXZ.s 			page 44


 2452 011c 00       		.byte	0
 2453 011d 00       		.byte	0
 2454 011e 19       		.uleb128 0x19
 2455 011f 04       		.uleb128 0x4
 2456 0120 01       		.byte	0x1
 2457 0121 0B       		.uleb128 0xb
 2458 0122 0B       		.uleb128 0xb
 2459 0123 49       		.uleb128 0x49
 2460 0124 13       		.uleb128 0x13
 2461 0125 3A       		.uleb128 0x3a
 2462 0126 0B       		.uleb128 0xb
 2463 0127 3B       		.uleb128 0x3b
 2464 0128 0B       		.uleb128 0xb
 2465 0129 01       		.uleb128 0x1
 2466 012a 13       		.uleb128 0x13
 2467 012b 00       		.byte	0
 2468 012c 00       		.byte	0
 2469 012d 1A       		.uleb128 0x1a
 2470 012e 28       		.uleb128 0x28
 2471 012f 00       		.byte	0
 2472 0130 03       		.uleb128 0x3
 2473 0131 0E       		.uleb128 0xe
 2474 0132 1C       		.uleb128 0x1c
 2475 0133 0B       		.uleb128 0xb
 2476 0134 00       		.byte	0
 2477 0135 00       		.byte	0
 2478 0136 1B       		.uleb128 0x1b
 2479 0137 15       		.uleb128 0x15
 2480 0138 01       		.byte	0x1
 2481 0139 27       		.uleb128 0x27
 2482 013a 19       		.uleb128 0x19
 2483 013b 49       		.uleb128 0x49
 2484 013c 13       		.uleb128 0x13
 2485 013d 01       		.uleb128 0x1
 2486 013e 13       		.uleb128 0x13
 2487 013f 00       		.byte	0
 2488 0140 00       		.byte	0
 2489 0141 1C       		.uleb128 0x1c
 2490 0142 13       		.uleb128 0x13
 2491 0143 00       		.byte	0
 2492 0144 03       		.uleb128 0x3
 2493 0145 0E       		.uleb128 0xe
 2494 0146 3C       		.uleb128 0x3c
 2495 0147 19       		.uleb128 0x19
 2496 0148 00       		.byte	0
 2497 0149 00       		.byte	0
 2498 014a 1D       		.uleb128 0x1d
 2499 014b 2E       		.uleb128 0x2e
 2500 014c 01       		.byte	0x1
 2501 014d 3F       		.uleb128 0x3f
 2502 014e 19       		.uleb128 0x19
 2503 014f 03       		.uleb128 0x3
 2504 0150 0E       		.uleb128 0xe
 2505 0151 3A       		.uleb128 0x3a
 2506 0152 0B       		.uleb128 0xb
 2507 0153 3B       		.uleb128 0x3b
 2508 0154 0B       		.uleb128 0xb
ARM GAS  /tmp/ccmX1IXZ.s 			page 45


 2509 0155 27       		.uleb128 0x27
 2510 0156 19       		.uleb128 0x19
 2511 0157 49       		.uleb128 0x49
 2512 0158 13       		.uleb128 0x13
 2513 0159 11       		.uleb128 0x11
 2514 015a 01       		.uleb128 0x1
 2515 015b 12       		.uleb128 0x12
 2516 015c 06       		.uleb128 0x6
 2517 015d 40       		.uleb128 0x40
 2518 015e 18       		.uleb128 0x18
 2519 015f 9742     		.uleb128 0x2117
 2520 0161 19       		.uleb128 0x19
 2521 0162 01       		.uleb128 0x1
 2522 0163 13       		.uleb128 0x13
 2523 0164 00       		.byte	0
 2524 0165 00       		.byte	0
 2525 0166 1E       		.uleb128 0x1e
 2526 0167 05       		.uleb128 0x5
 2527 0168 00       		.byte	0
 2528 0169 03       		.uleb128 0x3
 2529 016a 0E       		.uleb128 0xe
 2530 016b 3A       		.uleb128 0x3a
 2531 016c 0B       		.uleb128 0xb
 2532 016d 3B       		.uleb128 0x3b
 2533 016e 0B       		.uleb128 0xb
 2534 016f 49       		.uleb128 0x49
 2535 0170 13       		.uleb128 0x13
 2536 0171 02       		.uleb128 0x2
 2537 0172 17       		.uleb128 0x17
 2538 0173 00       		.byte	0
 2539 0174 00       		.byte	0
 2540 0175 1F       		.uleb128 0x1f
 2541 0176 34       		.uleb128 0x34
 2542 0177 00       		.byte	0
 2543 0178 03       		.uleb128 0x3
 2544 0179 0E       		.uleb128 0xe
 2545 017a 3A       		.uleb128 0x3a
 2546 017b 0B       		.uleb128 0xb
 2547 017c 3B       		.uleb128 0x3b
 2548 017d 0B       		.uleb128 0xb
 2549 017e 49       		.uleb128 0x49
 2550 017f 13       		.uleb128 0x13
 2551 0180 02       		.uleb128 0x2
 2552 0181 17       		.uleb128 0x17
 2553 0182 00       		.byte	0
 2554 0183 00       		.byte	0
 2555 0184 20       		.uleb128 0x20
 2556 0185 898201   		.uleb128 0x4109
 2557 0188 00       		.byte	0
 2558 0189 11       		.uleb128 0x11
 2559 018a 01       		.uleb128 0x1
 2560 018b 31       		.uleb128 0x31
 2561 018c 13       		.uleb128 0x13
 2562 018d 00       		.byte	0
 2563 018e 00       		.byte	0
 2564 018f 21       		.uleb128 0x21
 2565 0190 0B       		.uleb128 0xb
ARM GAS  /tmp/ccmX1IXZ.s 			page 46


 2566 0191 01       		.byte	0x1
 2567 0192 55       		.uleb128 0x55
 2568 0193 17       		.uleb128 0x17
 2569 0194 00       		.byte	0
 2570 0195 00       		.byte	0
 2571 0196 22       		.uleb128 0x22
 2572 0197 34       		.uleb128 0x34
 2573 0198 00       		.byte	0
 2574 0199 03       		.uleb128 0x3
 2575 019a 08       		.uleb128 0x8
 2576 019b 3A       		.uleb128 0x3a
 2577 019c 0B       		.uleb128 0xb
 2578 019d 3B       		.uleb128 0x3b
 2579 019e 0B       		.uleb128 0xb
 2580 019f 49       		.uleb128 0x49
 2581 01a0 13       		.uleb128 0x13
 2582 01a1 02       		.uleb128 0x2
 2583 01a2 17       		.uleb128 0x17
 2584 01a3 00       		.byte	0
 2585 01a4 00       		.byte	0
 2586 01a5 23       		.uleb128 0x23
 2587 01a6 898201   		.uleb128 0x4109
 2588 01a9 01       		.byte	0x1
 2589 01aa 11       		.uleb128 0x11
 2590 01ab 01       		.uleb128 0x1
 2591 01ac 31       		.uleb128 0x31
 2592 01ad 13       		.uleb128 0x13
 2593 01ae 00       		.byte	0
 2594 01af 00       		.byte	0
 2595 01b0 24       		.uleb128 0x24
 2596 01b1 8A8201   		.uleb128 0x410a
 2597 01b4 00       		.byte	0
 2598 01b5 02       		.uleb128 0x2
 2599 01b6 18       		.uleb128 0x18
 2600 01b7 9142     		.uleb128 0x2111
 2601 01b9 18       		.uleb128 0x18
 2602 01ba 00       		.byte	0
 2603 01bb 00       		.byte	0
 2604 01bc 25       		.uleb128 0x25
 2605 01bd 05       		.uleb128 0x5
 2606 01be 00       		.byte	0
 2607 01bf 03       		.uleb128 0x3
 2608 01c0 08       		.uleb128 0x8
 2609 01c1 3A       		.uleb128 0x3a
 2610 01c2 0B       		.uleb128 0xb
 2611 01c3 3B       		.uleb128 0x3b
 2612 01c4 0B       		.uleb128 0xb
 2613 01c5 49       		.uleb128 0x49
 2614 01c6 13       		.uleb128 0x13
 2615 01c7 02       		.uleb128 0x2
 2616 01c8 18       		.uleb128 0x18
 2617 01c9 00       		.byte	0
 2618 01ca 00       		.byte	0
 2619 01cb 26       		.uleb128 0x26
 2620 01cc 05       		.uleb128 0x5
 2621 01cd 00       		.byte	0
 2622 01ce 03       		.uleb128 0x3
ARM GAS  /tmp/ccmX1IXZ.s 			page 47


 2623 01cf 0E       		.uleb128 0xe
 2624 01d0 3A       		.uleb128 0x3a
 2625 01d1 0B       		.uleb128 0xb
 2626 01d2 3B       		.uleb128 0x3b
 2627 01d3 0B       		.uleb128 0xb
 2628 01d4 49       		.uleb128 0x49
 2629 01d5 13       		.uleb128 0x13
 2630 01d6 02       		.uleb128 0x2
 2631 01d7 18       		.uleb128 0x18
 2632 01d8 00       		.byte	0
 2633 01d9 00       		.byte	0
 2634 01da 27       		.uleb128 0x27
 2635 01db 34       		.uleb128 0x34
 2636 01dc 00       		.byte	0
 2637 01dd 03       		.uleb128 0x3
 2638 01de 0E       		.uleb128 0xe
 2639 01df 3A       		.uleb128 0x3a
 2640 01e0 0B       		.uleb128 0xb
 2641 01e1 3B       		.uleb128 0x3b
 2642 01e2 05       		.uleb128 0x5
 2643 01e3 49       		.uleb128 0x49
 2644 01e4 13       		.uleb128 0x13
 2645 01e5 3F       		.uleb128 0x3f
 2646 01e6 19       		.uleb128 0x19
 2647 01e7 3C       		.uleb128 0x3c
 2648 01e8 19       		.uleb128 0x19
 2649 01e9 00       		.byte	0
 2650 01ea 00       		.byte	0
 2651 01eb 28       		.uleb128 0x28
 2652 01ec 34       		.uleb128 0x34
 2653 01ed 00       		.byte	0
 2654 01ee 03       		.uleb128 0x3
 2655 01ef 08       		.uleb128 0x8
 2656 01f0 3A       		.uleb128 0x3a
 2657 01f1 0B       		.uleb128 0xb
 2658 01f2 3B       		.uleb128 0x3b
 2659 01f3 05       		.uleb128 0x5
 2660 01f4 49       		.uleb128 0x49
 2661 01f5 13       		.uleb128 0x13
 2662 01f6 3F       		.uleb128 0x3f
 2663 01f7 19       		.uleb128 0x19
 2664 01f8 3C       		.uleb128 0x3c
 2665 01f9 19       		.uleb128 0x19
 2666 01fa 00       		.byte	0
 2667 01fb 00       		.byte	0
 2668 01fc 29       		.uleb128 0x29
 2669 01fd 34       		.uleb128 0x34
 2670 01fe 00       		.byte	0
 2671 01ff 03       		.uleb128 0x3
 2672 0200 0E       		.uleb128 0xe
 2673 0201 3A       		.uleb128 0x3a
 2674 0202 0B       		.uleb128 0xb
 2675 0203 3B       		.uleb128 0x3b
 2676 0204 0B       		.uleb128 0xb
 2677 0205 49       		.uleb128 0x49
 2678 0206 13       		.uleb128 0x13
 2679 0207 3F       		.uleb128 0x3f
ARM GAS  /tmp/ccmX1IXZ.s 			page 48


 2680 0208 19       		.uleb128 0x19
 2681 0209 3C       		.uleb128 0x3c
 2682 020a 19       		.uleb128 0x19
 2683 020b 00       		.byte	0
 2684 020c 00       		.byte	0
 2685 020d 2A       		.uleb128 0x2a
 2686 020e 2E       		.uleb128 0x2e
 2687 020f 00       		.byte	0
 2688 0210 3F       		.uleb128 0x3f
 2689 0211 19       		.uleb128 0x19
 2690 0212 3C       		.uleb128 0x3c
 2691 0213 19       		.uleb128 0x19
 2692 0214 6E       		.uleb128 0x6e
 2693 0215 0E       		.uleb128 0xe
 2694 0216 03       		.uleb128 0x3
 2695 0217 0E       		.uleb128 0xe
 2696 0218 3A       		.uleb128 0x3a
 2697 0219 0B       		.uleb128 0xb
 2698 021a 3B       		.uleb128 0x3b
 2699 021b 05       		.uleb128 0x5
 2700 021c 00       		.byte	0
 2701 021d 00       		.byte	0
 2702 021e 2B       		.uleb128 0x2b
 2703 021f 2E       		.uleb128 0x2e
 2704 0220 00       		.byte	0
 2705 0221 3F       		.uleb128 0x3f
 2706 0222 19       		.uleb128 0x19
 2707 0223 3C       		.uleb128 0x3c
 2708 0224 19       		.uleb128 0x19
 2709 0225 6E       		.uleb128 0x6e
 2710 0226 0E       		.uleb128 0xe
 2711 0227 03       		.uleb128 0x3
 2712 0228 0E       		.uleb128 0xe
 2713 0229 3A       		.uleb128 0x3a
 2714 022a 0B       		.uleb128 0xb
 2715 022b 3B       		.uleb128 0x3b
 2716 022c 0B       		.uleb128 0xb
 2717 022d 00       		.byte	0
 2718 022e 00       		.byte	0
 2719 022f 00       		.byte	0
 2720              		.section	.debug_loc,"",%progbits
 2721              	.Ldebug_loc0:
 2722              	.LLST0:
 2723 0000 00000000 		.4byte	.LVL0
 2724 0004 06000000 		.4byte	.LVL2
 2725 0008 0100     		.2byte	0x1
 2726 000a 50       		.byte	0x50
 2727 000b 06000000 		.4byte	.LVL2
 2728 000f 1C000000 		.4byte	.LVL6
 2729 0013 0400     		.2byte	0x4
 2730 0015 F3       		.byte	0xf3
 2731 0016 01       		.uleb128 0x1
 2732 0017 50       		.byte	0x50
 2733 0018 9F       		.byte	0x9f
 2734 0019 1C000000 		.4byte	.LVL6
 2735 001d 1E000000 		.4byte	.LVL7
 2736 0021 0100     		.2byte	0x1
ARM GAS  /tmp/ccmX1IXZ.s 			page 49


 2737 0023 50       		.byte	0x50
 2738 0024 1E000000 		.4byte	.LVL7
 2739 0028 28000000 		.4byte	.LFE324
 2740 002c 0400     		.2byte	0x4
 2741 002e F3       		.byte	0xf3
 2742 002f 01       		.uleb128 0x1
 2743 0030 50       		.byte	0x50
 2744 0031 9F       		.byte	0x9f
 2745 0032 00000000 		.4byte	0
 2746 0036 00000000 		.4byte	0
 2747              	.LLST1:
 2748 003a 04000000 		.4byte	.LVL1
 2749 003e 0E000000 		.4byte	.LVL3
 2750 0042 0200     		.2byte	0x2
 2751 0044 30       		.byte	0x30
 2752 0045 9F       		.byte	0x9f
 2753 0046 0E000000 		.4byte	.LVL3
 2754 004a 18000000 		.4byte	.LVL5
 2755 004e 0100     		.2byte	0x1
 2756 0050 54       		.byte	0x54
 2757 0051 00000000 		.4byte	0
 2758 0055 00000000 		.4byte	0
 2759              	.LLST2:
 2760 0059 00000000 		.4byte	.LVL8
 2761 005d 12000000 		.4byte	.LVL10
 2762 0061 0100     		.2byte	0x1
 2763 0063 50       		.byte	0x50
 2764 0064 12000000 		.4byte	.LVL10
 2765 0068 2E000000 		.4byte	.LVL14
 2766 006c 0400     		.2byte	0x4
 2767 006e F3       		.byte	0xf3
 2768 006f 01       		.uleb128 0x1
 2769 0070 50       		.byte	0x50
 2770 0071 9F       		.byte	0x9f
 2771 0072 2E000000 		.4byte	.LVL14
 2772 0076 30000000 		.4byte	.LVL15
 2773 007a 0100     		.2byte	0x1
 2774 007c 50       		.byte	0x50
 2775 007d 30000000 		.4byte	.LVL15
 2776 0081 32000000 		.4byte	.LVL16
 2777 0085 0400     		.2byte	0x4
 2778 0087 F3       		.byte	0xf3
 2779 0088 01       		.uleb128 0x1
 2780 0089 50       		.byte	0x50
 2781 008a 9F       		.byte	0x9f
 2782 008b 32000000 		.4byte	.LVL16
 2783 008f 34000000 		.4byte	.LVL17
 2784 0093 0100     		.2byte	0x1
 2785 0095 50       		.byte	0x50
 2786 0096 34000000 		.4byte	.LVL17
 2787 009a 3C000000 		.4byte	.LFE325
 2788 009e 0400     		.2byte	0x4
 2789 00a0 F3       		.byte	0xf3
 2790 00a1 01       		.uleb128 0x1
 2791 00a2 50       		.byte	0x50
 2792 00a3 9F       		.byte	0x9f
 2793 00a4 00000000 		.4byte	0
ARM GAS  /tmp/ccmX1IXZ.s 			page 50


 2794 00a8 00000000 		.4byte	0
 2795              	.LLST3:
 2796 00ac 00000000 		.4byte	.LVL8
 2797 00b0 12000000 		.4byte	.LVL10
 2798 00b4 0100     		.2byte	0x1
 2799 00b6 51       		.byte	0x51
 2800 00b7 12000000 		.4byte	.LVL10
 2801 00bb 2E000000 		.4byte	.LVL14
 2802 00bf 0100     		.2byte	0x1
 2803 00c1 56       		.byte	0x56
 2804 00c2 2E000000 		.4byte	.LVL14
 2805 00c6 3C000000 		.4byte	.LFE325
 2806 00ca 0100     		.2byte	0x1
 2807 00cc 51       		.byte	0x51
 2808 00cd 00000000 		.4byte	0
 2809 00d1 00000000 		.4byte	0
 2810              	.LLST4:
 2811 00d5 00000000 		.4byte	.LVL8
 2812 00d9 12000000 		.4byte	.LVL10
 2813 00dd 0100     		.2byte	0x1
 2814 00df 52       		.byte	0x52
 2815 00e0 12000000 		.4byte	.LVL10
 2816 00e4 2E000000 		.4byte	.LVL14
 2817 00e8 0100     		.2byte	0x1
 2818 00ea 55       		.byte	0x55
 2819 00eb 2E000000 		.4byte	.LVL14
 2820 00ef 3C000000 		.4byte	.LFE325
 2821 00f3 0100     		.2byte	0x1
 2822 00f5 52       		.byte	0x52
 2823 00f6 00000000 		.4byte	0
 2824 00fa 00000000 		.4byte	0
 2825              	.LLST5:
 2826 00fe 00000000 		.4byte	.LVL8
 2827 0102 0C000000 		.4byte	.LVL9
 2828 0106 0100     		.2byte	0x1
 2829 0108 53       		.byte	0x53
 2830 0109 0C000000 		.4byte	.LVL9
 2831 010d 2E000000 		.4byte	.LVL14
 2832 0111 0100     		.2byte	0x1
 2833 0113 57       		.byte	0x57
 2834 0114 2E000000 		.4byte	.LVL14
 2835 0118 32000000 		.4byte	.LVL16
 2836 011c 0100     		.2byte	0x1
 2837 011e 53       		.byte	0x53
 2838 011f 32000000 		.4byte	.LVL16
 2839 0123 36000000 		.4byte	.LVL18
 2840 0127 0100     		.2byte	0x1
 2841 0129 57       		.byte	0x57
 2842 012a 36000000 		.4byte	.LVL18
 2843 012e 3C000000 		.4byte	.LFE325
 2844 0132 0400     		.2byte	0x4
 2845 0134 F3       		.byte	0xf3
 2846 0135 01       		.uleb128 0x1
 2847 0136 53       		.byte	0x53
 2848 0137 9F       		.byte	0x9f
 2849 0138 00000000 		.4byte	0
 2850 013c 00000000 		.4byte	0
ARM GAS  /tmp/ccmX1IXZ.s 			page 51


 2851              	.LLST6:
 2852 0140 12000000 		.4byte	.LVL10
 2853 0144 22000000 		.4byte	.LVL12
 2854 0148 0500     		.2byte	0x5
 2855 014a 35       		.byte	0x35
 2856 014b 74       		.byte	0x74
 2857 014c 00       		.sleb128 0
 2858 014d 1C       		.byte	0x1c
 2859 014e 9F       		.byte	0x9f
 2860 014f 2C000000 		.4byte	.LVL13
 2861 0153 2E000000 		.4byte	.LVL14
 2862 0157 0500     		.2byte	0x5
 2863 0159 35       		.byte	0x35
 2864 015a 74       		.byte	0x74
 2865 015b 00       		.sleb128 0
 2866 015c 1C       		.byte	0x1c
 2867 015d 9F       		.byte	0x9f
 2868 015e 00000000 		.4byte	0
 2869 0162 00000000 		.4byte	0
 2870              	.LLST7:
 2871 0166 00000000 		.4byte	.LVL19
 2872 016a 12000000 		.4byte	.LVL21
 2873 016e 0100     		.2byte	0x1
 2874 0170 50       		.byte	0x50
 2875 0171 12000000 		.4byte	.LVL21
 2876 0175 2E000000 		.4byte	.LVL25
 2877 0179 0400     		.2byte	0x4
 2878 017b F3       		.byte	0xf3
 2879 017c 01       		.uleb128 0x1
 2880 017d 50       		.byte	0x50
 2881 017e 9F       		.byte	0x9f
 2882 017f 2E000000 		.4byte	.LVL25
 2883 0183 30000000 		.4byte	.LVL26
 2884 0187 0100     		.2byte	0x1
 2885 0189 50       		.byte	0x50
 2886 018a 30000000 		.4byte	.LVL26
 2887 018e 32000000 		.4byte	.LVL27
 2888 0192 0400     		.2byte	0x4
 2889 0194 F3       		.byte	0xf3
 2890 0195 01       		.uleb128 0x1
 2891 0196 50       		.byte	0x50
 2892 0197 9F       		.byte	0x9f
 2893 0198 32000000 		.4byte	.LVL27
 2894 019c 34000000 		.4byte	.LVL28
 2895 01a0 0100     		.2byte	0x1
 2896 01a2 50       		.byte	0x50
 2897 01a3 34000000 		.4byte	.LVL28
 2898 01a7 3C000000 		.4byte	.LFE326
 2899 01ab 0400     		.2byte	0x4
 2900 01ad F3       		.byte	0xf3
 2901 01ae 01       		.uleb128 0x1
 2902 01af 50       		.byte	0x50
 2903 01b0 9F       		.byte	0x9f
 2904 01b1 00000000 		.4byte	0
 2905 01b5 00000000 		.4byte	0
 2906              	.LLST8:
 2907 01b9 00000000 		.4byte	.LVL19
ARM GAS  /tmp/ccmX1IXZ.s 			page 52


 2908 01bd 12000000 		.4byte	.LVL21
 2909 01c1 0100     		.2byte	0x1
 2910 01c3 51       		.byte	0x51
 2911 01c4 12000000 		.4byte	.LVL21
 2912 01c8 2E000000 		.4byte	.LVL25
 2913 01cc 0100     		.2byte	0x1
 2914 01ce 56       		.byte	0x56
 2915 01cf 2E000000 		.4byte	.LVL25
 2916 01d3 3C000000 		.4byte	.LFE326
 2917 01d7 0100     		.2byte	0x1
 2918 01d9 51       		.byte	0x51
 2919 01da 00000000 		.4byte	0
 2920 01de 00000000 		.4byte	0
 2921              	.LLST9:
 2922 01e2 00000000 		.4byte	.LVL19
 2923 01e6 12000000 		.4byte	.LVL21
 2924 01ea 0100     		.2byte	0x1
 2925 01ec 52       		.byte	0x52
 2926 01ed 12000000 		.4byte	.LVL21
 2927 01f1 2E000000 		.4byte	.LVL25
 2928 01f5 0100     		.2byte	0x1
 2929 01f7 55       		.byte	0x55
 2930 01f8 2E000000 		.4byte	.LVL25
 2931 01fc 3C000000 		.4byte	.LFE326
 2932 0200 0100     		.2byte	0x1
 2933 0202 52       		.byte	0x52
 2934 0203 00000000 		.4byte	0
 2935 0207 00000000 		.4byte	0
 2936              	.LLST10:
 2937 020b 00000000 		.4byte	.LVL19
 2938 020f 0C000000 		.4byte	.LVL20
 2939 0213 0100     		.2byte	0x1
 2940 0215 53       		.byte	0x53
 2941 0216 0C000000 		.4byte	.LVL20
 2942 021a 2E000000 		.4byte	.LVL25
 2943 021e 0100     		.2byte	0x1
 2944 0220 57       		.byte	0x57
 2945 0221 2E000000 		.4byte	.LVL25
 2946 0225 32000000 		.4byte	.LVL27
 2947 0229 0100     		.2byte	0x1
 2948 022b 53       		.byte	0x53
 2949 022c 32000000 		.4byte	.LVL27
 2950 0230 36000000 		.4byte	.LVL29
 2951 0234 0100     		.2byte	0x1
 2952 0236 57       		.byte	0x57
 2953 0237 36000000 		.4byte	.LVL29
 2954 023b 3C000000 		.4byte	.LFE326
 2955 023f 0400     		.2byte	0x4
 2956 0241 F3       		.byte	0xf3
 2957 0242 01       		.uleb128 0x1
 2958 0243 53       		.byte	0x53
 2959 0244 9F       		.byte	0x9f
 2960 0245 00000000 		.4byte	0
 2961 0249 00000000 		.4byte	0
 2962              	.LLST11:
 2963 024d 12000000 		.4byte	.LVL21
 2964 0251 22000000 		.4byte	.LVL23
ARM GAS  /tmp/ccmX1IXZ.s 			page 53


 2965 0255 0500     		.2byte	0x5
 2966 0257 35       		.byte	0x35
 2967 0258 74       		.byte	0x74
 2968 0259 00       		.sleb128 0
 2969 025a 1C       		.byte	0x1c
 2970 025b 9F       		.byte	0x9f
 2971 025c 2C000000 		.4byte	.LVL24
 2972 0260 2E000000 		.4byte	.LVL25
 2973 0264 0500     		.2byte	0x5
 2974 0266 35       		.byte	0x35
 2975 0267 74       		.byte	0x74
 2976 0268 00       		.sleb128 0
 2977 0269 1C       		.byte	0x1c
 2978 026a 9F       		.byte	0x9f
 2979 026b 00000000 		.4byte	0
 2980 026f 00000000 		.4byte	0
 2981              	.LLST12:
 2982 0273 00000000 		.4byte	.LVL30
 2983 0277 1C000000 		.4byte	.LVL31
 2984 027b 0100     		.2byte	0x1
 2985 027d 50       		.byte	0x50
 2986 027e 1C000000 		.4byte	.LVL31
 2987 0282 24000000 		.4byte	.LFE327
 2988 0286 0400     		.2byte	0x4
 2989 0288 F3       		.byte	0xf3
 2990 0289 01       		.uleb128 0x1
 2991 028a 50       		.byte	0x50
 2992 028b 9F       		.byte	0x9f
 2993 028c 00000000 		.4byte	0
 2994 0290 00000000 		.4byte	0
 2995              		.section	.debug_aranges,"",%progbits
 2996 0000 34000000 		.4byte	0x34
 2997 0004 0200     		.2byte	0x2
 2998 0006 00000000 		.4byte	.Ldebug_info0
 2999 000a 04       		.byte	0x4
 3000 000b 00       		.byte	0
 3001 000c 0000     		.2byte	0
 3002 000e 0000     		.2byte	0
 3003 0010 00000000 		.4byte	.LFB324
 3004 0014 28000000 		.4byte	.LFE324-.LFB324
 3005 0018 00000000 		.4byte	.LFB325
 3006 001c 3C000000 		.4byte	.LFE325-.LFB325
 3007 0020 00000000 		.4byte	.LFB326
 3008 0024 3C000000 		.4byte	.LFE326-.LFB326
 3009 0028 00000000 		.4byte	.LFB327
 3010 002c 24000000 		.4byte	.LFE327-.LFB327
 3011 0030 00000000 		.4byte	0
 3012 0034 00000000 		.4byte	0
 3013              		.section	.debug_ranges,"",%progbits
 3014              	.Ldebug_ranges0:
 3015 0000 12000000 		.4byte	.LBB2
 3016 0004 2A000000 		.4byte	.LBE2
 3017 0008 2C000000 		.4byte	.LBB3
 3018 000c 2E000000 		.4byte	.LBE3
 3019 0010 00000000 		.4byte	0
 3020 0014 00000000 		.4byte	0
 3021 0018 12000000 		.4byte	.LBB4
ARM GAS  /tmp/ccmX1IXZ.s 			page 54


 3022 001c 2A000000 		.4byte	.LBE4
 3023 0020 2C000000 		.4byte	.LBB5
 3024 0024 2E000000 		.4byte	.LBE5
 3025 0028 00000000 		.4byte	0
 3026 002c 00000000 		.4byte	0
 3027 0030 00000000 		.4byte	.LFB324
 3028 0034 28000000 		.4byte	.LFE324
 3029 0038 00000000 		.4byte	.LFB325
 3030 003c 3C000000 		.4byte	.LFE325
 3031 0040 00000000 		.4byte	.LFB326
 3032 0044 3C000000 		.4byte	.LFE326
 3033 0048 00000000 		.4byte	.LFB327
 3034 004c 24000000 		.4byte	.LFE327
 3035 0050 00000000 		.4byte	0
 3036 0054 00000000 		.4byte	0
 3037              		.section	.debug_line,"",%progbits
 3038              	.Ldebug_line0:
 3039 0000 05040000 		.section	.debug_str,"MS",%progbits,1
 3039      02007B03 
 3039      00000201 
 3039      FB0E0D00 
 3039      01010101 
 3040              	.LASF147:
 3041 0000 426C6F63 		.ascii	"BlockDeviceInfo\000"
 3041      6B446576 
 3041      69636549 
 3041      6E666F00 
 3042              	.LASF84:
 3043 0010 52455350 		.ascii	"RESP1\000"
 3043      3100
 3044              	.LASF85:
 3045 0016 52455350 		.ascii	"RESP2\000"
 3045      3200
 3046              	.LASF86:
 3047 001c 52455350 		.ascii	"RESP3\000"
 3047      3300
 3048              	.LASF54:
 3049 0022 72656164 		.ascii	"ready_list_t\000"
 3049      795F6C69 
 3049      73745F74 
 3049      00
 3050              	.LASF78:
 3051 002f 4D304152 		.ascii	"M0AR\000"
 3051      00
 3052              	.LASF4:
 3053 0034 73697A65 		.ascii	"size_t\000"
 3053      5F7400
 3054              	.LASF146:
 3055 003b 626C6B5F 		.ascii	"blk_num\000"
 3055      6E756D00 
 3056              	.LASF60:
 3057 0043 64656C74 		.ascii	"delta\000"
 3057      6100
 3058              	.LASF114:
 3059 0049 7264796D 		.ascii	"rdymsg\000"
 3059      736700
 3060              	.LASF201:
ARM GAS  /tmp/ccmX1IXZ.s 			page 55


 3061 0050 474E5520 		.ascii	"GNU C11 5.4.1 20160919 -mcpu=cortex-m4 -mfloat-abi="
 3061      43313120 
 3061      352E342E 
 3061      31203230 
 3061      31363039 
 3062 0083 68617264 		.ascii	"hard -mfpu=fpv4-sp-d16 -mno-thumb-interwork -mthumb"
 3062      202D6D66 
 3062      70753D66 
 3062      7076342D 
 3062      73702D64 
 3063 00b6 202D6720 		.ascii	" -g -Os -fomit-frame-pointer -falign-functions=16 -"
 3063      2D4F7320 
 3063      2D666F6D 
 3063      69742D66 
 3063      72616D65 
 3064 00e9 6666756E 		.ascii	"ffunction-sections -fdata-sections -fno-common -fsi"
 3064      6374696F 
 3064      6E2D7365 
 3064      6374696F 
 3064      6E73202D 
 3065 011c 6E676C65 		.ascii	"ngle-precision-constant\000"
 3065      2D707265 
 3065      63697369 
 3065      6F6E2D63 
 3065      6F6E7374 
 3066              	.LASF18:
 3067 0134 75696E74 		.ascii	"uint64_t\000"
 3067      36345F74 
 3067      00
 3068              	.LASF170:
 3069 013d 69735F70 		.ascii	"is_protected\000"
 3069      726F7465 
 3069      63746564 
 3069      00
 3070              	.LASF5:
 3071 014a 5F5F7569 		.ascii	"__uint8_t\000"
 3071      6E74385F 
 3071      7400
 3072              	.LASF53:
 3073 0154 70726576 		.ascii	"prev\000"
 3073      00
 3074              	.LASF101:
 3075 0159 706F7274 		.ascii	"port_intctx\000"
 3075      5F696E74 
 3075      63747800 
 3076              	.LASF52:
 3077 0165 63685F74 		.ascii	"ch_threads_queue\000"
 3077      68726561 
 3077      64735F71 
 3077      75657565 
 3077      00
 3078              	.LASF65:
 3079 0176 73797374 		.ascii	"system_debug_t\000"
 3079      656D5F64 
 3079      65627567 
 3079      5F7400
 3080              	.LASF184:
ARM GAS  /tmp/ccmX1IXZ.s 			page 56


 3081 0185 5245535F 		.ascii	"RES_NOTRDY\000"
 3081      4E4F5452 
 3081      445900
 3082              	.LASF155:
 3083 0190 63617061 		.ascii	"capacity\000"
 3083      63697479 
 3083      00
 3084              	.LASF161:
 3085 0199 7364696F 		.ascii	"sdio\000"
 3085      00
 3086              	.LASF128:
 3087 019e 73747265 		.ascii	"stream\000"
 3087      616D00
 3088              	.LASF105:
 3089 01a5 776F7273 		.ascii	"worst\000"
 3089      7400
 3090              	.LASF108:
 3091 01ab 74696D65 		.ascii	"time_measurement_t\000"
 3091      5F6D6561 
 3091      73757265 
 3091      6D656E74 
 3091      5F7400
 3092              	.LASF14:
 3093 01be 6C6F6E67 		.ascii	"long long unsigned int\000"
 3093      206C6F6E 
 3093      6720756E 
 3093      7369676E 
 3093      65642069 
 3094              	.LASF115:
 3095 01d5 65786974 		.ascii	"exitcode\000"
 3095      636F6465 
 3095      00
 3096              	.LASF72:
 3097 01de 6D61696E 		.ascii	"mainthread\000"
 3097      74687265 
 3097      616400
 3098              	.LASF157:
 3099 01e9 63617264 		.ascii	"cardmode\000"
 3099      6D6F6465 
 3099      00
 3100              	.LASF62:
 3101 01f2 76697274 		.ascii	"virtual_timers_list_t\000"
 3101      75616C5F 
 3101      74696D65 
 3101      72735F6C 
 3101      6973745F 
 3102              	.LASF196:
 3103 0208 49544D5F 		.ascii	"ITM_RxBuffer\000"
 3103      52784275 
 3103      66666572 
 3103      00
 3104              	.LASF144:
 3105 0215 626C6B73 		.ascii	"blkstate_t\000"
 3105      74617465 
 3105      5F7400
 3106              	.LASF20:
 3107 0220 72747469 		.ascii	"rttime_t\000"
ARM GAS  /tmp/ccmX1IXZ.s 			page 57


 3107      6D655F74 
 3107      00
 3108              	.LASF77:
 3109 0229 4E445452 		.ascii	"NDTR\000"
 3109      00
 3110              	.LASF142:
 3111 022e 424C4B5F 		.ascii	"BLK_WRITING\000"
 3111      57524954 
 3111      494E4700 
 3112              	.LASF193:
 3113 023a 73746174 		.ascii	"stat\000"
 3113      00
 3114              	.LASF1:
 3115 023f 6C6F6E67 		.ascii	"long long int\000"
 3115      206C6F6E 
 3115      6720696E 
 3115      7400
 3116              	.LASF3:
 3117 024d 7369676E 		.ascii	"signed char\000"
 3117      65642063 
 3117      68617200 
 3118              	.LASF148:
 3119 0259 5344435F 		.ascii	"SDC_MODE_1BIT\000"
 3119      4D4F4445 
 3119      5F314249 
 3119      5400
 3120              	.LASF190:
 3121 0267 62756666 		.ascii	"buff\000"
 3121      00
 3122              	.LASF172:
 3123 026c 64697363 		.ascii	"disconnect\000"
 3123      6F6E6E65 
 3123      637400
 3124              	.LASF71:
 3125 0277 76746C69 		.ascii	"vtlist\000"
 3125      737400
 3126              	.LASF136:
 3127 027e 424C4B5F 		.ascii	"BLK_STOP\000"
 3127      53544F50 
 3127      00
 3128              	.LASF40:
 3129 0287 6D736771 		.ascii	"msgqueue\000"
 3129      75657565 
 3129      00
 3130              	.LASF36:
 3131 0290 73746174 		.ascii	"state\000"
 3131      6500
 3132              	.LASF10:
 3133 0296 6C6F6E67 		.ascii	"long int\000"
 3133      20696E74 
 3133      00
 3134              	.LASF91:
 3135 029f 44434F55 		.ascii	"DCOUNT\000"
 3135      4E5400
 3136              	.LASF177:
 3137 02a6 55494E54 		.ascii	"UINT\000"
 3137      00
ARM GAS  /tmp/ccmX1IXZ.s 			page 58


 3138              	.LASF22:
 3139 02ab 74737461 		.ascii	"tstate_t\000"
 3139      74655F74 
 3139      00
 3140              	.LASF185:
 3141 02b4 5245535F 		.ascii	"RES_PARERR\000"
 3141      50415245 
 3141      525200
 3142              	.LASF61:
 3143 02bf 66756E63 		.ascii	"func\000"
 3143      00
 3144              	.LASF45:
 3145 02c4 73746174 		.ascii	"stats\000"
 3145      7300
 3146              	.LASF179:
 3147 02ca 44574F52 		.ascii	"DWORD\000"
 3147      4400
 3148              	.LASF87:
 3149 02d0 52455350 		.ascii	"RESP4\000"
 3149      3400
 3150              	.LASF176:
 3151 02d6 6765745F 		.ascii	"get_info\000"
 3151      696E666F 
 3151      00
 3152              	.LASF11:
 3153 02df 5F5F7569 		.ascii	"__uint32_t\000"
 3153      6E743332 
 3153      5F7400
 3154              	.LASF98:
 3155 02ea 72656761 		.ascii	"regarm_t\000"
 3155      726D5F74 
 3155      00
 3156              	.LASF132:
 3157 02f3 73656C66 		.ascii	"selfindex\000"
 3157      696E6465 
 3157      7800
 3158              	.LASF130:
 3159 02fd 64756D6D 		.ascii	"dummy\000"
 3159      7900
 3160              	.LASF189:
 3161 0303 70647276 		.ascii	"pdrv\000"
 3161      00
 3162              	.LASF145:
 3163 0308 626C6B5F 		.ascii	"blk_size\000"
 3163      73697A65 
 3163      00
 3164              	.LASF178:
 3165 0311 42595445 		.ascii	"BYTE\000"
 3165      00
 3166              	.LASF152:
 3167 0316 7364636D 		.ascii	"sdcmode_t\000"
 3167      6F64655F 
 3167      7400
 3168              	.LASF126:
 3169 0320 6D757465 		.ascii	"mutex_t\000"
 3169      785F7400 
 3170              	.LASF92:
ARM GAS  /tmp/ccmX1IXZ.s 			page 59


 3171 0328 4D41534B 		.ascii	"MASK\000"
 3171      00
 3172              	.LASF75:
 3173 032d 73797369 		.ascii	"sysinterval_t\000"
 3173      6E746572 
 3173      76616C5F 
 3173      7400
 3174              	.LASF27:
 3175 033b 636E745F 		.ascii	"cnt_t\000"
 3175      7400
 3176              	.LASF0:
 3177 0341 756E7369 		.ascii	"unsigned int\000"
 3177      676E6564 
 3177      20696E74 
 3177      00
 3178              	.LASF119:
 3179 034e 77747365 		.ascii	"wtsemp\000"
 3179      6D7000
 3180              	.LASF158:
 3181 0355 6572726F 		.ascii	"errors\000"
 3181      727300
 3182              	.LASF153:
 3183 035c 73646366 		.ascii	"sdcflags_t\000"
 3183      6C616773 
 3183      5F7400
 3184              	.LASF117:
 3185 0367 77747472 		.ascii	"wttrp\000"
 3185      7000
 3186              	.LASF162:
 3187 036d 626F756E 		.ascii	"bouncebuffer\000"
 3187      63656275 
 3187      66666572 
 3187      00
 3188              	.LASF187:
 3189 037a 6469736B 		.ascii	"disk_status\000"
 3189      5F737461 
 3189      74757300 
 3190              	.LASF109:
 3191 0386 6E5F6972 		.ascii	"n_irq\000"
 3191      7100
 3192              	.LASF30:
 3193 038c 71756575 		.ascii	"queue\000"
 3193      6500
 3194              	.LASF150:
 3195 0392 5344435F 		.ascii	"SDC_MODE_8BIT\000"
 3195      4D4F4445 
 3195      5F384249 
 3195      5400
 3196              	.LASF8:
 3197 03a0 73686F72 		.ascii	"short unsigned int\000"
 3197      7420756E 
 3197      7369676E 
 3197      65642069 
 3197      6E7400
 3198              	.LASF113:
 3199 03b3 6B65726E 		.ascii	"kernel_stats_t\000"
 3199      656C5F73 
ARM GAS  /tmp/ccmX1IXZ.s 			page 60


 3199      74617473 
 3199      5F7400
 3200              	.LASF137:
 3201 03c2 424C4B5F 		.ascii	"BLK_ACTIVE\000"
 3201      41435449 
 3201      564500
 3202              	.LASF48:
 3203 03cd 63685F74 		.ascii	"ch_thread\000"
 3203      68726561 
 3203      6400
 3204              	.LASF198:
 3205 03d7 7364635F 		.ascii	"sdc_lld_is_write_protected\000"
 3205      6C6C645F 
 3205      69735F77 
 3205      72697465 
 3205      5F70726F 
 3206              	.LASF34:
 3207 03f2 6E616D65 		.ascii	"name\000"
 3207      00
 3208              	.LASF25:
 3209 03f7 6D73675F 		.ascii	"msg_t\000"
 3209      7400
 3210              	.LASF106:
 3211 03fd 6C617374 		.ascii	"last\000"
 3211      00
 3212              	.LASF96:
 3213 0402 4649464F 		.ascii	"FIFO\000"
 3213      00
 3214              	.LASF28:
 3215 0407 75636E74 		.ascii	"ucnt_t\000"
 3215      5F7400
 3216              	.LASF41:
 3217 040e 6570656E 		.ascii	"epending\000"
 3217      64696E67 
 3217      00
 3218              	.LASF138:
 3219 0417 424C4B5F 		.ascii	"BLK_CONNECTING\000"
 3219      434F4E4E 
 3219      45435449 
 3219      4E4700
 3220              	.LASF68:
 3221 0426 63685F73 		.ascii	"ch_system_t\000"
 3221      79737465 
 3221      6D5F7400 
 3222              	.LASF21:
 3223 0432 746D6F64 		.ascii	"tmode_t\000"
 3223      655F7400 
 3224              	.LASF83:
 3225 043a 52455350 		.ascii	"RESPCMD\000"
 3225      434D4400 
 3226              	.LASF191:
 3227 0442 73656374 		.ascii	"sector\000"
 3227      6F7200
 3228              	.LASF112:
 3229 0449 6D5F6372 		.ascii	"m_crit_isr\000"
 3229      69745F69 
 3229      737200
ARM GAS  /tmp/ccmX1IXZ.s 			page 61


 3230              	.LASF55:
 3231 0454 63685F72 		.ascii	"ch_ready_list\000"
 3231      65616479 
 3231      5F6C6973 
 3231      7400
 3232              	.LASF26:
 3233 0462 6576656E 		.ascii	"eventmask_t\000"
 3233      746D6173 
 3233      6B5F7400 
 3234              	.LASF9:
 3235 046e 5F5F696E 		.ascii	"__int32_t\000"
 3235      7433325F 
 3235      7400
 3236              	.LASF175:
 3237 0478 73796E63 		.ascii	"sync\000"
 3237      00
 3238              	.LASF195:
 3239 047d 6469736B 		.ascii	"disk_ioctl\000"
 3239      5F696F63 
 3239      746C00
 3240              	.LASF99:
 3241 0488 73746B61 		.ascii	"stkalign_t\000"
 3241      6C69676E 
 3241      5F7400
 3242              	.LASF32:
 3243 0493 6E657765 		.ascii	"newer\000"
 3243      7200
 3244              	.LASF89:
 3245 0499 444C454E 		.ascii	"DLEN\000"
 3245      00
 3246              	.LASF174:
 3247 049e 77726974 		.ascii	"write\000"
 3247      6500
 3248              	.LASF188:
 3249 04a4 6469736B 		.ascii	"disk_read\000"
 3249      5F726561 
 3249      6400
 3250              	.LASF43:
 3251 04ae 7265616C 		.ascii	"realprio\000"
 3251      7072696F 
 3251      00
 3252              	.LASF151:
 3253 04b7 73646362 		.ascii	"sdcbusmode_t\000"
 3253      75736D6F 
 3253      64655F74 
 3253      00
 3254              	.LASF141:
 3255 04c4 424C4B5F 		.ascii	"BLK_READING\000"
 3255      52454144 
 3255      494E4700 
 3256              	.LASF76:
 3257 04d0 73697A65 		.ascii	"sizetype\000"
 3257      74797065 
 3257      00
 3258              	.LASF46:
 3259 04d9 74687265 		.ascii	"thread_reference_t\000"
 3259      61645F72 
ARM GAS  /tmp/ccmX1IXZ.s 			page 62


 3259      65666572 
 3259      656E6365 
 3259      5F7400
 3260              	.LASF63:
 3261 04ec 63685F76 		.ascii	"ch_virtual_timers_list\000"
 3261      69727475 
 3261      616C5F74 
 3261      696D6572 
 3261      735F6C69 
 3262              	.LASF94:
 3263 0503 4649464F 		.ascii	"FIFOCNT\000"
 3263      434E5400 
 3264              	.LASF2:
 3265 050b 6C6F6E67 		.ascii	"long double\000"
 3265      20646F75 
 3265      626C6500 
 3266              	.LASF183:
 3267 0517 5245535F 		.ascii	"RES_WRPRT\000"
 3267      57525052 
 3267      5400
 3268              	.LASF192:
 3269 0521 636F756E 		.ascii	"count\000"
 3269      7400
 3270              	.LASF81:
 3271 0527 504F5745 		.ascii	"POWER\000"
 3271      5200
 3272              	.LASF181:
 3273 052d 5245535F 		.ascii	"RES_OK\000"
 3273      4F4B00
 3274              	.LASF200:
 3275 0534 73646357 		.ascii	"sdcWrite\000"
 3275      72697465 
 3275      00
 3276              	.LASF140:
 3277 053d 424C4B5F 		.ascii	"BLK_READY\000"
 3277      52454144 
 3277      5900
 3278              	.LASF100:
 3279 0547 706F7274 		.ascii	"port_context\000"
 3279      5F636F6E 
 3279      74657874 
 3279      00
 3280              	.LASF90:
 3281 0554 44435452 		.ascii	"DCTRL\000"
 3281      4C00
 3282              	.LASF103:
 3283 055a 746D5F63 		.ascii	"tm_calibration_t\000"
 3283      616C6962 
 3283      72617469 
 3283      6F6E5F74 
 3283      00
 3284              	.LASF31:
 3285 056b 7072696F 		.ascii	"prio\000"
 3285      00
 3286              	.LASF199:
 3287 0570 73646352 		.ascii	"sdcRead\000"
 3287      65616400 
ARM GAS  /tmp/ccmX1IXZ.s 			page 63


 3288              	.LASF131:
 3289 0578 73686966 		.ascii	"shift\000"
 3289      7400
 3290              	.LASF13:
 3291 057e 5F5F7569 		.ascii	"__uint64_t\000"
 3291      6E743634 
 3291      5F7400
 3292              	.LASF107:
 3293 0589 63756D75 		.ascii	"cumulative\000"
 3293      6C617469 
 3293      766500
 3294              	.LASF82:
 3295 0594 434C4B43 		.ascii	"CLKCR\000"
 3295      5200
 3296              	.LASF23:
 3297 059a 74726566 		.ascii	"trefs_t\000"
 3297      735F7400 
 3298              	.LASF93:
 3299 05a2 52455345 		.ascii	"RESERVED0\000"
 3299      52564544 
 3299      3000
 3300              	.LASF95:
 3301 05ac 52455345 		.ascii	"RESERVED1\000"
 3301      52564544 
 3301      3100
 3302              	.LASF38:
 3303 05b6 72656673 		.ascii	"refs\000"
 3303      00
 3304              	.LASF58:
 3305 05bb 76697274 		.ascii	"virtual_timer_t\000"
 3305      75616C5F 
 3305      74696D65 
 3305      725F7400 
 3306              	.LASF197:
 3307 05cb 53444344 		.ascii	"SDCD1\000"
 3307      3100
 3308              	.LASF134:
 3309 05d1 73746D33 		.ascii	"stm32_dma_stream_t\000"
 3309      325F646D 
 3309      615F7374 
 3309      7265616D 
 3309      5F7400
 3310              	.LASF24:
 3311 05e4 74707269 		.ascii	"tprio_t\000"
 3311      6F5F7400 
 3312              	.LASF159:
 3313 05ec 74687265 		.ascii	"thread\000"
 3313      616400
 3314              	.LASF110:
 3315 05f3 6E5F6374 		.ascii	"n_ctxswc\000"
 3315      78737763 
 3315      00
 3316              	.LASF127:
 3317 05fc 5F426F6F 		.ascii	"_Bool\000"
 3317      6C00
 3318              	.LASF16:
 3319 0602 696E7433 		.ascii	"int32_t\000"
ARM GAS  /tmp/ccmX1IXZ.s 			page 64


 3319      325F7400 
 3320              	.LASF6:
 3321 060a 756E7369 		.ascii	"unsigned char\000"
 3321      676E6564 
 3321      20636861 
 3321      7200
 3322              	.LASF7:
 3323 0618 73686F72 		.ascii	"short int\000"
 3323      7420696E 
 3323      7400
 3324              	.LASF180:
 3325 0622 44535441 		.ascii	"DSTATUS\000"
 3325      54555300 
 3326              	.LASF64:
 3327 062a 6C617374 		.ascii	"lasttime\000"
 3327      74696D65 
 3327      00
 3328              	.LASF163:
 3329 0633 73637261 		.ascii	"scratchpad\000"
 3329      74636870 
 3329      616400
 3330              	.LASF121:
 3331 063e 65776D61 		.ascii	"ewmask\000"
 3331      736B00
 3332              	.LASF69:
 3333 0645 63685F73 		.ascii	"ch_system\000"
 3333      79737465 
 3333      6D00
 3334              	.LASF167:
 3335 064f 53444344 		.ascii	"SDCDriverVMT\000"
 3335      72697665 
 3335      72564D54 
 3335      00
 3336              	.LASF202:
 3337 065c 2E2E2F2E 		.ascii	"../../modules/ChibiOS/os/various/fatfs_bindings/fat"
 3337      2E2F6D6F 
 3337      64756C65 
 3337      732F4368 
 3337      6962694F 
 3338 068f 66735F64 		.ascii	"fs_diskio.c\000"
 3338      69736B69 
 3338      6F2E6300 
 3339              	.LASF97:
 3340 069b 5344494F 		.ascii	"SDIO_TypeDef\000"
 3340      5F547970 
 3340      65446566 
 3340      00
 3341              	.LASF135:
 3342 06a8 424C4B5F 		.ascii	"BLK_UNINIT\000"
 3342      554E494E 
 3342      495400
 3343              	.LASF59:
 3344 06b3 63685F76 		.ascii	"ch_virtual_timer\000"
 3344      69727475 
 3344      616C5F74 
 3344      696D6572 
 3344      00
ARM GAS  /tmp/ccmX1IXZ.s 			page 65


 3345              	.LASF122:
 3346 06c4 63685F73 		.ascii	"ch_semaphore\000"
 3346      656D6170 
 3346      686F7265 
 3346      00
 3347              	.LASF171:
 3348 06d1 636F6E6E 		.ascii	"connect\000"
 3348      65637400 
 3349              	.LASF129:
 3350 06d9 69666372 		.ascii	"ifcr\000"
 3350      00
 3351              	.LASF203:
 3352 06de 2F686F6D 		.ascii	"/home/user/csse4011/project/4011-surfbee/ardupilot/"
 3352      652F7573 
 3352      65722F63 
 3352      73736534 
 3352      3031312F 
 3353 0711 6275696C 		.ascii	"build/stm32l475\000"
 3353      642F7374 
 3353      6D33326C 
 3353      34373500 
 3354              	.LASF120:
 3355 0721 77746D74 		.ascii	"wtmtxp\000"
 3355      787000
 3356              	.LASF49:
 3357 0728 63685F74 		.ascii	"ch_threads_list\000"
 3357      68726561 
 3357      64735F6C 
 3357      69737400 
 3358              	.LASF124:
 3359 0738 6F776E65 		.ascii	"owner\000"
 3359      7200
 3360              	.LASF186:
 3361 073e 44524553 		.ascii	"DRESULT\000"
 3361      554C5400 
 3362              	.LASF12:
 3363 0746 6C6F6E67 		.ascii	"long unsigned int\000"
 3363      20756E73 
 3363      69676E65 
 3363      6420696E 
 3363      7400
 3364              	.LASF35:
 3365 0758 77616261 		.ascii	"wabase\000"
 3365      736500
 3366              	.LASF173:
 3367 075f 72656164 		.ascii	"read\000"
 3367      00
 3368              	.LASF125:
 3369 0764 63686172 		.ascii	"char\000"
 3369      00
 3370              	.LASF33:
 3371 0769 6F6C6465 		.ascii	"older\000"
 3371      7200
 3372              	.LASF139:
 3373 076f 424C4B5F 		.ascii	"BLK_DISCONNECTING\000"
 3373      44495343 
 3373      4F4E4E45 
ARM GAS  /tmp/ccmX1IXZ.s 			page 66


 3373      4354494E 
 3373      4700
 3374              	.LASF156:
 3375 0781 636F6E66 		.ascii	"config\000"
 3375      696700
 3376              	.LASF29:
 3377 0788 74687265 		.ascii	"thread_t\000"
 3377      61645F74 
 3377      00
 3378              	.LASF104:
 3379 0791 62657374 		.ascii	"best\000"
 3379      00
 3380              	.LASF74:
 3381 0796 73797374 		.ascii	"systime_t\000"
 3381      696D655F 
 3381      7400
 3382              	.LASF57:
 3383 07a0 76746675 		.ascii	"vtfunc_t\000"
 3383      6E635F74 
 3383      00
 3384              	.LASF88:
 3385 07a9 4454494D 		.ascii	"DTIMER\000"
 3385      455200
 3386              	.LASF67:
 3387 07b0 70616E69 		.ascii	"panic_msg\000"
 3387      635F6D73 
 3387      6700
 3388              	.LASF39:
 3389 07ba 77616974 		.ascii	"waiting\000"
 3389      696E6700 
 3390              	.LASF102:
 3391 07c2 6F666673 		.ascii	"offset\000"
 3391      657400
 3392              	.LASF80:
 3393 07c9 444D415F 		.ascii	"DMA_Stream_TypeDef\000"
 3393      53747265 
 3393      616D5F54 
 3393      79706544 
 3393      656600
 3394              	.LASF149:
 3395 07dc 5344435F 		.ascii	"SDC_MODE_4BIT\000"
 3395      4D4F4445 
 3395      5F344249 
 3395      5400
 3396              	.LASF73:
 3397 07ea 6B65726E 		.ascii	"kernel_stats\000"
 3397      656C5F73 
 3397      74617473 
 3397      00
 3398              	.LASF194:
 3399 07f7 6469736B 		.ascii	"disk_write\000"
 3399      5F777269 
 3399      746500
 3400              	.LASF19:
 3401 0802 7274636E 		.ascii	"rtcnt_t\000"
 3401      745F7400 
 3402              	.LASF169:
ARM GAS  /tmp/ccmX1IXZ.s 			page 67


 3403 080a 69735F69 		.ascii	"is_inserted\000"
 3403      6E736572 
 3403      74656400 
 3404              	.LASF79:
 3405 0816 4D314152 		.ascii	"M1AR\000"
 3405      00
 3406              	.LASF56:
 3407 081b 63757272 		.ascii	"current\000"
 3407      656E7400 
 3408              	.LASF17:
 3409 0823 75696E74 		.ascii	"uint32_t\000"
 3409      33325F74 
 3409      00
 3410              	.LASF44:
 3411 082c 6D706F6F 		.ascii	"mpool\000"
 3411      6C00
 3412              	.LASF51:
 3413 0832 74687265 		.ascii	"threads_queue_t\000"
 3413      6164735F 
 3413      71756575 
 3413      655F7400 
 3414              	.LASF123:
 3415 0842 63685F6D 		.ascii	"ch_mutex\000"
 3415      75746578 
 3415      00
 3416              	.LASF143:
 3417 084b 424C4B5F 		.ascii	"BLK_SYNCING\000"
 3417      53594E43 
 3417      494E4700 
 3418              	.LASF166:
 3419 0857 53444343 		.ascii	"SDCConfig\000"
 3419      6F6E6669 
 3419      6700
 3420              	.LASF70:
 3421 0861 726C6973 		.ascii	"rlist\000"
 3421      7400
 3422              	.LASF15:
 3423 0867 75696E74 		.ascii	"uint8_t\000"
 3423      385F7400 
 3424              	.LASF37:
 3425 086f 666C6167 		.ascii	"flags\000"
 3425      7300
 3426              	.LASF160:
 3427 0875 646D616D 		.ascii	"dmamode\000"
 3427      6F646500 
 3428              	.LASF116:
 3429 087d 77746F62 		.ascii	"wtobjp\000"
 3429      6A7000
 3430              	.LASF182:
 3431 0884 5245535F 		.ascii	"RES_ERROR\000"
 3431      4552524F 
 3431      5200
 3432              	.LASF50:
 3433 088e 6E657874 		.ascii	"next\000"
 3433      00
 3434              	.LASF47:
 3435 0893 74687265 		.ascii	"threads_list_t\000"
ARM GAS  /tmp/ccmX1IXZ.s 			page 68


 3435      6164735F 
 3435      6C697374 
 3435      5F7400
 3436              	.LASF164:
 3437 08a2 6275735F 		.ascii	"bus_width\000"
 3437      77696474 
 3437      6800
 3438              	.LASF66:
 3439 08ac 63685F73 		.ascii	"ch_system_debug\000"
 3439      79737465 
 3439      6D5F6465 
 3439      62756700 
 3440              	.LASF168:
 3441 08bc 696E7374 		.ascii	"instance_offset\000"
 3441      616E6365 
 3441      5F6F6666 
 3441      73657400 
 3442              	.LASF42:
 3443 08cc 6D74786C 		.ascii	"mtxlist\000"
 3443      69737400 
 3444              	.LASF118:
 3445 08d4 73656E74 		.ascii	"sentmsg\000"
 3445      6D736700 
 3446              	.LASF111:
 3447 08dc 6D5F6372 		.ascii	"m_crit_thd\000"
 3447      69745F74 
 3447      686400
 3448              	.LASF204:
 3449 08e7 626F756E 		.ascii	"bouncebuffer_t\000"
 3449      63656275 
 3449      66666572 
 3449      5F7400
 3450              	.LASF154:
 3451 08f6 53444344 		.ascii	"SDCDriver\000"
 3451      72697665 
 3451      7200
 3452              	.LASF133:
 3453 0900 76656374 		.ascii	"vector\000"
 3453      6F7200
 3454              	.LASF165:
 3455 0907 736C6F77 		.ascii	"slowdown\000"
 3455      646F776E 
 3455      00
 3456              		.ident	"GCC: (15:5.4.1+svn241155-1) 5.4.1 20160919"
ARM GAS  /tmp/ccmX1IXZ.s 			page 69


DEFINED SYMBOLS
                            *ABS*:0000000000000000 fatfs_diskio.c
     /tmp/ccmX1IXZ.s:22     .text.disk_status:0000000000000000 $t
     /tmp/ccmX1IXZ.s:27     .text.disk_status:0000000000000000 disk_status
     /tmp/ccmX1IXZ.s:72     .text.disk_status:0000000000000024 $d
     /tmp/ccmX1IXZ.s:77     .text.disk_initialize:0000000000000000 $t
     /tmp/ccmX1IXZ.s:82     .text.disk_initialize:0000000000000000 disk_initialize
     /tmp/ccmX1IXZ.s:93     .text.disk_read:0000000000000000 $t
     /tmp/ccmX1IXZ.s:98     .text.disk_read:0000000000000000 disk_read
     /tmp/ccmX1IXZ.s:168    .text.disk_read:0000000000000038 $d
     /tmp/ccmX1IXZ.s:173    .text.disk_write:0000000000000000 $t
     /tmp/ccmX1IXZ.s:178    .text.disk_write:0000000000000000 disk_write
     /tmp/ccmX1IXZ.s:247    .text.disk_write:0000000000000038 $d
     /tmp/ccmX1IXZ.s:252    .text.disk_ioctl:0000000000000000 $t
     /tmp/ccmX1IXZ.s:257    .text.disk_ioctl:0000000000000000 disk_ioctl
     /tmp/ccmX1IXZ.s:295    .text.disk_ioctl:0000000000000020 $d
                     .debug_frame:0000000000000010 $d

UNDEFINED SYMBOLS
sdc_lld_is_write_protected
SDCD1
sdcRead
sdcWrite
