ARM GAS  /tmp/ccmX1IXZ.s 			page 1


   1              		.syntax unified
   2              		.cpu cortex-m4
   3              		.eabi_attribute 27, 1
   4              		.eabi_attribute 28, 1
   5              		.fpu fpv4-sp-d16
   6              		.eabi_attribute 20, 1
   7              		.eabi_attribute 21, 1
   8              		.eabi_attribute 23, 3
   9              		.eabi_attribute 24, 1
  10              		.eabi_attribute 25, 1
  11              		.eabi_attribute 26, 1
  12              		.eabi_attribute 30, 4
  13              		.eabi_attribute 34, 1
  14              		.eabi_attribute 18, 4
  15              		.thumb
  16              		.syntax unified
  17              		.file	"fatfs_diskio.c"
  18              		.text
  19              	.Ltext0:
  20              		.cfi_sections	.debug_frame
  21              		.section	.text.disk_status,"ax",%progbits
  22              		.align	1
  23              		.global	disk_status
  24              		.thumb
  25              		.thumb_func
  26              		.type	disk_status, %function
  27              	disk_status:
  28              	.LFB324:
  29              		.file 1 "../../modules/ChibiOS/os/various/fatfs_bindings/fatfs_diskio.c"
  30              		.loc 1 90 0
  31              		.cfi_startproc
  32              		@ args = 0, pretend = 0, frame = 0
  33              		@ frame_needed = 0, uses_anonymous_args = 0
  34              	.LVL0:
  35 0000 10B5     		push	{r4, lr}
  36              		.cfi_def_cfa_offset 8
  37              		.cfi_offset 4, -8
  38              		.cfi_offset 14, -4
  39              		.loc 1 93 0
  40 0002 58B9     		cbnz	r0, .L8
  41              	.LVL1:
  42              		.loc 1 107 0
  43 0004 0748     		ldr	r0, .L10
  44              	.LVL2:
  45              		.loc 1 105 0
  46 0006 0479     		ldrb	r4, [r0, #4]	@ zero_extendqisi2
  47 0008 053C     		subs	r4, r4, #5
  48 000a 18BF     		it	ne
  49 000c 0124     		movne	r4, #1
  50              	.LVL3:
  51              		.loc 1 109 0
  52 000e FFF7FEFF 		bl	sdc_lld_is_write_protected
  53              	.LVL4:
  54 0012 20B1     		cbz	r0, .L2
  55              		.loc 1 110 0
  56 0014 44F00404 		orr	r4, r4, #4
  57              	.LVL5:
ARM GAS  /tmp/ccmX1IXZ.s 			page 2


  58 0018 E4B2     		uxtb	r4, r4
  59 001a 00E0     		b	.L2
  60              	.LVL6:
  61              	.L8:
  62              		.loc 1 114 0
  63 001c 0124     		movs	r4, #1
  64              	.LVL7:
  65              	.L2:
  66              		.loc 1 115 0
  67 001e 2046     		mov	r0, r4
  68 0020 10BD     		pop	{r4, pc}
  69              	.L11:
  70 0022 00BF     		.align	2
  71              	.L10:
  72 0024 00000000 		.word	SDCD1
  73              		.cfi_endproc
  74              	.LFE324:
  75              		.size	disk_status, .-disk_status
  76              		.section	.text.disk_initialize,"ax",%progbits
  77              		.align	1
  78              		.global	disk_initialize
  79              		.thumb
  80              		.thumb_func
  81              		.type	disk_initialize, %function
  82              	disk_initialize:
  83              	.LFB329:
  84              		.cfi_startproc
  85              		@ args = 0, pretend = 0, frame = 0
  86              		@ frame_needed = 0, uses_anonymous_args = 0
  87              		@ link register save eliminated.
  88 0000 FFF7FEBF 		b	disk_status
  89              		.cfi_endproc
  90              	.LFE329:
  91              		.size	disk_initialize, .-disk_initialize
  92              		.section	.text.disk_read,"ax",%progbits
  93              		.align	1
  94              		.global	disk_read
  95              		.thumb
  96              		.thumb_func
  97              		.type	disk_read, %function
  98              	disk_read:
  99              	.LFB325:
 100              		.loc 1 128 0
 101              		.cfi_startproc
 102              		@ args = 0, pretend = 0, frame = 0
 103              		@ frame_needed = 0, uses_anonymous_args = 0
 104              	.LVL8:
 105              		.loc 1 128 0
 106 0000 F8B5     		push	{r3, r4, r5, r6, r7, lr}
 107              		.cfi_def_cfa_offset 24
 108              		.cfi_offset 3, -24
 109              		.cfi_offset 4, -20
 110              		.cfi_offset 5, -16
 111              		.cfi_offset 6, -12
 112              		.cfi_offset 7, -8
 113              		.cfi_offset 14, -4
 114              		.loc 1 128 0
ARM GAS  /tmp/ccmX1IXZ.s 			page 3


 115 0002 0E46     		mov	r6, r1
 116 0004 1546     		mov	r5, r2
 117 0006 1F46     		mov	r7, r3
 118              		.loc 1 129 0
 119 0008 88B9     		cbnz	r0, .L22
 120              		.loc 1 144 0
 121 000a 0B4B     		ldr	r3, .L24
 122              	.LVL9:
 123 000c 1C79     		ldrb	r4, [r3, #4]	@ zero_extendqisi2
 124 000e 052C     		cmp	r4, #5
 125 0010 0FD1     		bne	.L20
 126              	.LVL10:
 127              	.L17:
 128              	.LBB2:
 129              		.loc 1 146 0 discriminator 5
 130 0012 3B46     		mov	r3, r7
 131 0014 3246     		mov	r2, r6
 132 0016 2946     		mov	r1, r5
 133 0018 0748     		ldr	r0, .L24
 134 001a FFF7FEFF 		bl	sdcRead
 135              	.LVL11:
 136 001e 28B1     		cbz	r0, .L23
 137 0020 013C     		subs	r4, r4, #1
 138              	.LVL12:
 139              		.loc 1 146 0 is_stmt 0 discriminator 2
 140 0022 14F0FF04 		ands	r4, r4, #255
 141 0026 F4D1     		bne	.L17
 142              		.loc 1 146 0
 143 0028 0120     		movs	r0, #1
 144              	.LBE2:
 145              		.loc 1 151 0 is_stmt 1
 146 002a F8BD     		pop	{r3, r4, r5, r6, r7, pc}
 147              	.LVL13:
 148              	.L23:
 149              	.LBB3:
 150 002c F8BD     		pop	{r3, r4, r5, r6, r7, pc}
 151              	.LVL14:
 152              	.L22:
 153              	.LBE3:
 154              		.loc 1 150 0
 155 002e 0420     		movs	r0, #4
 156              	.LVL15:
 157 0030 F8BD     		pop	{r3, r4, r5, r6, r7, pc}
 158              	.LVL16:
 159              	.L20:
 160              		.loc 1 145 0
 161 0032 0320     		movs	r0, #3
 162              	.LVL17:
 163 0034 F8BD     		pop	{r3, r4, r5, r6, r7, pc}
 164              	.LVL18:
 165              	.L25:
 166 0036 00BF     		.align	2
 167              	.L24:
 168 0038 00000000 		.word	SDCD1
 169              		.cfi_endproc
 170              	.LFE325:
 171              		.size	disk_read, .-disk_read
ARM GAS  /tmp/ccmX1IXZ.s 			page 4


 172              		.section	.text.disk_write,"ax",%progbits
 173              		.align	1
 174              		.global	disk_write
 175              		.thumb
 176              		.thumb_func
 177              		.type	disk_write, %function
 178              	disk_write:
 179              	.LFB326:
 180              		.loc 1 165 0
 181              		.cfi_startproc
 182              		@ args = 0, pretend = 0, frame = 0
 183              		@ frame_needed = 0, uses_anonymous_args = 0
 184              	.LVL19:
 185 0000 F8B5     		push	{r3, r4, r5, r6, r7, lr}
 186              		.cfi_def_cfa_offset 24
 187              		.cfi_offset 3, -24
 188              		.cfi_offset 4, -20
 189              		.cfi_offset 5, -16
 190              		.cfi_offset 6, -12
 191              		.cfi_offset 7, -8
 192              		.cfi_offset 14, -4
 193              		.loc 1 165 0
 194 0002 0E46     		mov	r6, r1
 195 0004 1546     		mov	r5, r2
 196 0006 1F46     		mov	r7, r3
 197              		.loc 1 166 0
 198 0008 88B9     		cbnz	r0, .L35
 199              		.loc 1 183 0
 200 000a 0B4B     		ldr	r3, .L37
 201              	.LVL20:
 202 000c 1C79     		ldrb	r4, [r3, #4]	@ zero_extendqisi2
 203 000e 052C     		cmp	r4, #5
 204 0010 0FD1     		bne	.L33
 205              	.LVL21:
 206              	.L30:
 207              	.LBB4:
 208              		.loc 1 185 0 discriminator 5
 209 0012 3B46     		mov	r3, r7
 210 0014 3246     		mov	r2, r6
 211 0016 2946     		mov	r1, r5
 212 0018 0748     		ldr	r0, .L37
 213 001a FFF7FEFF 		bl	sdcWrite
 214              	.LVL22:
 215 001e 28B1     		cbz	r0, .L36
 216 0020 013C     		subs	r4, r4, #1
 217              	.LVL23:
 218              		.loc 1 185 0 is_stmt 0 discriminator 2
 219 0022 14F0FF04 		ands	r4, r4, #255
 220 0026 F4D1     		bne	.L30
 221              		.loc 1 185 0
 222 0028 0120     		movs	r0, #1
 223              	.LBE4:
 224              		.loc 1 190 0 is_stmt 1
 225 002a F8BD     		pop	{r3, r4, r5, r6, r7, pc}
 226              	.LVL24:
 227              	.L36:
 228              	.LBB5:
ARM GAS  /tmp/ccmX1IXZ.s 			page 5


 229 002c F8BD     		pop	{r3, r4, r5, r6, r7, pc}
 230              	.LVL25:
 231              	.L35:
 232              	.LBE5:
 233              		.loc 1 189 0
 234 002e 0420     		movs	r0, #4
 235              	.LVL26:
 236 0030 F8BD     		pop	{r3, r4, r5, r6, r7, pc}
 237              	.LVL27:
 238              	.L33:
 239              		.loc 1 184 0
 240 0032 0320     		movs	r0, #3
 241              	.LVL28:
 242 0034 F8BD     		pop	{r3, r4, r5, r6, r7, pc}
 243              	.LVL29:
 244              	.L38:
 245 0036 00BF     		.align	2
 246              	.L37:
 247 0038 00000000 		.word	SDCD1
 248              		.cfi_endproc
 249              	.LFE326:
 250              		.size	disk_write, .-disk_write
 251              		.section	.text.disk_ioctl,"ax",%progbits
 252              		.align	1
 253              		.global	disk_ioctl
 254              		.thumb
 255              		.thumb_func
 256              		.type	disk_ioctl, %function
 257              	disk_ioctl:
 258              	.LFB327:
 259              		.loc 1 203 0
 260              		.cfi_startproc
 261              		@ args = 0, pretend = 0, frame = 0
 262              		@ frame_needed = 0, uses_anonymous_args = 0
 263              		@ link register save eliminated.
 264              	.LVL30:
 265              		.loc 1 206 0
 266 0000 58B9     		cbnz	r0, .L47
 267              		.loc 1 227 0
 268 0002 0129     		cmp	r1, #1
 269 0004 05D0     		beq	.L43
 270 0006 09D3     		bcc	.L40
 271 0008 0329     		cmp	r1, #3
 272 000a 06D1     		bne	.L47
 273              		.loc 1 239 0
 274 000c 4FF48073 		mov	r3, #256
 275 0010 01E0     		b	.L48
 276              	.L43:
 277              		.loc 1 231 0
 278 0012 034B     		ldr	r3, .L49
 279 0014 9B6A     		ldr	r3, [r3, #40]
 280              	.L48:
 281              		.loc 1 239 0
 282 0016 1360     		str	r3, [r2]
 283              		.loc 1 240 0
 284 0018 7047     		bx	lr
 285              	.L47:
ARM GAS  /tmp/ccmX1IXZ.s 			page 6


 286              		.loc 1 251 0
 287 001a 0420     		movs	r0, #4
 288              	.LVL31:
 289              	.L40:
 290              		.loc 1 252 0
 291 001c 7047     		bx	lr
 292              	.L50:
 293 001e 00BF     		.align	2
 294              	.L49:
 295 0020 00000000 		.word	SDCD1
 296              		.cfi_endproc
 297              	.LFE327:
 298              		.size	disk_ioctl, .-disk_ioctl
 299              		.text
 300              	.Letext0:
 301              		.file 2 "/usr/lib/gcc/arm-none-eabi/5.4.1/include/stddef.h"
 302              		.file 3 "/usr/include/newlib/machine/_default_types.h"
 303              		.file 4 "/usr/include/newlib/sys/_stdint.h"
 304              		.file 5 "../../modules/ChibiOS/os/common/ports/ARMCMx/compilers/GCC/chtypes.h"
 305              		.file 6 "../../modules/ChibiOS/os/rt/include/chsystypes.h"
 306              		.file 7 "../../modules/ChibiOS/os/rt/include/chschd.h"
 307              		.file 8 "../../modules/ChibiOS/os/rt/include/chtime.h"
 308              		.file 9 "../../modules/ChibiOS/os/common/ext/ST/STM32F4xx/stm32f427xx.h"
 309              		.file 10 "../../modules/ChibiOS/os/common/ports/ARMCMx/chcore.h"
 310              		.file 11 "../../modules/ChibiOS/os/common/ports/ARMCMx/chcore_v7m.h"
 311              		.file 12 "../../modules/ChibiOS/os/rt/include/chtm.h"
 312              		.file 13 "../../modules/ChibiOS/os/rt/include/chstats.h"
 313              		.file 14 "../../modules/ChibiOS/os/rt/include/chsem.h"
 314              		.file 15 "../../modules/ChibiOS/os/rt/include/chmtx.h"
 315              		.file 16 "../../modules/ChibiOS/os/hal/ports/STM32/LLD/DMAv2/stm32_dma.h"
 316              		.file 17 "../../modules/ChibiOS/os/hal/include/hal_ioblock.h"
 317              		.file 18 "../../modules/ChibiOS/os/hal/include/hal_sdc.h"
 318              		.file 19 "../../modules/ChibiOS/os/hal/ports/STM32/LLD/SDIOv1/hal_sdc_lld.h"
 319              		.file 20 "../../modules/ChibiOS/ext/fatfs/src/integer.h"
 320              		.file 21 "../../modules/ChibiOS/ext/fatfs/src/diskio.h"
 321              		.file 22 "../../modules/ChibiOS/os/common/ext/ARM/CMSIS/Core/Include/core_cm4.h"