ARM GAS  /tmp/ccdqOjgL.s 			page 1


   1              		.syntax unified
   2              		.cpu cortex-m4
   3              		.eabi_attribute 27, 1
   4              		.eabi_attribute 28, 1
   5              		.fpu fpv4-sp-d16
   6              		.eabi_attribute 20, 1
   7              		.eabi_attribute 21, 1
   8              		.eabi_attribute 23, 3
   9              		.eabi_attribute 24, 1
  10              		.eabi_attribute 25, 1
  11              		.eabi_attribute 26, 1
  12              		.eabi_attribute 30, 4
  13              		.eabi_attribute 34, 1
  14              		.eabi_attribute 18, 4
  15              		.thumb
  16              		.syntax unified
  17              		.file	"ffunicode.c"
  18              		.text
  19              	.Ltext0:
  20              		.cfi_sections	.debug_frame
  21              		.section	.text.ff_uni2oem,"ax",%progbits
  22              		.align	1
  23              		.global	ff_uni2oem
  24              		.thumb
  25              		.thumb_func
  26              		.type	ff_uni2oem, %function
  27              	ff_uni2oem:
  28              	.LFB290:
  29              		.file 1 "../../modules/ChibiOS/ext/fatfs/src/ffunicode.c"
  30              		.loc 1 15251 0
  31              		.cfi_startproc
  32              		@ args = 0, pretend = 0, frame = 0
  33              		@ frame_needed = 0, uses_anonymous_args = 0
  34              	.LVL0:
  35              		.loc 1 15256 0
  36 0000 7F28     		cmp	r0, #127
  37              		.loc 1 15251 0
  38 0002 10B5     		push	{r4, lr}
  39              		.cfi_def_cfa_offset 8
  40              		.cfi_offset 4, -8
  41              		.cfi_offset 14, -4
  42              		.loc 1 15256 0
  43 0004 13D9     		bls	.L2
  44              		.loc 1 15260 0
  45 0006 40F25233 		movw	r3, #850
  46 000a 9942     		cmp	r1, r3
  47 000c 01D0     		beq	.L3
  48              		.loc 1 15252 0
  49 000e 0020     		movs	r0, #0
  50              	.LVL1:
  51 0010 10BD     		pop	{r4, pc}
  52              	.LVL2:
  53              	.L3:
  54              		.loc 1 15261 0 discriminator 3
  55 0012 074C     		ldr	r4, .L9
  56 0014 0023     		movs	r3, #0
  57              	.LVL3:
ARM GAS  /tmp/ccdqOjgL.s 			page 2


  58              	.L4:
  59 0016 34F81310 		ldrh	r1, [r4, r3, lsl #1]
  60 001a 8142     		cmp	r1, r0
  61 001c 9AB2     		uxth	r2, r3
  62              	.LVL4:
  63 001e 03D0     		beq	.L5
  64              	.LVL5:
  65 0020 0133     		adds	r3, r3, #1
  66              	.LVL6:
  67              		.loc 1 15261 0 is_stmt 0 discriminator 4
  68 0022 802B     		cmp	r3, #128
  69 0024 F7D1     		bne	.L4
  70 0026 1A46     		mov	r2, r3
  71              	.LVL7:
  72              	.L5:
  73              		.loc 1 15262 0 is_stmt 1
  74 0028 02F18000 		add	r0, r2, #128
  75              	.LVL8:
  76 002c C0B2     		uxtb	r0, r0
  77              	.LVL9:
  78              	.L2:
  79              		.loc 1 15266 0
  80 002e 10BD     		pop	{r4, pc}
  81              	.L10:
  82              		.align	2
  83              	.L9:
  84 0030 00000000 		.word	.LANCHOR0
  85              		.cfi_endproc
  86              	.LFE290:
  87              		.size	ff_uni2oem, .-ff_uni2oem
  88              		.section	.text.ff_oem2uni,"ax",%progbits
  89              		.align	1
  90              		.global	ff_oem2uni
  91              		.thumb
  92              		.thumb_func
  93              		.type	ff_oem2uni, %function
  94              	ff_oem2uni:
  95              	.LFB291:
  96              		.loc 1 15272 0
  97              		.cfi_startproc
  98              		@ args = 0, pretend = 0, frame = 0
  99              		@ frame_needed = 0, uses_anonymous_args = 0
 100              		@ link register save eliminated.
 101              	.LVL10:
 102              		.loc 1 15277 0
 103 0000 7F28     		cmp	r0, #127
 104 0002 0DD9     		bls	.L12
 105              		.loc 1 15281 0
 106 0004 40F25233 		movw	r3, #850
 107 0008 9942     		cmp	r1, r3
 108 000a 08D1     		bne	.L14
 109              		.loc 1 15282 0
 110 000c FF28     		cmp	r0, #255
 111 000e 06D8     		bhi	.L14
 112              		.loc 1 15282 0 is_stmt 0 discriminator 1
 113 0010 00F10040 		add	r0, r0, #-2147483648
 114              	.LVL11:
ARM GAS  /tmp/ccdqOjgL.s 			page 3


 115 0014 034B     		ldr	r3, .L15
 116 0016 8038     		subs	r0, r0, #128
 117 0018 33F81000 		ldrh	r0, [r3, r0, lsl #1]
 118              	.LVL12:
 119 001c 7047     		bx	lr
 120              	.LVL13:
 121              	.L14:
 122              		.loc 1 15273 0 is_stmt 1
 123 001e 0020     		movs	r0, #0
 124              	.LVL14:
 125              	.L12:
 126              		.loc 1 15286 0
 127 0020 7047     		bx	lr
 128              	.L16:
 129 0022 00BF     		.align	2
 130              	.L15:
 131 0024 00000000 		.word	.LANCHOR0
 132              		.cfi_endproc
 133              	.LFE291:
 134              		.size	ff_oem2uni, .-ff_oem2uni
 135              		.section	.text.ff_wtoupper,"ax",%progbits
 136              		.align	1
 137              		.global	ff_wtoupper
 138              		.thumb
 139              		.thumb_func
 140              		.type	ff_wtoupper, %function
 141              	ff_wtoupper:
 142              	.LFB292:
 143              		.loc 1 15482 0
 144              		.cfi_startproc
 145              		@ args = 0, pretend = 0, frame = 0
 146              		@ frame_needed = 0, uses_anonymous_args = 0
 147              	.LVL15:
 148 0000 70B5     		push	{r4, r5, r6, lr}
 149              		.cfi_def_cfa_offset 16
 150              		.cfi_offset 4, -16
 151              		.cfi_offset 5, -12
 152              		.cfi_offset 6, -8
 153              		.cfi_offset 14, -4
 154              		.loc 1 15540 0
 155 0002 1E4A     		ldr	r2, .L39
 156 0004 1E4B     		ldr	r3, .L39+4
 157 0006 B0F5805F 		cmp	r0, #4096
 158 000a 28BF     		it	cs
 159 000c 1346     		movcs	r3, r2
 160              	.L32:
 161 000e 191D     		adds	r1, r3, #4
 162              	.L31:
 163              	.LVL16:
 164              		.loc 1 15542 0
 165 0010 31F8043C 		ldrh	r3, [r1, #-4]
 166              	.LVL17:
 167 0014 0A46     		mov	r2, r1
 168              		.loc 1 15543 0
 169 0016 83B3     		cbz	r3, .L19
 170              		.loc 1 15543 0 is_stmt 0 discriminator 1
 171 0018 9842     		cmp	r0, r3
ARM GAS  /tmp/ccdqOjgL.s 			page 4


 172 001a 2ED3     		bcc	.L19
 173              	.LVL18:
 174              		.loc 1 15544 0 is_stmt 1
 175 001c 31F8024C 		ldrh	r4, [r1, #-2]
 176              	.LVL19:
 177 0020 250A     		lsrs	r5, r4, #8
 178              	.LVL20:
 179 0022 E4B2     		uxtb	r4, r4
 180              	.LVL21:
 181              		.loc 1 15545 0
 182 0024 E618     		adds	r6, r4, r3
 183 0026 B042     		cmp	r0, r6
 184 0028 21DA     		bge	.L20
 185              		.loc 1 15546 0
 186 002a 082D     		cmp	r5, #8
 187 002c 25D8     		bhi	.L19
 188 002e DFE805F0 		tbb	[pc, r5]
 189              	.L22:
 190 0032 05       		.byte	(.L21-.L22)/2
 191 0033 09       		.byte	(.L23-.L22)/2
 192 0034 0E       		.byte	(.L24-.L22)/2
 193 0035 10       		.byte	(.L25-.L22)/2
 194 0036 12       		.byte	(.L26-.L22)/2
 195 0037 14       		.byte	(.L27-.L22)/2
 196 0038 16       		.byte	(.L28-.L22)/2
 197 0039 18       		.byte	(.L29-.L22)/2
 198 003a 1A       		.byte	(.L30-.L22)/2
 199 003b 00       		.p2align 1
 200              	.L21:
 201              		.loc 1 15547 0
 202 003c C01A     		subs	r0, r0, r3
 203              	.LVL22:
 204 003e 31F81000 		ldrh	r0, [r1, r0, lsl #1]
 205              	.LVL23:
 206 0042 70BD     		pop	{r4, r5, r6, pc}
 207              	.LVL24:
 208              	.L23:
 209              		.loc 1 15548 0
 210 0044 C31A     		subs	r3, r0, r3
 211              	.LVL25:
 212 0046 03F00103 		and	r3, r3, #1
 213 004a C01A     		subs	r0, r0, r3
 214              	.LVL26:
 215 004c 0DE0     		b	.L38
 216              	.LVL27:
 217              	.L24:
 218              		.loc 1 15549 0
 219 004e 1038     		subs	r0, r0, #16
 220              	.LVL28:
 221 0050 0BE0     		b	.L38
 222              	.LVL29:
 223              	.L25:
 224              		.loc 1 15550 0
 225 0052 2038     		subs	r0, r0, #32
 226              	.LVL30:
 227 0054 09E0     		b	.L38
 228              	.LVL31:
ARM GAS  /tmp/ccdqOjgL.s 			page 5


 229              	.L26:
 230              		.loc 1 15551 0
 231 0056 3038     		subs	r0, r0, #48
 232              	.LVL32:
 233 0058 07E0     		b	.L38
 234              	.LVL33:
 235              	.L27:
 236              		.loc 1 15552 0
 237 005a 1A38     		subs	r0, r0, #26
 238              	.LVL34:
 239 005c 05E0     		b	.L38
 240              	.LVL35:
 241              	.L28:
 242              		.loc 1 15553 0
 243 005e 0830     		adds	r0, r0, #8
 244              	.LVL36:
 245 0060 03E0     		b	.L38
 246              	.LVL37:
 247              	.L29:
 248              		.loc 1 15554 0
 249 0062 5038     		subs	r0, r0, #80
 250              	.LVL38:
 251 0064 01E0     		b	.L38
 252              	.LVL39:
 253              	.L30:
 254              		.loc 1 15555 0
 255 0066 A0F5E350 		sub	r0, r0, #7264
 256              	.LVL40:
 257              	.L38:
 258 006a 80B2     		uxth	r0, r0
 259              	.LVL41:
 260 006c 70BD     		pop	{r4, r5, r6, pc}
 261              	.LVL42:
 262              	.L20:
 263 006e 0431     		adds	r1, r1, #4
 264              	.LVL43:
 265              		.loc 1 15559 0
 266 0070 002D     		cmp	r5, #0
 267 0072 CDD1     		bne	.L31
 268              		.loc 1 15559 0 is_stmt 0 discriminator 1
 269 0074 02EB4403 		add	r3, r2, r4, lsl #1
 270              	.LVL44:
 271 0078 C9E7     		b	.L32
 272              	.LVL45:
 273              	.L19:
 274              		.loc 1 15563 0 is_stmt 1
 275 007a 70BD     		pop	{r4, r5, r6, pc}
 276              	.L40:
 277              		.align	2
 278              	.L39:
 279 007c 00000000 		.word	.LANCHOR2
 280 0080 00000000 		.word	.LANCHOR1
 281              		.cfi_endproc
 282              	.LFE292:
 283              		.size	ff_wtoupper, .-ff_wtoupper
 284              		.section	.rodata.uc850,"a",%progbits
 285              		.align	1
ARM GAS  /tmp/ccdqOjgL.s 			page 6


 286              		.set	.LANCHOR0,. + 0
 287              		.type	uc850, %object
 288              		.size	uc850, 256
 289              	uc850:
 290 0000 C700     		.short	199
 291 0002 FC00     		.short	252
 292 0004 E900     		.short	233
 293 0006 E200     		.short	226
 294 0008 E400     		.short	228
 295 000a E000     		.short	224
 296 000c E500     		.short	229
 297 000e E700     		.short	231
 298 0010 EA00     		.short	234
 299 0012 EB00     		.short	235
 300 0014 E800     		.short	232
 301 0016 EF00     		.short	239
 302 0018 EE00     		.short	238
 303 001a EC00     		.short	236
 304 001c C400     		.short	196
 305 001e C500     		.short	197
 306 0020 C900     		.short	201
 307 0022 E600     		.short	230
 308 0024 C600     		.short	198
 309 0026 F400     		.short	244
 310 0028 F600     		.short	246
 311 002a F200     		.short	242
 312 002c FB00     		.short	251
 313 002e F900     		.short	249
 314 0030 FF00     		.short	255
 315 0032 D600     		.short	214
 316 0034 DC00     		.short	220
 317 0036 F800     		.short	248
 318 0038 A300     		.short	163
 319 003a D800     		.short	216
 320 003c D700     		.short	215
 321 003e 9201     		.short	402
 322 0040 E100     		.short	225
 323 0042 ED00     		.short	237
 324 0044 F300     		.short	243
 325 0046 FA00     		.short	250
 326 0048 F100     		.short	241
 327 004a D100     		.short	209
 328 004c AA00     		.short	170
 329 004e BA00     		.short	186
 330 0050 BF00     		.short	191
 331 0052 AE00     		.short	174
 332 0054 AC00     		.short	172
 333 0056 BD00     		.short	189
 334 0058 BC00     		.short	188
 335 005a A100     		.short	161
 336 005c AB00     		.short	171
 337 005e BB00     		.short	187
 338 0060 9125     		.short	9617
 339 0062 9225     		.short	9618
 340 0064 9325     		.short	9619
 341 0066 0225     		.short	9474
 342 0068 2425     		.short	9508
ARM GAS  /tmp/ccdqOjgL.s 			page 7


 343 006a C100     		.short	193
 344 006c C200     		.short	194
 345 006e C000     		.short	192
 346 0070 A900     		.short	169
 347 0072 6325     		.short	9571
 348 0074 5125     		.short	9553
 349 0076 5725     		.short	9559
 350 0078 5D25     		.short	9565
 351 007a A200     		.short	162
 352 007c A500     		.short	165
 353 007e 1025     		.short	9488
 354 0080 1425     		.short	9492
 355 0082 3425     		.short	9524
 356 0084 2C25     		.short	9516
 357 0086 1C25     		.short	9500
 358 0088 0025     		.short	9472
 359 008a 3C25     		.short	9532
 360 008c E300     		.short	227
 361 008e C300     		.short	195
 362 0090 5A25     		.short	9562
 363 0092 5425     		.short	9556
 364 0094 6925     		.short	9577
 365 0096 6625     		.short	9574
 366 0098 6025     		.short	9568
 367 009a 5025     		.short	9552
 368 009c 6C25     		.short	9580
 369 009e A400     		.short	164
 370 00a0 F000     		.short	240
 371 00a2 D000     		.short	208
 372 00a4 CA00     		.short	202
 373 00a6 CB00     		.short	203
 374 00a8 C800     		.short	200
 375 00aa 3101     		.short	305
 376 00ac CD00     		.short	205
 377 00ae CE00     		.short	206
 378 00b0 CF00     		.short	207
 379 00b2 1825     		.short	9496
 380 00b4 0C25     		.short	9484
 381 00b6 8825     		.short	9608
 382 00b8 8425     		.short	9604
 383 00ba A600     		.short	166
 384 00bc CC00     		.short	204
 385 00be 8025     		.short	9600
 386 00c0 D300     		.short	211
 387 00c2 DF00     		.short	223
 388 00c4 D400     		.short	212
 389 00c6 D200     		.short	210
 390 00c8 F500     		.short	245
 391 00ca D500     		.short	213
 392 00cc B500     		.short	181
 393 00ce FE00     		.short	254
 394 00d0 DE00     		.short	222
 395 00d2 DA00     		.short	218
 396 00d4 DB00     		.short	219
 397 00d6 D900     		.short	217
 398 00d8 FD00     		.short	253
 399 00da DD00     		.short	221
ARM GAS  /tmp/ccdqOjgL.s 			page 8


 400 00dc AF00     		.short	175
 401 00de B400     		.short	180
 402 00e0 AD00     		.short	173
 403 00e2 B100     		.short	177
 404 00e4 1720     		.short	8215
 405 00e6 BE00     		.short	190
 406 00e8 B600     		.short	182
 407 00ea A700     		.short	167
 408 00ec F700     		.short	247
 409 00ee B800     		.short	184
 410 00f0 B000     		.short	176
 411 00f2 A800     		.short	168
 412 00f4 B700     		.short	183
 413 00f6 B900     		.short	185
 414 00f8 B300     		.short	179
 415 00fa B200     		.short	178
 416 00fc A025     		.short	9632
 417 00fe A000     		.short	160
 418              		.section	.rodata.cvt2.7378,"a",%progbits
 419              		.align	1
 420              		.set	.LANCHOR2,. + 0
 421              		.type	cvt2.7378, %object
 422              		.size	cvt2.7378, 188
 423              	cvt2.7378:
 424 0000 7D1D     		.short	7549
 425 0002 0100     		.short	1
 426 0004 632C     		.short	11363
 427 0006 001E     		.short	7680
 428 0008 9601     		.short	406
 429 000a A01E     		.short	7840
 430 000c 5A01     		.short	346
 431 000e 001F     		.short	7936
 432 0010 0806     		.short	1544
 433 0012 101F     		.short	7952
 434 0014 0606     		.short	1542
 435 0016 201F     		.short	7968
 436 0018 0806     		.short	1544
 437 001a 301F     		.short	7984
 438 001c 0806     		.short	1544
 439 001e 401F     		.short	8000
 440 0020 0606     		.short	1542
 441 0022 511F     		.short	8017
 442 0024 0700     		.short	7
 443 0026 591F     		.short	8025
 444 0028 521F     		.short	8018
 445 002a 5B1F     		.short	8027
 446 002c 541F     		.short	8020
 447 002e 5D1F     		.short	8029
 448 0030 561F     		.short	8022
 449 0032 5F1F     		.short	8031
 450 0034 601F     		.short	8032
 451 0036 0806     		.short	1544
 452 0038 701F     		.short	8048
 453 003a 0E00     		.short	14
 454 003c BA1F     		.short	8122
 455 003e BB1F     		.short	8123
 456 0040 C81F     		.short	8136
ARM GAS  /tmp/ccdqOjgL.s 			page 9


 457 0042 C91F     		.short	8137
 458 0044 CA1F     		.short	8138
 459 0046 CB1F     		.short	8139
 460 0048 DA1F     		.short	8154
 461 004a DB1F     		.short	8155
 462 004c F81F     		.short	8184
 463 004e F91F     		.short	8185
 464 0050 EA1F     		.short	8170
 465 0052 EB1F     		.short	8171
 466 0054 FA1F     		.short	8186
 467 0056 FB1F     		.short	8187
 468 0058 801F     		.short	8064
 469 005a 0806     		.short	1544
 470 005c 901F     		.short	8080
 471 005e 0806     		.short	1544
 472 0060 A01F     		.short	8096
 473 0062 0806     		.short	1544
 474 0064 B01F     		.short	8112
 475 0066 0400     		.short	4
 476 0068 B81F     		.short	8120
 477 006a B91F     		.short	8121
 478 006c B21F     		.short	8114
 479 006e BC1F     		.short	8124
 480 0070 CC1F     		.short	8140
 481 0072 0100     		.short	1
 482 0074 C31F     		.short	8131
 483 0076 D01F     		.short	8144
 484 0078 0206     		.short	1538
 485 007a E01F     		.short	8160
 486 007c 0206     		.short	1538
 487 007e E51F     		.short	8165
 488 0080 0100     		.short	1
 489 0082 EC1F     		.short	8172
 490 0084 F31F     		.short	8179
 491 0086 0100     		.short	1
 492 0088 FC1F     		.short	8188
 493 008a 4E21     		.short	8526
 494 008c 0100     		.short	1
 495 008e 3221     		.short	8498
 496 0090 7021     		.short	8560
 497 0092 1002     		.short	528
 498 0094 8421     		.short	8580
 499 0096 0100     		.short	1
 500 0098 8321     		.short	8579
 501 009a D024     		.short	9424
 502 009c 1A05     		.short	1306
 503 009e 302C     		.short	11312
 504 00a0 2F04     		.short	1071
 505 00a2 602C     		.short	11360
 506 00a4 0201     		.short	258
 507 00a6 672C     		.short	11367
 508 00a8 0601     		.short	262
 509 00aa 752C     		.short	11381
 510 00ac 0201     		.short	258
 511 00ae 802C     		.short	11392
 512 00b0 6401     		.short	356
 513 00b2 002D     		.short	11520
ARM GAS  /tmp/ccdqOjgL.s 			page 10


 514 00b4 2608     		.short	2086
 515 00b6 41FF     		.short	-191
 516 00b8 1A03     		.short	794
 517 00ba 0000     		.short	0
 518              		.section	.rodata.cvt1.7377,"a",%progbits
 519              		.align	1
 520              		.set	.LANCHOR1,. + 0
 521              		.type	cvt1.7377, %object
 522              		.size	cvt1.7377, 498
 523              	cvt1.7377:
 524 0000 6100     		.short	97
 525 0002 1A03     		.short	794
 526 0004 E000     		.short	224
 527 0006 1703     		.short	791
 528 0008 F800     		.short	248
 529 000a 0703     		.short	775
 530 000c FF00     		.short	255
 531 000e 0100     		.short	1
 532 0010 7801     		.short	376
 533 0012 0001     		.short	256
 534 0014 3001     		.short	304
 535 0016 3201     		.short	306
 536 0018 0601     		.short	262
 537 001a 3901     		.short	313
 538 001c 1001     		.short	272
 539 001e 4A01     		.short	330
 540 0020 2E01     		.short	302
 541 0022 7901     		.short	377
 542 0024 0601     		.short	262
 543 0026 8001     		.short	384
 544 0028 4D00     		.short	77
 545 002a 4302     		.short	579
 546 002c 8101     		.short	385
 547 002e 8201     		.short	386
 548 0030 8201     		.short	386
 549 0032 8401     		.short	388
 550 0034 8401     		.short	388
 551 0036 8601     		.short	390
 552 0038 8701     		.short	391
 553 003a 8701     		.short	391
 554 003c 8901     		.short	393
 555 003e 8A01     		.short	394
 556 0040 8B01     		.short	395
 557 0042 8B01     		.short	395
 558 0044 8D01     		.short	397
 559 0046 8E01     		.short	398
 560 0048 8F01     		.short	399
 561 004a 9001     		.short	400
 562 004c 9101     		.short	401
 563 004e 9101     		.short	401
 564 0050 9301     		.short	403
 565 0052 9401     		.short	404
 566 0054 F601     		.short	502
 567 0056 9601     		.short	406
 568 0058 9701     		.short	407
 569 005a 9801     		.short	408
 570 005c 9801     		.short	408
ARM GAS  /tmp/ccdqOjgL.s 			page 11


 571 005e 3D02     		.short	573
 572 0060 9B01     		.short	411
 573 0062 9C01     		.short	412
 574 0064 9D01     		.short	413
 575 0066 2002     		.short	544
 576 0068 9F01     		.short	415
 577 006a A001     		.short	416
 578 006c A001     		.short	416
 579 006e A201     		.short	418
 580 0070 A201     		.short	418
 581 0072 A401     		.short	420
 582 0074 A401     		.short	420
 583 0076 A601     		.short	422
 584 0078 A701     		.short	423
 585 007a A701     		.short	423
 586 007c A901     		.short	425
 587 007e AA01     		.short	426
 588 0080 AB01     		.short	427
 589 0082 AC01     		.short	428
 590 0084 AC01     		.short	428
 591 0086 AE01     		.short	430
 592 0088 AF01     		.short	431
 593 008a AF01     		.short	431
 594 008c B101     		.short	433
 595 008e B201     		.short	434
 596 0090 B301     		.short	435
 597 0092 B301     		.short	435
 598 0094 B501     		.short	437
 599 0096 B501     		.short	437
 600 0098 B701     		.short	439
 601 009a B801     		.short	440
 602 009c B801     		.short	440
 603 009e BA01     		.short	442
 604 00a0 BB01     		.short	443
 605 00a2 BC01     		.short	444
 606 00a4 BC01     		.short	444
 607 00a6 BE01     		.short	446
 608 00a8 F701     		.short	503
 609 00aa C001     		.short	448
 610 00ac C101     		.short	449
 611 00ae C201     		.short	450
 612 00b0 C301     		.short	451
 613 00b2 C401     		.short	452
 614 00b4 C501     		.short	453
 615 00b6 C401     		.short	452
 616 00b8 C701     		.short	455
 617 00ba C801     		.short	456
 618 00bc C701     		.short	455
 619 00be CA01     		.short	458
 620 00c0 CB01     		.short	459
 621 00c2 CA01     		.short	458
 622 00c4 CD01     		.short	461
 623 00c6 1001     		.short	272
 624 00c8 DD01     		.short	477
 625 00ca 0100     		.short	1
 626 00cc 8E01     		.short	398
 627 00ce DE01     		.short	478
ARM GAS  /tmp/ccdqOjgL.s 			page 12


 628 00d0 1201     		.short	274
 629 00d2 F301     		.short	499
 630 00d4 0300     		.short	3
 631 00d6 F101     		.short	497
 632 00d8 F401     		.short	500
 633 00da F401     		.short	500
 634 00dc F801     		.short	504
 635 00de 2801     		.short	296
 636 00e0 2202     		.short	546
 637 00e2 1201     		.short	274
 638 00e4 3A02     		.short	570
 639 00e6 0900     		.short	9
 640 00e8 652C     		.short	11365
 641 00ea 3B02     		.short	571
 642 00ec 3B02     		.short	571
 643 00ee 3D02     		.short	573
 644 00f0 662C     		.short	11366
 645 00f2 3F02     		.short	575
 646 00f4 4002     		.short	576
 647 00f6 4102     		.short	577
 648 00f8 4102     		.short	577
 649 00fa 4602     		.short	582
 650 00fc 0A01     		.short	266
 651 00fe 5302     		.short	595
 652 0100 4000     		.short	64
 653 0102 8101     		.short	385
 654 0104 8601     		.short	390
 655 0106 5502     		.short	597
 656 0108 8901     		.short	393
 657 010a 8A01     		.short	394
 658 010c 5802     		.short	600
 659 010e 8F01     		.short	399
 660 0110 5A02     		.short	602
 661 0112 9001     		.short	400
 662 0114 5C02     		.short	604
 663 0116 5D02     		.short	605
 664 0118 5E02     		.short	606
 665 011a 5F02     		.short	607
 666 011c 9301     		.short	403
 667 011e 6102     		.short	609
 668 0120 6202     		.short	610
 669 0122 9401     		.short	404
 670 0124 6402     		.short	612
 671 0126 6502     		.short	613
 672 0128 6602     		.short	614
 673 012a 6702     		.short	615
 674 012c 9701     		.short	407
 675 012e 9601     		.short	406
 676 0130 6A02     		.short	618
 677 0132 622C     		.short	11362
 678 0134 6C02     		.short	620
 679 0136 6D02     		.short	621
 680 0138 6E02     		.short	622
 681 013a 9C01     		.short	412
 682 013c 7002     		.short	624
 683 013e 7102     		.short	625
 684 0140 9D01     		.short	413
ARM GAS  /tmp/ccdqOjgL.s 			page 13


 685 0142 7302     		.short	627
 686 0144 7402     		.short	628
 687 0146 9F01     		.short	415
 688 0148 7602     		.short	630
 689 014a 7702     		.short	631
 690 014c 7802     		.short	632
 691 014e 7902     		.short	633
 692 0150 7A02     		.short	634
 693 0152 7B02     		.short	635
 694 0154 7C02     		.short	636
 695 0156 642C     		.short	11364
 696 0158 7E02     		.short	638
 697 015a 7F02     		.short	639
 698 015c A601     		.short	422
 699 015e 8102     		.short	641
 700 0160 8202     		.short	642
 701 0162 A901     		.short	425
 702 0164 8402     		.short	644
 703 0166 8502     		.short	645
 704 0168 8602     		.short	646
 705 016a 8702     		.short	647
 706 016c AE01     		.short	430
 707 016e 4402     		.short	580
 708 0170 B101     		.short	433
 709 0172 B201     		.short	434
 710 0174 4502     		.short	581
 711 0176 8D02     		.short	653
 712 0178 8E02     		.short	654
 713 017a 8F02     		.short	655
 714 017c 9002     		.short	656
 715 017e 9102     		.short	657
 716 0180 B701     		.short	439
 717 0182 7B03     		.short	891
 718 0184 0300     		.short	3
 719 0186 FD03     		.short	1021
 720 0188 FE03     		.short	1022
 721 018a FF03     		.short	1023
 722 018c AC03     		.short	940
 723 018e 0400     		.short	4
 724 0190 8603     		.short	902
 725 0192 8803     		.short	904
 726 0194 8903     		.short	905
 727 0196 8A03     		.short	906
 728 0198 B103     		.short	945
 729 019a 1103     		.short	785
 730 019c C203     		.short	962
 731 019e 0200     		.short	2
 732 01a0 A303     		.short	931
 733 01a2 A303     		.short	931
 734 01a4 C403     		.short	964
 735 01a6 0803     		.short	776
 736 01a8 CC03     		.short	972
 737 01aa 0300     		.short	3
 738 01ac 8C03     		.short	908
 739 01ae 8E03     		.short	910
 740 01b0 8F03     		.short	911
 741 01b2 D803     		.short	984
ARM GAS  /tmp/ccdqOjgL.s 			page 14


 742 01b4 1801     		.short	280
 743 01b6 F203     		.short	1010
 744 01b8 0A00     		.short	10
 745 01ba F903     		.short	1017
 746 01bc F303     		.short	1011
 747 01be F403     		.short	1012
 748 01c0 F503     		.short	1013
 749 01c2 F603     		.short	1014
 750 01c4 F703     		.short	1015
 751 01c6 F703     		.short	1015
 752 01c8 F903     		.short	1017
 753 01ca FA03     		.short	1018
 754 01cc FA03     		.short	1018
 755 01ce 3004     		.short	1072
 756 01d0 2003     		.short	800
 757 01d2 5004     		.short	1104
 758 01d4 1007     		.short	1808
 759 01d6 6004     		.short	1120
 760 01d8 2201     		.short	290
 761 01da 8A04     		.short	1162
 762 01dc 3601     		.short	310
 763 01de C104     		.short	1217
 764 01e0 0E01     		.short	270
 765 01e2 CF04     		.short	1231
 766 01e4 0100     		.short	1
 767 01e6 C004     		.short	1216
 768 01e8 D004     		.short	1232
 769 01ea 4401     		.short	324
 770 01ec 6105     		.short	1377
 771 01ee 2604     		.short	1062
 772 01f0 0000     		.short	0
 773              		.text
 774              	.Letext0:
 775              		.file 2 "../../modules/ChibiOS/ext/fatfs/src/integer.h"
 776              		.file 3 "/usr/include/newlib/machine/_default_types.h"
 777              		.file 4 "/usr/include/newlib/sys/_stdint.h"
 778              		.file 5 "../../modules/ChibiOS/os/common/ports/ARMCMx/compilers/GCC/chtypes.h"
 779              		.file 6 "../../modules/ChibiOS/os/rt/include/chsystypes.h"
 780              		.file 7 "../../modules/ChibiOS/os/rt/include/chschd.h"
 781              		.file 8 "../../modules/ChibiOS/os/rt/include/chtime.h"
 782              		.file 9 "../../modules/ChibiOS/os/common/ports/ARMCMx/chcore.h"
 783              		.file 10 "../../modules/ChibiOS/os/common/ports/ARMCMx/chcore_v7m.h"
 784              		.file 11 "../../modules/ChibiOS/os/rt/include/chtm.h"
 785              		.file 12 "../../modules/ChibiOS/os/rt/include/chstats.h"
 786              		.file 13 "../../modules/ChibiOS/os/rt/include/chsem.h"
 787              		.file 14 "../../modules/ChibiOS/os/rt/include/chmtx.h"
 788              		.file 15 "../../modules/ChibiOS/os/common/ext/ARM/CMSIS/Core/Include/core_cm4.h"
 789              		.section	.debug_info,"",%progbits
 790              	.Ldebug_info0:
 791 0000 65090000 		.4byte	0x965
 792 0004 0400     		.2byte	0x4
 793 0006 00000000 		.4byte	.Ldebug_abbrev0
 794 000a 04       		.byte	0x4
 795 000b 01       		.uleb128 0x1
 796 000c 9A000000 		.4byte	.LASF115
 797 0010 0C       		.byte	0xc
 798 0011 19000000 		.4byte	.LASF116
ARM GAS  /tmp/ccdqOjgL.s 			page 15


 799 0015 9E040000 		.4byte	.LASF117
 800 0019 00000000 		.4byte	.Ldebug_ranges0+0
 801 001d 00000000 		.4byte	0
 802 0021 00000000 		.4byte	.Ldebug_line0
 803 0025 02       		.uleb128 0x2
 804 0026 04       		.byte	0x4
 805 0027 05       		.byte	0x5
 806 0028 696E7400 		.ascii	"int\000"
 807 002c 03       		.uleb128 0x3
 808 002d 04       		.byte	0x4
 809 002e 07       		.byte	0x7
 810 002f 9C020000 		.4byte	.LASF0
 811 0033 03       		.uleb128 0x3
 812 0034 01       		.byte	0x1
 813 0035 08       		.byte	0x8
 814 0036 47040000 		.4byte	.LASF1
 815 003a 03       		.uleb128 0x3
 816 003b 02       		.byte	0x2
 817 003c 05       		.byte	0x5
 818 003d 55040000 		.4byte	.LASF2
 819 0041 04       		.uleb128 0x4
 820 0042 BB030000 		.4byte	.LASF4
 821 0046 02       		.byte	0x2
 822 0047 1A       		.byte	0x1a
 823 0048 4C000000 		.4byte	0x4c
 824 004c 03       		.uleb128 0x3
 825 004d 02       		.byte	0x2
 826 004e 07       		.byte	0x7
 827 004f C8020000 		.4byte	.LASF3
 828 0053 04       		.uleb128 0x4
 829 0054 A4050000 		.4byte	.LASF5
 830 0058 02       		.byte	0x2
 831 0059 1B       		.byte	0x1b
 832 005a 4C000000 		.4byte	0x4c
 833 005e 03       		.uleb128 0x3
 834 005f 04       		.byte	0x4
 835 0060 05       		.byte	0x5
 836 0061 37020000 		.4byte	.LASF6
 837 0065 03       		.uleb128 0x3
 838 0066 04       		.byte	0x4
 839 0067 07       		.byte	0x7
 840 0068 FE040000 		.4byte	.LASF7
 841 006c 03       		.uleb128 0x3
 842 006d 08       		.byte	0x8
 843 006e 07       		.byte	0x7
 844 006f 97010000 		.4byte	.LASF8
 845 0073 03       		.uleb128 0x3
 846 0074 08       		.byte	0x8
 847 0075 05       		.byte	0x5
 848 0076 FB010000 		.4byte	.LASF9
 849 007a 03       		.uleb128 0x3
 850 007b 08       		.byte	0x8
 851 007c 04       		.byte	0x4
 852 007d A4030000 		.4byte	.LASF10
 853 0081 03       		.uleb128 0x3
 854 0082 01       		.byte	0x1
 855 0083 06       		.byte	0x6
ARM GAS  /tmp/ccdqOjgL.s 			page 16


 856 0084 09020000 		.4byte	.LASF11
 857 0088 04       		.uleb128 0x4
 858 0089 5F000000 		.4byte	.LASF12
 859 008d 03       		.byte	0x3
 860 008e 1D       		.byte	0x1d
 861 008f 33000000 		.4byte	0x33
 862 0093 04       		.uleb128 0x4
 863 0094 4D030000 		.4byte	.LASF13
 864 0098 03       		.byte	0x3
 865 0099 3F       		.byte	0x3f
 866 009a 5E000000 		.4byte	0x5e
 867 009e 04       		.uleb128 0x4
 868 009f 54020000 		.4byte	.LASF14
 869 00a3 03       		.byte	0x3
 870 00a4 41       		.byte	0x41
 871 00a5 65000000 		.4byte	0x65
 872 00a9 04       		.uleb128 0x4
 873 00aa EB030000 		.4byte	.LASF15
 874 00ae 03       		.byte	0x3
 875 00af 5B       		.byte	0x5b
 876 00b0 6C000000 		.4byte	0x6c
 877 00b4 04       		.uleb128 0x4
 878 00b5 8F050000 		.4byte	.LASF16
 879 00b9 04       		.byte	0x4
 880 00ba 18       		.byte	0x18
 881 00bb 88000000 		.4byte	0x88
 882 00bf 04       		.uleb128 0x4
 883 00c0 3F040000 		.4byte	.LASF17
 884 00c4 04       		.byte	0x4
 885 00c5 2C       		.byte	0x2c
 886 00c6 93000000 		.4byte	0x93
 887 00ca 04       		.uleb128 0x4
 888 00cb 67050000 		.4byte	.LASF18
 889 00cf 04       		.byte	0x4
 890 00d0 30       		.byte	0x30
 891 00d1 9E000000 		.4byte	0x9e
 892 00d5 04       		.uleb128 0x4
 893 00d6 49000000 		.4byte	.LASF19
 894 00da 04       		.byte	0x4
 895 00db 3C       		.byte	0x3c
 896 00dc A9000000 		.4byte	0xa9
 897 00e0 04       		.uleb128 0x4
 898 00e1 5F050000 		.4byte	.LASF20
 899 00e5 05       		.byte	0x5
 900 00e6 27       		.byte	0x27
 901 00e7 CA000000 		.4byte	0xca
 902 00eb 04       		.uleb128 0x4
 903 00ec F2010000 		.4byte	.LASF21
 904 00f0 05       		.byte	0x5
 905 00f1 28       		.byte	0x28
 906 00f2 D5000000 		.4byte	0xd5
 907 00f6 04       		.uleb128 0x4
 908 00f7 20030000 		.4byte	.LASF22
 909 00fb 05       		.byte	0x5
 910 00fc 2A       		.byte	0x2a
 911 00fd B4000000 		.4byte	0xb4
 912 0101 04       		.uleb128 0x4
ARM GAS  /tmp/ccdqOjgL.s 			page 17


 913 0102 40020000 		.4byte	.LASF23
 914 0106 05       		.byte	0x5
 915 0107 2B       		.byte	0x2b
 916 0108 B4000000 		.4byte	0xb4
 917 010c 04       		.uleb128 0x4
 918 010d 0B040000 		.4byte	.LASF24
 919 0111 05       		.byte	0x5
 920 0112 2C       		.byte	0x2c
 921 0113 B4000000 		.4byte	0xb4
 922 0117 04       		.uleb128 0x4
 923 0118 28040000 		.4byte	.LASF25
 924 011c 05       		.byte	0x5
 925 011d 2E       		.byte	0x2e
 926 011e CA000000 		.4byte	0xca
 927 0122 04       		.uleb128 0x4
 928 0123 F9020000 		.4byte	.LASF26
 929 0127 05       		.byte	0x5
 930 0128 2F       		.byte	0x2f
 931 0129 BF000000 		.4byte	0xbf
 932 012d 04       		.uleb128 0x4
 933 012e 41030000 		.4byte	.LASF27
 934 0132 05       		.byte	0x5
 935 0133 31       		.byte	0x31
 936 0134 CA000000 		.4byte	0xca
 937 0138 04       		.uleb128 0x4
 938 0139 96020000 		.4byte	.LASF28
 939 013d 05       		.byte	0x5
 940 013e 33       		.byte	0x33
 941 013f BF000000 		.4byte	0xbf
 942 0143 04       		.uleb128 0x4
 943 0144 04030000 		.4byte	.LASF29
 944 0148 05       		.byte	0x5
 945 0149 34       		.byte	0x34
 946 014a CA000000 		.4byte	0xca
 947 014e 04       		.uleb128 0x4
 948 014f 22050000 		.4byte	.LASF30
 949 0153 06       		.byte	0x6
 950 0154 34       		.byte	0x34
 951 0155 59010000 		.4byte	0x159
 952 0159 05       		.uleb128 0x5
 953 015a EF020000 		.4byte	.LASF49
 954 015e 60       		.byte	0x60
 955 015f 07       		.byte	0x7
 956 0160 8E       		.byte	0x8e
 957 0161 44020000 		.4byte	0x244
 958 0165 06       		.uleb128 0x6
 959 0166 BC020000 		.4byte	.LASF31
 960 016a 07       		.byte	0x7
 961 016b 8F       		.byte	0x8f
 962 016c 79020000 		.4byte	0x279
 963 0170 00       		.byte	0
 964 0171 06       		.uleb128 0x6
 965 0172 DE030000 		.4byte	.LASF32
 966 0176 07       		.byte	0x7
 967 0177 90       		.byte	0x90
 968 0178 17010000 		.4byte	0x117
 969 017c 08       		.byte	0x8
ARM GAS  /tmp/ccdqOjgL.s 			page 18


 970 017d 07       		.uleb128 0x7
 971 017e 63747800 		.ascii	"ctx\000"
 972 0182 07       		.byte	0x7
 973 0183 91       		.byte	0x91
 974 0184 94040000 		.4byte	0x494
 975 0188 0C       		.byte	0xc
 976 0189 06       		.uleb128 0x6
 977 018a 62030000 		.4byte	.LASF33
 978 018e 07       		.byte	0x7
 979 018f 93       		.byte	0x93
 980 0190 4F020000 		.4byte	0x24f
 981 0194 10       		.byte	0x10
 982 0195 06       		.uleb128 0x6
 983 0196 1C050000 		.4byte	.LASF34
 984 019a 07       		.byte	0x7
 985 019b 94       		.byte	0x94
 986 019c 4F020000 		.4byte	0x24f
 987 01a0 14       		.byte	0x14
 988 01a1 06       		.uleb128 0x6
 989 01a2 EA020000 		.4byte	.LASF35
 990 01a6 07       		.byte	0x7
 991 01a7 9B       		.byte	0x9b
 992 01a8 7A070000 		.4byte	0x77a
 993 01ac 18       		.byte	0x18
 994 01ad 06       		.uleb128 0x6
 995 01ae 10050000 		.4byte	.LASF36
 996 01b2 07       		.byte	0x7
 997 01b3 A4       		.byte	0xa4
 998 01b4 8C070000 		.4byte	0x78c
 999 01b8 1C       		.byte	0x1c
 1000 01b9 06       		.uleb128 0x6
 1001 01ba 31020000 		.4byte	.LASF37
 1002 01be 07       		.byte	0x7
 1003 01bf A9       		.byte	0xa9
 1004 01c0 01010000 		.4byte	0x101
 1005 01c4 20       		.byte	0x20
 1006 01c5 06       		.uleb128 0x6
 1007 01c6 97050000 		.4byte	.LASF38
 1008 01ca 07       		.byte	0x7
 1009 01cb AD       		.byte	0xad
 1010 01cc F6000000 		.4byte	0xf6
 1011 01d0 21       		.byte	0x21
 1012 01d1 06       		.uleb128 0x6
 1013 01d2 13040000 		.4byte	.LASF39
 1014 01d6 07       		.byte	0x7
 1015 01d7 B2       		.byte	0xb2
 1016 01d8 0C010000 		.4byte	0x10c
 1017 01dc 22       		.byte	0x22
 1018 01dd 08       		.uleb128 0x8
 1019 01de 7500     		.ascii	"u\000"
 1020 01e0 07       		.byte	0x7
 1021 01e1 0301     		.2byte	0x103
 1022 01e3 B0060000 		.4byte	0x6b0
 1023 01e7 24       		.byte	0x24
 1024 01e8 09       		.uleb128 0x9
 1025 01e9 78020000 		.4byte	.LASF40
 1026 01ed 07       		.byte	0x7
ARM GAS  /tmp/ccdqOjgL.s 			page 19


 1027 01ee 0801     		.2byte	0x108
 1028 01f0 55020000 		.4byte	0x255
 1029 01f4 28       		.byte	0x28
 1030 01f5 09       		.uleb128 0x9
 1031 01f6 28020000 		.4byte	.LASF41
 1032 01fa 07       		.byte	0x7
 1033 01fb 0E01     		.2byte	0x10e
 1034 01fd 79020000 		.4byte	0x279
 1035 0201 2C       		.byte	0x2c
 1036 0202 09       		.uleb128 0x9
 1037 0203 0B030000 		.4byte	.LASF42
 1038 0207 07       		.byte	0x7
 1039 0208 1401     		.2byte	0x114
 1040 020a 2D010000 		.4byte	0x12d
 1041 020e 34       		.byte	0x34
 1042 020f 09       		.uleb128 0x9
 1043 0210 B9050000 		.4byte	.LASF43
 1044 0214 07       		.byte	0x7
 1045 0215 1B01     		.2byte	0x11b
 1046 0217 74070000 		.4byte	0x774
 1047 021b 38       		.byte	0x38
 1048 021c 09       		.uleb128 0x9
 1049 021d 68030000 		.4byte	.LASF44
 1050 0221 07       		.byte	0x7
 1051 0222 1F01     		.2byte	0x11f
 1052 0224 17010000 		.4byte	0x117
 1053 0228 3C       		.byte	0x3c
 1054 0229 09       		.uleb128 0x9
 1055 022a C2020000 		.4byte	.LASF45
 1056 022e 07       		.byte	0x7
 1057 022f 2601     		.2byte	0x126
 1058 0231 2C030000 		.4byte	0x32c
 1059 0235 40       		.byte	0x40
 1060 0236 09       		.uleb128 0x9
 1061 0237 4E020000 		.4byte	.LASF46
 1062 023b 07       		.byte	0x7
 1063 023c 2C01     		.2byte	0x12c
 1064 023e 61060000 		.4byte	0x661
 1065 0242 48       		.byte	0x48
 1066 0243 00       		.byte	0
 1067 0244 04       		.uleb128 0x4
 1068 0245 7A030000 		.4byte	.LASF47
 1069 0249 06       		.byte	0x6
 1070 024a 39       		.byte	0x39
 1071 024b 4F020000 		.4byte	0x24f
 1072 024f 0A       		.uleb128 0xa
 1073 0250 04       		.byte	0x4
 1074 0251 4E010000 		.4byte	0x14e
 1075 0255 04       		.uleb128 0x4
 1076 0256 AA050000 		.4byte	.LASF48
 1077 025a 06       		.byte	0x6
 1078 025b 3E       		.byte	0x3e
 1079 025c 60020000 		.4byte	0x260
 1080 0260 05       		.uleb128 0x5
 1081 0261 E8040000 		.4byte	.LASF50
 1082 0265 04       		.byte	0x4
 1083 0266 07       		.byte	0x7
ARM GAS  /tmp/ccdqOjgL.s 			page 20


 1084 0267 7C       		.byte	0x7c
 1085 0268 79020000 		.4byte	0x279
 1086 026c 06       		.uleb128 0x6
 1087 026d ED010000 		.4byte	.LASF51
 1088 0271 07       		.byte	0x7
 1089 0272 7D       		.byte	0x7d
 1090 0273 4F020000 		.4byte	0x24f
 1091 0277 00       		.byte	0
 1092 0278 00       		.byte	0
 1093 0279 04       		.uleb128 0x4
 1094 027a 70050000 		.4byte	.LASF52
 1095 027e 06       		.byte	0x6
 1096 027f 45       		.byte	0x45
 1097 0280 84020000 		.4byte	0x284
 1098 0284 05       		.uleb128 0x5
 1099 0285 7A000000 		.4byte	.LASF53
 1100 0289 08       		.byte	0x8
 1101 028a 07       		.byte	0x7
 1102 028b 83       		.byte	0x83
 1103 028c A9020000 		.4byte	0x2a9
 1104 0290 06       		.uleb128 0x6
 1105 0291 ED010000 		.4byte	.LASF51
 1106 0295 07       		.byte	0x7
 1107 0296 84       		.byte	0x84
 1108 0297 4F020000 		.4byte	0x24f
 1109 029b 00       		.byte	0
 1110 029c 06       		.uleb128 0x6
 1111 029d 69000000 		.4byte	.LASF54
 1112 02a1 07       		.byte	0x7
 1113 02a2 85       		.byte	0x85
 1114 02a3 4F020000 		.4byte	0x24f
 1115 02a7 04       		.byte	0x4
 1116 02a8 00       		.byte	0
 1117 02a9 04       		.uleb128 0x4
 1118 02aa 00000000 		.4byte	.LASF55
 1119 02ae 06       		.byte	0x6
 1120 02af 4C       		.byte	0x4c
 1121 02b0 B4020000 		.4byte	0x2b4
 1122 02b4 0B       		.uleb128 0xb
 1123 02b5 33030000 		.4byte	.LASF56
 1124 02b9 1C       		.byte	0x1c
 1125 02ba 07       		.byte	0x7
 1126 02bb 5E01     		.2byte	0x15e
 1127 02bd 10030000 		.4byte	0x310
 1128 02c1 09       		.uleb128 0x9
 1129 02c2 BC020000 		.4byte	.LASF31
 1130 02c6 07       		.byte	0x7
 1131 02c7 5F01     		.2byte	0x15f
 1132 02c9 79020000 		.4byte	0x279
 1133 02cd 00       		.byte	0
 1134 02ce 09       		.uleb128 0x9
 1135 02cf DE030000 		.4byte	.LASF32
 1136 02d3 07       		.byte	0x7
 1137 02d4 6001     		.2byte	0x160
 1138 02d6 17010000 		.4byte	0x117
 1139 02da 08       		.byte	0x8
 1140 02db 08       		.uleb128 0x8
ARM GAS  /tmp/ccdqOjgL.s 			page 21


 1141 02dc 63747800 		.ascii	"ctx\000"
 1142 02e0 07       		.byte	0x7
 1143 02e1 6201     		.2byte	0x162
 1144 02e3 94040000 		.4byte	0x494
 1145 02e7 0C       		.byte	0xc
 1146 02e8 09       		.uleb128 0x9
 1147 02e9 62030000 		.4byte	.LASF33
 1148 02ed 07       		.byte	0x7
 1149 02ee 6501     		.2byte	0x165
 1150 02f0 4F020000 		.4byte	0x24f
 1151 02f4 10       		.byte	0x10
 1152 02f5 09       		.uleb128 0x9
 1153 02f6 1C050000 		.4byte	.LASF34
 1154 02fa 07       		.byte	0x7
 1155 02fb 6601     		.2byte	0x166
 1156 02fd 4F020000 		.4byte	0x24f
 1157 0301 14       		.byte	0x14
 1158 0302 09       		.uleb128 0x9
 1159 0303 E3030000 		.4byte	.LASF57
 1160 0307 07       		.byte	0x7
 1161 0308 6901     		.2byte	0x169
 1162 030a 4F020000 		.4byte	0x24f
 1163 030e 18       		.byte	0x18
 1164 030f 00       		.byte	0
 1165 0310 04       		.uleb128 0x4
 1166 0311 3A050000 		.4byte	.LASF58
 1167 0315 06       		.byte	0x6
 1168 0316 51       		.byte	0x51
 1169 0317 1B030000 		.4byte	0x31b
 1170 031b 0A       		.uleb128 0xa
 1171 031c 04       		.byte	0x4
 1172 031d 21030000 		.4byte	0x321
 1173 0321 0C       		.uleb128 0xc
 1174 0322 2C030000 		.4byte	0x32c
 1175 0326 0D       		.uleb128 0xd
 1176 0327 2C030000 		.4byte	0x32c
 1177 032b 00       		.byte	0
 1178 032c 0E       		.uleb128 0xe
 1179 032d 04       		.byte	0x4
 1180 032e 04       		.uleb128 0x4
 1181 032f 18040000 		.4byte	.LASF59
 1182 0333 06       		.byte	0x6
 1183 0334 56       		.byte	0x56
 1184 0335 39030000 		.4byte	0x339
 1185 0339 0B       		.uleb128 0xb
 1186 033a 80040000 		.4byte	.LASF60
 1187 033e 14       		.byte	0x14
 1188 033f 07       		.byte	0x7
 1189 0340 3901     		.2byte	0x139
 1190 0342 88030000 		.4byte	0x388
 1191 0346 09       		.uleb128 0x9
 1192 0347 ED010000 		.4byte	.LASF51
 1193 034b 07       		.byte	0x7
 1194 034c 3A01     		.2byte	0x13a
 1195 034e 92070000 		.4byte	0x792
 1196 0352 00       		.byte	0
 1197 0353 09       		.uleb128 0x9
ARM GAS  /tmp/ccdqOjgL.s 			page 22


 1198 0354 69000000 		.4byte	.LASF54
 1199 0358 07       		.byte	0x7
 1200 0359 3B01     		.2byte	0x13b
 1201 035b 92070000 		.4byte	0x792
 1202 035f 04       		.byte	0x4
 1203 0360 09       		.uleb128 0x9
 1204 0361 13000000 		.4byte	.LASF61
 1205 0365 07       		.byte	0x7
 1206 0366 3C01     		.2byte	0x13c
 1207 0368 6C040000 		.4byte	0x46c
 1208 036c 08       		.byte	0x8
 1209 036d 09       		.uleb128 0x9
 1210 036e 49020000 		.4byte	.LASF62
 1211 0372 07       		.byte	0x7
 1212 0373 3D01     		.2byte	0x13d
 1213 0375 10030000 		.4byte	0x310
 1214 0379 0C       		.byte	0xc
 1215 037a 08       		.uleb128 0x8
 1216 037b 70617200 		.ascii	"par\000"
 1217 037f 07       		.byte	0x7
 1218 0380 3F01     		.2byte	0x13f
 1219 0382 2C030000 		.4byte	0x32c
 1220 0386 10       		.byte	0x10
 1221 0387 00       		.byte	0
 1222 0388 04       		.uleb128 0x4
 1223 0389 CA010000 		.4byte	.LASF63
 1224 038d 06       		.byte	0x6
 1225 038e 5B       		.byte	0x5b
 1226 038f 93030000 		.4byte	0x393
 1227 0393 0B       		.uleb128 0xb
 1228 0394 8D030000 		.4byte	.LASF64
 1229 0398 10       		.byte	0x10
 1230 0399 07       		.byte	0x7
 1231 039a 4901     		.2byte	0x149
 1232 039c D5030000 		.4byte	0x3d5
 1233 03a0 09       		.uleb128 0x9
 1234 03a1 ED010000 		.4byte	.LASF51
 1235 03a5 07       		.byte	0x7
 1236 03a6 4A01     		.2byte	0x14a
 1237 03a8 92070000 		.4byte	0x792
 1238 03ac 00       		.byte	0
 1239 03ad 09       		.uleb128 0x9
 1240 03ae 69000000 		.4byte	.LASF54
 1241 03b2 07       		.byte	0x7
 1242 03b3 4C01     		.2byte	0x14c
 1243 03b5 92070000 		.4byte	0x792
 1244 03b9 04       		.byte	0x4
 1245 03ba 09       		.uleb128 0x9
 1246 03bb 13000000 		.4byte	.LASF61
 1247 03bf 07       		.byte	0x7
 1248 03c0 4E01     		.2byte	0x14e
 1249 03c2 6C040000 		.4byte	0x46c
 1250 03c6 08       		.byte	0x8
 1251 03c7 09       		.uleb128 0x9
 1252 03c8 5F040000 		.4byte	.LASF65
 1253 03cc 07       		.byte	0x7
 1254 03cd 5601     		.2byte	0x156
ARM GAS  /tmp/ccdqOjgL.s 			page 23


 1255 03cf 61040000 		.4byte	0x461
 1256 03d3 0C       		.byte	0xc
 1257 03d4 00       		.byte	0
 1258 03d5 04       		.uleb128 0x4
 1259 03d6 8B000000 		.4byte	.LASF66
 1260 03da 06       		.byte	0x6
 1261 03db 60       		.byte	0x60
 1262 03dc E0030000 		.4byte	0x3e0
 1263 03e0 0B       		.uleb128 0xb
 1264 03e1 68020000 		.4byte	.LASF67
 1265 03e5 04       		.byte	0x4
 1266 03e6 07       		.byte	0x7
 1267 03e7 7001     		.2byte	0x170
 1268 03e9 FB030000 		.4byte	0x3fb
 1269 03ed 09       		.uleb128 0x9
 1270 03ee 43050000 		.4byte	.LASF68
 1271 03f2 07       		.byte	0x7
 1272 03f3 7801     		.2byte	0x178
 1273 03f5 98070000 		.4byte	0x798
 1274 03f9 00       		.byte	0
 1275 03fa 00       		.byte	0
 1276 03fb 04       		.uleb128 0x4
 1277 03fc 14030000 		.4byte	.LASF69
 1278 0400 06       		.byte	0x6
 1279 0401 65       		.byte	0x65
 1280 0402 06040000 		.4byte	0x406
 1281 0406 0B       		.uleb128 0xb
 1282 0407 6F040000 		.4byte	.LASF70
 1283 040b D0       		.byte	0xd0
 1284 040c 07       		.byte	0x7
 1285 040d 9001     		.2byte	0x190
 1286 040f 61040000 		.4byte	0x461
 1287 0413 09       		.uleb128 0x9
 1288 0414 89050000 		.4byte	.LASF71
 1289 0418 07       		.byte	0x7
 1290 0419 9401     		.2byte	0x194
 1291 041b A9020000 		.4byte	0x2a9
 1292 041f 00       		.byte	0
 1293 0420 09       		.uleb128 0x9
 1294 0421 21020000 		.4byte	.LASF72
 1295 0425 07       		.byte	0x7
 1296 0426 9801     		.2byte	0x198
 1297 0428 88030000 		.4byte	0x388
 1298 042c 1C       		.byte	0x1c
 1299 042d 08       		.uleb128 0x8
 1300 042e 64626700 		.ascii	"dbg\000"
 1301 0432 07       		.byte	0x7
 1302 0433 9C01     		.2byte	0x19c
 1303 0435 D5030000 		.4byte	0x3d5
 1304 0439 2C       		.byte	0x2c
 1305 043a 09       		.uleb128 0x9
 1306 043b B7010000 		.4byte	.LASF73
 1307 043f 07       		.byte	0x7
 1308 0440 A001     		.2byte	0x1a0
 1309 0442 4E010000 		.4byte	0x14e
 1310 0446 30       		.byte	0x30
 1311 0447 08       		.uleb128 0x8
ARM GAS  /tmp/ccdqOjgL.s 			page 24


 1312 0448 746D00   		.ascii	"tm\000"
 1313 044b 07       		.byte	0x7
 1314 044c A501     		.2byte	0x1a5
 1315 044e 13060000 		.4byte	0x613
 1316 0452 90       		.byte	0x90
 1317 0453 09       		.uleb128 0x9
 1318 0454 52000000 		.4byte	.LASF74
 1319 0458 07       		.byte	0x7
 1320 0459 AB01     		.2byte	0x1ab
 1321 045b A5060000 		.4byte	0x6a5
 1322 045f 98       		.byte	0x98
 1323 0460 00       		.byte	0
 1324 0461 04       		.uleb128 0x4
 1325 0462 30050000 		.4byte	.LASF75
 1326 0466 08       		.byte	0x8
 1327 0467 6D       		.byte	0x6d
 1328 0468 CA000000 		.4byte	0xca
 1329 046c 04       		.uleb128 0x4
 1330 046d 88020000 		.4byte	.LASF76
 1331 0471 08       		.byte	0x8
 1332 0472 79       		.byte	0x79
 1333 0473 CA000000 		.4byte	0xca
 1334 0477 03       		.uleb128 0x3
 1335 0478 04       		.byte	0x4
 1336 0479 07       		.byte	0x7
 1337 047a 71030000 		.4byte	.LASF77
 1338 047e 04       		.uleb128 0x4
 1339 047f 5F020000 		.4byte	.LASF78
 1340 0483 09       		.byte	0x9
 1341 0484 65       		.byte	0x65
 1342 0485 2C030000 		.4byte	0x32c
 1343 0489 04       		.uleb128 0x4
 1344 048a 57030000 		.4byte	.LASF79
 1345 048e 09       		.byte	0x9
 1346 048f 6D       		.byte	0x6d
 1347 0490 D5000000 		.4byte	0xd5
 1348 0494 05       		.uleb128 0x5
 1349 0495 C0030000 		.4byte	.LASF80
 1350 0499 04       		.byte	0x4
 1351 049a 09       		.byte	0x9
 1352 049b 89       		.byte	0x89
 1353 049c AC040000 		.4byte	0x4ac
 1354 04a0 07       		.uleb128 0x7
 1355 04a1 737000   		.ascii	"sp\000"
 1356 04a4 09       		.byte	0x9
 1357 04a5 8A       		.byte	0x8a
 1358 04a6 F8050000 		.4byte	0x5f8
 1359 04aa 00       		.byte	0
 1360 04ab 00       		.byte	0
 1361 04ac 0B       		.uleb128 0xb
 1362 04ad 6E000000 		.4byte	.LASF81
 1363 04b1 64       		.byte	0x64
 1364 04b2 0A       		.byte	0xa
 1365 04b3 5901     		.2byte	0x159
 1366 04b5 F8050000 		.4byte	0x5f8
 1367 04b9 08       		.uleb128 0x8
 1368 04ba 73313600 		.ascii	"s16\000"
ARM GAS  /tmp/ccdqOjgL.s 			page 25


 1369 04be 0A       		.byte	0xa
 1370 04bf 5B01     		.2byte	0x15b
 1371 04c1 7E040000 		.4byte	0x47e
 1372 04c5 00       		.byte	0
 1373 04c6 08       		.uleb128 0x8
 1374 04c7 73313700 		.ascii	"s17\000"
 1375 04cb 0A       		.byte	0xa
 1376 04cc 5C01     		.2byte	0x15c
 1377 04ce 7E040000 		.4byte	0x47e
 1378 04d2 04       		.byte	0x4
 1379 04d3 08       		.uleb128 0x8
 1380 04d4 73313800 		.ascii	"s18\000"
 1381 04d8 0A       		.byte	0xa
 1382 04d9 5D01     		.2byte	0x15d
 1383 04db 7E040000 		.4byte	0x47e
 1384 04df 08       		.byte	0x8
 1385 04e0 08       		.uleb128 0x8
 1386 04e1 73313900 		.ascii	"s19\000"
 1387 04e5 0A       		.byte	0xa
 1388 04e6 5E01     		.2byte	0x15e
 1389 04e8 7E040000 		.4byte	0x47e
 1390 04ec 0C       		.byte	0xc
 1391 04ed 08       		.uleb128 0x8
 1392 04ee 73323000 		.ascii	"s20\000"
 1393 04f2 0A       		.byte	0xa
 1394 04f3 5F01     		.2byte	0x15f
 1395 04f5 7E040000 		.4byte	0x47e
 1396 04f9 10       		.byte	0x10
 1397 04fa 08       		.uleb128 0x8
 1398 04fb 73323100 		.ascii	"s21\000"
 1399 04ff 0A       		.byte	0xa
 1400 0500 6001     		.2byte	0x160
 1401 0502 7E040000 		.4byte	0x47e
 1402 0506 14       		.byte	0x14
 1403 0507 08       		.uleb128 0x8
 1404 0508 73323200 		.ascii	"s22\000"
 1405 050c 0A       		.byte	0xa
 1406 050d 6101     		.2byte	0x161
 1407 050f 7E040000 		.4byte	0x47e
 1408 0513 18       		.byte	0x18
 1409 0514 08       		.uleb128 0x8
 1410 0515 73323300 		.ascii	"s23\000"
 1411 0519 0A       		.byte	0xa
 1412 051a 6201     		.2byte	0x162
 1413 051c 7E040000 		.4byte	0x47e
 1414 0520 1C       		.byte	0x1c
 1415 0521 08       		.uleb128 0x8
 1416 0522 73323400 		.ascii	"s24\000"
 1417 0526 0A       		.byte	0xa
 1418 0527 6301     		.2byte	0x163
 1419 0529 7E040000 		.4byte	0x47e
 1420 052d 20       		.byte	0x20
 1421 052e 08       		.uleb128 0x8
 1422 052f 73323500 		.ascii	"s25\000"
 1423 0533 0A       		.byte	0xa
 1424 0534 6401     		.2byte	0x164
 1425 0536 7E040000 		.4byte	0x47e
ARM GAS  /tmp/ccdqOjgL.s 			page 26


 1426 053a 24       		.byte	0x24
 1427 053b 08       		.uleb128 0x8
 1428 053c 73323600 		.ascii	"s26\000"
 1429 0540 0A       		.byte	0xa
 1430 0541 6501     		.2byte	0x165
 1431 0543 7E040000 		.4byte	0x47e
 1432 0547 28       		.byte	0x28
 1433 0548 08       		.uleb128 0x8
 1434 0549 73323700 		.ascii	"s27\000"
 1435 054d 0A       		.byte	0xa
 1436 054e 6601     		.2byte	0x166
 1437 0550 7E040000 		.4byte	0x47e
 1438 0554 2C       		.byte	0x2c
 1439 0555 08       		.uleb128 0x8
 1440 0556 73323800 		.ascii	"s28\000"
 1441 055a 0A       		.byte	0xa
 1442 055b 6701     		.2byte	0x167
 1443 055d 7E040000 		.4byte	0x47e
 1444 0561 30       		.byte	0x30
 1445 0562 08       		.uleb128 0x8
 1446 0563 73323900 		.ascii	"s29\000"
 1447 0567 0A       		.byte	0xa
 1448 0568 6801     		.2byte	0x168
 1449 056a 7E040000 		.4byte	0x47e
 1450 056e 34       		.byte	0x34
 1451 056f 08       		.uleb128 0x8
 1452 0570 73333000 		.ascii	"s30\000"
 1453 0574 0A       		.byte	0xa
 1454 0575 6901     		.2byte	0x169
 1455 0577 7E040000 		.4byte	0x47e
 1456 057b 38       		.byte	0x38
 1457 057c 08       		.uleb128 0x8
 1458 057d 73333100 		.ascii	"s31\000"
 1459 0581 0A       		.byte	0xa
 1460 0582 6A01     		.2byte	0x16a
 1461 0584 7E040000 		.4byte	0x47e
 1462 0588 3C       		.byte	0x3c
 1463 0589 08       		.uleb128 0x8
 1464 058a 723400   		.ascii	"r4\000"
 1465 058d 0A       		.byte	0xa
 1466 058e 6C01     		.2byte	0x16c
 1467 0590 7E040000 		.4byte	0x47e
 1468 0594 40       		.byte	0x40
 1469 0595 08       		.uleb128 0x8
 1470 0596 723500   		.ascii	"r5\000"
 1471 0599 0A       		.byte	0xa
 1472 059a 6D01     		.2byte	0x16d
 1473 059c 7E040000 		.4byte	0x47e
 1474 05a0 44       		.byte	0x44
 1475 05a1 08       		.uleb128 0x8
 1476 05a2 723600   		.ascii	"r6\000"
 1477 05a5 0A       		.byte	0xa
 1478 05a6 6E01     		.2byte	0x16e
 1479 05a8 7E040000 		.4byte	0x47e
 1480 05ac 48       		.byte	0x48
 1481 05ad 08       		.uleb128 0x8
 1482 05ae 723700   		.ascii	"r7\000"
ARM GAS  /tmp/ccdqOjgL.s 			page 27


 1483 05b1 0A       		.byte	0xa
 1484 05b2 6F01     		.2byte	0x16f
 1485 05b4 7E040000 		.4byte	0x47e
 1486 05b8 4C       		.byte	0x4c
 1487 05b9 08       		.uleb128 0x8
 1488 05ba 723800   		.ascii	"r8\000"
 1489 05bd 0A       		.byte	0xa
 1490 05be 7001     		.2byte	0x170
 1491 05c0 7E040000 		.4byte	0x47e
 1492 05c4 50       		.byte	0x50
 1493 05c5 08       		.uleb128 0x8
 1494 05c6 723900   		.ascii	"r9\000"
 1495 05c9 0A       		.byte	0xa
 1496 05ca 7101     		.2byte	0x171
 1497 05cc 7E040000 		.4byte	0x47e
 1498 05d0 54       		.byte	0x54
 1499 05d1 08       		.uleb128 0x8
 1500 05d2 72313000 		.ascii	"r10\000"
 1501 05d6 0A       		.byte	0xa
 1502 05d7 7201     		.2byte	0x172
 1503 05d9 7E040000 		.4byte	0x47e
 1504 05dd 58       		.byte	0x58
 1505 05de 08       		.uleb128 0x8
 1506 05df 72313100 		.ascii	"r11\000"
 1507 05e3 0A       		.byte	0xa
 1508 05e4 7301     		.2byte	0x173
 1509 05e6 7E040000 		.4byte	0x47e
 1510 05ea 5C       		.byte	0x5c
 1511 05eb 08       		.uleb128 0x8
 1512 05ec 6C7200   		.ascii	"lr\000"
 1513 05ef 0A       		.byte	0xa
 1514 05f0 7401     		.2byte	0x174
 1515 05f2 7E040000 		.4byte	0x47e
 1516 05f6 60       		.byte	0x60
 1517 05f7 00       		.byte	0
 1518 05f8 0A       		.uleb128 0xa
 1519 05f9 04       		.byte	0x4
 1520 05fa AC040000 		.4byte	0x4ac
 1521 05fe 0F       		.uleb128 0xf
 1522 05ff 04       		.byte	0x4
 1523 0600 0B       		.byte	0xb
 1524 0601 38       		.byte	0x38
 1525 0602 13060000 		.4byte	0x613
 1526 0606 06       		.uleb128 0x6
 1527 0607 4D050000 		.4byte	.LASF82
 1528 060b 0B       		.byte	0xb
 1529 060c 3C       		.byte	0x3c
 1530 060d E0000000 		.4byte	0xe0
 1531 0611 00       		.byte	0
 1532 0612 00       		.byte	0
 1533 0613 04       		.uleb128 0x4
 1534 0614 CD030000 		.4byte	.LASF83
 1535 0618 0B       		.byte	0xb
 1536 0619 3D       		.byte	0x3d
 1537 061a FE050000 		.4byte	0x5fe
 1538 061e 0F       		.uleb128 0xf
 1539 061f 18       		.byte	0x18
ARM GAS  /tmp/ccdqOjgL.s 			page 28


 1540 0620 0B       		.byte	0xb
 1541 0621 48       		.byte	0x48
 1542 0622 61060000 		.4byte	0x661
 1543 0626 06       		.uleb128 0x6
 1544 0627 2B050000 		.4byte	.LASF84
 1545 062b 0B       		.byte	0xb
 1546 062c 49       		.byte	0x49
 1547 062d E0000000 		.4byte	0xe0
 1548 0631 00       		.byte	0
 1549 0632 06       		.uleb128 0x6
 1550 0633 7E010000 		.4byte	.LASF85
 1551 0637 0B       		.byte	0xb
 1552 0638 4A       		.byte	0x4a
 1553 0639 E0000000 		.4byte	0xe0
 1554 063d 04       		.byte	0x4
 1555 063e 06       		.uleb128 0x6
 1556 063f FF020000 		.4byte	.LASF86
 1557 0643 0B       		.byte	0xb
 1558 0644 4B       		.byte	0x4b
 1559 0645 E0000000 		.4byte	0xe0
 1560 0649 08       		.byte	0x8
 1561 064a 07       		.uleb128 0x7
 1562 064b 6E00     		.ascii	"n\000"
 1563 064d 0B       		.byte	0xb
 1564 064e 4C       		.byte	0x4c
 1565 064f 43010000 		.4byte	0x143
 1566 0653 0C       		.byte	0xc
 1567 0654 06       		.uleb128 0x6
 1568 0655 F6030000 		.4byte	.LASF87
 1569 0659 0B       		.byte	0xb
 1570 065a 4D       		.byte	0x4d
 1571 065b EB000000 		.4byte	0xeb
 1572 065f 10       		.byte	0x10
 1573 0660 00       		.byte	0
 1574 0661 04       		.uleb128 0x4
 1575 0662 84010000 		.4byte	.LASF88
 1576 0666 0B       		.byte	0xb
 1577 0667 4E       		.byte	0x4e
 1578 0668 1E060000 		.4byte	0x61e
 1579 066c 0F       		.uleb128 0xf
 1580 066d 38       		.byte	0x38
 1581 066e 0C       		.byte	0xc
 1582 066f 38       		.byte	0x38
 1583 0670 A5060000 		.4byte	0x6a5
 1584 0674 06       		.uleb128 0x6
 1585 0675 B6020000 		.4byte	.LASF89
 1586 0679 0C       		.byte	0xc
 1587 067a 39       		.byte	0x39
 1588 067b 43010000 		.4byte	0x143
 1589 067f 00       		.byte	0
 1590 0680 06       		.uleb128 0x6
 1591 0681 30040000 		.4byte	.LASF90
 1592 0685 0C       		.byte	0xc
 1593 0686 3A       		.byte	0x3a
 1594 0687 43010000 		.4byte	0x143
 1595 068b 04       		.byte	0x4
 1596 068c 06       		.uleb128 0x6
ARM GAS  /tmp/ccdqOjgL.s 			page 29


 1597 068d C1050000 		.4byte	.LASF91
 1598 0691 0C       		.byte	0xc
 1599 0692 3B       		.byte	0x3b
 1600 0693 61060000 		.4byte	0x661
 1601 0697 08       		.byte	0x8
 1602 0698 06       		.uleb128 0x6
 1603 0699 28030000 		.4byte	.LASF92
 1604 069d 0C       		.byte	0xc
 1605 069e 3D       		.byte	0x3d
 1606 069f 61060000 		.4byte	0x661
 1607 06a3 20       		.byte	0x20
 1608 06a4 00       		.byte	0
 1609 06a5 04       		.uleb128 0x4
 1610 06a6 DB020000 		.4byte	.LASF93
 1611 06aa 0C       		.byte	0xc
 1612 06ab 3F       		.byte	0x3f
 1613 06ac 6C060000 		.4byte	0x66c
 1614 06b0 10       		.uleb128 0x10
 1615 06b1 04       		.byte	0x4
 1616 06b2 07       		.byte	0x7
 1617 06b3 C6       		.byte	0xc6
 1618 06b4 12070000 		.4byte	0x712
 1619 06b8 11       		.uleb128 0x11
 1620 06b9 79040000 		.4byte	.LASF94
 1621 06bd 07       		.byte	0x7
 1622 06be CD       		.byte	0xcd
 1623 06bf 22010000 		.4byte	0x122
 1624 06c3 11       		.uleb128 0x11
 1625 06c4 AE010000 		.4byte	.LASF95
 1626 06c8 07       		.byte	0x7
 1627 06c9 D4       		.byte	0xd4
 1628 06ca 22010000 		.4byte	0x122
 1629 06ce 11       		.uleb128 0x11
 1630 06cf 9D050000 		.4byte	.LASF96
 1631 06d3 07       		.byte	0x7
 1632 06d4 DB       		.byte	0xdb
 1633 06d5 2C030000 		.4byte	0x32c
 1634 06d9 11       		.uleb128 0x11
 1635 06da 0D000000 		.4byte	.LASF97
 1636 06de 07       		.byte	0x7
 1637 06df E2       		.byte	0xe2
 1638 06e0 12070000 		.4byte	0x712
 1639 06e4 11       		.uleb128 0x11
 1640 06e5 C2010000 		.4byte	.LASF98
 1641 06e9 07       		.byte	0x7
 1642 06ea E7       		.byte	0xe7
 1643 06eb 22010000 		.4byte	0x122
 1644 06ef 11       		.uleb128 0x11
 1645 06f0 AF020000 		.4byte	.LASF99
 1646 06f4 07       		.byte	0x7
 1647 06f5 F0       		.byte	0xf0
 1648 06f6 3D070000 		.4byte	0x73d
 1649 06fa 11       		.uleb128 0x11
 1650 06fb E1040000 		.4byte	.LASF100
 1651 06ff 07       		.byte	0x7
 1652 0700 F9       		.byte	0xf9
 1653 0701 74070000 		.4byte	0x774
ARM GAS  /tmp/ccdqOjgL.s 			page 30


 1654 0705 12       		.uleb128 0x12
 1655 0706 68040000 		.4byte	.LASF101
 1656 070a 07       		.byte	0x7
 1657 070b 0101     		.2byte	0x101
 1658 070d 2D010000 		.4byte	0x12d
 1659 0711 00       		.byte	0
 1660 0712 0A       		.uleb128 0xa
 1661 0713 04       		.byte	0x4
 1662 0714 44020000 		.4byte	0x244
 1663 0718 05       		.uleb128 0x5
 1664 0719 91040000 		.4byte	.LASF102
 1665 071d 0C       		.byte	0xc
 1666 071e 0D       		.byte	0xd
 1667 071f 34       		.byte	0x34
 1668 0720 3D070000 		.4byte	0x73d
 1669 0724 06       		.uleb128 0x6
 1670 0725 BC020000 		.4byte	.LASF31
 1671 0729 0D       		.byte	0xd
 1672 072a 35       		.byte	0x35
 1673 072b 79020000 		.4byte	0x279
 1674 072f 00       		.byte	0
 1675 0730 07       		.uleb128 0x7
 1676 0731 636E7400 		.ascii	"cnt\000"
 1677 0735 0D       		.byte	0xd
 1678 0736 37       		.byte	0x37
 1679 0737 38010000 		.4byte	0x138
 1680 073b 08       		.byte	0x8
 1681 073c 00       		.byte	0
 1682 073d 0A       		.uleb128 0xa
 1683 073e 04       		.byte	0x4
 1684 073f 18070000 		.4byte	0x718
 1685 0743 05       		.uleb128 0x5
 1686 0744 80050000 		.4byte	.LASF103
 1687 0748 10       		.byte	0x10
 1688 0749 0E       		.byte	0xe
 1689 074a 39       		.byte	0x39
 1690 074b 74070000 		.4byte	0x774
 1691 074f 06       		.uleb128 0x6
 1692 0750 BC020000 		.4byte	.LASF31
 1693 0754 0E       		.byte	0xe
 1694 0755 3A       		.byte	0x3a
 1695 0756 79020000 		.4byte	0x279
 1696 075a 00       		.byte	0
 1697 075b 06       		.uleb128 0x6
 1698 075c F8040000 		.4byte	.LASF104
 1699 0760 0E       		.byte	0xe
 1700 0761 3C       		.byte	0x3c
 1701 0762 4F020000 		.4byte	0x24f
 1702 0766 08       		.byte	0x8
 1703 0767 06       		.uleb128 0x6
 1704 0768 ED010000 		.4byte	.LASF51
 1705 076c 0E       		.byte	0xe
 1706 076d 3E       		.byte	0x3e
 1707 076e A8070000 		.4byte	0x7a8
 1708 0772 0C       		.byte	0xc
 1709 0773 00       		.byte	0
 1710 0774 0A       		.uleb128 0xa
ARM GAS  /tmp/ccdqOjgL.s 			page 31


 1711 0775 04       		.byte	0x4
 1712 0776 43070000 		.4byte	0x743
 1713 077a 0A       		.uleb128 0xa
 1714 077b 04       		.byte	0x4
 1715 077c 87070000 		.4byte	0x787
 1716 0780 03       		.uleb128 0x3
 1717 0781 01       		.byte	0x1
 1718 0782 08       		.byte	0x8
 1719 0783 17050000 		.4byte	.LASF105
 1720 0787 13       		.uleb128 0x13
 1721 0788 80070000 		.4byte	0x780
 1722 078c 0A       		.uleb128 0xa
 1723 078d 04       		.byte	0x4
 1724 078e 89040000 		.4byte	0x489
 1725 0792 0A       		.uleb128 0xa
 1726 0793 04       		.byte	0x4
 1727 0794 2E030000 		.4byte	0x32e
 1728 0798 14       		.uleb128 0x14
 1729 0799 7A070000 		.4byte	0x77a
 1730 079d 04       		.uleb128 0x4
 1731 079e 80020000 		.4byte	.LASF106
 1732 07a2 0E       		.byte	0xe
 1733 07a3 34       		.byte	0x34
 1734 07a4 43070000 		.4byte	0x743
 1735 07a8 0A       		.uleb128 0xa
 1736 07a9 04       		.byte	0x4
 1737 07aa 9D070000 		.4byte	0x79d
 1738 07ae 03       		.uleb128 0x3
 1739 07af 01       		.byte	0x1
 1740 07b0 02       		.byte	0x2
 1741 07b1 39040000 		.4byte	.LASF107
 1742 07b5 15       		.uleb128 0x15
 1743 07b6 B0030000 		.4byte	.LASF108
 1744 07ba 01       		.byte	0x1
 1745 07bb 8F3B     		.2byte	0x3b8f
 1746 07bd 53000000 		.4byte	0x53
 1747 07c1 00000000 		.4byte	.LFB290
 1748 07c5 34000000 		.4byte	.LFE290-.LFB290
 1749 07c9 01       		.uleb128 0x1
 1750 07ca 9C       		.byte	0x9c
 1751 07cb 0E080000 		.4byte	0x80e
 1752 07cf 16       		.uleb128 0x16
 1753 07d0 756E6900 		.ascii	"uni\000"
 1754 07d4 01       		.byte	0x1
 1755 07d5 903B     		.2byte	0x3b90
 1756 07d7 53000000 		.4byte	0x53
 1757 07db 00000000 		.4byte	.LLST0
 1758 07df 16       		.uleb128 0x16
 1759 07e0 637000   		.ascii	"cp\000"
 1760 07e3 01       		.byte	0x1
 1761 07e4 913B     		.2byte	0x3b91
 1762 07e6 41000000 		.4byte	0x41
 1763 07ea 3A000000 		.4byte	.LLST1
 1764 07ee 17       		.uleb128 0x17
 1765 07ef 6300     		.ascii	"c\000"
 1766 07f1 01       		.byte	0x1
 1767 07f2 943B     		.2byte	0x3b94
ARM GAS  /tmp/ccdqOjgL.s 			page 32


 1768 07f4 53000000 		.4byte	0x53
 1769 07f8 5B000000 		.4byte	.LLST2
 1770 07fc 18       		.uleb128 0x18
 1771 07fd 7000     		.ascii	"p\000"
 1772 07ff 01       		.byte	0x1
 1773 0800 953B     		.2byte	0x3b95
 1774 0802 0E080000 		.4byte	0x80e
 1775 0806 06       		.uleb128 0x6
 1776 0807 03       		.byte	0x3
 1777 0808 00000000 		.4byte	uc850
 1778 080c 9F       		.byte	0x9f
 1779 080d 00       		.byte	0
 1780 080e 0A       		.uleb128 0xa
 1781 080f 04       		.byte	0x4
 1782 0810 14080000 		.4byte	0x814
 1783 0814 13       		.uleb128 0x13
 1784 0815 53000000 		.4byte	0x53
 1785 0819 15       		.uleb128 0x15
 1786 081a 54050000 		.4byte	.LASF109
 1787 081e 01       		.byte	0x1
 1788 081f A43B     		.2byte	0x3ba4
 1789 0821 53000000 		.4byte	0x53
 1790 0825 00000000 		.4byte	.LFB291
 1791 0829 28000000 		.4byte	.LFE291-.LFB291
 1792 082d 01       		.uleb128 0x1
 1793 082e 9C       		.byte	0x9c
 1794 082f 70080000 		.4byte	0x870
 1795 0833 16       		.uleb128 0x16
 1796 0834 6F656D00 		.ascii	"oem\000"
 1797 0838 01       		.byte	0x1
 1798 0839 A53B     		.2byte	0x3ba5
 1799 083b 53000000 		.4byte	0x53
 1800 083f 9F000000 		.4byte	.LLST3
 1801 0843 19       		.uleb128 0x19
 1802 0844 637000   		.ascii	"cp\000"
 1803 0847 01       		.byte	0x1
 1804 0848 A63B     		.2byte	0x3ba6
 1805 084a 41000000 		.4byte	0x41
 1806 084e 01       		.uleb128 0x1
 1807 084f 51       		.byte	0x51
 1808 0850 17       		.uleb128 0x17
 1809 0851 6300     		.ascii	"c\000"
 1810 0853 01       		.byte	0x1
 1811 0854 A93B     		.2byte	0x3ba9
 1812 0856 53000000 		.4byte	0x53
 1813 085a D9000000 		.4byte	.LLST4
 1814 085e 18       		.uleb128 0x18
 1815 085f 7000     		.ascii	"p\000"
 1816 0861 01       		.byte	0x1
 1817 0862 AA3B     		.2byte	0x3baa
 1818 0864 0E080000 		.4byte	0x80e
 1819 0868 06       		.uleb128 0x6
 1820 0869 03       		.byte	0x3
 1821 086a 00000000 		.4byte	uc850
 1822 086e 9F       		.byte	0x9f
 1823 086f 00       		.byte	0
 1824 0870 15       		.uleb128 0x15
ARM GAS  /tmp/ccdqOjgL.s 			page 33


 1825 0871 15020000 		.4byte	.LASF110
 1826 0875 01       		.byte	0x1
 1827 0876 773C     		.2byte	0x3c77
 1828 0878 53000000 		.4byte	0x53
 1829 087c 00000000 		.4byte	.LFB292
 1830 0880 84000000 		.4byte	.LFE292-.LFB292
 1831 0884 01       		.uleb128 0x1
 1832 0885 9C       		.byte	0x9c
 1833 0886 FB080000 		.4byte	0x8fb
 1834 088a 16       		.uleb128 0x16
 1835 088b 756E6900 		.ascii	"uni\000"
 1836 088f 01       		.byte	0x1
 1837 0890 783C     		.2byte	0x3c78
 1838 0892 53000000 		.4byte	0x53
 1839 0896 0F010000 		.4byte	.LLST5
 1840 089a 1A       		.uleb128 0x1a
 1841 089b 01040000 		.4byte	.LASF111
 1842 089f 01       		.byte	0x1
 1843 08a0 7C3C     		.2byte	0x3c7c
 1844 08a2 0B090000 		.4byte	0x90b
 1845 08a6 05       		.uleb128 0x5
 1846 08a7 03       		.byte	0x3
 1847 08a8 00000000 		.4byte	cvt1.7377
 1848 08ac 1A       		.uleb128 0x1a
 1849 08ad 06040000 		.4byte	.LASF112
 1850 08b1 01       		.byte	0x1
 1851 08b2 943C     		.2byte	0x3c94
 1852 08b4 20090000 		.4byte	0x920
 1853 08b8 05       		.uleb128 0x5
 1854 08b9 03       		.byte	0x3
 1855 08ba 00000000 		.4byte	cvt2.7378
 1856 08be 17       		.uleb128 0x17
 1857 08bf 7000     		.ascii	"p\000"
 1858 08c1 01       		.byte	0x1
 1859 08c2 B03C     		.2byte	0x3cb0
 1860 08c4 0E080000 		.4byte	0x80e
 1861 08c8 03020000 		.4byte	.LLST6
 1862 08cc 17       		.uleb128 0x17
 1863 08cd 626300   		.ascii	"bc\000"
 1864 08d0 01       		.byte	0x1
 1865 08d1 B13C     		.2byte	0x3cb1
 1866 08d3 53000000 		.4byte	0x53
 1867 08d7 39020000 		.4byte	.LLST7
 1868 08db 17       		.uleb128 0x17
 1869 08dc 6E6300   		.ascii	"nc\000"
 1870 08df 01       		.byte	0x1
 1871 08e0 B13C     		.2byte	0x3cb1
 1872 08e2 53000000 		.4byte	0x53
 1873 08e6 91020000 		.4byte	.LLST8
 1874 08ea 17       		.uleb128 0x17
 1875 08eb 636D6400 		.ascii	"cmd\000"
 1876 08ef 01       		.byte	0x1
 1877 08f0 B13C     		.2byte	0x3cb1
 1878 08f2 53000000 		.4byte	0x53
 1879 08f6 A4020000 		.4byte	.LLST9
 1880 08fa 00       		.byte	0
 1881 08fb 1B       		.uleb128 0x1b
ARM GAS  /tmp/ccdqOjgL.s 			page 34


 1882 08fc 14080000 		.4byte	0x814
 1883 0900 0B090000 		.4byte	0x90b
 1884 0904 1C       		.uleb128 0x1c
 1885 0905 77040000 		.4byte	0x477
 1886 0909 F8       		.byte	0xf8
 1887 090a 00       		.byte	0
 1888 090b 13       		.uleb128 0x13
 1889 090c FB080000 		.4byte	0x8fb
 1890 0910 1B       		.uleb128 0x1b
 1891 0911 14080000 		.4byte	0x814
 1892 0915 20090000 		.4byte	0x920
 1893 0919 1C       		.uleb128 0x1c
 1894 091a 77040000 		.4byte	0x477
 1895 091e 5D       		.byte	0x5d
 1896 091f 00       		.byte	0
 1897 0920 13       		.uleb128 0x13
 1898 0921 10090000 		.4byte	0x910
 1899 0925 1B       		.uleb128 0x1b
 1900 0926 14080000 		.4byte	0x814
 1901 092a 35090000 		.4byte	0x935
 1902 092e 1C       		.uleb128 0x1c
 1903 092f 77040000 		.4byte	0x477
 1904 0933 7F       		.byte	0x7f
 1905 0934 00       		.byte	0
 1906 0935 1A       		.uleb128 0x1a
 1907 0936 A9020000 		.4byte	.LASF113
 1908 093a 01       		.byte	0x1
 1909 093b EB3A     		.2byte	0x3aeb
 1910 093d 47090000 		.4byte	0x947
 1911 0941 05       		.uleb128 0x5
 1912 0942 03       		.byte	0x3
 1913 0943 00000000 		.4byte	uc850
 1914 0947 13       		.uleb128 0x13
 1915 0948 25090000 		.4byte	0x925
 1916 094c 1D       		.uleb128 0x1d
 1917 094d E0010000 		.4byte	.LASF114
 1918 0951 0F       		.byte	0xf
 1919 0952 0408     		.2byte	0x804
 1920 0954 58090000 		.4byte	0x958
 1921 0958 14       		.uleb128 0x14
 1922 0959 BF000000 		.4byte	0xbf
 1923 095d 1E       		.uleb128 0x1e
 1924 095e 636800   		.ascii	"ch\000"
 1925 0961 07       		.byte	0x7
 1926 0962 C701     		.2byte	0x1c7
 1927 0964 FB030000 		.4byte	0x3fb
 1928 0968 00       		.byte	0
 1929              		.section	.debug_abbrev,"",%progbits
 1930              	.Ldebug_abbrev0:
 1931 0000 01       		.uleb128 0x1
 1932 0001 11       		.uleb128 0x11
 1933 0002 01       		.byte	0x1
 1934 0003 25       		.uleb128 0x25
 1935 0004 0E       		.uleb128 0xe
 1936 0005 13       		.uleb128 0x13
 1937 0006 0B       		.uleb128 0xb
 1938 0007 03       		.uleb128 0x3
ARM GAS  /tmp/ccdqOjgL.s 			page 35


 1939 0008 0E       		.uleb128 0xe
 1940 0009 1B       		.uleb128 0x1b
 1941 000a 0E       		.uleb128 0xe
 1942 000b 55       		.uleb128 0x55
 1943 000c 17       		.uleb128 0x17
 1944 000d 11       		.uleb128 0x11
 1945 000e 01       		.uleb128 0x1
 1946 000f 10       		.uleb128 0x10
 1947 0010 17       		.uleb128 0x17
 1948 0011 00       		.byte	0
 1949 0012 00       		.byte	0
 1950 0013 02       		.uleb128 0x2
 1951 0014 24       		.uleb128 0x24
 1952 0015 00       		.byte	0
 1953 0016 0B       		.uleb128 0xb
 1954 0017 0B       		.uleb128 0xb
 1955 0018 3E       		.uleb128 0x3e
 1956 0019 0B       		.uleb128 0xb
 1957 001a 03       		.uleb128 0x3
 1958 001b 08       		.uleb128 0x8
 1959 001c 00       		.byte	0
 1960 001d 00       		.byte	0
 1961 001e 03       		.uleb128 0x3
 1962 001f 24       		.uleb128 0x24
 1963 0020 00       		.byte	0
 1964 0021 0B       		.uleb128 0xb
 1965 0022 0B       		.uleb128 0xb
 1966 0023 3E       		.uleb128 0x3e
 1967 0024 0B       		.uleb128 0xb
 1968 0025 03       		.uleb128 0x3
 1969 0026 0E       		.uleb128 0xe
 1970 0027 00       		.byte	0
 1971 0028 00       		.byte	0
 1972 0029 04       		.uleb128 0x4
 1973 002a 16       		.uleb128 0x16
 1974 002b 00       		.byte	0
 1975 002c 03       		.uleb128 0x3
 1976 002d 0E       		.uleb128 0xe
 1977 002e 3A       		.uleb128 0x3a
 1978 002f 0B       		.uleb128 0xb
 1979 0030 3B       		.uleb128 0x3b
 1980 0031 0B       		.uleb128 0xb
 1981 0032 49       		.uleb128 0x49
 1982 0033 13       		.uleb128 0x13
 1983 0034 00       		.byte	0
 1984 0035 00       		.byte	0
 1985 0036 05       		.uleb128 0x5
 1986 0037 13       		.uleb128 0x13
 1987 0038 01       		.byte	0x1
 1988 0039 03       		.uleb128 0x3
 1989 003a 0E       		.uleb128 0xe
 1990 003b 0B       		.uleb128 0xb
 1991 003c 0B       		.uleb128 0xb
 1992 003d 3A       		.uleb128 0x3a
 1993 003e 0B       		.uleb128 0xb
 1994 003f 3B       		.uleb128 0x3b
 1995 0040 0B       		.uleb128 0xb
ARM GAS  /tmp/ccdqOjgL.s 			page 36


 1996 0041 01       		.uleb128 0x1
 1997 0042 13       		.uleb128 0x13
 1998 0043 00       		.byte	0
 1999 0044 00       		.byte	0
 2000 0045 06       		.uleb128 0x6
 2001 0046 0D       		.uleb128 0xd
 2002 0047 00       		.byte	0
 2003 0048 03       		.uleb128 0x3
 2004 0049 0E       		.uleb128 0xe
 2005 004a 3A       		.uleb128 0x3a
 2006 004b 0B       		.uleb128 0xb
 2007 004c 3B       		.uleb128 0x3b
 2008 004d 0B       		.uleb128 0xb
 2009 004e 49       		.uleb128 0x49
 2010 004f 13       		.uleb128 0x13
 2011 0050 38       		.uleb128 0x38
 2012 0051 0B       		.uleb128 0xb
 2013 0052 00       		.byte	0
 2014 0053 00       		.byte	0
 2015 0054 07       		.uleb128 0x7
 2016 0055 0D       		.uleb128 0xd
 2017 0056 00       		.byte	0
 2018 0057 03       		.uleb128 0x3
 2019 0058 08       		.uleb128 0x8
 2020 0059 3A       		.uleb128 0x3a
 2021 005a 0B       		.uleb128 0xb
 2022 005b 3B       		.uleb128 0x3b
 2023 005c 0B       		.uleb128 0xb
 2024 005d 49       		.uleb128 0x49
 2025 005e 13       		.uleb128 0x13
 2026 005f 38       		.uleb128 0x38
 2027 0060 0B       		.uleb128 0xb
 2028 0061 00       		.byte	0
 2029 0062 00       		.byte	0
 2030 0063 08       		.uleb128 0x8
 2031 0064 0D       		.uleb128 0xd
 2032 0065 00       		.byte	0
 2033 0066 03       		.uleb128 0x3
 2034 0067 08       		.uleb128 0x8
 2035 0068 3A       		.uleb128 0x3a
 2036 0069 0B       		.uleb128 0xb
 2037 006a 3B       		.uleb128 0x3b
 2038 006b 05       		.uleb128 0x5
 2039 006c 49       		.uleb128 0x49
 2040 006d 13       		.uleb128 0x13
 2041 006e 38       		.uleb128 0x38
 2042 006f 0B       		.uleb128 0xb
 2043 0070 00       		.byte	0
 2044 0071 00       		.byte	0
 2045 0072 09       		.uleb128 0x9
 2046 0073 0D       		.uleb128 0xd
 2047 0074 00       		.byte	0
 2048 0075 03       		.uleb128 0x3
 2049 0076 0E       		.uleb128 0xe
 2050 0077 3A       		.uleb128 0x3a
 2051 0078 0B       		.uleb128 0xb
 2052 0079 3B       		.uleb128 0x3b
ARM GAS  /tmp/ccdqOjgL.s 			page 37


 2053 007a 05       		.uleb128 0x5
 2054 007b 49       		.uleb128 0x49
 2055 007c 13       		.uleb128 0x13
 2056 007d 38       		.uleb128 0x38
 2057 007e 0B       		.uleb128 0xb
 2058 007f 00       		.byte	0
 2059 0080 00       		.byte	0
 2060 0081 0A       		.uleb128 0xa
 2061 0082 0F       		.uleb128 0xf
 2062 0083 00       		.byte	0
 2063 0084 0B       		.uleb128 0xb
 2064 0085 0B       		.uleb128 0xb
 2065 0086 49       		.uleb128 0x49
 2066 0087 13       		.uleb128 0x13
 2067 0088 00       		.byte	0
 2068 0089 00       		.byte	0
 2069 008a 0B       		.uleb128 0xb
 2070 008b 13       		.uleb128 0x13
 2071 008c 01       		.byte	0x1
 2072 008d 03       		.uleb128 0x3
 2073 008e 0E       		.uleb128 0xe
 2074 008f 0B       		.uleb128 0xb
 2075 0090 0B       		.uleb128 0xb
 2076 0091 3A       		.uleb128 0x3a
 2077 0092 0B       		.uleb128 0xb
 2078 0093 3B       		.uleb128 0x3b
 2079 0094 05       		.uleb128 0x5
 2080 0095 01       		.uleb128 0x1
 2081 0096 13       		.uleb128 0x13
 2082 0097 00       		.byte	0
 2083 0098 00       		.byte	0
 2084 0099 0C       		.uleb128 0xc
 2085 009a 15       		.uleb128 0x15
 2086 009b 01       		.byte	0x1
 2087 009c 27       		.uleb128 0x27
 2088 009d 19       		.uleb128 0x19
 2089 009e 01       		.uleb128 0x1
 2090 009f 13       		.uleb128 0x13
 2091 00a0 00       		.byte	0
 2092 00a1 00       		.byte	0
 2093 00a2 0D       		.uleb128 0xd
 2094 00a3 05       		.uleb128 0x5
 2095 00a4 00       		.byte	0
 2096 00a5 49       		.uleb128 0x49
 2097 00a6 13       		.uleb128 0x13
 2098 00a7 00       		.byte	0
 2099 00a8 00       		.byte	0
 2100 00a9 0E       		.uleb128 0xe
 2101 00aa 0F       		.uleb128 0xf
 2102 00ab 00       		.byte	0
 2103 00ac 0B       		.uleb128 0xb
 2104 00ad 0B       		.uleb128 0xb
 2105 00ae 00       		.byte	0
 2106 00af 00       		.byte	0
 2107 00b0 0F       		.uleb128 0xf
 2108 00b1 13       		.uleb128 0x13
 2109 00b2 01       		.byte	0x1
ARM GAS  /tmp/ccdqOjgL.s 			page 38


 2110 00b3 0B       		.uleb128 0xb
 2111 00b4 0B       		.uleb128 0xb
 2112 00b5 3A       		.uleb128 0x3a
 2113 00b6 0B       		.uleb128 0xb
 2114 00b7 3B       		.uleb128 0x3b
 2115 00b8 0B       		.uleb128 0xb
 2116 00b9 01       		.uleb128 0x1
 2117 00ba 13       		.uleb128 0x13
 2118 00bb 00       		.byte	0
 2119 00bc 00       		.byte	0
 2120 00bd 10       		.uleb128 0x10
 2121 00be 17       		.uleb128 0x17
 2122 00bf 01       		.byte	0x1
 2123 00c0 0B       		.uleb128 0xb
 2124 00c1 0B       		.uleb128 0xb
 2125 00c2 3A       		.uleb128 0x3a
 2126 00c3 0B       		.uleb128 0xb
 2127 00c4 3B       		.uleb128 0x3b
 2128 00c5 0B       		.uleb128 0xb
 2129 00c6 01       		.uleb128 0x1
 2130 00c7 13       		.uleb128 0x13
 2131 00c8 00       		.byte	0
 2132 00c9 00       		.byte	0
 2133 00ca 11       		.uleb128 0x11
 2134 00cb 0D       		.uleb128 0xd
 2135 00cc 00       		.byte	0
 2136 00cd 03       		.uleb128 0x3
 2137 00ce 0E       		.uleb128 0xe
 2138 00cf 3A       		.uleb128 0x3a
 2139 00d0 0B       		.uleb128 0xb
 2140 00d1 3B       		.uleb128 0x3b
 2141 00d2 0B       		.uleb128 0xb
 2142 00d3 49       		.uleb128 0x49
 2143 00d4 13       		.uleb128 0x13
 2144 00d5 00       		.byte	0
 2145 00d6 00       		.byte	0
 2146 00d7 12       		.uleb128 0x12
 2147 00d8 0D       		.uleb128 0xd
 2148 00d9 00       		.byte	0
 2149 00da 03       		.uleb128 0x3
 2150 00db 0E       		.uleb128 0xe
 2151 00dc 3A       		.uleb128 0x3a
 2152 00dd 0B       		.uleb128 0xb
 2153 00de 3B       		.uleb128 0x3b
 2154 00df 05       		.uleb128 0x5
 2155 00e0 49       		.uleb128 0x49
 2156 00e1 13       		.uleb128 0x13
 2157 00e2 00       		.byte	0
 2158 00e3 00       		.byte	0
 2159 00e4 13       		.uleb128 0x13
 2160 00e5 26       		.uleb128 0x26
 2161 00e6 00       		.byte	0
 2162 00e7 49       		.uleb128 0x49
 2163 00e8 13       		.uleb128 0x13
 2164 00e9 00       		.byte	0
 2165 00ea 00       		.byte	0
 2166 00eb 14       		.uleb128 0x14
ARM GAS  /tmp/ccdqOjgL.s 			page 39


 2167 00ec 35       		.uleb128 0x35
 2168 00ed 00       		.byte	0
 2169 00ee 49       		.uleb128 0x49
 2170 00ef 13       		.uleb128 0x13
 2171 00f0 00       		.byte	0
 2172 00f1 00       		.byte	0
 2173 00f2 15       		.uleb128 0x15
 2174 00f3 2E       		.uleb128 0x2e
 2175 00f4 01       		.byte	0x1
 2176 00f5 3F       		.uleb128 0x3f
 2177 00f6 19       		.uleb128 0x19
 2178 00f7 03       		.uleb128 0x3
 2179 00f8 0E       		.uleb128 0xe
 2180 00f9 3A       		.uleb128 0x3a
 2181 00fa 0B       		.uleb128 0xb
 2182 00fb 3B       		.uleb128 0x3b
 2183 00fc 05       		.uleb128 0x5
 2184 00fd 27       		.uleb128 0x27
 2185 00fe 19       		.uleb128 0x19
 2186 00ff 49       		.uleb128 0x49
 2187 0100 13       		.uleb128 0x13
 2188 0101 11       		.uleb128 0x11
 2189 0102 01       		.uleb128 0x1
 2190 0103 12       		.uleb128 0x12
 2191 0104 06       		.uleb128 0x6
 2192 0105 40       		.uleb128 0x40
 2193 0106 18       		.uleb128 0x18
 2194 0107 9742     		.uleb128 0x2117
 2195 0109 19       		.uleb128 0x19
 2196 010a 01       		.uleb128 0x1
 2197 010b 13       		.uleb128 0x13
 2198 010c 00       		.byte	0
 2199 010d 00       		.byte	0
 2200 010e 16       		.uleb128 0x16
 2201 010f 05       		.uleb128 0x5
 2202 0110 00       		.byte	0
 2203 0111 03       		.uleb128 0x3
 2204 0112 08       		.uleb128 0x8
 2205 0113 3A       		.uleb128 0x3a
 2206 0114 0B       		.uleb128 0xb
 2207 0115 3B       		.uleb128 0x3b
 2208 0116 05       		.uleb128 0x5
 2209 0117 49       		.uleb128 0x49
 2210 0118 13       		.uleb128 0x13
 2211 0119 02       		.uleb128 0x2
 2212 011a 17       		.uleb128 0x17
 2213 011b 00       		.byte	0
 2214 011c 00       		.byte	0
 2215 011d 17       		.uleb128 0x17
 2216 011e 34       		.uleb128 0x34
 2217 011f 00       		.byte	0
 2218 0120 03       		.uleb128 0x3
 2219 0121 08       		.uleb128 0x8
 2220 0122 3A       		.uleb128 0x3a
 2221 0123 0B       		.uleb128 0xb
 2222 0124 3B       		.uleb128 0x3b
 2223 0125 05       		.uleb128 0x5
ARM GAS  /tmp/ccdqOjgL.s 			page 40


 2224 0126 49       		.uleb128 0x49
 2225 0127 13       		.uleb128 0x13
 2226 0128 02       		.uleb128 0x2
 2227 0129 17       		.uleb128 0x17
 2228 012a 00       		.byte	0
 2229 012b 00       		.byte	0
 2230 012c 18       		.uleb128 0x18
 2231 012d 34       		.uleb128 0x34
 2232 012e 00       		.byte	0
 2233 012f 03       		.uleb128 0x3
 2234 0130 08       		.uleb128 0x8
 2235 0131 3A       		.uleb128 0x3a
 2236 0132 0B       		.uleb128 0xb
 2237 0133 3B       		.uleb128 0x3b
 2238 0134 05       		.uleb128 0x5
 2239 0135 49       		.uleb128 0x49
 2240 0136 13       		.uleb128 0x13
 2241 0137 02       		.uleb128 0x2
 2242 0138 18       		.uleb128 0x18
 2243 0139 00       		.byte	0
 2244 013a 00       		.byte	0
 2245 013b 19       		.uleb128 0x19
 2246 013c 05       		.uleb128 0x5
 2247 013d 00       		.byte	0
 2248 013e 03       		.uleb128 0x3
 2249 013f 08       		.uleb128 0x8
 2250 0140 3A       		.uleb128 0x3a
 2251 0141 0B       		.uleb128 0xb
 2252 0142 3B       		.uleb128 0x3b
 2253 0143 05       		.uleb128 0x5
 2254 0144 49       		.uleb128 0x49
 2255 0145 13       		.uleb128 0x13
 2256 0146 02       		.uleb128 0x2
 2257 0147 18       		.uleb128 0x18
 2258 0148 00       		.byte	0
 2259 0149 00       		.byte	0
 2260 014a 1A       		.uleb128 0x1a
 2261 014b 34       		.uleb128 0x34
 2262 014c 00       		.byte	0
 2263 014d 03       		.uleb128 0x3
 2264 014e 0E       		.uleb128 0xe
 2265 014f 3A       		.uleb128 0x3a
 2266 0150 0B       		.uleb128 0xb
 2267 0151 3B       		.uleb128 0x3b
 2268 0152 05       		.uleb128 0x5
 2269 0153 49       		.uleb128 0x49
 2270 0154 13       		.uleb128 0x13
 2271 0155 02       		.uleb128 0x2
 2272 0156 18       		.uleb128 0x18
 2273 0157 00       		.byte	0
 2274 0158 00       		.byte	0
 2275 0159 1B       		.uleb128 0x1b
 2276 015a 01       		.uleb128 0x1
 2277 015b 01       		.byte	0x1
 2278 015c 49       		.uleb128 0x49
 2279 015d 13       		.uleb128 0x13
 2280 015e 01       		.uleb128 0x1
ARM GAS  /tmp/ccdqOjgL.s 			page 41


 2281 015f 13       		.uleb128 0x13
 2282 0160 00       		.byte	0
 2283 0161 00       		.byte	0
 2284 0162 1C       		.uleb128 0x1c
 2285 0163 21       		.uleb128 0x21
 2286 0164 00       		.byte	0
 2287 0165 49       		.uleb128 0x49
 2288 0166 13       		.uleb128 0x13
 2289 0167 2F       		.uleb128 0x2f
 2290 0168 0B       		.uleb128 0xb
 2291 0169 00       		.byte	0
 2292 016a 00       		.byte	0
 2293 016b 1D       		.uleb128 0x1d
 2294 016c 34       		.uleb128 0x34
 2295 016d 00       		.byte	0
 2296 016e 03       		.uleb128 0x3
 2297 016f 0E       		.uleb128 0xe
 2298 0170 3A       		.uleb128 0x3a
 2299 0171 0B       		.uleb128 0xb
 2300 0172 3B       		.uleb128 0x3b
 2301 0173 05       		.uleb128 0x5
 2302 0174 49       		.uleb128 0x49
 2303 0175 13       		.uleb128 0x13
 2304 0176 3F       		.uleb128 0x3f
 2305 0177 19       		.uleb128 0x19
 2306 0178 3C       		.uleb128 0x3c
 2307 0179 19       		.uleb128 0x19
 2308 017a 00       		.byte	0
 2309 017b 00       		.byte	0
 2310 017c 1E       		.uleb128 0x1e
 2311 017d 34       		.uleb128 0x34
 2312 017e 00       		.byte	0
 2313 017f 03       		.uleb128 0x3
 2314 0180 08       		.uleb128 0x8
 2315 0181 3A       		.uleb128 0x3a
 2316 0182 0B       		.uleb128 0xb
 2317 0183 3B       		.uleb128 0x3b
 2318 0184 05       		.uleb128 0x5
 2319 0185 49       		.uleb128 0x49
 2320 0186 13       		.uleb128 0x13
 2321 0187 3F       		.uleb128 0x3f
 2322 0188 19       		.uleb128 0x19
 2323 0189 3C       		.uleb128 0x3c
 2324 018a 19       		.uleb128 0x19
 2325 018b 00       		.byte	0
 2326 018c 00       		.byte	0
 2327 018d 00       		.byte	0
 2328              		.section	.debug_loc,"",%progbits
 2329              	.Ldebug_loc0:
 2330              	.LLST0:
 2331 0000 00000000 		.4byte	.LVL0
 2332 0004 10000000 		.4byte	.LVL1
 2333 0008 0100     		.2byte	0x1
 2334 000a 50       		.byte	0x50
 2335 000b 10000000 		.4byte	.LVL1
 2336 000f 12000000 		.4byte	.LVL2
 2337 0013 0400     		.2byte	0x4
ARM GAS  /tmp/ccdqOjgL.s 			page 42


 2338 0015 F3       		.byte	0xf3
 2339 0016 01       		.uleb128 0x1
 2340 0017 50       		.byte	0x50
 2341 0018 9F       		.byte	0x9f
 2342 0019 12000000 		.4byte	.LVL2
 2343 001d 2C000000 		.4byte	.LVL8
 2344 0021 0100     		.2byte	0x1
 2345 0023 50       		.byte	0x50
 2346 0024 2C000000 		.4byte	.LVL8
 2347 0028 34000000 		.4byte	.LFE290
 2348 002c 0400     		.2byte	0x4
 2349 002e F3       		.byte	0xf3
 2350 002f 01       		.uleb128 0x1
 2351 0030 50       		.byte	0x50
 2352 0031 9F       		.byte	0x9f
 2353 0032 00000000 		.4byte	0
 2354 0036 00000000 		.4byte	0
 2355              	.LLST1:
 2356 003a 00000000 		.4byte	.LVL0
 2357 003e 16000000 		.4byte	.LVL3
 2358 0042 0100     		.2byte	0x1
 2359 0044 51       		.byte	0x51
 2360 0045 16000000 		.4byte	.LVL3
 2361 0049 34000000 		.4byte	.LFE290
 2362 004d 0400     		.2byte	0x4
 2363 004f F3       		.byte	0xf3
 2364 0050 01       		.uleb128 0x1
 2365 0051 51       		.byte	0x51
 2366 0052 9F       		.byte	0x9f
 2367 0053 00000000 		.4byte	0
 2368 0057 00000000 		.4byte	0
 2369              	.LLST2:
 2370 005b 00000000 		.4byte	.LVL0
 2371 005f 16000000 		.4byte	.LVL3
 2372 0063 0200     		.2byte	0x2
 2373 0065 30       		.byte	0x30
 2374 0066 9F       		.byte	0x9f
 2375 0067 1E000000 		.4byte	.LVL4
 2376 006b 20000000 		.4byte	.LVL5
 2377 006f 0100     		.2byte	0x1
 2378 0071 52       		.byte	0x52
 2379 0072 20000000 		.4byte	.LVL5
 2380 0076 22000000 		.4byte	.LVL6
 2381 007a 0300     		.2byte	0x3
 2382 007c 73       		.byte	0x73
 2383 007d 01       		.sleb128 1
 2384 007e 9F       		.byte	0x9f
 2385 007f 22000000 		.4byte	.LVL6
 2386 0083 28000000 		.4byte	.LVL7
 2387 0087 0300     		.2byte	0x3
 2388 0089 72       		.byte	0x72
 2389 008a 01       		.sleb128 1
 2390 008b 9F       		.byte	0x9f
 2391 008c 2E000000 		.4byte	.LVL9
 2392 0090 34000000 		.4byte	.LFE290
 2393 0094 0100     		.2byte	0x1
 2394 0096 50       		.byte	0x50
ARM GAS  /tmp/ccdqOjgL.s 			page 43


 2395 0097 00000000 		.4byte	0
 2396 009b 00000000 		.4byte	0
 2397              	.LLST3:
 2398 009f 00000000 		.4byte	.LVL10
 2399 00a3 14000000 		.4byte	.LVL11
 2400 00a7 0100     		.2byte	0x1
 2401 00a9 50       		.byte	0x50
 2402 00aa 14000000 		.4byte	.LVL11
 2403 00ae 1E000000 		.4byte	.LVL13
 2404 00b2 0400     		.2byte	0x4
 2405 00b4 F3       		.byte	0xf3
 2406 00b5 01       		.uleb128 0x1
 2407 00b6 50       		.byte	0x50
 2408 00b7 9F       		.byte	0x9f
 2409 00b8 1E000000 		.4byte	.LVL13
 2410 00bc 20000000 		.4byte	.LVL14
 2411 00c0 0100     		.2byte	0x1
 2412 00c2 50       		.byte	0x50
 2413 00c3 20000000 		.4byte	.LVL14
 2414 00c7 28000000 		.4byte	.LFE291
 2415 00cb 0400     		.2byte	0x4
 2416 00cd F3       		.byte	0xf3
 2417 00ce 01       		.uleb128 0x1
 2418 00cf 50       		.byte	0x50
 2419 00d0 9F       		.byte	0x9f
 2420 00d1 00000000 		.4byte	0
 2421 00d5 00000000 		.4byte	0
 2422              	.LLST4:
 2423 00d9 00000000 		.4byte	.LVL10
 2424 00dd 1C000000 		.4byte	.LVL12
 2425 00e1 0200     		.2byte	0x2
 2426 00e3 30       		.byte	0x30
 2427 00e4 9F       		.byte	0x9f
 2428 00e5 1C000000 		.4byte	.LVL12
 2429 00e9 1E000000 		.4byte	.LVL13
 2430 00ed 0100     		.2byte	0x1
 2431 00ef 50       		.byte	0x50
 2432 00f0 1E000000 		.4byte	.LVL13
 2433 00f4 20000000 		.4byte	.LVL14
 2434 00f8 0200     		.2byte	0x2
 2435 00fa 30       		.byte	0x30
 2436 00fb 9F       		.byte	0x9f
 2437 00fc 20000000 		.4byte	.LVL14
 2438 0100 28000000 		.4byte	.LFE291
 2439 0104 0100     		.2byte	0x1
 2440 0106 50       		.byte	0x50
 2441 0107 00000000 		.4byte	0
 2442 010b 00000000 		.4byte	0
 2443              	.LLST5:
 2444 010f 00000000 		.4byte	.LVL15
 2445 0113 3E000000 		.4byte	.LVL22
 2446 0117 0100     		.2byte	0x1
 2447 0119 50       		.byte	0x50
 2448 011a 3E000000 		.4byte	.LVL22
 2449 011e 42000000 		.4byte	.LVL23
 2450 0122 0400     		.2byte	0x4
 2451 0124 F3       		.byte	0xf3
ARM GAS  /tmp/ccdqOjgL.s 			page 44


 2452 0125 01       		.uleb128 0x1
 2453 0126 50       		.byte	0x50
 2454 0127 9F       		.byte	0x9f
 2455 0128 42000000 		.4byte	.LVL23
 2456 012c 4C000000 		.4byte	.LVL26
 2457 0130 0100     		.2byte	0x1
 2458 0132 50       		.byte	0x50
 2459 0133 4C000000 		.4byte	.LVL26
 2460 0137 4E000000 		.4byte	.LVL27
 2461 013b 0400     		.2byte	0x4
 2462 013d F3       		.byte	0xf3
 2463 013e 01       		.uleb128 0x1
 2464 013f 50       		.byte	0x50
 2465 0140 9F       		.byte	0x9f
 2466 0141 4E000000 		.4byte	.LVL27
 2467 0145 50000000 		.4byte	.LVL28
 2468 0149 0100     		.2byte	0x1
 2469 014b 50       		.byte	0x50
 2470 014c 50000000 		.4byte	.LVL28
 2471 0150 52000000 		.4byte	.LVL29
 2472 0154 0400     		.2byte	0x4
 2473 0156 F3       		.byte	0xf3
 2474 0157 01       		.uleb128 0x1
 2475 0158 50       		.byte	0x50
 2476 0159 9F       		.byte	0x9f
 2477 015a 52000000 		.4byte	.LVL29
 2478 015e 54000000 		.4byte	.LVL30
 2479 0162 0100     		.2byte	0x1
 2480 0164 50       		.byte	0x50
 2481 0165 54000000 		.4byte	.LVL30
 2482 0169 56000000 		.4byte	.LVL31
 2483 016d 0400     		.2byte	0x4
 2484 016f F3       		.byte	0xf3
 2485 0170 01       		.uleb128 0x1
 2486 0171 50       		.byte	0x50
 2487 0172 9F       		.byte	0x9f
 2488 0173 56000000 		.4byte	.LVL31
 2489 0177 58000000 		.4byte	.LVL32
 2490 017b 0100     		.2byte	0x1
 2491 017d 50       		.byte	0x50
 2492 017e 58000000 		.4byte	.LVL32
 2493 0182 5A000000 		.4byte	.LVL33
 2494 0186 0400     		.2byte	0x4
 2495 0188 F3       		.byte	0xf3
 2496 0189 01       		.uleb128 0x1
 2497 018a 50       		.byte	0x50
 2498 018b 9F       		.byte	0x9f
 2499 018c 5A000000 		.4byte	.LVL33
 2500 0190 5C000000 		.4byte	.LVL34
 2501 0194 0100     		.2byte	0x1
 2502 0196 50       		.byte	0x50
 2503 0197 5C000000 		.4byte	.LVL34
 2504 019b 5E000000 		.4byte	.LVL35
 2505 019f 0400     		.2byte	0x4
 2506 01a1 F3       		.byte	0xf3
 2507 01a2 01       		.uleb128 0x1
 2508 01a3 50       		.byte	0x50
ARM GAS  /tmp/ccdqOjgL.s 			page 45


 2509 01a4 9F       		.byte	0x9f
 2510 01a5 5E000000 		.4byte	.LVL35
 2511 01a9 60000000 		.4byte	.LVL36
 2512 01ad 0100     		.2byte	0x1
 2513 01af 50       		.byte	0x50
 2514 01b0 60000000 		.4byte	.LVL36
 2515 01b4 62000000 		.4byte	.LVL37
 2516 01b8 0400     		.2byte	0x4
 2517 01ba F3       		.byte	0xf3
 2518 01bb 01       		.uleb128 0x1
 2519 01bc 50       		.byte	0x50
 2520 01bd 9F       		.byte	0x9f
 2521 01be 62000000 		.4byte	.LVL37
 2522 01c2 64000000 		.4byte	.LVL38
 2523 01c6 0100     		.2byte	0x1
 2524 01c8 50       		.byte	0x50
 2525 01c9 64000000 		.4byte	.LVL38
 2526 01cd 66000000 		.4byte	.LVL39
 2527 01d1 0400     		.2byte	0x4
 2528 01d3 F3       		.byte	0xf3
 2529 01d4 01       		.uleb128 0x1
 2530 01d5 50       		.byte	0x50
 2531 01d6 9F       		.byte	0x9f
 2532 01d7 66000000 		.4byte	.LVL39
 2533 01db 6A000000 		.4byte	.LVL40
 2534 01df 0100     		.2byte	0x1
 2535 01e1 50       		.byte	0x50
 2536 01e2 6A000000 		.4byte	.LVL40
 2537 01e6 6C000000 		.4byte	.LVL41
 2538 01ea 0400     		.2byte	0x4
 2539 01ec F3       		.byte	0xf3
 2540 01ed 01       		.uleb128 0x1
 2541 01ee 50       		.byte	0x50
 2542 01ef 9F       		.byte	0x9f
 2543 01f0 6C000000 		.4byte	.LVL41
 2544 01f4 84000000 		.4byte	.LFE292
 2545 01f8 0100     		.2byte	0x1
 2546 01fa 50       		.byte	0x50
 2547 01fb 00000000 		.4byte	0
 2548 01ff 00000000 		.4byte	0
 2549              	.LLST6:
 2550 0203 10000000 		.4byte	.LVL16
 2551 0207 1C000000 		.4byte	.LVL18
 2552 020b 0300     		.2byte	0x3
 2553 020d 71       		.byte	0x71
 2554 020e 7E       		.sleb128 -2
 2555 020f 9F       		.byte	0x9f
 2556 0210 1C000000 		.4byte	.LVL18
 2557 0214 70000000 		.4byte	.LVL43
 2558 0218 0100     		.2byte	0x1
 2559 021a 51       		.byte	0x51
 2560 021b 70000000 		.4byte	.LVL43
 2561 021f 78000000 		.4byte	.LVL44
 2562 0223 0100     		.2byte	0x1
 2563 0225 52       		.byte	0x52
 2564 0226 78000000 		.4byte	.LVL44
 2565 022a 7A000000 		.4byte	.LVL45
ARM GAS  /tmp/ccdqOjgL.s 			page 46


 2566 022e 0100     		.2byte	0x1
 2567 0230 53       		.byte	0x53
 2568 0231 00000000 		.4byte	0
 2569 0235 00000000 		.4byte	0
 2570              	.LLST7:
 2571 0239 14000000 		.4byte	.LVL17
 2572 023d 46000000 		.4byte	.LVL25
 2573 0241 0100     		.2byte	0x1
 2574 0243 53       		.byte	0x53
 2575 0244 46000000 		.4byte	.LVL25
 2576 0248 4E000000 		.4byte	.LVL27
 2577 024c 0200     		.2byte	0x2
 2578 024e 71       		.byte	0x71
 2579 024f 7C       		.sleb128 -4
 2580 0250 4E000000 		.4byte	.LVL27
 2581 0254 6A000000 		.4byte	.LVL40
 2582 0258 0100     		.2byte	0x1
 2583 025a 53       		.byte	0x53
 2584 025b 6A000000 		.4byte	.LVL40
 2585 025f 6E000000 		.4byte	.LVL42
 2586 0263 0200     		.2byte	0x2
 2587 0265 71       		.byte	0x71
 2588 0266 7C       		.sleb128 -4
 2589 0267 6E000000 		.4byte	.LVL42
 2590 026b 78000000 		.4byte	.LVL44
 2591 026f 0100     		.2byte	0x1
 2592 0271 53       		.byte	0x53
 2593 0272 78000000 		.4byte	.LVL44
 2594 0276 7A000000 		.4byte	.LVL45
 2595 027a 0200     		.2byte	0x2
 2596 027c 72       		.byte	0x72
 2597 027d 7C       		.sleb128 -4
 2598 027e 7A000000 		.4byte	.LVL45
 2599 0282 84000000 		.4byte	.LFE292
 2600 0286 0100     		.2byte	0x1
 2601 0288 53       		.byte	0x53
 2602 0289 00000000 		.4byte	0
 2603 028d 00000000 		.4byte	0
 2604              	.LLST8:
 2605 0291 20000000 		.4byte	.LVL19
 2606 0295 7A000000 		.4byte	.LVL45
 2607 0299 0100     		.2byte	0x1
 2608 029b 54       		.byte	0x54
 2609 029c 00000000 		.4byte	0
 2610 02a0 00000000 		.4byte	0
 2611              	.LLST9:
 2612 02a4 22000000 		.4byte	.LVL20
 2613 02a8 7A000000 		.4byte	.LVL45
 2614 02ac 0100     		.2byte	0x1
 2615 02ae 55       		.byte	0x55
 2616 02af 00000000 		.4byte	0
 2617 02b3 00000000 		.4byte	0
 2618              		.section	.debug_aranges,"",%progbits
 2619 0000 2C000000 		.4byte	0x2c
 2620 0004 0200     		.2byte	0x2
 2621 0006 00000000 		.4byte	.Ldebug_info0
 2622 000a 04       		.byte	0x4
ARM GAS  /tmp/ccdqOjgL.s 			page 47


 2623 000b 00       		.byte	0
 2624 000c 0000     		.2byte	0
 2625 000e 0000     		.2byte	0
 2626 0010 00000000 		.4byte	.LFB290
 2627 0014 34000000 		.4byte	.LFE290-.LFB290
 2628 0018 00000000 		.4byte	.LFB291
 2629 001c 28000000 		.4byte	.LFE291-.LFB291
 2630 0020 00000000 		.4byte	.LFB292
 2631 0024 84000000 		.4byte	.LFE292-.LFB292
 2632 0028 00000000 		.4byte	0
 2633 002c 00000000 		.4byte	0
 2634              		.section	.debug_ranges,"",%progbits
 2635              	.Ldebug_ranges0:
 2636 0000 00000000 		.4byte	.LFB290
 2637 0004 34000000 		.4byte	.LFE290
 2638 0008 00000000 		.4byte	.LFB291
 2639 000c 28000000 		.4byte	.LFE291
 2640 0010 00000000 		.4byte	.LFB292
 2641 0014 84000000 		.4byte	.LFE292
 2642 0018 00000000 		.4byte	0
 2643 001c 00000000 		.4byte	0
 2644              		.section	.debug_line,"",%progbits
 2645              	.Ldebug_line0:
 2646 0000 7C020000 		.section	.debug_str,"MS",%progbits,1
 2646      0200FB01 
 2646      00000201 
 2646      FB0E0D00 
 2646      01010101 
 2647              	.LASF55:
 2648 0000 72656164 		.ascii	"ready_list_t\000"
 2648      795F6C69 
 2648      73745F74 
 2648      00
 2649              	.LASF97:
 2650 000d 77747472 		.ascii	"wttrp\000"
 2650      7000
 2651              	.LASF61:
 2652 0013 64656C74 		.ascii	"delta\000"
 2652      6100
 2653              	.LASF116:
 2654 0019 2E2E2F2E 		.ascii	"../../modules/ChibiOS/ext/fatfs/src/ffunicode.c\000"
 2654      2E2F6D6F 
 2654      64756C65 
 2654      732F4368 
 2654      6962694F 
 2655              	.LASF19:
 2656 0049 75696E74 		.ascii	"uint64_t\000"
 2656      36345F74 
 2656      00
 2657              	.LASF74:
 2658 0052 6B65726E 		.ascii	"kernel_stats\000"
 2658      656C5F73 
 2658      74617473 
 2658      00
 2659              	.LASF12:
 2660 005f 5F5F7569 		.ascii	"__uint8_t\000"
 2660      6E74385F 
ARM GAS  /tmp/ccdqOjgL.s 			page 48


 2660      7400
 2661              	.LASF54:
 2662 0069 70726576 		.ascii	"prev\000"
 2662      00
 2663              	.LASF81:
 2664 006e 706F7274 		.ascii	"port_intctx\000"
 2664      5F696E74 
 2664      63747800 
 2665              	.LASF53:
 2666 007a 63685F74 		.ascii	"ch_threads_queue\000"
 2666      68726561 
 2666      64735F71 
 2666      75657565 
 2666      00
 2667              	.LASF66:
 2668 008b 73797374 		.ascii	"system_debug_t\000"
 2668      656D5F64 
 2668      65627567 
 2668      5F7400
 2669              	.LASF115:
 2670 009a 474E5520 		.ascii	"GNU C11 5.4.1 20160919 -mcpu=cortex-m4 -mfloat-abi="
 2670      43313120 
 2670      352E342E 
 2670      31203230 
 2670      31363039 
 2671 00cd 68617264 		.ascii	"hard -mfpu=fpv4-sp-d16 -mno-thumb-interwork -mthumb"
 2671      202D6D66 
 2671      70753D66 
 2671      7076342D 
 2671      73702D64 
 2672 0100 202D6720 		.ascii	" -g -Os -fomit-frame-pointer -falign-functions=16 -"
 2672      2D4F7320 
 2672      2D666F6D 
 2672      69742D66 
 2672      72616D65 
 2673 0133 6666756E 		.ascii	"ffunction-sections -fdata-sections -fno-common -fsi"
 2673      6374696F 
 2673      6E2D7365 
 2673      6374696F 
 2673      6E73202D 
 2674 0166 6E676C65 		.ascii	"ngle-precision-constant\000"
 2674      2D707265 
 2674      63697369 
 2674      6F6E2D63 
 2674      6F6E7374 
 2675              	.LASF85:
 2676 017e 776F7273 		.ascii	"worst\000"
 2676      7400
 2677              	.LASF88:
 2678 0184 74696D65 		.ascii	"time_measurement_t\000"
 2678      5F6D6561 
 2678      73757265 
 2678      6D656E74 
 2678      5F7400
 2679              	.LASF8:
 2680 0197 6C6F6E67 		.ascii	"long long unsigned int\000"
 2680      206C6F6E 
ARM GAS  /tmp/ccdqOjgL.s 			page 49


 2680      6720756E 
 2680      7369676E 
 2680      65642069 
 2681              	.LASF95:
 2682 01ae 65786974 		.ascii	"exitcode\000"
 2682      636F6465 
 2682      00
 2683              	.LASF73:
 2684 01b7 6D61696E 		.ascii	"mainthread\000"
 2684      74687265 
 2684      616400
 2685              	.LASF98:
 2686 01c2 73656E74 		.ascii	"sentmsg\000"
 2686      6D736700 
 2687              	.LASF63:
 2688 01ca 76697274 		.ascii	"virtual_timers_list_t\000"
 2688      75616C5F 
 2688      74696D65 
 2688      72735F6C 
 2688      6973745F 
 2689              	.LASF114:
 2690 01e0 49544D5F 		.ascii	"ITM_RxBuffer\000"
 2690      52784275 
 2690      66666572 
 2690      00
 2691              	.LASF51:
 2692 01ed 6E657874 		.ascii	"next\000"
 2692      00
 2693              	.LASF21:
 2694 01f2 72747469 		.ascii	"rttime_t\000"
 2694      6D655F74 
 2694      00
 2695              	.LASF9:
 2696 01fb 6C6F6E67 		.ascii	"long long int\000"
 2696      206C6F6E 
 2696      6720696E 
 2696      7400
 2697              	.LASF11:
 2698 0209 7369676E 		.ascii	"signed char\000"
 2698      65642063 
 2698      68617200 
 2699              	.LASF110:
 2700 0215 66665F77 		.ascii	"ff_wtoupper\000"
 2700      746F7570 
 2700      70657200 
 2701              	.LASF72:
 2702 0221 76746C69 		.ascii	"vtlist\000"
 2702      737400
 2703              	.LASF41:
 2704 0228 6D736771 		.ascii	"msgqueue\000"
 2704      75657565 
 2704      00
 2705              	.LASF37:
 2706 0231 73746174 		.ascii	"state\000"
 2706      6500
 2707              	.LASF6:
 2708 0237 6C6F6E67 		.ascii	"long int\000"
ARM GAS  /tmp/ccdqOjgL.s 			page 50


 2708      20696E74 
 2708      00
 2709              	.LASF23:
 2710 0240 74737461 		.ascii	"tstate_t\000"
 2710      74655F74 
 2710      00
 2711              	.LASF62:
 2712 0249 66756E63 		.ascii	"func\000"
 2712      00
 2713              	.LASF46:
 2714 024e 73746174 		.ascii	"stats\000"
 2714      7300
 2715              	.LASF14:
 2716 0254 5F5F7569 		.ascii	"__uint32_t\000"
 2716      6E743332 
 2716      5F7400
 2717              	.LASF78:
 2718 025f 72656761 		.ascii	"regarm_t\000"
 2718      726D5F74 
 2718      00
 2719              	.LASF67:
 2720 0268 63685F73 		.ascii	"ch_system_debug\000"
 2720      79737465 
 2720      6D5F6465 
 2720      62756700 
 2721              	.LASF40:
 2722 0278 77616974 		.ascii	"waiting\000"
 2722      696E6700 
 2723              	.LASF106:
 2724 0280 6D757465 		.ascii	"mutex_t\000"
 2724      785F7400 
 2725              	.LASF76:
 2726 0288 73797369 		.ascii	"sysinterval_t\000"
 2726      6E746572 
 2726      76616C5F 
 2726      7400
 2727              	.LASF28:
 2728 0296 636E745F 		.ascii	"cnt_t\000"
 2728      7400
 2729              	.LASF0:
 2730 029c 756E7369 		.ascii	"unsigned int\000"
 2730      676E6564 
 2730      20696E74 
 2730      00
 2731              	.LASF113:
 2732 02a9 75633835 		.ascii	"uc850\000"
 2732      3000
 2733              	.LASF99:
 2734 02af 77747365 		.ascii	"wtsemp\000"
 2734      6D7000
 2735              	.LASF89:
 2736 02b6 6E5F6972 		.ascii	"n_irq\000"
 2736      7100
 2737              	.LASF31:
 2738 02bc 71756575 		.ascii	"queue\000"
 2738      6500
 2739              	.LASF45:
ARM GAS  /tmp/ccdqOjgL.s 			page 51


 2740 02c2 6D706F6F 		.ascii	"mpool\000"
 2740      6C00
 2741              	.LASF3:
 2742 02c8 73686F72 		.ascii	"short unsigned int\000"
 2742      7420756E 
 2742      7369676E 
 2742      65642069 
 2742      6E7400
 2743              	.LASF93:
 2744 02db 6B65726E 		.ascii	"kernel_stats_t\000"
 2744      656C5F73 
 2744      74617473 
 2744      5F7400
 2745              	.LASF35:
 2746 02ea 6E616D65 		.ascii	"name\000"
 2746      00
 2747              	.LASF49:
 2748 02ef 63685F74 		.ascii	"ch_thread\000"
 2748      68726561 
 2748      6400
 2749              	.LASF26:
 2750 02f9 6D73675F 		.ascii	"msg_t\000"
 2750      7400
 2751              	.LASF86:
 2752 02ff 6C617374 		.ascii	"last\000"
 2752      00
 2753              	.LASF29:
 2754 0304 75636E74 		.ascii	"ucnt_t\000"
 2754      5F7400
 2755              	.LASF42:
 2756 030b 6570656E 		.ascii	"epending\000"
 2756      64696E67 
 2756      00
 2757              	.LASF69:
 2758 0314 63685F73 		.ascii	"ch_system_t\000"
 2758      79737465 
 2758      6D5F7400 
 2759              	.LASF22:
 2760 0320 746D6F64 		.ascii	"tmode_t\000"
 2760      655F7400 
 2761              	.LASF92:
 2762 0328 6D5F6372 		.ascii	"m_crit_isr\000"
 2762      69745F69 
 2762      737200
 2763              	.LASF56:
 2764 0333 63685F72 		.ascii	"ch_ready_list\000"
 2764      65616479 
 2764      5F6C6973 
 2764      7400
 2765              	.LASF27:
 2766 0341 6576656E 		.ascii	"eventmask_t\000"
 2766      746D6173 
 2766      6B5F7400 
 2767              	.LASF13:
 2768 034d 5F5F696E 		.ascii	"__int32_t\000"
 2768      7433325F 
 2768      7400
ARM GAS  /tmp/ccdqOjgL.s 			page 52


 2769              	.LASF79:
 2770 0357 73746B61 		.ascii	"stkalign_t\000"
 2770      6C69676E 
 2770      5F7400
 2771              	.LASF33:
 2772 0362 6E657765 		.ascii	"newer\000"
 2772      7200
 2773              	.LASF44:
 2774 0368 7265616C 		.ascii	"realprio\000"
 2774      7072696F 
 2774      00
 2775              	.LASF77:
 2776 0371 73697A65 		.ascii	"sizetype\000"
 2776      74797065 
 2776      00
 2777              	.LASF47:
 2778 037a 74687265 		.ascii	"thread_reference_t\000"
 2778      61645F72 
 2778      65666572 
 2778      656E6365 
 2778      5F7400
 2779              	.LASF64:
 2780 038d 63685F76 		.ascii	"ch_virtual_timers_list\000"
 2780      69727475 
 2780      616C5F74 
 2780      696D6572 
 2780      735F6C69 
 2781              	.LASF10:
 2782 03a4 6C6F6E67 		.ascii	"long double\000"
 2782      20646F75 
 2782      626C6500 
 2783              	.LASF108:
 2784 03b0 66665F75 		.ascii	"ff_uni2oem\000"
 2784      6E69326F 
 2784      656D00
 2785              	.LASF4:
 2786 03bb 574F5244 		.ascii	"WORD\000"
 2786      00
 2787              	.LASF80:
 2788 03c0 706F7274 		.ascii	"port_context\000"
 2788      5F636F6E 
 2788      74657874 
 2788      00
 2789              	.LASF83:
 2790 03cd 746D5F63 		.ascii	"tm_calibration_t\000"
 2790      616C6962 
 2790      72617469 
 2790      6F6E5F74 
 2790      00
 2791              	.LASF32:
 2792 03de 7072696F 		.ascii	"prio\000"
 2792      00
 2793              	.LASF57:
 2794 03e3 63757272 		.ascii	"current\000"
 2794      656E7400 
 2795              	.LASF15:
 2796 03eb 5F5F7569 		.ascii	"__uint64_t\000"
ARM GAS  /tmp/ccdqOjgL.s 			page 53


 2796      6E743634 
 2796      5F7400
 2797              	.LASF87:
 2798 03f6 63756D75 		.ascii	"cumulative\000"
 2798      6C617469 
 2798      766500
 2799              	.LASF111:
 2800 0401 63767431 		.ascii	"cvt1\000"
 2800      00
 2801              	.LASF112:
 2802 0406 63767432 		.ascii	"cvt2\000"
 2802      00
 2803              	.LASF24:
 2804 040b 74726566 		.ascii	"trefs_t\000"
 2804      735F7400 
 2805              	.LASF39:
 2806 0413 72656673 		.ascii	"refs\000"
 2806      00
 2807              	.LASF59:
 2808 0418 76697274 		.ascii	"virtual_timer_t\000"
 2808      75616C5F 
 2808      74696D65 
 2808      725F7400 
 2809              	.LASF25:
 2810 0428 74707269 		.ascii	"tprio_t\000"
 2810      6F5F7400 
 2811              	.LASF90:
 2812 0430 6E5F6374 		.ascii	"n_ctxswc\000"
 2812      78737763 
 2812      00
 2813              	.LASF107:
 2814 0439 5F426F6F 		.ascii	"_Bool\000"
 2814      6C00
 2815              	.LASF17:
 2816 043f 696E7433 		.ascii	"int32_t\000"
 2816      325F7400 
 2817              	.LASF1:
 2818 0447 756E7369 		.ascii	"unsigned char\000"
 2818      676E6564 
 2818      20636861 
 2818      7200
 2819              	.LASF2:
 2820 0455 73686F72 		.ascii	"short int\000"
 2820      7420696E 
 2820      7400
 2821              	.LASF65:
 2822 045f 6C617374 		.ascii	"lasttime\000"
 2822      74696D65 
 2822      00
 2823              	.LASF101:
 2824 0468 65776D61 		.ascii	"ewmask\000"
 2824      736B00
 2825              	.LASF70:
 2826 046f 63685F73 		.ascii	"ch_system\000"
 2826      79737465 
 2826      6D00
 2827              	.LASF94:
ARM GAS  /tmp/ccdqOjgL.s 			page 54


 2828 0479 7264796D 		.ascii	"rdymsg\000"
 2828      736700
 2829              	.LASF60:
 2830 0480 63685F76 		.ascii	"ch_virtual_timer\000"
 2830      69727475 
 2830      616C5F74 
 2830      696D6572 
 2830      00
 2831              	.LASF102:
 2832 0491 63685F73 		.ascii	"ch_semaphore\000"
 2832      656D6170 
 2832      686F7265 
 2832      00
 2833              	.LASF117:
 2834 049e 2F686F6D 		.ascii	"/home/user/csse4011/project/4011-surfbee/ardupilot/"
 2834      652F7573 
 2834      65722F63 
 2834      73736534 
 2834      3031312F 
 2835 04d1 6275696C 		.ascii	"build/stm32l475\000"
 2835      642F7374 
 2835      6D33326C 
 2835      34373500 
 2836              	.LASF100:
 2837 04e1 77746D74 		.ascii	"wtmtxp\000"
 2837      787000
 2838              	.LASF50:
 2839 04e8 63685F74 		.ascii	"ch_threads_list\000"
 2839      68726561 
 2839      64735F6C 
 2839      69737400 
 2840              	.LASF104:
 2841 04f8 6F776E65 		.ascii	"owner\000"
 2841      7200
 2842              	.LASF7:
 2843 04fe 6C6F6E67 		.ascii	"long unsigned int\000"
 2843      20756E73 
 2843      69676E65 
 2843      6420696E 
 2843      7400
 2844              	.LASF36:
 2845 0510 77616261 		.ascii	"wabase\000"
 2845      736500
 2846              	.LASF105:
 2847 0517 63686172 		.ascii	"char\000"
 2847      00
 2848              	.LASF34:
 2849 051c 6F6C6465 		.ascii	"older\000"
 2849      7200
 2850              	.LASF30:
 2851 0522 74687265 		.ascii	"thread_t\000"
 2851      61645F74 
 2851      00
 2852              	.LASF84:
 2853 052b 62657374 		.ascii	"best\000"
 2853      00
 2854              	.LASF75:
ARM GAS  /tmp/ccdqOjgL.s 			page 55


 2855 0530 73797374 		.ascii	"systime_t\000"
 2855      696D655F 
 2855      7400
 2856              	.LASF58:
 2857 053a 76746675 		.ascii	"vtfunc_t\000"
 2857      6E635F74 
 2857      00
 2858              	.LASF68:
 2859 0543 70616E69 		.ascii	"panic_msg\000"
 2859      635F6D73 
 2859      6700
 2860              	.LASF82:
 2861 054d 6F666673 		.ascii	"offset\000"
 2861      657400
 2862              	.LASF109:
 2863 0554 66665F6F 		.ascii	"ff_oem2uni\000"
 2863      656D3275 
 2863      6E6900
 2864              	.LASF20:
 2865 055f 7274636E 		.ascii	"rtcnt_t\000"
 2865      745F7400 
 2866              	.LASF18:
 2867 0567 75696E74 		.ascii	"uint32_t\000"
 2867      33325F74 
 2867      00
 2868              	.LASF52:
 2869 0570 74687265 		.ascii	"threads_queue_t\000"
 2869      6164735F 
 2869      71756575 
 2869      655F7400 
 2870              	.LASF103:
 2871 0580 63685F6D 		.ascii	"ch_mutex\000"
 2871      75746578 
 2871      00
 2872              	.LASF71:
 2873 0589 726C6973 		.ascii	"rlist\000"
 2873      7400
 2874              	.LASF16:
 2875 058f 75696E74 		.ascii	"uint8_t\000"
 2875      385F7400 
 2876              	.LASF38:
 2877 0597 666C6167 		.ascii	"flags\000"
 2877      7300
 2878              	.LASF96:
 2879 059d 77746F62 		.ascii	"wtobjp\000"
 2879      6A7000
 2880              	.LASF5:
 2881 05a4 57434841 		.ascii	"WCHAR\000"
 2881      5200
 2882              	.LASF48:
 2883 05aa 74687265 		.ascii	"threads_list_t\000"
 2883      6164735F 
 2883      6C697374 
 2883      5F7400
 2884              	.LASF43:
 2885 05b9 6D74786C 		.ascii	"mtxlist\000"
 2885      69737400 
ARM GAS  /tmp/ccdqOjgL.s 			page 56


 2886              	.LASF91:
 2887 05c1 6D5F6372 		.ascii	"m_crit_thd\000"
 2887      69745F74 
 2887      686400
 2888              		.ident	"GCC: (15:5.4.1+svn241155-1) 5.4.1 20160919"
ARM GAS  /tmp/ccdqOjgL.s 			page 57


DEFINED SYMBOLS
                            *ABS*:0000000000000000 ffunicode.c
     /tmp/ccdqOjgL.s:22     .text.ff_uni2oem:0000000000000000 $t
     /tmp/ccdqOjgL.s:27     .text.ff_uni2oem:0000000000000000 ff_uni2oem
     /tmp/ccdqOjgL.s:84     .text.ff_uni2oem:0000000000000030 $d
     /tmp/ccdqOjgL.s:89     .text.ff_oem2uni:0000000000000000 $t
     /tmp/ccdqOjgL.s:94     .text.ff_oem2uni:0000000000000000 ff_oem2uni
     /tmp/ccdqOjgL.s:131    .text.ff_oem2uni:0000000000000024 $d
     /tmp/ccdqOjgL.s:136    .text.ff_wtoupper:0000000000000000 $t
     /tmp/ccdqOjgL.s:141    .text.ff_wtoupper:0000000000000000 ff_wtoupper
     /tmp/ccdqOjgL.s:190    .text.ff_wtoupper:0000000000000032 $d
     /tmp/ccdqOjgL.s:279    .text.ff_wtoupper:000000000000007c $d
     /tmp/ccdqOjgL.s:285    .rodata.uc850:0000000000000000 $d
     /tmp/ccdqOjgL.s:289    .rodata.uc850:0000000000000000 uc850
     /tmp/ccdqOjgL.s:419    .rodata.cvt2.7378:0000000000000000 $d
     /tmp/ccdqOjgL.s:423    .rodata.cvt2.7378:0000000000000000 cvt2.7378
     /tmp/ccdqOjgL.s:519    .rodata.cvt1.7377:0000000000000000 $d
     /tmp/ccdqOjgL.s:523    .rodata.cvt1.7377:0000000000000000 cvt1.7377
                     .debug_frame:0000000000000010 $d
     /tmp/ccdqOjgL.s:199    .text.ff_wtoupper:000000000000003b $d
     /tmp/ccdqOjgL.s:199    .text.ff_wtoupper:000000000000003c $t

NO UNDEFINED SYMBOLS
