ARM GAS  /tmp/ccQ8K1iD.s 			page 1


   1              		.syntax unified
   2              		.cpu cortex-m4
   3              		.eabi_attribute 27, 1
   4              		.eabi_attribute 28, 1
   5              		.fpu fpv4-sp-d16
   6              		.eabi_attribute 20, 1
   7              		.eabi_attribute 21, 1
   8              		.eabi_attribute 23, 3
   9              		.eabi_attribute 24, 1
  10              		.eabi_attribute 25, 1
  11              		.eabi_attribute 26, 1
  12              		.eabi_attribute 30, 4
  13              		.eabi_attribute 34, 1
  14              		.eabi_attribute 18, 4
  15              		.thumb
  16              		.syntax unified
  17              		.file	"flash.c"
  18              		.text
  19              	.Ltext0:
  20              		.cfi_sections	.debug_frame
  21              		.section	.text.stm32_flash_wait_idle,"ax",%progbits
  22              		.align	1
  23              		.thumb
  24              		.thumb_func
  25              		.type	stm32_flash_wait_idle, %function
  26              	stm32_flash_wait_idle:
  27              	.LFB327:
  28              		.file 1 "../../libraries/AP_HAL_ChibiOS/hwdef/common/flash.c"
  29              		.loc 1 160 0
  30              		.cfi_startproc
  31              		@ args = 0, pretend = 0, frame = 0
  32              		@ frame_needed = 0, uses_anonymous_args = 0
  33              		@ link register save eliminated.
  34              	.LBB44:
  35              	.LBB45:
  36              		.file 2 "../../modules/ChibiOS/os/common/ext/ARM/CMSIS/Core/Include/cmsis_gcc.h"
  37              		.loc 2 879 0
  38              		.syntax unified
  39              	@ 879 "../../modules/ChibiOS/os/common/ext/ARM/CMSIS/Core/Include/cmsis_gcc.h" 1
  40 0000 BFF34F8F 		dsb 0xF
  41              	@ 0 "" 2
  42              		.thumb
  43              		.syntax unified
  44              	.LBE45:
  45              	.LBE44:
  46              		.loc 1 168 0
  47 0004 024A     		ldr	r2, .L5
  48              	.L2:
  49              		.loc 1 168 0 is_stmt 0 discriminator 1
  50 0006 D368     		ldr	r3, [r2, #12]
  51 0008 DB03     		lsls	r3, r3, #15
  52 000a FCD4     		bmi	.L2
  53              		.loc 1 172 0 is_stmt 1
  54 000c 7047     		bx	lr
  55              	.L6:
  56 000e 00BF     		.align	2
  57              	.L5:
ARM GAS  /tmp/ccQ8K1iD.s 			page 2


  58 0010 003C0240 		.word	1073888256
  59              		.cfi_endproc
  60              	.LFE327:
  61              		.size	stm32_flash_wait_idle, .-stm32_flash_wait_idle
  62              		.section	.text.stm32_flash_unlock,"ax",%progbits
  63              		.align	1
  64              		.thumb
  65              		.thumb_func
  66              		.type	stm32_flash_unlock, %function
  67              	stm32_flash_unlock:
  68              	.LFB329:
  69              		.loc 1 185 0
  70              		.cfi_startproc
  71              		@ args = 0, pretend = 0, frame = 0
  72              		@ frame_needed = 0, uses_anonymous_args = 0
  73 0000 08B5     		push	{r3, lr}
  74              		.cfi_def_cfa_offset 8
  75              		.cfi_offset 3, -8
  76              		.cfi_offset 14, -4
  77              		.loc 1 186 0
  78 0002 094B     		ldr	r3, .L10
  79 0004 1B78     		ldrb	r3, [r3]	@ zero_extendqisi2
  80 0006 73B9     		cbnz	r3, .L7
  81              	.LBB48:
  82              	.LBB49:
  83              		.loc 1 189 0
  84 0008 FFF7FEFF 		bl	stm32_flash_wait_idle
  85              	.LVL0:
  86              		.loc 1 203 0
  87 000c 074B     		ldr	r3, .L10+4
  88 000e 1A69     		ldr	r2, [r3, #16]
  89 0010 002A     		cmp	r2, #0
  90              		.loc 1 205 0
  91 0012 BFBF     		itttt	lt
  92 0014 064A     		ldrlt	r2, .L10+8
  93 0016 5A60     		strlt	r2, [r3, #4]
  94              		.loc 1 206 0
  95 0018 02F18832 		addlt	r2, r2, #-2004318072
  96 001c 5A60     		strlt	r2, [r3, #4]
  97              		.loc 1 212 0
  98 001e 1A68     		ldr	r2, [r3]
  99 0020 22F48062 		bic	r2, r2, #1024
 100 0024 1A60     		str	r2, [r3]
 101              	.L7:
 102 0026 08BD     		pop	{r3, pc}
 103              	.L11:
 104              		.align	2
 105              	.L10:
 106 0028 00000000 		.word	.LANCHOR0
 107 002c 003C0240 		.word	1073888256
 108 0030 23016745 		.word	1164378403
 109              	.LBE49:
 110              	.LBE48:
 111              		.cfi_endproc
 112              	.LFE329:
 113              		.size	stm32_flash_unlock, .-stm32_flash_unlock
 114              		.section	.text.stm32_flash_lock,"ax",%progbits
ARM GAS  /tmp/ccQ8K1iD.s 			page 3


 115              		.align	1
 116              		.global	stm32_flash_lock
 117              		.thumb
 118              		.thumb_func
 119              		.type	stm32_flash_lock, %function
 120              	stm32_flash_lock:
 121              	.LFB330:
 122              		.loc 1 217 0
 123              		.cfi_startproc
 124              		@ args = 0, pretend = 0, frame = 0
 125              		@ frame_needed = 0, uses_anonymous_args = 0
 126 0000 08B5     		push	{r3, lr}
 127              		.cfi_def_cfa_offset 8
 128              		.cfi_offset 3, -8
 129              		.cfi_offset 14, -4
 130              		.loc 1 218 0
 131 0002 0B4B     		ldr	r3, .L14
 132 0004 1B78     		ldrb	r3, [r3]	@ zero_extendqisi2
 133 0006 93B9     		cbnz	r3, .L12
 134              	.LBB52:
 135              	.LBB53:
 136              		.loc 1 232 0
 137 0008 FFF7FEFF 		bl	stm32_flash_wait_idle
 138              	.LVL1:
 139              		.loc 1 233 0
 140 000c 094B     		ldr	r3, .L14+4
 141 000e 1A69     		ldr	r2, [r3, #16]
 142 0010 42F00042 		orr	r2, r2, #-2147483648
 143 0014 1A61     		str	r2, [r3, #16]
 144              		.loc 1 238 0
 145 0016 1A68     		ldr	r2, [r3]
 146 0018 42F48052 		orr	r2, r2, #4096
 147 001c 1A60     		str	r2, [r3]
 148              		.loc 1 239 0
 149 001e 1A68     		ldr	r2, [r3]
 150 0020 22F48052 		bic	r2, r2, #4096
 151 0024 1A60     		str	r2, [r3]
 152              		.loc 1 240 0
 153 0026 1A68     		ldr	r2, [r3]
 154 0028 42F48062 		orr	r2, r2, #1024
 155 002c 1A60     		str	r2, [r3]
 156              	.L12:
 157 002e 08BD     		pop	{r3, pc}
 158              	.L15:
 159              		.align	2
 160              	.L14:
 161 0030 00000000 		.word	.LANCHOR0
 162 0034 003C0240 		.word	1073888256
 163              	.LBE53:
 164              	.LBE52:
 165              		.cfi_endproc
 166              	.LFE330:
 167              		.size	stm32_flash_lock, .-stm32_flash_lock
 168              		.section	.text.stm32_flash_getpageaddr,"ax",%progbits
 169              		.align	1
 170              		.global	stm32_flash_getpageaddr
 171              		.thumb
ARM GAS  /tmp/ccQ8K1iD.s 			page 4


 172              		.thumb_func
 173              		.type	stm32_flash_getpageaddr, %function
 174              	stm32_flash_getpageaddr:
 175              	.LFB331:
 176              		.loc 1 250 0
 177              		.cfi_startproc
 178              		@ args = 0, pretend = 0, frame = 0
 179              		@ frame_needed = 0, uses_anonymous_args = 0
 180              	.LVL2:
 181              		.loc 1 251 0
 182 0000 1728     		cmp	r0, #23
 183              		.loc 1 250 0
 184 0002 70B5     		push	{r4, r5, r6, lr}
 185              		.cfi_def_cfa_offset 16
 186              		.cfi_offset 4, -16
 187              		.cfi_offset 5, -12
 188              		.cfi_offset 6, -8
 189              		.cfi_offset 14, -4
 190              		.loc 1 251 0
 191 0004 13D8     		bhi	.L20
 192              	.LVL3:
 193              	.LBB59:
 194              	.LBB60:
 195              		.loc 1 257 0
 196 0006 0B4A     		ldr	r2, .L22
 197 0008 0B4C     		ldr	r4, .L22+4
 198 000a 1378     		ldrb	r3, [r2]	@ zero_extendqisi2
 199 000c 63B9     		cbnz	r3, .L18
 200              	.LBB61:
 201              	.LBB62:
 202              	.LBB63:
 203              		.loc 1 281 0
 204 000e 0B4E     		ldr	r6, .L22+8
 205              	.LBE63:
 206              	.LBE62:
 207              	.LBE61:
 208              		.loc 1 257 0
 209 0010 4FF00061 		mov	r1, #134217728
 210              	.L19:
 211              	.LVL4:
 212              	.LBB64:
 213              		.loc 1 262 0
 214 0014 44F82310 		str	r1, [r4, r3, lsl #2]
 215              		.loc 1 263 0
 216 0018 56F82350 		ldr	r5, [r6, r3, lsl #2]
 217 001c 0133     		adds	r3, r3, #1
 218              	.LVL5:
 219              		.loc 1 261 0
 220 001e 182B     		cmp	r3, #24
 221              		.loc 1 263 0
 222 0020 2944     		add	r1, r1, r5
 223              	.LVL6:
 224              		.loc 1 261 0
 225 0022 F7D1     		bne	.L19
 226              		.loc 1 265 0
 227 0024 0123     		movs	r3, #1
 228 0026 1370     		strb	r3, [r2]
ARM GAS  /tmp/ccQ8K1iD.s 			page 5


 229              	.LVL7:
 230              	.L18:
 231              	.LBE64:
 232              		.loc 1 268 0
 233 0028 54F82000 		ldr	r0, [r4, r0, lsl #2]
 234              	.LVL8:
 235 002c 70BD     		pop	{r4, r5, r6, pc}
 236              	.LVL9:
 237              	.L20:
 238              	.LBE60:
 239              	.LBE59:
 240              		.loc 1 252 0
 241 002e 0020     		movs	r0, #0
 242              	.LVL10:
 243              		.loc 1 270 0
 244 0030 70BD     		pop	{r4, r5, r6, pc}
 245              	.L23:
 246 0032 00BF     		.align	2
 247              	.L22:
 248 0034 00000000 		.word	.LANCHOR1
 249 0038 00000000 		.word	.LANCHOR2
 250 003c 00000000 		.word	.LANCHOR3
 251              		.cfi_endproc
 252              	.LFE331:
 253              		.size	stm32_flash_getpageaddr, .-stm32_flash_getpageaddr
 254              		.section	.text.stm32_flash_getpagesize,"ax",%progbits
 255              		.align	1
 256              		.global	stm32_flash_getpagesize
 257              		.thumb
 258              		.thumb_func
 259              		.type	stm32_flash_getpagesize, %function
 260              	stm32_flash_getpagesize:
 261              	.LFB332:
 262              		.loc 1 276 0
 263              		.cfi_startproc
 264              		@ args = 0, pretend = 0, frame = 0
 265              		@ frame_needed = 0, uses_anonymous_args = 0
 266              		@ link register save eliminated.
 267              	.LVL11:
 268              		.loc 1 283 0
 269 0000 014B     		ldr	r3, .L25
 270 0002 53F82000 		ldr	r0, [r3, r0, lsl #2]
 271              	.LVL12:
 272 0006 7047     		bx	lr
 273              	.L26:
 274              		.align	2
 275              	.L25:
 276 0008 00000000 		.word	.LANCHOR3
 277              		.cfi_endproc
 278              	.LFE332:
 279              		.size	stm32_flash_getpagesize, .-stm32_flash_getpagesize
 280              		.section	.text.stm32_flash_getnumpages,"ax",%progbits
 281              		.align	1
 282              		.global	stm32_flash_getnumpages
 283              		.thumb
 284              		.thumb_func
 285              		.type	stm32_flash_getnumpages, %function
ARM GAS  /tmp/ccQ8K1iD.s 			page 6


 286              	stm32_flash_getnumpages:
 287              	.LFB333:
 288              		.loc 1 289 0
 289              		.cfi_startproc
 290              		@ args = 0, pretend = 0, frame = 0
 291              		@ frame_needed = 0, uses_anonymous_args = 0
 292              		@ link register save eliminated.
 293              		.loc 1 291 0
 294 0000 1820     		movs	r0, #24
 295 0002 7047     		bx	lr
 296              		.cfi_endproc
 297              	.LFE333:
 298              		.size	stm32_flash_getnumpages, .-stm32_flash_getnumpages
 299              		.section	.text.stm32_flash_ispageerased,"ax",%progbits
 300              		.align	1
 301              		.global	stm32_flash_ispageerased
 302              		.thumb
 303              		.thumb_func
 304              		.type	stm32_flash_ispageerased, %function
 305              	stm32_flash_ispageerased:
 306              	.LFB334:
 307              		.loc 1 294 0
 308              		.cfi_startproc
 309              		@ args = 0, pretend = 0, frame = 0
 310              		@ frame_needed = 0, uses_anonymous_args = 0
 311              	.LVL13:
 312              		.loc 1 298 0
 313 0000 1728     		cmp	r0, #23
 314              		.loc 1 294 0
 315 0002 10B5     		push	{r4, lr}
 316              		.cfi_def_cfa_offset 8
 317              		.cfi_offset 4, -8
 318              		.cfi_offset 14, -4
 319              		.loc 1 294 0
 320 0004 0446     		mov	r4, r0
 321              		.loc 1 298 0
 322 0006 01D9     		bls	.L29
 323              	.LVL14:
 324              	.L32:
 325              		.loc 1 299 0
 326 0008 0020     		movs	r0, #0
 327 000a 10BD     		pop	{r4, pc}
 328              	.LVL15:
 329              	.L29:
 330              	.LBB72:
 331              	.LBB73:
 332              		.loc 1 302 0
 333 000c FFF7FEFF 		bl	stm32_flash_getpageaddr
 334              	.LVL16:
 335              	.LBB74:
 336              	.LBB75:
 337              		.loc 1 281 0
 338 0010 064B     		ldr	r3, .L35
 339 0012 53F82430 		ldr	r3, [r3, r4, lsl #2]
 340              	.LVL17:
 341 0016 1844     		add	r0, r0, r3
 342              	.LVL18:
ARM GAS  /tmp/ccQ8K1iD.s 			page 7


 343              	.L31:
 344 0018 C21A     		subs	r2, r0, r3
 345              	.LVL19:
 346              	.LBE75:
 347              	.LBE74:
 348              		.loc 1 302 0
 349 001a 23B1     		cbz	r3, .L34
 350              	.LVL20:
 351              	.LBB76:
 352              	.LBB77:
 353              	.LBB78:
 354              		.loc 1 149 0
 355              		.syntax unified
 356              	@ 149 "../../libraries/AP_HAL_ChibiOS/hwdef/common/flash.c" 1
 357 001c 1268     			ldr r2, [r2]
 358              		
 359              	@ 0 "" 2
 360              	.LVL21:
 361              		.thumb
 362              		.syntax unified
 363              	.LBE78:
 364              	.LBE77:
 365              		.loc 1 305 0
 366 001e 0132     		adds	r2, r2, #1
 367 0020 F2D1     		bne	.L32
 368              	.LBE76:
 369              		.loc 1 303 0
 370 0022 043B     		subs	r3, r3, #4
 371              	.LVL22:
 372 0024 F8E7     		b	.L31
 373              	.LVL23:
 374              	.L34:
 375              		.loc 1 310 0
 376 0026 0120     		movs	r0, #1
 377              	.LBE73:
 378              	.LBE72:
 379              		.loc 1 311 0
 380 0028 10BD     		pop	{r4, pc}
 381              	.LVL24:
 382              	.L36:
 383 002a 00BF     		.align	2
 384              	.L35:
 385 002c 00000000 		.word	.LANCHOR3
 386              		.cfi_endproc
 387              	.LFE334:
 388              		.size	stm32_flash_ispageerased, .-stm32_flash_ispageerased
 389              		.section	.text.stm32_flash_erasepage,"ax",%progbits
 390              		.align	1
 391              		.global	stm32_flash_erasepage
 392              		.thumb
 393              		.thumb_func
 394              		.type	stm32_flash_erasepage, %function
 395              	stm32_flash_erasepage:
 396              	.LFB335:
 397              		.loc 1 317 0
 398              		.cfi_startproc
 399              		@ args = 0, pretend = 0, frame = 0
ARM GAS  /tmp/ccQ8K1iD.s 			page 8


 400              		@ frame_needed = 0, uses_anonymous_args = 0
 401              	.LVL25:
 402              		.loc 1 318 0
 403 0000 1728     		cmp	r0, #23
 404              		.loc 1 317 0
 405 0002 10B5     		push	{r4, lr}
 406              		.cfi_def_cfa_offset 8
 407              		.cfi_offset 4, -8
 408              		.cfi_offset 14, -4
 409              		.loc 1 317 0
 410 0004 0446     		mov	r4, r0
 411              		.loc 1 318 0
 412 0006 25D8     		bhi	.L38
 413              		.loc 1 325 0
 414 0008 FFF7FEFF 		bl	stm32_flash_wait_idle
 415              	.LVL26:
 416              		.loc 1 326 0
 417 000c FFF7FEFF 		bl	stm32_flash_unlock
 418              	.LVL27:
 419              	.LBB79:
 420              	.LBB80:
 421              		.loc 1 180 0
 422 0010 1149     		ldr	r1, .L39
 423 0012 F323     		movs	r3, #243
 424 0014 CB60     		str	r3, [r1, #12]
 425              	.LBE80:
 426              	.LBE79:
 427              		.loc 1 358 0
 428 0016 FFF7FEFF 		bl	stm32_flash_wait_idle
 429              	.LVL28:
 430              		.loc 1 364 0
 431 001a 0C23     		movs	r3, #12
 432 001c B0FBF3F2 		udiv	r2, r0, r3
 433 0020 03FB1203 		mls	r3, r3, r2, r0
 434 0024 D201     		lsls	r2, r2, #7
 435 0026 42EAC303 		orr	r3, r2, r3, lsl #3
 436 002a DBB2     		uxtb	r3, r3
 437 002c 43F40073 		orr	r3, r3, #512
 438 0030 43F00203 		orr	r3, r3, #2
 439 0034 0B61     		str	r3, [r1, #16]
 440              		.loc 1 365 0
 441 0036 0B69     		ldr	r3, [r1, #16]
 442 0038 43F48033 		orr	r3, r3, #65536
 443 003c 0B61     		str	r3, [r1, #16]
 444              		.loc 1 368 0
 445 003e FFF7FEFF 		bl	stm32_flash_wait_idle
 446              	.LVL29:
 447              		.loc 1 370 0
 448 0042 FFF7FEFF 		bl	stm32_flash_getpageaddr
 449              	.LVL30:
 450              		.loc 1 372 0
 451 0046 FFF7FEFF 		bl	stm32_flash_lock
 452              	.LVL31:
 453              		.loc 1 376 0
 454 004a 2046     		mov	r0, r4
 455              		.loc 1 377 0
 456 004c BDE81040 		pop	{r4, lr}
ARM GAS  /tmp/ccQ8K1iD.s 			page 9


 457              		.cfi_remember_state
 458              		.cfi_restore 14
 459              		.cfi_restore 4
 460              		.cfi_def_cfa_offset 0
 461              	.LVL32:
 462              		.loc 1 376 0
 463 0050 FFF7FEBF 		b	stm32_flash_ispageerased
 464              	.LVL33:
 465              	.L38:
 466              		.cfi_restore_state
 467              		.loc 1 377 0
 468 0054 0020     		movs	r0, #0
 469              	.LVL34:
 470 0056 10BD     		pop	{r4, pc}
 471              	.LVL35:
 472              	.L40:
 473              		.align	2
 474              	.L39:
 475 0058 003C0240 		.word	1073888256
 476              		.cfi_endproc
 477              	.LFE335:
 478              		.size	stm32_flash_erasepage, .-stm32_flash_erasepage
 479              		.section	.text.stm32_flash_write,"ax",%progbits
 480              		.align	1
 481              		.global	stm32_flash_write
 482              		.thumb
 483              		.thumb_func
 484              		.type	stm32_flash_write, %function
 485              	stm32_flash_write:
 486              	.LFB336:
 487              		.loc 1 444 0
 488              		.cfi_startproc
 489              		@ args = 0, pretend = 0, frame = 0
 490              		@ frame_needed = 0, uses_anonymous_args = 0
 491              	.LVL36:
 492 0000 2DE9F843 		push	{r3, r4, r5, r6, r7, r8, r9, lr}
 493              		.cfi_def_cfa_offset 32
 494              		.cfi_offset 3, -32
 495              		.cfi_offset 4, -28
 496              		.cfi_offset 5, -24
 497              		.cfi_offset 6, -20
 498              		.cfi_offset 7, -16
 499              		.cfi_offset 8, -12
 500              		.cfi_offset 9, -8
 501              		.cfi_offset 14, -4
 502              		.loc 1 448 0
 503 0004 12F00103 		ands	r3, r2, #1
 504              		.loc 1 444 0
 505 0008 1446     		mov	r4, r2
 506              		.loc 1 448 0
 507 000a 64D1     		bne	.L55
 508              		.loc 1 452 0
 509 000c 0244     		add	r2, r2, r0
 510              	.LVL37:
 511 000e B2F1026F 		cmp	r2, #136314880
 512 0012 60D2     		bcs	.L55
 513              		.loc 1 458 0
ARM GAS  /tmp/ccQ8K1iD.s 			page 10


 514 0014 314B     		ldr	r3, .L57
 515 0016 1B68     		ldr	r3, [r3]
 516 0018 13F00103 		ands	r3, r3, #1
 517 001c 5BD0     		beq	.L55
 518              	.LBB81:
 519              	.LBB82:
 520              		.loc 1 180 0
 521 001e 304D     		ldr	r5, .L57+4
 522              	.LBE82:
 523              	.LBE81:
 524              		.loc 1 466 0
 525 0020 FFF7FEFF 		bl	stm32_flash_unlock
 526              	.LVL38:
 527              	.LBB84:
 528              	.LBB83:
 529              		.loc 1 180 0
 530 0024 F323     		movs	r3, #243
 531 0026 EB60     		str	r3, [r5, #12]
 532              	.LBE83:
 533              	.LBE84:
 534              		.loc 1 471 0
 535 0028 FFF7FEFF 		bl	stm32_flash_wait_idle
 536              	.LVL39:
 537              	.L43:
 538              		.loc 1 474 0
 539 002c 032C     		cmp	r4, #3
 540 002e 04D8     		bhi	.L46
 541              	.L49:
 542 0030 C1EB0008 		rsb	r8, r1, r0
 543              		.loc 1 444 0
 544 0034 0E46     		mov	r6, r1
 545 0036 2A48     		ldr	r0, .L57+4
 546              	.LVL40:
 547 0038 1EE0     		b	.L47
 548              	.LVL41:
 549              	.L46:
 550              		.loc 1 474 0 discriminator 1
 551 003a 8307     		lsls	r3, r0, #30
 552 003c F8D1     		bne	.L49
 553              	.LBB85:
 554              		.loc 1 475 0
 555 003e 2B69     		ldr	r3, [r5, #16]
 556 0040 274E     		ldr	r6, .L57+4
 557 0042 23F44073 		bic	r3, r3, #768
 558 0046 2B61     		str	r3, [r5, #16]
 559              		.loc 1 476 0
 560 0048 2B69     		ldr	r3, [r5, #16]
 561 004a 43F40073 		orr	r3, r3, #512
 562 004e 43F00103 		orr	r3, r3, #1
 563 0052 2B61     		str	r3, [r5, #16]
 564              		.loc 1 477 0
 565 0054 51F8047B 		ldr	r7, [r1], #4
 566              	.LVL42:
 567              	.LBB86:
 568              	.LBB87:
 569              		.loc 1 156 0
 570 0058 0760     		str	r7, [r0]
ARM GAS  /tmp/ccQ8K1iD.s 			page 11


 571              	.LVL43:
 572              	.LBE87:
 573              	.LBE86:
 574              	.LBB88:
 575              	.LBB89:
 576              		.loc 2 879 0
 577              		.syntax unified
 578              	@ 879 "../../modules/ChibiOS/os/common/ext/ARM/CMSIS/Core/Include/cmsis_gcc.h" 1
 579 005a BFF34F8F 		dsb 0xF
 580              	@ 0 "" 2
 581              		.thumb
 582              		.syntax unified
 583              	.LBE89:
 584              	.LBE88:
 585              		.loc 1 484 0
 586 005e FFF7FEFF 		bl	stm32_flash_wait_idle
 587              	.LVL44:
 588              	.LBB90:
 589              	.LBB91:
 590              		.loc 1 149 0
 591              		.syntax unified
 592              	@ 149 "../../libraries/AP_HAL_ChibiOS/hwdef/common/flash.c" 1
 593 0062 0368     			ldr r3, [r0]
 594              		
 595              	@ 0 "" 2
 596              	.LVL45:
 597              		.thumb
 598              		.syntax unified
 599              	.LBE91:
 600              	.LBE90:
 601              		.loc 1 487 0
 602 0064 9F42     		cmp	r7, r3
 603 0066 04D0     		beq	.L44
 604              		.loc 1 488 0
 605 0068 3369     		ldr	r3, [r6, #16]
 606 006a 23F00103 		bic	r3, r3, #1
 607 006e 3361     		str	r3, [r6, #16]
 608              		.loc 1 489 0
 609 0070 2FE0     		b	.L45
 610              	.L44:
 611              		.loc 1 492 0
 612 0072 043C     		subs	r4, r4, #4
 613              	.LVL46:
 614              		.loc 1 494 0
 615 0074 0430     		adds	r0, r0, #4
 616              	.LVL47:
 617 0076 D9E7     		b	.L43
 618              	.LVL48:
 619              	.L47:
 620 0078 A31B     		subs	r3, r4, r6
 621 007a 0B44     		add	r3, r3, r1
 622              	.LBE85:
 623              		.loc 1 498 0
 624 007c 012B     		cmp	r3, #1
 625 007e 08EB0605 		add	r5, r8, r6
 626              	.LVL49:
 627 0082 174F     		ldr	r7, .L57+4
ARM GAS  /tmp/ccQ8K1iD.s 			page 12


 628 0084 1CD9     		bls	.L56
 629              		.loc 1 499 0
 630 0086 0369     		ldr	r3, [r0, #16]
 631 0088 23F44073 		bic	r3, r3, #768
 632 008c 0361     		str	r3, [r0, #16]
 633              		.loc 1 500 0
 634 008e 0369     		ldr	r3, [r0, #16]
 635 0090 43F48073 		orr	r3, r3, #256
 636 0094 43F00103 		orr	r3, r3, #1
 637 0098 0361     		str	r3, [r0, #16]
 638 009a B146     		mov	r9, r6
 639              	.LVL50:
 640              	.LBB92:
 641              	.LBB93:
 642              		.loc 1 142 0
 643 009c 36F8023B 		ldrh	r3, [r6], #2
 644              	.LVL51:
 645              		.syntax unified
 646              	@ 142 "../../libraries/AP_HAL_ChibiOS/hwdef/common/flash.c" 1
 647 00a0 2B80     			strh r3, [r5]
 648              		
 649              	@ 0 "" 2
 650              	.LVL52:
 651              		.thumb
 652              		.syntax unified
 653              	.LBE93:
 654              	.LBE92:
 655              	.LBB94:
 656              	.LBB95:
 657              		.loc 2 879 0
 658              		.syntax unified
 659              	@ 879 "../../modules/ChibiOS/os/common/ext/ARM/CMSIS/Core/Include/cmsis_gcc.h" 1
 660 00a2 BFF34F8F 		dsb 0xF
 661              	@ 0 "" 2
 662              		.thumb
 663              		.syntax unified
 664              	.LBE95:
 665              	.LBE94:
 666              		.loc 1 507 0
 667 00a6 FFF7FEFF 		bl	stm32_flash_wait_idle
 668              	.LVL53:
 669              	.LBB96:
 670              	.LBB97:
 671              		.loc 1 135 0
 672              		.syntax unified
 673              	@ 135 "../../libraries/AP_HAL_ChibiOS/hwdef/common/flash.c" 1
 674 00aa 2D88     			ldrh r5, [r5]
 675              		
 676              	@ 0 "" 2
 677              	.LVL54:
 678              		.thumb
 679              		.syntax unified
 680              	.LBE97:
 681              	.LBE96:
 682              		.loc 1 509 0
 683 00ac B9F80030 		ldrh	r3, [r9]
 684              	.LBB99:
ARM GAS  /tmp/ccQ8K1iD.s 			page 13


 685              	.LBB98:
 686              		.loc 1 135 0
 687 00b0 ADB2     		uxth	r5, r5
 688              	.LVL55:
 689              	.LBE98:
 690              	.LBE99:
 691              		.loc 1 509 0
 692 00b2 AB42     		cmp	r3, r5
 693 00b4 E0D0     		beq	.L47
 694              		.loc 1 510 0
 695 00b6 3B69     		ldr	r3, [r7, #16]
 696 00b8 23F00103 		bic	r3, r3, #1
 697 00bc 3B61     		str	r3, [r7, #16]
 698              		.loc 1 511 0
 699 00be 08E0     		b	.L45
 700              	.LVL56:
 701              	.L56:
 702              		.loc 1 519 0
 703 00c0 3B69     		ldr	r3, [r7, #16]
 704 00c2 23F00103 		bic	r3, r3, #1
 705 00c6 3B61     		str	r3, [r7, #16]
 706              		.loc 1 521 0
 707 00c8 FFF7FEFF 		bl	stm32_flash_lock
 708              	.LVL57:
 709              		.loc 1 525 0
 710 00cc 0120     		movs	r0, #1
 711 00ce BDE8F883 		pop	{r3, r4, r5, r6, r7, r8, r9, pc}
 712              	.LVL58:
 713              	.L45:
 714              		.loc 1 528 0
 715 00d2 FFF7FEFF 		bl	stm32_flash_lock
 716              	.LVL59:
 717              	.L55:
 718              		.loc 1 532 0
 719 00d6 0020     		movs	r0, #0
 720 00d8 BDE8F883 		pop	{r3, r4, r5, r6, r7, r8, r9, pc}
 721              	.L58:
 722              		.align	2
 723              	.L57:
 724 00dc 00380240 		.word	1073887232
 725 00e0 003C0240 		.word	1073888256
 726              		.cfi_endproc
 727              	.LFE336:
 728              		.size	stm32_flash_write, .-stm32_flash_write
 729              		.section	.text.stm32_flash_keep_unlocked,"ax",%progbits
 730              		.align	1
 731              		.global	stm32_flash_keep_unlocked
 732              		.thumb
 733              		.thumb_func
 734              		.type	stm32_flash_keep_unlocked, %function
 735              	stm32_flash_keep_unlocked:
 736              	.LFB337:
 737              		.loc 1 537 0
 738              		.cfi_startproc
 739              		@ args = 0, pretend = 0, frame = 0
 740              		@ frame_needed = 0, uses_anonymous_args = 0
 741              	.LVL60:
ARM GAS  /tmp/ccQ8K1iD.s 			page 14


 742 0000 0849     		ldr	r1, .L65
 743 0002 08B5     		push	{r3, lr}
 744              		.cfi_def_cfa_offset 8
 745              		.cfi_offset 3, -8
 746              		.cfi_offset 14, -4
 747              		.loc 1 538 0
 748 0004 0B78     		ldrb	r3, [r1]	@ zero_extendqisi2
 749 0006 28B1     		cbz	r0, .L60
 750              		.loc 1 538 0 is_stmt 0 discriminator 1
 751 0008 53B9     		cbnz	r3, .L59
 752              		.loc 1 539 0 is_stmt 1
 753 000a FFF7FEFF 		bl	stm32_flash_unlock
 754              	.LVL61:
 755              		.loc 1 540 0
 756 000e 0123     		movs	r3, #1
 757 0010 0B70     		strb	r3, [r1]
 758 0012 08BD     		pop	{r3, pc}
 759              	.LVL62:
 760              	.L60:
 761              		.loc 1 541 0 discriminator 1
 762 0014 23B1     		cbz	r3, .L59
 763              		.loc 1 545 0
 764 0016 BDE80840 		pop	{r3, lr}
 765              		.cfi_remember_state
 766              		.cfi_restore 14
 767              		.cfi_restore 3
 768              		.cfi_def_cfa_offset 0
 769              		.loc 1 542 0
 770 001a 0870     		strb	r0, [r1]
 771              		.loc 1 543 0
 772 001c FFF7FEBF 		b	stm32_flash_lock
 773              	.LVL63:
 774              	.L59:
 775              		.cfi_restore_state
 776 0020 08BD     		pop	{r3, pc}
 777              	.L66:
 778 0022 00BF     		.align	2
 779              	.L65:
 780 0024 00000000 		.word	.LANCHOR0
 781              		.cfi_endproc
 782              	.LFE337:
 783              		.size	stm32_flash_keep_unlocked, .-stm32_flash_keep_unlocked
 784              		.section	.bss.flash_pageaddr,"aw",%nobits
 785              		.align	2
 786              		.set	.LANCHOR2,. + 0
 787              		.type	flash_pageaddr, %object
 788              		.size	flash_pageaddr, 96
 789              	flash_pageaddr:
 790 0000 00000000 		.space	96
 790      00000000 
 790      00000000 
 790      00000000 
 790      00000000 
 791              		.section	.rodata.flash_memmap,"a",%progbits
 792              		.align	2
 793              		.set	.LANCHOR3,. + 0
 794              		.type	flash_memmap, %object
ARM GAS  /tmp/ccQ8K1iD.s 			page 15


 795              		.size	flash_memmap, 96
 796              	flash_memmap:
 797 0000 00400000 		.word	16384
 798 0004 00400000 		.word	16384
 799 0008 00400000 		.word	16384
 800 000c 00400000 		.word	16384
 801 0010 00000100 		.word	65536
 802 0014 00000200 		.word	131072
 803 0018 00000200 		.word	131072
 804 001c 00000200 		.word	131072
 805 0020 00000200 		.word	131072
 806 0024 00000200 		.word	131072
 807 0028 00000200 		.word	131072
 808 002c 00000200 		.word	131072
 809 0030 00400000 		.word	16384
 810 0034 00400000 		.word	16384
 811 0038 00400000 		.word	16384
 812 003c 00400000 		.word	16384
 813 0040 00000100 		.word	65536
 814 0044 00000200 		.word	131072
 815 0048 00000200 		.word	131072
 816 004c 00000200 		.word	131072
 817 0050 00000200 		.word	131072
 818 0054 00000200 		.word	131072
 819 0058 00000200 		.word	131072
 820 005c 00000200 		.word	131072
 821              		.section	.bss.flash_pageaddr_initialised,"aw",%nobits
 822              		.set	.LANCHOR1,. + 0
 823              		.type	flash_pageaddr_initialised, %object
 824              		.size	flash_pageaddr_initialised, 1
 825              	flash_pageaddr_initialised:
 826 0000 00       		.space	1
 827              		.section	.bss.flash_keep_unlocked,"aw",%nobits
 828              		.set	.LANCHOR0,. + 0
 829              		.type	flash_keep_unlocked, %object
 830              		.size	flash_keep_unlocked, 1
 831              	flash_keep_unlocked:
 832 0000 00       		.space	1
 833              		.text
 834              	.Letext0:
 835              		.file 3 "/usr/lib/gcc/arm-none-eabi/5.4.1/include/stddef.h"
 836              		.file 4 "/usr/include/newlib/machine/_default_types.h"
 837              		.file 5 "/usr/include/newlib/sys/_stdint.h"
 838              		.file 6 "../../modules/ChibiOS/os/common/ports/ARMCMx/compilers/GCC/chtypes.h"
 839              		.file 7 "../../modules/ChibiOS/os/rt/include/chsystypes.h"
 840              		.file 8 "../../modules/ChibiOS/os/rt/include/chschd.h"
 841              		.file 9 "../../modules/ChibiOS/os/rt/include/chtime.h"
 842              		.file 10 "../../modules/ChibiOS/os/common/ext/ST/STM32F4xx/stm32f427xx.h"
 843              		.file 11 "../../modules/ChibiOS/os/common/ports/ARMCMx/chcore.h"
 844              		.file 12 "../../modules/ChibiOS/os/common/ports/ARMCMx/chcore_v7m.h"
 845              		.file 13 "../../modules/ChibiOS/os/rt/include/chtm.h"
 846              		.file 14 "../../modules/ChibiOS/os/rt/include/chstats.h"
 847              		.file 15 "../../modules/ChibiOS/os/rt/include/chsem.h"
 848              		.file 16 "../../modules/ChibiOS/os/rt/include/chmtx.h"
 849              		.file 17 "../../modules/ChibiOS/os/common/ext/ARM/CMSIS/Core/Include/core_cm4.h"
 850              		.section	.debug_info,"",%progbits
 851              	.Ldebug_info0:
ARM GAS  /tmp/ccQ8K1iD.s 			page 16


 852 0000 E10F0000 		.4byte	0xfe1
 853 0004 0400     		.2byte	0x4
 854 0006 00000000 		.4byte	.Ldebug_abbrev0
 855 000a 04       		.byte	0x4
 856 000b 01       		.uleb128 0x1
 857 000c 77000000 		.4byte	.LASF166
 858 0010 0C       		.byte	0xc
 859 0011 81070000 		.4byte	.LASF167
 860 0015 7F060000 		.4byte	.LASF168
 861 0019 48000000 		.4byte	.Ldebug_ranges0+0x48
 862 001d 00000000 		.4byte	0
 863 0021 00000000 		.4byte	.Ldebug_line0
 864 0025 02       		.uleb128 0x2
 865 0026 04       		.byte	0x4
 866 0027 07       		.byte	0x7
 867 0028 46030000 		.4byte	.LASF0
 868 002c 03       		.uleb128 0x3
 869 002d 04       		.byte	0x4
 870 002e 05       		.byte	0x5
 871 002f 696E7400 		.ascii	"int\000"
 872 0033 04       		.uleb128 0x4
 873 0034 16000000 		.4byte	.LASF4
 874 0038 03       		.byte	0x3
 875 0039 D8       		.byte	0xd8
 876 003a 25000000 		.4byte	0x25
 877 003e 02       		.uleb128 0x2
 878 003f 08       		.byte	0x8
 879 0040 05       		.byte	0x5
 880 0041 23020000 		.4byte	.LASF1
 881 0045 02       		.uleb128 0x2
 882 0046 08       		.byte	0x8
 883 0047 04       		.byte	0x4
 884 0048 FD060000 		.4byte	.LASF2
 885 004c 02       		.uleb128 0x2
 886 004d 01       		.byte	0x1
 887 004e 06       		.byte	0x6
 888 004f 31020000 		.4byte	.LASF3
 889 0053 04       		.uleb128 0x4
 890 0054 55000000 		.4byte	.LASF5
 891 0058 04       		.byte	0x4
 892 0059 1D       		.byte	0x1d
 893 005a 5E000000 		.4byte	0x5e
 894 005e 02       		.uleb128 0x2
 895 005f 01       		.byte	0x1
 896 0060 08       		.byte	0x8
 897 0061 0D060000 		.4byte	.LASF6
 898 0065 02       		.uleb128 0x2
 899 0066 02       		.byte	0x2
 900 0067 05       		.byte	0x5
 901 0068 3A040000 		.4byte	.LASF7
 902 006c 04       		.uleb128 0x4
 903 006d 2E070000 		.4byte	.LASF8
 904 0071 04       		.byte	0x4
 905 0072 2B       		.byte	0x2b
 906 0073 77000000 		.4byte	0x77
 907 0077 02       		.uleb128 0x2
 908 0078 02       		.byte	0x2
ARM GAS  /tmp/ccQ8K1iD.s 			page 17


 909 0079 07       		.byte	0x7
 910 007a 99030000 		.4byte	.LASF9
 911 007e 04       		.uleb128 0x4
 912 007f 44040000 		.4byte	.LASF10
 913 0083 04       		.byte	0x4
 914 0084 3F       		.byte	0x3f
 915 0085 89000000 		.4byte	0x89
 916 0089 02       		.uleb128 0x2
 917 008a 04       		.byte	0x4
 918 008b 05       		.byte	0x5
 919 008c B1020000 		.4byte	.LASF11
 920 0090 04       		.uleb128 0x4
 921 0091 FF020000 		.4byte	.LASF12
 922 0095 04       		.byte	0x4
 923 0096 41       		.byte	0x41
 924 0097 9B000000 		.4byte	0x9b
 925 009b 02       		.uleb128 0x2
 926 009c 04       		.byte	0x4
 927 009d 07       		.byte	0x7
 928 009e 52020000 		.4byte	.LASF13
 929 00a2 04       		.uleb128 0x4
 930 00a3 5D050000 		.4byte	.LASF14
 931 00a7 04       		.byte	0x4
 932 00a8 5B       		.byte	0x5b
 933 00a9 AD000000 		.4byte	0xad
 934 00ad 02       		.uleb128 0x2
 935 00ae 08       		.byte	0x8
 936 00af 07       		.byte	0x7
 937 00b0 7A020000 		.4byte	.LASF15
 938 00b4 04       		.uleb128 0x4
 939 00b5 03080000 		.4byte	.LASF16
 940 00b9 05       		.byte	0x5
 941 00ba 18       		.byte	0x18
 942 00bb 53000000 		.4byte	0x53
 943 00bf 04       		.uleb128 0x4
 944 00c0 D6020000 		.4byte	.LASF17
 945 00c4 05       		.byte	0x5
 946 00c5 24       		.byte	0x24
 947 00c6 6C000000 		.4byte	0x6c
 948 00ca 04       		.uleb128 0x4
 949 00cb 05060000 		.4byte	.LASF18
 950 00cf 05       		.byte	0x5
 951 00d0 2C       		.byte	0x2c
 952 00d1 7E000000 		.4byte	0x7e
 953 00d5 04       		.uleb128 0x4
 954 00d6 6D080000 		.4byte	.LASF19
 955 00da 05       		.byte	0x5
 956 00db 30       		.byte	0x30
 957 00dc 90000000 		.4byte	0x90
 958 00e0 04       		.uleb128 0x4
 959 00e1 3F000000 		.4byte	.LASF20
 960 00e5 05       		.byte	0x5
 961 00e6 3C       		.byte	0x3c
 962 00e7 A2000000 		.4byte	0xa2
 963 00eb 04       		.uleb128 0x4
 964 00ec B6040000 		.4byte	.LASF21
 965 00f0 06       		.byte	0x6
ARM GAS  /tmp/ccQ8K1iD.s 			page 18


 966 00f1 27       		.byte	0x27
 967 00f2 D5000000 		.4byte	0xd5
 968 00f6 04       		.uleb128 0x4
 969 00f7 00000000 		.4byte	.LASF22
 970 00fb 06       		.byte	0x6
 971 00fc 28       		.byte	0x28
 972 00fd E0000000 		.4byte	0xe0
 973 0101 04       		.uleb128 0x4
 974 0102 03040000 		.4byte	.LASF23
 975 0106 06       		.byte	0x6
 976 0107 2A       		.byte	0x2a
 977 0108 B4000000 		.4byte	0xb4
 978 010c 04       		.uleb128 0x4
 979 010d CD020000 		.4byte	.LASF24
 980 0111 06       		.byte	0x6
 981 0112 2B       		.byte	0x2b
 982 0113 B4000000 		.4byte	0xb4
 983 0117 04       		.uleb128 0x4
 984 0118 9F050000 		.4byte	.LASF25
 985 011c 06       		.byte	0x6
 986 011d 2C       		.byte	0x2c
 987 011e B4000000 		.4byte	0xb4
 988 0122 04       		.uleb128 0x4
 989 0123 E9050000 		.4byte	.LASF26
 990 0127 06       		.byte	0x6
 991 0128 2E       		.byte	0x2e
 992 0129 D5000000 		.4byte	0xd5
 993 012d 04       		.uleb128 0x4
 994 012e D0030000 		.4byte	.LASF27
 995 0132 06       		.byte	0x6
 996 0133 2F       		.byte	0x2f
 997 0134 CA000000 		.4byte	0xca
 998 0138 04       		.uleb128 0x4
 999 0139 2E040000 		.4byte	.LASF28
 1000 013d 06       		.byte	0x6
 1001 013e 31       		.byte	0x31
 1002 013f D5000000 		.4byte	0xd5
 1003 0143 04       		.uleb128 0x4
 1004 0144 40030000 		.4byte	.LASF29
 1005 0148 06       		.byte	0x6
 1006 0149 33       		.byte	0x33
 1007 014a CA000000 		.4byte	0xca
 1008 014e 04       		.uleb128 0x4
 1009 014f DF030000 		.4byte	.LASF30
 1010 0153 06       		.byte	0x6
 1011 0154 34       		.byte	0x34
 1012 0155 D5000000 		.4byte	0xd5
 1013 0159 04       		.uleb128 0x4
 1014 015a 42070000 		.4byte	.LASF31
 1015 015e 07       		.byte	0x7
 1016 015f 34       		.byte	0x34
 1017 0160 64010000 		.4byte	0x164
 1018 0164 05       		.uleb128 0x5
 1019 0165 BB030000 		.4byte	.LASF50
 1020 0169 60       		.byte	0x60
 1021 016a 08       		.byte	0x8
 1022 016b 8E       		.byte	0x8e
ARM GAS  /tmp/ccQ8K1iD.s 			page 19


 1023 016c 4F020000 		.4byte	0x24f
 1024 0170 06       		.uleb128 0x6
 1025 0171 85030000 		.4byte	.LASF32
 1026 0175 08       		.byte	0x8
 1027 0176 8F       		.byte	0x8f
 1028 0177 84020000 		.4byte	0x284
 1029 017b 00       		.byte	0
 1030 017c 06       		.uleb128 0x6
 1031 017d 47050000 		.4byte	.LASF33
 1032 0181 08       		.byte	0x8
 1033 0182 90       		.byte	0x90
 1034 0183 22010000 		.4byte	0x122
 1035 0187 08       		.byte	0x8
 1036 0188 07       		.uleb128 0x7
 1037 0189 63747800 		.ascii	"ctx\000"
 1038 018d 08       		.byte	0x8
 1039 018e 91       		.byte	0x91
 1040 018f E8060000 		.4byte	0x6e8
 1041 0193 0C       		.byte	0xc
 1042 0194 06       		.uleb128 0x6
 1043 0195 80040000 		.4byte	.LASF34
 1044 0199 08       		.byte	0x8
 1045 019a 93       		.byte	0x93
 1046 019b 5A020000 		.4byte	0x25a
 1047 019f 10       		.byte	0x10
 1048 01a0 06       		.uleb128 0x6
 1049 01a1 15070000 		.4byte	.LASF35
 1050 01a5 08       		.byte	0x8
 1051 01a6 94       		.byte	0x94
 1052 01a7 5A020000 		.4byte	0x25a
 1053 01ab 14       		.byte	0x14
 1054 01ac 06       		.uleb128 0x6
 1055 01ad 8B030000 		.4byte	.LASF36
 1056 01b1 08       		.byte	0x8
 1057 01b2 9B       		.byte	0x9b
 1058 01b3 CE090000 		.4byte	0x9ce
 1059 01b7 18       		.byte	0x18
 1060 01b8 06       		.uleb128 0x6
 1061 01b9 09070000 		.4byte	.LASF37
 1062 01bd 08       		.byte	0x8
 1063 01be A4       		.byte	0xa4
 1064 01bf E0090000 		.4byte	0x9e0
 1065 01c3 1C       		.byte	0x1c
 1066 01c4 06       		.uleb128 0x6
 1067 01c5 A1020000 		.4byte	.LASF38
 1068 01c9 08       		.byte	0x8
 1069 01ca A9       		.byte	0xa9
 1070 01cb 0C010000 		.4byte	0x10c
 1071 01cf 20       		.byte	0x20
 1072 01d0 06       		.uleb128 0x6
 1073 01d1 0B080000 		.4byte	.LASF39
 1074 01d5 08       		.byte	0x8
 1075 01d6 AD       		.byte	0xad
 1076 01d7 01010000 		.4byte	0x101
 1077 01db 21       		.byte	0x21
 1078 01dc 06       		.uleb128 0x6
 1079 01dd C0050000 		.4byte	.LASF40
ARM GAS  /tmp/ccQ8K1iD.s 			page 20


 1080 01e1 08       		.byte	0x8
 1081 01e2 B2       		.byte	0xb2
 1082 01e3 17010000 		.4byte	0x117
 1083 01e7 22       		.byte	0x22
 1084 01e8 08       		.uleb128 0x8
 1085 01e9 7500     		.ascii	"u\000"
 1086 01eb 08       		.byte	0x8
 1087 01ec 0301     		.2byte	0x103
 1088 01ee 04090000 		.4byte	0x904
 1089 01f2 24       		.byte	0x24
 1090 01f3 09       		.uleb128 0x9
 1091 01f4 23030000 		.4byte	.LASF41
 1092 01f8 08       		.byte	0x8
 1093 01f9 0801     		.2byte	0x108
 1094 01fb 60020000 		.4byte	0x260
 1095 01ff 28       		.byte	0x28
 1096 0200 09       		.uleb128 0x9
 1097 0201 98020000 		.4byte	.LASF42
 1098 0205 08       		.byte	0x8
 1099 0206 0E01     		.2byte	0x10e
 1100 0208 84020000 		.4byte	0x284
 1101 020c 2C       		.byte	0x2c
 1102 020d 09       		.uleb128 0x9
 1103 020e E6030000 		.4byte	.LASF43
 1104 0212 08       		.byte	0x8
 1105 0213 1401     		.2byte	0x114
 1106 0215 38010000 		.4byte	0x138
 1107 0219 34       		.byte	0x34
 1108 021a 09       		.uleb128 0x9
 1109 021b 41080000 		.4byte	.LASF44
 1110 021f 08       		.byte	0x8
 1111 0220 1B01     		.2byte	0x11b
 1112 0222 C8090000 		.4byte	0x9c8
 1113 0226 38       		.byte	0x38
 1114 0227 09       		.uleb128 0x9
 1115 0228 9C040000 		.4byte	.LASF45
 1116 022c 08       		.byte	0x8
 1117 022d 1F01     		.2byte	0x11f
 1118 022f 22010000 		.4byte	0x122
 1119 0233 3C       		.byte	0x3c
 1120 0234 09       		.uleb128 0x9
 1121 0235 E2070000 		.4byte	.LASF46
 1122 0239 08       		.byte	0x8
 1123 023a 2601     		.2byte	0x126
 1124 023c 37030000 		.4byte	0x337
 1125 0240 40       		.byte	0x40
 1126 0241 09       		.uleb128 0x9
 1127 0242 DF020000 		.4byte	.LASF47
 1128 0246 08       		.byte	0x8
 1129 0247 2C01     		.2byte	0x12c
 1130 0249 B5080000 		.4byte	0x8b5
 1131 024d 48       		.byte	0x48
 1132 024e 00       		.byte	0
 1133 024f 04       		.uleb128 0x4
 1134 0250 BE040000 		.4byte	.LASF48
 1135 0254 07       		.byte	0x7
 1136 0255 39       		.byte	0x39
ARM GAS  /tmp/ccQ8K1iD.s 			page 21


 1137 0256 5A020000 		.4byte	0x25a
 1138 025a 0A       		.uleb128 0xa
 1139 025b 04       		.byte	0x4
 1140 025c 59010000 		.4byte	0x159
 1141 0260 04       		.uleb128 0x4
 1142 0261 32080000 		.4byte	.LASF49
 1143 0265 07       		.byte	0x7
 1144 0266 3E       		.byte	0x3e
 1145 0267 6B020000 		.4byte	0x26b
 1146 026b 05       		.uleb128 0x5
 1147 026c D1060000 		.4byte	.LASF51
 1148 0270 04       		.byte	0x4
 1149 0271 08       		.byte	0x8
 1150 0272 7C       		.byte	0x7c
 1151 0273 84020000 		.4byte	0x284
 1152 0277 06       		.uleb128 0x6
 1153 0278 F2010000 		.4byte	.LASF52
 1154 027c 08       		.byte	0x8
 1155 027d 7D       		.byte	0x7d
 1156 027e 5A020000 		.4byte	0x25a
 1157 0282 00       		.byte	0
 1158 0283 00       		.byte	0
 1159 0284 04       		.uleb128 0x4
 1160 0285 E8070000 		.4byte	.LASF53
 1161 0289 07       		.byte	0x7
 1162 028a 45       		.byte	0x45
 1163 028b 8F020000 		.4byte	0x28f
 1164 028f 05       		.uleb128 0x5
 1165 0290 F7010000 		.4byte	.LASF54
 1166 0294 08       		.byte	0x8
 1167 0295 08       		.byte	0x8
 1168 0296 83       		.byte	0x83
 1169 0297 B4020000 		.4byte	0x2b4
 1170 029b 06       		.uleb128 0x6
 1171 029c F2010000 		.4byte	.LASF52
 1172 02a0 08       		.byte	0x8
 1173 02a1 84       		.byte	0x84
 1174 02a2 5A020000 		.4byte	0x25a
 1175 02a6 00       		.byte	0
 1176 02a7 06       		.uleb128 0x6
 1177 02a8 5F000000 		.4byte	.LASF55
 1178 02ac 08       		.byte	0x8
 1179 02ad 85       		.byte	0x85
 1180 02ae 5A020000 		.4byte	0x25a
 1181 02b2 04       		.byte	0x4
 1182 02b3 00       		.byte	0
 1183 02b4 04       		.uleb128 0x4
 1184 02b5 09000000 		.4byte	.LASF56
 1185 02b9 07       		.byte	0x7
 1186 02ba 4C       		.byte	0x4c
 1187 02bb BF020000 		.4byte	0x2bf
 1188 02bf 0B       		.uleb128 0xb
 1189 02c0 20040000 		.4byte	.LASF57
 1190 02c4 1C       		.byte	0x1c
 1191 02c5 08       		.byte	0x8
 1192 02c6 5E01     		.2byte	0x15e
 1193 02c8 1B030000 		.4byte	0x31b
ARM GAS  /tmp/ccQ8K1iD.s 			page 22


 1194 02cc 09       		.uleb128 0x9
 1195 02cd 85030000 		.4byte	.LASF32
 1196 02d1 08       		.byte	0x8
 1197 02d2 5F01     		.2byte	0x15f
 1198 02d4 84020000 		.4byte	0x284
 1199 02d8 00       		.byte	0
 1200 02d9 09       		.uleb128 0x9
 1201 02da 47050000 		.4byte	.LASF33
 1202 02de 08       		.byte	0x8
 1203 02df 6001     		.2byte	0x160
 1204 02e1 22010000 		.4byte	0x122
 1205 02e5 08       		.byte	0x8
 1206 02e6 08       		.uleb128 0x8
 1207 02e7 63747800 		.ascii	"ctx\000"
 1208 02eb 08       		.byte	0x8
 1209 02ec 6201     		.2byte	0x162
 1210 02ee E8060000 		.4byte	0x6e8
 1211 02f2 0C       		.byte	0xc
 1212 02f3 09       		.uleb128 0x9
 1213 02f4 80040000 		.4byte	.LASF34
 1214 02f8 08       		.byte	0x8
 1215 02f9 6501     		.2byte	0x165
 1216 02fb 5A020000 		.4byte	0x25a
 1217 02ff 10       		.byte	0x10
 1218 0300 09       		.uleb128 0x9
 1219 0301 15070000 		.4byte	.LASF35
 1220 0305 08       		.byte	0x8
 1221 0306 6601     		.2byte	0x166
 1222 0308 5A020000 		.4byte	0x25a
 1223 030c 14       		.byte	0x14
 1224 030d 09       		.uleb128 0x9
 1225 030e 55050000 		.4byte	.LASF58
 1226 0312 08       		.byte	0x8
 1227 0313 6901     		.2byte	0x169
 1228 0315 5A020000 		.4byte	0x25a
 1229 0319 18       		.byte	0x18
 1230 031a 00       		.byte	0
 1231 031b 04       		.uleb128 0x4
 1232 031c 5A070000 		.4byte	.LASF59
 1233 0320 07       		.byte	0x7
 1234 0321 51       		.byte	0x51
 1235 0322 26030000 		.4byte	0x326
 1236 0326 0A       		.uleb128 0xa
 1237 0327 04       		.byte	0x4
 1238 0328 2C030000 		.4byte	0x32c
 1239 032c 0C       		.uleb128 0xc
 1240 032d 37030000 		.4byte	0x337
 1241 0331 0D       		.uleb128 0xd
 1242 0332 37030000 		.4byte	0x337
 1243 0336 00       		.byte	0
 1244 0337 0E       		.uleb128 0xe
 1245 0338 04       		.byte	0x4
 1246 0339 04       		.uleb128 0x4
 1247 033a C5050000 		.4byte	.LASF60
 1248 033e 07       		.byte	0x7
 1249 033f 56       		.byte	0x56
 1250 0340 44030000 		.4byte	0x344
ARM GAS  /tmp/ccQ8K1iD.s 			page 23


 1251 0344 0B       		.uleb128 0xb
 1252 0345 B5070000 		.4byte	.LASF61
 1253 0349 14       		.byte	0x14
 1254 034a 08       		.byte	0x8
 1255 034b 3901     		.2byte	0x139
 1256 034d 93030000 		.4byte	0x393
 1257 0351 09       		.uleb128 0x9
 1258 0352 F2010000 		.4byte	.LASF52
 1259 0356 08       		.byte	0x8
 1260 0357 3A01     		.2byte	0x13a
 1261 0359 E6090000 		.4byte	0x9e6
 1262 035d 00       		.byte	0
 1263 035e 09       		.uleb128 0x9
 1264 035f 5F000000 		.4byte	.LASF55
 1265 0363 08       		.byte	0x8
 1266 0364 3B01     		.2byte	0x13b
 1267 0366 E6090000 		.4byte	0x9e6
 1268 036a 04       		.byte	0x4
 1269 036b 09       		.uleb128 0x9
 1270 036c C7010000 		.4byte	.LASF62
 1271 0370 08       		.byte	0x8
 1272 0371 3C01     		.2byte	0x13c
 1273 0373 77040000 		.4byte	0x477
 1274 0377 08       		.byte	0x8
 1275 0378 09       		.uleb128 0x9
 1276 0379 1B060000 		.4byte	.LASF63
 1277 037d 08       		.byte	0x8
 1278 037e 3D01     		.2byte	0x13d
 1279 0380 1B030000 		.4byte	0x31b
 1280 0384 0C       		.byte	0xc
 1281 0385 08       		.uleb128 0x8
 1282 0386 70617200 		.ascii	"par\000"
 1283 038a 08       		.byte	0x8
 1284 038b 3F01     		.2byte	0x13f
 1285 038d 37030000 		.4byte	0x337
 1286 0391 10       		.byte	0x10
 1287 0392 00       		.byte	0
 1288 0393 04       		.uleb128 0x4
 1289 0394 54040000 		.4byte	.LASF64
 1290 0398 07       		.byte	0x7
 1291 0399 5B       		.byte	0x5b
 1292 039a 9E030000 		.4byte	0x39e
 1293 039e 0B       		.uleb128 0xb
 1294 039f E2040000 		.4byte	.LASF65
 1295 03a3 10       		.byte	0x10
 1296 03a4 08       		.byte	0x8
 1297 03a5 4901     		.2byte	0x149
 1298 03a7 E0030000 		.4byte	0x3e0
 1299 03ab 09       		.uleb128 0x9
 1300 03ac F2010000 		.4byte	.LASF52
 1301 03b0 08       		.byte	0x8
 1302 03b1 4A01     		.2byte	0x14a
 1303 03b3 E6090000 		.4byte	0x9e6
 1304 03b7 00       		.byte	0
 1305 03b8 09       		.uleb128 0x9
 1306 03b9 5F000000 		.4byte	.LASF55
 1307 03bd 08       		.byte	0x8
ARM GAS  /tmp/ccQ8K1iD.s 			page 24


 1308 03be 4C01     		.2byte	0x14c
 1309 03c0 E6090000 		.4byte	0x9e6
 1310 03c4 04       		.byte	0x4
 1311 03c5 09       		.uleb128 0x9
 1312 03c6 C7010000 		.4byte	.LASF62
 1313 03ca 08       		.byte	0x8
 1314 03cb 4E01     		.2byte	0x14e
 1315 03cd 77040000 		.4byte	0x477
 1316 03d1 08       		.byte	0x8
 1317 03d2 09       		.uleb128 0x9
 1318 03d3 20060000 		.4byte	.LASF66
 1319 03d7 08       		.byte	0x8
 1320 03d8 5601     		.2byte	0x156
 1321 03da 6C040000 		.4byte	0x46c
 1322 03de 0C       		.byte	0xc
 1323 03df 00       		.byte	0
 1324 03e0 04       		.uleb128 0x4
 1325 03e1 5F030000 		.4byte	.LASF67
 1326 03e5 07       		.byte	0x7
 1327 03e6 60       		.byte	0x60
 1328 03e7 EB030000 		.4byte	0x3eb
 1329 03eb 0B       		.uleb128 0xb
 1330 03ec 13030000 		.4byte	.LASF68
 1331 03f0 04       		.byte	0x4
 1332 03f1 08       		.byte	0x8
 1333 03f2 7001     		.2byte	0x170
 1334 03f4 06040000 		.4byte	0x406
 1335 03f8 09       		.uleb128 0x9
 1336 03f9 68070000 		.4byte	.LASF69
 1337 03fd 08       		.byte	0x8
 1338 03fe 7801     		.2byte	0x178
 1339 0400 EC090000 		.4byte	0x9ec
 1340 0404 00       		.byte	0
 1341 0405 00       		.byte	0
 1342 0406 04       		.uleb128 0x4
 1343 0407 EF030000 		.4byte	.LASF70
 1344 040b 07       		.byte	0x7
 1345 040c 65       		.byte	0x65
 1346 040d 11040000 		.4byte	0x411
 1347 0411 0B       		.uleb128 0xb
 1348 0412 A7020000 		.4byte	.LASF71
 1349 0416 D0       		.byte	0xd0
 1350 0417 08       		.byte	0x8
 1351 0418 9001     		.2byte	0x190
 1352 041a 6C040000 		.4byte	0x46c
 1353 041e 09       		.uleb128 0x9
 1354 041f FD070000 		.4byte	.LASF72
 1355 0423 08       		.byte	0x8
 1356 0424 9401     		.2byte	0x194
 1357 0426 B4020000 		.4byte	0x2b4
 1358 042a 00       		.byte	0
 1359 042b 09       		.uleb128 0x9
 1360 042c 70000000 		.4byte	.LASF73
 1361 0430 08       		.byte	0x8
 1362 0431 9801     		.2byte	0x198
 1363 0433 93030000 		.4byte	0x393
 1364 0437 1C       		.byte	0x1c
ARM GAS  /tmp/ccQ8K1iD.s 			page 25


 1365 0438 08       		.uleb128 0x8
 1366 0439 64626700 		.ascii	"dbg\000"
 1367 043d 08       		.byte	0x8
 1368 043e 9C01     		.2byte	0x19c
 1369 0440 E0030000 		.4byte	0x3e0
 1370 0444 2C       		.byte	0x2c
 1371 0445 09       		.uleb128 0x9
 1372 0446 B4010000 		.4byte	.LASF74
 1373 044a 08       		.byte	0x8
 1374 044b A001     		.2byte	0x1a0
 1375 044d 59010000 		.4byte	0x159
 1376 0451 30       		.byte	0x30
 1377 0452 08       		.uleb128 0x8
 1378 0453 746D00   		.ascii	"tm\000"
 1379 0456 08       		.byte	0x8
 1380 0457 A501     		.2byte	0x1a5
 1381 0459 67080000 		.4byte	0x867
 1382 045d 90       		.byte	0x90
 1383 045e 09       		.uleb128 0x9
 1384 045f 48000000 		.4byte	.LASF75
 1385 0463 08       		.byte	0x8
 1386 0464 AB01     		.2byte	0x1ab
 1387 0466 F9080000 		.4byte	0x8f9
 1388 046a 98       		.byte	0x98
 1389 046b 00       		.byte	0
 1390 046c 04       		.uleb128 0x4
 1391 046d 50070000 		.4byte	.LASF76
 1392 0471 09       		.byte	0x9
 1393 0472 6D       		.byte	0x6d
 1394 0473 D5000000 		.4byte	0xd5
 1395 0477 04       		.uleb128 0x4
 1396 0478 DA010000 		.4byte	.LASF77
 1397 047c 09       		.byte	0x9
 1398 047d 79       		.byte	0x79
 1399 047e D5000000 		.4byte	0xd5
 1400 0482 02       		.uleb128 0x2
 1401 0483 04       		.byte	0x4
 1402 0484 07       		.byte	0x7
 1403 0485 11080000 		.4byte	.LASF78
 1404 0489 0F       		.uleb128 0xf
 1405 048a D5000000 		.4byte	0xd5
 1406 048e 10       		.uleb128 0x10
 1407 048f D5000000 		.4byte	0xd5
 1408 0493 9E040000 		.4byte	0x49e
 1409 0497 11       		.uleb128 0x11
 1410 0498 82040000 		.4byte	0x482
 1411 049c 17       		.byte	0x17
 1412 049d 00       		.byte	0
 1413 049e 10       		.uleb128 0x10
 1414 049f D5000000 		.4byte	0xd5
 1415 04a3 AE040000 		.4byte	0x4ae
 1416 04a7 11       		.uleb128 0x11
 1417 04a8 82040000 		.4byte	0x482
 1418 04ac 01       		.byte	0x1
 1419 04ad 00       		.byte	0
 1420 04ae 12       		.uleb128 0x12
 1421 04af 1C       		.byte	0x1c
ARM GAS  /tmp/ccQ8K1iD.s 			page 26


 1422 04b0 0A       		.byte	0xa
 1423 04b1 FF01     		.2byte	0x1ff
 1424 04b3 11050000 		.4byte	0x511
 1425 04b7 08       		.uleb128 0x8
 1426 04b8 41435200 		.ascii	"ACR\000"
 1427 04bc 0A       		.byte	0xa
 1428 04bd 0102     		.2byte	0x201
 1429 04bf 89040000 		.4byte	0x489
 1430 04c3 00       		.byte	0
 1431 04c4 09       		.uleb128 0x9
 1432 04c5 B1050000 		.4byte	.LASF79
 1433 04c9 0A       		.byte	0xa
 1434 04ca 0202     		.2byte	0x202
 1435 04cc 89040000 		.4byte	0x489
 1436 04d0 04       		.byte	0x4
 1437 04d1 09       		.uleb128 0x9
 1438 04d2 C9060000 		.4byte	.LASF80
 1439 04d6 0A       		.byte	0xa
 1440 04d7 0302     		.2byte	0x203
 1441 04d9 89040000 		.4byte	0x489
 1442 04dd 08       		.byte	0x8
 1443 04de 08       		.uleb128 0x8
 1444 04df 535200   		.ascii	"SR\000"
 1445 04e2 0A       		.byte	0xa
 1446 04e3 0402     		.2byte	0x204
 1447 04e5 89040000 		.4byte	0x489
 1448 04e9 0C       		.byte	0xc
 1449 04ea 08       		.uleb128 0x8
 1450 04eb 435200   		.ascii	"CR\000"
 1451 04ee 0A       		.byte	0xa
 1452 04ef 0502     		.2byte	0x205
 1453 04f1 89040000 		.4byte	0x489
 1454 04f5 10       		.byte	0x10
 1455 04f6 09       		.uleb128 0x9
 1456 04f7 5B010000 		.4byte	.LASF81
 1457 04fb 0A       		.byte	0xa
 1458 04fc 0602     		.2byte	0x206
 1459 04fe 89040000 		.4byte	0x489
 1460 0502 14       		.byte	0x14
 1461 0503 09       		.uleb128 0x9
 1462 0504 67010000 		.4byte	.LASF82
 1463 0508 0A       		.byte	0xa
 1464 0509 0702     		.2byte	0x207
 1465 050b 89040000 		.4byte	0x489
 1466 050f 18       		.byte	0x18
 1467 0510 00       		.byte	0
 1468 0511 13       		.uleb128 0x13
 1469 0512 44020000 		.4byte	.LASF83
 1470 0516 0A       		.byte	0xa
 1471 0517 0802     		.2byte	0x208
 1472 0519 AE040000 		.4byte	0x4ae
 1473 051d 12       		.uleb128 0x12
 1474 051e 90       		.byte	0x90
 1475 051f 0A       		.byte	0xa
 1476 0520 9602     		.2byte	0x296
 1477 0522 C6060000 		.4byte	0x6c6
 1478 0526 08       		.uleb128 0x8
ARM GAS  /tmp/ccQ8K1iD.s 			page 27


 1479 0527 435200   		.ascii	"CR\000"
 1480 052a 0A       		.byte	0xa
 1481 052b 9802     		.2byte	0x298
 1482 052d 89040000 		.4byte	0x489
 1483 0531 00       		.byte	0
 1484 0532 09       		.uleb128 0x9
 1485 0533 EE020000 		.4byte	.LASF84
 1486 0537 0A       		.byte	0xa
 1487 0538 9902     		.2byte	0x299
 1488 053a 89040000 		.4byte	0x489
 1489 053e 04       		.byte	0x4
 1490 053f 09       		.uleb128 0x9
 1491 0540 53030000 		.4byte	.LASF85
 1492 0544 0A       		.byte	0xa
 1493 0545 9A02     		.2byte	0x29a
 1494 0547 89040000 		.4byte	0x489
 1495 054b 08       		.byte	0x8
 1496 054c 08       		.uleb128 0x8
 1497 054d 43495200 		.ascii	"CIR\000"
 1498 0551 0A       		.byte	0xa
 1499 0552 9B02     		.2byte	0x29b
 1500 0554 89040000 		.4byte	0x489
 1501 0558 0C       		.byte	0xc
 1502 0559 09       		.uleb128 0x9
 1503 055a C6070000 		.4byte	.LASF86
 1504 055e 0A       		.byte	0xa
 1505 055f 9C02     		.2byte	0x29c
 1506 0561 89040000 		.4byte	0x489
 1507 0565 10       		.byte	0x10
 1508 0566 09       		.uleb128 0x9
 1509 0567 39070000 		.4byte	.LASF87
 1510 056b 0A       		.byte	0xa
 1511 056c 9D02     		.2byte	0x29d
 1512 056e 89040000 		.4byte	0x489
 1513 0572 14       		.byte	0x14
 1514 0573 09       		.uleb128 0x9
 1515 0574 D6030000 		.4byte	.LASF88
 1516 0578 0A       		.byte	0xa
 1517 0579 9E02     		.2byte	0x29e
 1518 057b 89040000 		.4byte	0x489
 1519 057f 18       		.byte	0x18
 1520 0580 09       		.uleb128 0x9
 1521 0581 A7050000 		.4byte	.LASF89
 1522 0585 0A       		.byte	0xa
 1523 0586 9F02     		.2byte	0x29f
 1524 0588 D5000000 		.4byte	0xd5
 1525 058c 1C       		.byte	0x1c
 1526 058d 09       		.uleb128 0x9
 1527 058e 4C050000 		.4byte	.LASF90
 1528 0592 0A       		.byte	0xa
 1529 0593 A002     		.2byte	0x2a0
 1530 0595 89040000 		.4byte	0x489
 1531 0599 20       		.byte	0x20
 1532 059a 09       		.uleb128 0x9
 1533 059b BA020000 		.4byte	.LASF91
 1534 059f 0A       		.byte	0xa
 1535 05a0 A102     		.2byte	0x2a1
ARM GAS  /tmp/ccQ8K1iD.s 			page 28


 1536 05a2 89040000 		.4byte	0x489
 1537 05a6 24       		.byte	0x24
 1538 05a7 09       		.uleb128 0x9
 1539 05a8 E8010000 		.4byte	.LASF92
 1540 05ac 0A       		.byte	0xa
 1541 05ad A202     		.2byte	0x2a2
 1542 05af 9E040000 		.4byte	0x49e
 1543 05b3 28       		.byte	0x28
 1544 05b4 09       		.uleb128 0x9
 1545 05b5 2A080000 		.4byte	.LASF93
 1546 05b9 0A       		.byte	0xa
 1547 05ba A302     		.2byte	0x2a3
 1548 05bc 89040000 		.4byte	0x489
 1549 05c0 30       		.byte	0x30
 1550 05c1 09       		.uleb128 0x9
 1551 05c2 FB030000 		.4byte	.LASF94
 1552 05c6 0A       		.byte	0xa
 1553 05c7 A402     		.2byte	0x2a4
 1554 05c9 89040000 		.4byte	0x489
 1555 05cd 34       		.byte	0x34
 1556 05ce 09       		.uleb128 0x9
 1557 05cf 56060000 		.4byte	.LASF95
 1558 05d3 0A       		.byte	0xa
 1559 05d4 A502     		.2byte	0x2a5
 1560 05d6 89040000 		.4byte	0x489
 1561 05da 38       		.byte	0x38
 1562 05db 09       		.uleb128 0x9
 1563 05dc B6050000 		.4byte	.LASF96
 1564 05e0 0A       		.byte	0xa
 1565 05e1 A602     		.2byte	0x2a6
 1566 05e3 D5000000 		.4byte	0xd5
 1567 05e7 3C       		.byte	0x3c
 1568 05e8 09       		.uleb128 0x9
 1569 05e9 79070000 		.4byte	.LASF97
 1570 05ed 0A       		.byte	0xa
 1571 05ee A702     		.2byte	0x2a7
 1572 05f0 89040000 		.4byte	0x489
 1573 05f4 40       		.byte	0x40
 1574 05f5 09       		.uleb128 0x9
 1575 05f6 45060000 		.4byte	.LASF98
 1576 05fa 0A       		.byte	0xa
 1577 05fb A802     		.2byte	0x2a8
 1578 05fd 89040000 		.4byte	0x489
 1579 0601 44       		.byte	0x44
 1580 0602 09       		.uleb128 0x9
 1581 0603 6B060000 		.4byte	.LASF99
 1582 0607 0A       		.byte	0xa
 1583 0608 A902     		.2byte	0x2a9
 1584 060a 9E040000 		.4byte	0x49e
 1585 060e 48       		.byte	0x48
 1586 060f 09       		.uleb128 0x9
 1587 0610 11020000 		.4byte	.LASF100
 1588 0614 0A       		.byte	0xa
 1589 0615 AA02     		.2byte	0x2aa
 1590 0617 89040000 		.4byte	0x489
 1591 061b 50       		.byte	0x50
 1592 061c 09       		.uleb128 0x9
ARM GAS  /tmp/ccQ8K1iD.s 			page 29


 1593 061d 25050000 		.4byte	.LASF101
 1594 0621 0A       		.byte	0xa
 1595 0622 AB02     		.2byte	0x2ab
 1596 0624 89040000 		.4byte	0x489
 1597 0628 54       		.byte	0x54
 1598 0629 09       		.uleb128 0x9
 1599 062a 29060000 		.4byte	.LASF102
 1600 062e 0A       		.byte	0xa
 1601 062f AC02     		.2byte	0x2ac
 1602 0631 89040000 		.4byte	0x489
 1603 0635 58       		.byte	0x58
 1604 0636 09       		.uleb128 0x9
 1605 0637 75060000 		.4byte	.LASF103
 1606 063b 0A       		.byte	0xa
 1607 063c AD02     		.2byte	0x2ad
 1608 063e D5000000 		.4byte	0xd5
 1609 0642 5C       		.byte	0x5c
 1610 0643 09       		.uleb128 0x9
 1611 0644 C3020000 		.4byte	.LASF104
 1612 0648 0A       		.byte	0xa
 1613 0649 AE02     		.2byte	0x2ae
 1614 064b 89040000 		.4byte	0x489
 1615 064f 60       		.byte	0x60
 1616 0650 09       		.uleb128 0x9
 1617 0651 0B040000 		.4byte	.LASF105
 1618 0655 0A       		.byte	0xa
 1619 0656 AF02     		.2byte	0x2af
 1620 0658 89040000 		.4byte	0x489
 1621 065c 64       		.byte	0x64
 1622 065d 09       		.uleb128 0x9
 1623 065e D5050000 		.4byte	.LASF106
 1624 0662 0A       		.byte	0xa
 1625 0663 B002     		.2byte	0x2b0
 1626 0665 9E040000 		.4byte	0x49e
 1627 0669 68       		.byte	0x68
 1628 066a 09       		.uleb128 0x9
 1629 066b F8070000 		.4byte	.LASF107
 1630 066f 0A       		.byte	0xa
 1631 0670 B102     		.2byte	0x2b1
 1632 0672 89040000 		.4byte	0x489
 1633 0676 70       		.byte	0x70
 1634 0677 08       		.uleb128 0x8
 1635 0678 43535200 		.ascii	"CSR\000"
 1636 067c 0A       		.byte	0xa
 1637 067d B202     		.2byte	0x2b2
 1638 067f 89040000 		.4byte	0x489
 1639 0683 74       		.byte	0x74
 1640 0684 09       		.uleb128 0x9
 1641 0685 DF050000 		.4byte	.LASF108
 1642 0689 0A       		.byte	0xa
 1643 068a B302     		.2byte	0x2b3
 1644 068c 9E040000 		.4byte	0x49e
 1645 0690 78       		.byte	0x78
 1646 0691 09       		.uleb128 0x9
 1647 0692 DC070000 		.4byte	.LASF109
 1648 0696 0A       		.byte	0xa
 1649 0697 B402     		.2byte	0x2b4
ARM GAS  /tmp/ccQ8K1iD.s 			page 30


 1650 0699 89040000 		.4byte	0x489
 1651 069d 80       		.byte	0x80
 1652 069e 09       		.uleb128 0x9
 1653 069f C5030000 		.4byte	.LASF110
 1654 06a3 0A       		.byte	0xa
 1655 06a4 B502     		.2byte	0x2b5
 1656 06a6 89040000 		.4byte	0x489
 1657 06aa 84       		.byte	0x84
 1658 06ab 09       		.uleb128 0x9
 1659 06ac 6A040000 		.4byte	.LASF111
 1660 06b0 0A       		.byte	0xa
 1661 06b1 B602     		.2byte	0x2b6
 1662 06b3 89040000 		.4byte	0x489
 1663 06b7 88       		.byte	0x88
 1664 06b8 09       		.uleb128 0x9
 1665 06b9 1B020000 		.4byte	.LASF112
 1666 06bd 0A       		.byte	0xa
 1667 06be B702     		.2byte	0x2b7
 1668 06c0 89040000 		.4byte	0x489
 1669 06c4 8C       		.byte	0x8c
 1670 06c5 00       		.byte	0
 1671 06c6 13       		.uleb128 0x13
 1672 06c7 73030000 		.4byte	.LASF113
 1673 06cb 0A       		.byte	0xa
 1674 06cc B802     		.2byte	0x2b8
 1675 06ce 1D050000 		.4byte	0x51d
 1676 06d2 04       		.uleb128 0x4
 1677 06d3 0A030000 		.4byte	.LASF114
 1678 06d7 0B       		.byte	0xb
 1679 06d8 65       		.byte	0x65
 1680 06d9 37030000 		.4byte	0x337
 1681 06dd 04       		.uleb128 0x4
 1682 06de 75040000 		.4byte	.LASF115
 1683 06e2 0B       		.byte	0xb
 1684 06e3 6D       		.byte	0x6d
 1685 06e4 E0000000 		.4byte	0xe0
 1686 06e8 05       		.uleb128 0x5
 1687 06e9 33030000 		.4byte	.LASF116
 1688 06ed 04       		.byte	0x4
 1689 06ee 0B       		.byte	0xb
 1690 06ef 89       		.byte	0x89
 1691 06f0 00070000 		.4byte	0x700
 1692 06f4 07       		.uleb128 0x7
 1693 06f5 737000   		.ascii	"sp\000"
 1694 06f8 0B       		.byte	0xb
 1695 06f9 8A       		.byte	0x8a
 1696 06fa 4C080000 		.4byte	0x84c
 1697 06fe 00       		.byte	0
 1698 06ff 00       		.byte	0
 1699 0700 0B       		.uleb128 0xb
 1700 0701 64000000 		.4byte	.LASF117
 1701 0705 64       		.byte	0x64
 1702 0706 0C       		.byte	0xc
 1703 0707 5901     		.2byte	0x159
 1704 0709 4C080000 		.4byte	0x84c
 1705 070d 08       		.uleb128 0x8
 1706 070e 73313600 		.ascii	"s16\000"
ARM GAS  /tmp/ccQ8K1iD.s 			page 31


 1707 0712 0C       		.byte	0xc
 1708 0713 5B01     		.2byte	0x15b
 1709 0715 D2060000 		.4byte	0x6d2
 1710 0719 00       		.byte	0
 1711 071a 08       		.uleb128 0x8
 1712 071b 73313700 		.ascii	"s17\000"
 1713 071f 0C       		.byte	0xc
 1714 0720 5C01     		.2byte	0x15c
 1715 0722 D2060000 		.4byte	0x6d2
 1716 0726 04       		.byte	0x4
 1717 0727 08       		.uleb128 0x8
 1718 0728 73313800 		.ascii	"s18\000"
 1719 072c 0C       		.byte	0xc
 1720 072d 5D01     		.2byte	0x15d
 1721 072f D2060000 		.4byte	0x6d2
 1722 0733 08       		.byte	0x8
 1723 0734 08       		.uleb128 0x8
 1724 0735 73313900 		.ascii	"s19\000"
 1725 0739 0C       		.byte	0xc
 1726 073a 5E01     		.2byte	0x15e
 1727 073c D2060000 		.4byte	0x6d2
 1728 0740 0C       		.byte	0xc
 1729 0741 08       		.uleb128 0x8
 1730 0742 73323000 		.ascii	"s20\000"
 1731 0746 0C       		.byte	0xc
 1732 0747 5F01     		.2byte	0x15f
 1733 0749 D2060000 		.4byte	0x6d2
 1734 074d 10       		.byte	0x10
 1735 074e 08       		.uleb128 0x8
 1736 074f 73323100 		.ascii	"s21\000"
 1737 0753 0C       		.byte	0xc
 1738 0754 6001     		.2byte	0x160
 1739 0756 D2060000 		.4byte	0x6d2
 1740 075a 14       		.byte	0x14
 1741 075b 08       		.uleb128 0x8
 1742 075c 73323200 		.ascii	"s22\000"
 1743 0760 0C       		.byte	0xc
 1744 0761 6101     		.2byte	0x161
 1745 0763 D2060000 		.4byte	0x6d2
 1746 0767 18       		.byte	0x18
 1747 0768 08       		.uleb128 0x8
 1748 0769 73323300 		.ascii	"s23\000"
 1749 076d 0C       		.byte	0xc
 1750 076e 6201     		.2byte	0x162
 1751 0770 D2060000 		.4byte	0x6d2
 1752 0774 1C       		.byte	0x1c
 1753 0775 08       		.uleb128 0x8
 1754 0776 73323400 		.ascii	"s24\000"
 1755 077a 0C       		.byte	0xc
 1756 077b 6301     		.2byte	0x163
 1757 077d D2060000 		.4byte	0x6d2
 1758 0781 20       		.byte	0x20
 1759 0782 08       		.uleb128 0x8
 1760 0783 73323500 		.ascii	"s25\000"
 1761 0787 0C       		.byte	0xc
 1762 0788 6401     		.2byte	0x164
 1763 078a D2060000 		.4byte	0x6d2
ARM GAS  /tmp/ccQ8K1iD.s 			page 32


 1764 078e 24       		.byte	0x24
 1765 078f 08       		.uleb128 0x8
 1766 0790 73323600 		.ascii	"s26\000"
 1767 0794 0C       		.byte	0xc
 1768 0795 6501     		.2byte	0x165
 1769 0797 D2060000 		.4byte	0x6d2
 1770 079b 28       		.byte	0x28
 1771 079c 08       		.uleb128 0x8
 1772 079d 73323700 		.ascii	"s27\000"
 1773 07a1 0C       		.byte	0xc
 1774 07a2 6601     		.2byte	0x166
 1775 07a4 D2060000 		.4byte	0x6d2
 1776 07a8 2C       		.byte	0x2c
 1777 07a9 08       		.uleb128 0x8
 1778 07aa 73323800 		.ascii	"s28\000"
 1779 07ae 0C       		.byte	0xc
 1780 07af 6701     		.2byte	0x167
 1781 07b1 D2060000 		.4byte	0x6d2
 1782 07b5 30       		.byte	0x30
 1783 07b6 08       		.uleb128 0x8
 1784 07b7 73323900 		.ascii	"s29\000"
 1785 07bb 0C       		.byte	0xc
 1786 07bc 6801     		.2byte	0x168
 1787 07be D2060000 		.4byte	0x6d2
 1788 07c2 34       		.byte	0x34
 1789 07c3 08       		.uleb128 0x8
 1790 07c4 73333000 		.ascii	"s30\000"
 1791 07c8 0C       		.byte	0xc
 1792 07c9 6901     		.2byte	0x169
 1793 07cb D2060000 		.4byte	0x6d2
 1794 07cf 38       		.byte	0x38
 1795 07d0 08       		.uleb128 0x8
 1796 07d1 73333100 		.ascii	"s31\000"
 1797 07d5 0C       		.byte	0xc
 1798 07d6 6A01     		.2byte	0x16a
 1799 07d8 D2060000 		.4byte	0x6d2
 1800 07dc 3C       		.byte	0x3c
 1801 07dd 08       		.uleb128 0x8
 1802 07de 723400   		.ascii	"r4\000"
 1803 07e1 0C       		.byte	0xc
 1804 07e2 6C01     		.2byte	0x16c
 1805 07e4 D2060000 		.4byte	0x6d2
 1806 07e8 40       		.byte	0x40
 1807 07e9 08       		.uleb128 0x8
 1808 07ea 723500   		.ascii	"r5\000"
 1809 07ed 0C       		.byte	0xc
 1810 07ee 6D01     		.2byte	0x16d
 1811 07f0 D2060000 		.4byte	0x6d2
 1812 07f4 44       		.byte	0x44
 1813 07f5 08       		.uleb128 0x8
 1814 07f6 723600   		.ascii	"r6\000"
 1815 07f9 0C       		.byte	0xc
 1816 07fa 6E01     		.2byte	0x16e
 1817 07fc D2060000 		.4byte	0x6d2
 1818 0800 48       		.byte	0x48
 1819 0801 08       		.uleb128 0x8
 1820 0802 723700   		.ascii	"r7\000"
ARM GAS  /tmp/ccQ8K1iD.s 			page 33


 1821 0805 0C       		.byte	0xc
 1822 0806 6F01     		.2byte	0x16f
 1823 0808 D2060000 		.4byte	0x6d2
 1824 080c 4C       		.byte	0x4c
 1825 080d 08       		.uleb128 0x8
 1826 080e 723800   		.ascii	"r8\000"
 1827 0811 0C       		.byte	0xc
 1828 0812 7001     		.2byte	0x170
 1829 0814 D2060000 		.4byte	0x6d2
 1830 0818 50       		.byte	0x50
 1831 0819 08       		.uleb128 0x8
 1832 081a 723900   		.ascii	"r9\000"
 1833 081d 0C       		.byte	0xc
 1834 081e 7101     		.2byte	0x171
 1835 0820 D2060000 		.4byte	0x6d2
 1836 0824 54       		.byte	0x54
 1837 0825 08       		.uleb128 0x8
 1838 0826 72313000 		.ascii	"r10\000"
 1839 082a 0C       		.byte	0xc
 1840 082b 7201     		.2byte	0x172
 1841 082d D2060000 		.4byte	0x6d2
 1842 0831 58       		.byte	0x58
 1843 0832 08       		.uleb128 0x8
 1844 0833 72313100 		.ascii	"r11\000"
 1845 0837 0C       		.byte	0xc
 1846 0838 7301     		.2byte	0x173
 1847 083a D2060000 		.4byte	0x6d2
 1848 083e 5C       		.byte	0x5c
 1849 083f 08       		.uleb128 0x8
 1850 0840 6C7200   		.ascii	"lr\000"
 1851 0843 0C       		.byte	0xc
 1852 0844 7401     		.2byte	0x174
 1853 0846 D2060000 		.4byte	0x6d2
 1854 084a 60       		.byte	0x60
 1855 084b 00       		.byte	0
 1856 084c 0A       		.uleb128 0xa
 1857 084d 04       		.byte	0x4
 1858 084e 00070000 		.4byte	0x700
 1859 0852 14       		.uleb128 0x14
 1860 0853 04       		.byte	0x4
 1861 0854 0D       		.byte	0xd
 1862 0855 38       		.byte	0x38
 1863 0856 67080000 		.4byte	0x867
 1864 085a 06       		.uleb128 0x6
 1865 085b 72070000 		.4byte	.LASF118
 1866 085f 0D       		.byte	0xd
 1867 0860 3C       		.byte	0x3c
 1868 0861 EB000000 		.4byte	0xeb
 1869 0865 00       		.byte	0
 1870 0866 00       		.byte	0
 1871 0867 04       		.uleb128 0x4
 1872 0868 D1040000 		.4byte	.LASF119
 1873 086c 0D       		.byte	0xd
 1874 086d 3D       		.byte	0x3d
 1875 086e 52080000 		.4byte	0x852
 1876 0872 14       		.uleb128 0x14
 1877 0873 18       		.byte	0x18
ARM GAS  /tmp/ccQ8K1iD.s 			page 34


 1878 0874 0D       		.byte	0xd
 1879 0875 48       		.byte	0x48
 1880 0876 B5080000 		.4byte	0x8b5
 1881 087a 06       		.uleb128 0x6
 1882 087b 4B070000 		.4byte	.LASF120
 1883 087f 0D       		.byte	0xd
 1884 0880 49       		.byte	0x49
 1885 0881 EB000000 		.4byte	0xeb
 1886 0885 00       		.byte	0
 1887 0886 06       		.uleb128 0x6
 1888 0887 61010000 		.4byte	.LASF121
 1889 088b 0D       		.byte	0xd
 1890 088c 4A       		.byte	0x4a
 1891 088d EB000000 		.4byte	0xeb
 1892 0891 04       		.byte	0x4
 1893 0892 06       		.uleb128 0x6
 1894 0893 63070000 		.4byte	.LASF122
 1895 0897 0D       		.byte	0xd
 1896 0898 4B       		.byte	0x4b
 1897 0899 EB000000 		.4byte	0xeb
 1898 089d 08       		.byte	0x8
 1899 089e 07       		.uleb128 0x7
 1900 089f 6E00     		.ascii	"n\000"
 1901 08a1 0D       		.byte	0xd
 1902 08a2 4C       		.byte	0x4c
 1903 08a3 4E010000 		.4byte	0x14e
 1904 08a7 0C       		.byte	0xc
 1905 08a8 06       		.uleb128 0x6
 1906 08a9 68050000 		.4byte	.LASF123
 1907 08ad 0D       		.byte	0xd
 1908 08ae 4D       		.byte	0x4d
 1909 08af F6000000 		.4byte	0xf6
 1910 08b3 10       		.byte	0x10
 1911 08b4 00       		.byte	0
 1912 08b5 04       		.uleb128 0x4
 1913 08b6 6E010000 		.4byte	.LASF124
 1914 08ba 0D       		.byte	0xd
 1915 08bb 4E       		.byte	0x4e
 1916 08bc 72080000 		.4byte	0x872
 1917 08c0 14       		.uleb128 0x14
 1918 08c1 38       		.byte	0x38
 1919 08c2 0E       		.byte	0xe
 1920 08c3 38       		.byte	0x38
 1921 08c4 F9080000 		.4byte	0x8f9
 1922 08c8 06       		.uleb128 0x6
 1923 08c9 7F030000 		.4byte	.LASF125
 1924 08cd 0E       		.byte	0xe
 1925 08ce 39       		.byte	0x39
 1926 08cf 4E010000 		.4byte	0x14e
 1927 08d3 00       		.byte	0
 1928 08d4 06       		.uleb128 0x6
 1929 08d5 F6050000 		.4byte	.LASF126
 1930 08d9 0E       		.byte	0xe
 1931 08da 3A       		.byte	0x3a
 1932 08db 4E010000 		.4byte	0x14e
 1933 08df 04       		.byte	0x4
 1934 08e0 06       		.uleb128 0x6
ARM GAS  /tmp/ccQ8K1iD.s 			page 35


 1935 08e1 49080000 		.4byte	.LASF127
 1936 08e5 0E       		.byte	0xe
 1937 08e6 3B       		.byte	0x3b
 1938 08e7 B5080000 		.4byte	0x8b5
 1939 08eb 08       		.byte	0x8
 1940 08ec 06       		.uleb128 0x6
 1941 08ed 15040000 		.4byte	.LASF128
 1942 08f1 0E       		.byte	0xe
 1943 08f2 3D       		.byte	0x3d
 1944 08f3 B5080000 		.4byte	0x8b5
 1945 08f7 20       		.byte	0x20
 1946 08f8 00       		.byte	0
 1947 08f9 04       		.uleb128 0x4
 1948 08fa AC030000 		.4byte	.LASF129
 1949 08fe 0E       		.byte	0xe
 1950 08ff 3F       		.byte	0x3f
 1951 0900 C0080000 		.4byte	0x8c0
 1952 0904 15       		.uleb128 0x15
 1953 0905 04       		.byte	0x4
 1954 0906 08       		.byte	0x8
 1955 0907 C6       		.byte	0xc6
 1956 0908 66090000 		.4byte	0x966
 1957 090c 16       		.uleb128 0x16
 1958 090d 1D000000 		.4byte	.LASF130
 1959 0911 08       		.byte	0x8
 1960 0912 CD       		.byte	0xcd
 1961 0913 2D010000 		.4byte	0x12d
 1962 0917 16       		.uleb128 0x16
 1963 0918 F6020000 		.4byte	.LASF131
 1964 091c 08       		.byte	0x8
 1965 091d D4       		.byte	0xd4
 1966 091e 2D010000 		.4byte	0x12d
 1967 0922 16       		.uleb128 0x16
 1968 0923 91020000 		.4byte	.LASF132
 1969 0927 08       		.byte	0x8
 1970 0928 DB       		.byte	0xdb
 1971 0929 37030000 		.4byte	0x337
 1972 092d 16       		.uleb128 0x16
 1973 092e F9040000 		.4byte	.LASF133
 1974 0932 08       		.byte	0x8
 1975 0933 E2       		.byte	0xe2
 1976 0934 66090000 		.4byte	0x966
 1977 0938 16       		.uleb128 0x16
 1978 0939 BF010000 		.4byte	.LASF134
 1979 093d 08       		.byte	0x8
 1980 093e E7       		.byte	0xe7
 1981 093f 2D010000 		.4byte	0x12d
 1982 0943 16       		.uleb128 0x16
 1983 0944 58030000 		.4byte	.LASF135
 1984 0948 08       		.byte	0x8
 1985 0949 F0       		.byte	0xf0
 1986 094a 91090000 		.4byte	0x991
 1987 094e 16       		.uleb128 0x16
 1988 094f C2060000 		.4byte	.LASF136
 1989 0953 08       		.byte	0x8
 1990 0954 F9       		.byte	0xf9
 1991 0955 C8090000 		.4byte	0x9c8
ARM GAS  /tmp/ccQ8K1iD.s 			page 36


 1992 0959 17       		.uleb128 0x17
 1993 095a 3D020000 		.4byte	.LASF137
 1994 095e 08       		.byte	0x8
 1995 095f 0101     		.2byte	0x101
 1996 0961 38010000 		.4byte	0x138
 1997 0965 00       		.byte	0
 1998 0966 0A       		.uleb128 0xa
 1999 0967 04       		.byte	0x4
 2000 0968 4F020000 		.4byte	0x24f
 2001 096c 05       		.uleb128 0x5
 2002 096d 5E060000 		.4byte	.LASF138
 2003 0971 0C       		.byte	0xc
 2004 0972 0F       		.byte	0xf
 2005 0973 34       		.byte	0x34
 2006 0974 91090000 		.4byte	0x991
 2007 0978 06       		.uleb128 0x6
 2008 0979 85030000 		.4byte	.LASF32
 2009 097d 0F       		.byte	0xf
 2010 097e 35       		.byte	0x35
 2011 097f 84020000 		.4byte	0x284
 2012 0983 00       		.byte	0
 2013 0984 07       		.uleb128 0x7
 2014 0985 636E7400 		.ascii	"cnt\000"
 2015 0989 0F       		.byte	0xf
 2016 098a 37       		.byte	0x37
 2017 098b 43010000 		.4byte	0x143
 2018 098f 08       		.byte	0x8
 2019 0990 00       		.byte	0
 2020 0991 0A       		.uleb128 0xa
 2021 0992 04       		.byte	0x4
 2022 0993 6C090000 		.4byte	0x96c
 2023 0997 05       		.uleb128 0x5
 2024 0998 1A080000 		.4byte	.LASF139
 2025 099c 10       		.byte	0x10
 2026 099d 10       		.byte	0x10
 2027 099e 39       		.byte	0x39
 2028 099f C8090000 		.4byte	0x9c8
 2029 09a3 06       		.uleb128 0x6
 2030 09a4 85030000 		.4byte	.LASF32
 2031 09a8 10       		.byte	0x10
 2032 09a9 3A       		.byte	0x3a
 2033 09aa 84020000 		.4byte	0x284
 2034 09ae 00       		.byte	0
 2035 09af 06       		.uleb128 0x6
 2036 09b0 E1060000 		.4byte	.LASF140
 2037 09b4 10       		.byte	0x10
 2038 09b5 3C       		.byte	0x3c
 2039 09b6 5A020000 		.4byte	0x25a
 2040 09ba 08       		.byte	0x8
 2041 09bb 06       		.uleb128 0x6
 2042 09bc F2010000 		.4byte	.LASF52
 2043 09c0 10       		.byte	0x10
 2044 09c1 3E       		.byte	0x3e
 2045 09c2 FC090000 		.4byte	0x9fc
 2046 09c6 0C       		.byte	0xc
 2047 09c7 00       		.byte	0
 2048 09c8 0A       		.uleb128 0xa
ARM GAS  /tmp/ccQ8K1iD.s 			page 37


 2049 09c9 04       		.byte	0x4
 2050 09ca 97090000 		.4byte	0x997
 2051 09ce 0A       		.uleb128 0xa
 2052 09cf 04       		.byte	0x4
 2053 09d0 DB090000 		.4byte	0x9db
 2054 09d4 02       		.uleb128 0x2
 2055 09d5 01       		.byte	0x1
 2056 09d6 08       		.byte	0x8
 2057 09d7 10070000 		.4byte	.LASF141
 2058 09db 18       		.uleb128 0x18
 2059 09dc D4090000 		.4byte	0x9d4
 2060 09e0 0A       		.uleb128 0xa
 2061 09e1 04       		.byte	0x4
 2062 09e2 DD060000 		.4byte	0x6dd
 2063 09e6 0A       		.uleb128 0xa
 2064 09e7 04       		.byte	0x4
 2065 09e8 39030000 		.4byte	0x339
 2066 09ec 0F       		.uleb128 0xf
 2067 09ed CE090000 		.4byte	0x9ce
 2068 09f1 04       		.uleb128 0x4
 2069 09f2 2B030000 		.4byte	.LASF142
 2070 09f6 10       		.byte	0x10
 2071 09f7 34       		.byte	0x34
 2072 09f8 97090000 		.4byte	0x997
 2073 09fc 0A       		.uleb128 0xa
 2074 09fd 04       		.byte	0x4
 2075 09fe F1090000 		.4byte	0x9f1
 2076 0a02 02       		.uleb128 0x2
 2077 0a03 01       		.byte	0x1
 2078 0a04 02       		.byte	0x2
 2079 0a05 FF050000 		.4byte	.LASF143
 2080 0a09 0A       		.uleb128 0xa
 2081 0a0a 04       		.byte	0x4
 2082 0a0b B4000000 		.4byte	0xb4
 2083 0a0f 19       		.uleb128 0x19
 2084 0a10 4E040000 		.4byte	.LASF144
 2085 0a14 02       		.byte	0x2
 2086 0a15 6D03     		.2byte	0x36d
 2087 0a17 03       		.byte	0x3
 2088 0a18 1A       		.uleb128 0x1a
 2089 0a19 1B070000 		.4byte	.LASF145
 2090 0a1d 01       		.byte	0x1
 2091 0a1e B8       		.byte	0xb8
 2092 0a1f 01       		.byte	0x1
 2093 0a20 1B       		.uleb128 0x1b
 2094 0a21 A5040000 		.4byte	.LASF169
 2095 0a25 01       		.byte	0x1
 2096 0a26 D8       		.byte	0xd8
 2097 0a27 01       		.byte	0x1
 2098 0a28 1C       		.uleb128 0x1c
 2099 0a29 0D050000 		.4byte	.LASF146
 2100 0a2d 01       		.byte	0x1
 2101 0a2e 1301     		.2byte	0x113
 2102 0a30 D5000000 		.4byte	0xd5
 2103 0a34 01       		.byte	0x1
 2104 0a35 460A0000 		.4byte	0xa46
 2105 0a39 1D       		.uleb128 0x1d
ARM GAS  /tmp/ccQ8K1iD.s 			page 38


 2106 0a3a 6E030000 		.4byte	.LASF148
 2107 0a3e 01       		.byte	0x1
 2108 0a3f 1301     		.2byte	0x113
 2109 0a41 D5000000 		.4byte	0xd5
 2110 0a45 00       		.byte	0
 2111 0a46 1E       		.uleb128 0x1e
 2112 0a47 2F050000 		.4byte	.LASF147
 2113 0a4b 01       		.byte	0x1
 2114 0a4c F9       		.byte	0xf9
 2115 0a4d D5000000 		.4byte	0xd5
 2116 0a51 01       		.byte	0x1
 2117 0a52 7A0A0000 		.4byte	0xa7a
 2118 0a56 1F       		.uleb128 0x1f
 2119 0a57 6E030000 		.4byte	.LASF148
 2120 0a5b 01       		.byte	0x1
 2121 0a5c F9       		.byte	0xf9
 2122 0a5d D5000000 		.4byte	0xd5
 2123 0a61 20       		.uleb128 0x20
 2124 0a62 21       		.uleb128 0x21
 2125 0a63 FF040000 		.4byte	.LASF149
 2126 0a67 01       		.byte	0x1
 2127 0a68 0201     		.2byte	0x102
 2128 0a6a D5000000 		.4byte	0xd5
 2129 0a6e 22       		.uleb128 0x22
 2130 0a6f 6900     		.ascii	"i\000"
 2131 0a71 01       		.byte	0x1
 2132 0a72 0301     		.2byte	0x103
 2133 0a74 B4000000 		.4byte	0xb4
 2134 0a78 00       		.byte	0
 2135 0a79 00       		.byte	0
 2136 0a7a 23       		.uleb128 0x23
 2137 0a7b 90030000 		.4byte	.LASF157
 2138 0a7f 01       		.byte	0x1
 2139 0a80 92       		.byte	0x92
 2140 0a81 D5000000 		.4byte	0xd5
 2141 0a85 03       		.byte	0x3
 2142 0a86 A10A0000 		.4byte	0xaa1
 2143 0a8a 1F       		.uleb128 0x1f
 2144 0a8b F1050000 		.4byte	.LASF150
 2145 0a8f 01       		.byte	0x1
 2146 0a90 92       		.byte	0x92
 2147 0a91 25000000 		.4byte	0x25
 2148 0a95 24       		.uleb128 0x24
 2149 0a96 23080000 		.4byte	.LASF151
 2150 0a9a 01       		.byte	0x1
 2151 0a9b 94       		.byte	0x94
 2152 0a9c D5000000 		.4byte	0xd5
 2153 0aa0 00       		.byte	0
 2154 0aa1 1C       		.uleb128 0x1c
 2155 0aa2 54080000 		.4byte	.LASF152
 2156 0aa6 01       		.byte	0x1
 2157 0aa7 2501     		.2byte	0x125
 2158 0aa9 020A0000 		.4byte	0xa02
 2159 0aad 01       		.byte	0x1
 2160 0aae E30A0000 		.4byte	0xae3
 2161 0ab2 1D       		.uleb128 0x1d
 2162 0ab3 6E030000 		.4byte	.LASF148
ARM GAS  /tmp/ccQ8K1iD.s 			page 39


 2163 0ab7 01       		.byte	0x1
 2164 0ab8 2501     		.2byte	0x125
 2165 0aba D5000000 		.4byte	0xd5
 2166 0abe 21       		.uleb128 0x21
 2167 0abf F1050000 		.4byte	.LASF150
 2168 0ac3 01       		.byte	0x1
 2169 0ac4 2701     		.2byte	0x127
 2170 0ac6 D5000000 		.4byte	0xd5
 2171 0aca 21       		.uleb128 0x21
 2172 0acb 07050000 		.4byte	.LASF153
 2173 0acf 01       		.byte	0x1
 2174 0ad0 2801     		.2byte	0x128
 2175 0ad2 D5000000 		.4byte	0xd5
 2176 0ad6 20       		.uleb128 0x20
 2177 0ad7 22       		.uleb128 0x22
 2178 0ad8 7600     		.ascii	"v\000"
 2179 0ada 01       		.byte	0x1
 2180 0adb 3001     		.2byte	0x130
 2181 0add D5000000 		.4byte	0xd5
 2182 0ae1 00       		.byte	0
 2183 0ae2 00       		.byte	0
 2184 0ae3 1A       		.uleb128 0x1a
 2185 0ae4 9B010000 		.4byte	.LASF154
 2186 0ae8 01       		.byte	0x1
 2187 0ae9 AE       		.byte	0xae
 2188 0aea 01       		.byte	0x1
 2189 0aeb 25       		.uleb128 0x25
 2190 0aec 4D060000 		.4byte	.LASF155
 2191 0af0 01       		.byte	0x1
 2192 0af1 9A       		.byte	0x9a
 2193 0af2 03       		.byte	0x3
 2194 0af3 0E0B0000 		.4byte	0xb0e
 2195 0af7 26       		.uleb128 0x26
 2196 0af8 76616C00 		.ascii	"val\000"
 2197 0afc 01       		.byte	0x1
 2198 0afd 9A       		.byte	0x9a
 2199 0afe D5000000 		.4byte	0xd5
 2200 0b02 1F       		.uleb128 0x1f
 2201 0b03 F1050000 		.4byte	.LASF150
 2202 0b07 01       		.byte	0x1
 2203 0b08 9A       		.byte	0x9a
 2204 0b09 25000000 		.4byte	0x25
 2205 0b0d 00       		.byte	0
 2206 0b0e 25       		.uleb128 0x25
 2207 0b0f E5020000 		.4byte	.LASF156
 2208 0b13 01       		.byte	0x1
 2209 0b14 8C       		.byte	0x8c
 2210 0b15 03       		.byte	0x3
 2211 0b16 310B0000 		.4byte	0xb31
 2212 0b1a 26       		.uleb128 0x26
 2213 0b1b 76616C00 		.ascii	"val\000"
 2214 0b1f 01       		.byte	0x1
 2215 0b20 8C       		.byte	0x8c
 2216 0b21 BF000000 		.4byte	0xbf
 2217 0b25 1F       		.uleb128 0x1f
 2218 0b26 F1050000 		.4byte	.LASF150
 2219 0b2a 01       		.byte	0x1
ARM GAS  /tmp/ccQ8K1iD.s 			page 40


 2220 0b2b 8C       		.byte	0x8c
 2221 0b2c 25000000 		.4byte	0x25
 2222 0b30 00       		.byte	0
 2223 0b31 23       		.uleb128 0x23
 2224 0b32 08020000 		.4byte	.LASF158
 2225 0b36 01       		.byte	0x1
 2226 0b37 84       		.byte	0x84
 2227 0b38 BF000000 		.4byte	0xbf
 2228 0b3c 03       		.byte	0x3
 2229 0b3d 580B0000 		.4byte	0xb58
 2230 0b41 1F       		.uleb128 0x1f
 2231 0b42 F1050000 		.4byte	.LASF150
 2232 0b46 01       		.byte	0x1
 2233 0b47 84       		.byte	0x84
 2234 0b48 25000000 		.4byte	0x25
 2235 0b4c 24       		.uleb128 0x24
 2236 0b4d 23080000 		.4byte	.LASF151
 2237 0b51 01       		.byte	0x1
 2238 0b52 86       		.byte	0x86
 2239 0b53 BF000000 		.4byte	0xbf
 2240 0b57 00       		.byte	0
 2241 0b58 27       		.uleb128 0x27
 2242 0b59 E7060000 		.4byte	.LASF170
 2243 0b5d 01       		.byte	0x1
 2244 0b5e 9F       		.byte	0x9f
 2245 0b5f 00000000 		.4byte	.LFB327
 2246 0b63 14000000 		.4byte	.LFE327-.LFB327
 2247 0b67 01       		.uleb128 0x1
 2248 0b68 9C       		.byte	0x9c
 2249 0b69 7D0B0000 		.4byte	0xb7d
 2250 0b6d 28       		.uleb128 0x28
 2251 0b6e 0F0A0000 		.4byte	0xa0f
 2252 0b72 00000000 		.4byte	.LBB44
 2253 0b76 04000000 		.4byte	.LBE44-.LBB44
 2254 0b7a 01       		.byte	0x1
 2255 0b7b A1       		.byte	0xa1
 2256 0b7c 00       		.byte	0
 2257 0b7d 29       		.uleb128 0x29
 2258 0b7e 180A0000 		.4byte	0xa18
 2259 0b82 00000000 		.4byte	.LFB329
 2260 0b86 34000000 		.4byte	.LFE329-.LFB329
 2261 0b8a 01       		.uleb128 0x1
 2262 0b8b 9C       		.byte	0x9c
 2263 0b8c 9A0B0000 		.4byte	0xb9a
 2264 0b90 2A       		.uleb128 0x2a
 2265 0b91 0C000000 		.4byte	.LVL0
 2266 0b95 580B0000 		.4byte	0xb58
 2267 0b99 00       		.byte	0
 2268 0b9a 29       		.uleb128 0x29
 2269 0b9b 200A0000 		.4byte	0xa20
 2270 0b9f 00000000 		.4byte	.LFB330
 2271 0ba3 38000000 		.4byte	.LFE330-.LFB330
 2272 0ba7 01       		.uleb128 0x1
 2273 0ba8 9C       		.byte	0x9c
 2274 0ba9 B70B0000 		.4byte	0xbb7
 2275 0bad 2A       		.uleb128 0x2a
 2276 0bae 0C000000 		.4byte	.LVL1
ARM GAS  /tmp/ccQ8K1iD.s 			page 41


 2277 0bb2 580B0000 		.4byte	0xb58
 2278 0bb6 00       		.byte	0
 2279 0bb7 29       		.uleb128 0x29
 2280 0bb8 460A0000 		.4byte	0xa46
 2281 0bbc 00000000 		.4byte	.LFB331
 2282 0bc0 40000000 		.4byte	.LFE331-.LFB331
 2283 0bc4 01       		.uleb128 0x1
 2284 0bc5 9C       		.byte	0x9c
 2285 0bc6 150C0000 		.4byte	0xc15
 2286 0bca 2B       		.uleb128 0x2b
 2287 0bcb 560A0000 		.4byte	0xa56
 2288 0bcf 00000000 		.4byte	.LLST0
 2289 0bd3 2C       		.uleb128 0x2c
 2290 0bd4 06000000 		.4byte	.LBB59
 2291 0bd8 28000000 		.4byte	.LBE59-.LBB59
 2292 0bdc 2B       		.uleb128 0x2b
 2293 0bdd 560A0000 		.4byte	0xa56
 2294 0be1 3A000000 		.4byte	.LLST1
 2295 0be5 2D       		.uleb128 0x2d
 2296 0be6 00000000 		.4byte	.Ldebug_ranges0+0
 2297 0bea 2E       		.uleb128 0x2e
 2298 0beb 620A0000 		.4byte	0xa62
 2299 0bef 4D000000 		.4byte	.LLST2
 2300 0bf3 2E       		.uleb128 0x2e
 2301 0bf4 6E0A0000 		.4byte	0xa6e
 2302 0bf8 60000000 		.4byte	.LLST3
 2303 0bfc 2F       		.uleb128 0x2f
 2304 0bfd 280A0000 		.4byte	0xa28
 2305 0c01 0E000000 		.4byte	.LBB62
 2306 0c05 02000000 		.4byte	.LBE62-.LBB62
 2307 0c09 01       		.byte	0x1
 2308 0c0a 0701     		.2byte	0x107
 2309 0c0c 30       		.uleb128 0x30
 2310 0c0d 390A0000 		.4byte	0xa39
 2311 0c11 00       		.byte	0
 2312 0c12 00       		.byte	0
 2313 0c13 00       		.byte	0
 2314 0c14 00       		.byte	0
 2315 0c15 29       		.uleb128 0x29
 2316 0c16 280A0000 		.4byte	0xa28
 2317 0c1a 00000000 		.4byte	.LFB332
 2318 0c1e 0C000000 		.4byte	.LFE332-.LFB332
 2319 0c22 01       		.uleb128 0x1
 2320 0c23 9C       		.byte	0x9c
 2321 0c24 320C0000 		.4byte	0xc32
 2322 0c28 2B       		.uleb128 0x2b
 2323 0c29 390A0000 		.4byte	0xa39
 2324 0c2d 73000000 		.4byte	.LLST4
 2325 0c31 00       		.byte	0
 2326 0c32 31       		.uleb128 0x31
 2327 0c33 87050000 		.4byte	.LASF171
 2328 0c37 01       		.byte	0x1
 2329 0c38 2001     		.2byte	0x120
 2330 0c3a D5000000 		.4byte	0xd5
 2331 0c3e 00000000 		.4byte	.LFB333
 2332 0c42 04000000 		.4byte	.LFE333-.LFB333
 2333 0c46 01       		.uleb128 0x1
ARM GAS  /tmp/ccQ8K1iD.s 			page 42


 2334 0c47 9C       		.byte	0x9c
 2335 0c48 29       		.uleb128 0x29
 2336 0c49 A10A0000 		.4byte	0xaa1
 2337 0c4d 00000000 		.4byte	.LFB334
 2338 0c51 30000000 		.4byte	.LFE334-.LFB334
 2339 0c55 01       		.uleb128 0x1
 2340 0c56 9C       		.byte	0x9c
 2341 0c57 FF0C0000 		.4byte	0xcff
 2342 0c5b 2B       		.uleb128 0x2b
 2343 0c5c B20A0000 		.4byte	0xab2
 2344 0c60 94000000 		.4byte	.LLST5
 2345 0c64 32       		.uleb128 0x32
 2346 0c65 BE0A0000 		.4byte	0xabe
 2347 0c69 32       		.uleb128 0x32
 2348 0c6a CA0A0000 		.4byte	0xaca
 2349 0c6e 2C       		.uleb128 0x2c
 2350 0c6f 0C000000 		.4byte	.LBB72
 2351 0c73 1C000000 		.4byte	.LBE72-.LBB72
 2352 0c77 2B       		.uleb128 0x2b
 2353 0c78 B20A0000 		.4byte	0xab2
 2354 0c7c D6000000 		.4byte	.LLST6
 2355 0c80 2C       		.uleb128 0x2c
 2356 0c81 0C000000 		.4byte	.LBB73
 2357 0c85 1C000000 		.4byte	.LBE73-.LBB73
 2358 0c89 2E       		.uleb128 0x2e
 2359 0c8a BE0A0000 		.4byte	0xabe
 2360 0c8e 02010000 		.4byte	.LLST7
 2361 0c92 33       		.uleb128 0x33
 2362 0c93 CA0A0000 		.4byte	0xaca
 2363 0c97 01       		.uleb128 0x1
 2364 0c98 53       		.byte	0x53
 2365 0c99 34       		.uleb128 0x34
 2366 0c9a 280A0000 		.4byte	0xa28
 2367 0c9e 10000000 		.4byte	.LBB74
 2368 0ca2 0A000000 		.4byte	.LBE74-.LBB74
 2369 0ca6 01       		.byte	0x1
 2370 0ca7 2E01     		.2byte	0x12e
 2371 0ca9 B70C0000 		.4byte	0xcb7
 2372 0cad 2B       		.uleb128 0x2b
 2373 0cae 390A0000 		.4byte	0xa39
 2374 0cb2 3B010000 		.4byte	.LLST8
 2375 0cb6 00       		.byte	0
 2376 0cb7 35       		.uleb128 0x35
 2377 0cb8 1C000000 		.4byte	.LBB76
 2378 0cbc 06000000 		.4byte	.LBE76-.LBB76
 2379 0cc0 F30C0000 		.4byte	0xcf3
 2380 0cc4 32       		.uleb128 0x32
 2381 0cc5 D70A0000 		.4byte	0xad7
 2382 0cc9 2F       		.uleb128 0x2f
 2383 0cca 7A0A0000 		.4byte	0xa7a
 2384 0cce 1C000000 		.4byte	.LBB77
 2385 0cd2 02000000 		.4byte	.LBE77-.LBB77
 2386 0cd6 01       		.byte	0x1
 2387 0cd7 3001     		.2byte	0x130
 2388 0cd9 2B       		.uleb128 0x2b
 2389 0cda 8A0A0000 		.4byte	0xa8a
 2390 0cde 4E010000 		.4byte	.LLST9
ARM GAS  /tmp/ccQ8K1iD.s 			page 43


 2391 0ce2 2C       		.uleb128 0x2c
 2392 0ce3 1C000000 		.4byte	.LBB78
 2393 0ce7 02000000 		.4byte	.LBE78-.LBB78
 2394 0ceb 32       		.uleb128 0x32
 2395 0cec 950A0000 		.4byte	0xa95
 2396 0cf0 00       		.byte	0
 2397 0cf1 00       		.byte	0
 2398 0cf2 00       		.byte	0
 2399 0cf3 2A       		.uleb128 0x2a
 2400 0cf4 10000000 		.4byte	.LVL16
 2401 0cf8 460A0000 		.4byte	0xa46
 2402 0cfc 00       		.byte	0
 2403 0cfd 00       		.byte	0
 2404 0cfe 00       		.byte	0
 2405 0cff 36       		.uleb128 0x36
 2406 0d00 64020000 		.4byte	.LASF159
 2407 0d04 01       		.byte	0x1
 2408 0d05 3C01     		.2byte	0x13c
 2409 0d07 020A0000 		.4byte	0xa02
 2410 0d0b 00000000 		.4byte	.LFB335
 2411 0d0f 5C000000 		.4byte	.LFE335-.LFB335
 2412 0d13 01       		.uleb128 0x1
 2413 0d14 9C       		.byte	0x9c
 2414 0d15 910D0000 		.4byte	0xd91
 2415 0d19 37       		.uleb128 0x37
 2416 0d1a 6E030000 		.4byte	.LASF148
 2417 0d1e 01       		.byte	0x1
 2418 0d1f 3C01     		.2byte	0x13c
 2419 0d21 D5000000 		.4byte	0xd5
 2420 0d25 61010000 		.4byte	.LLST10
 2421 0d29 38       		.uleb128 0x38
 2422 0d2a 736E6200 		.ascii	"snb\000"
 2423 0d2e 01       		.byte	0x1
 2424 0d2f 6901     		.2byte	0x169
 2425 0d31 B4000000 		.4byte	0xb4
 2426 0d35 BC010000 		.4byte	.LLST11
 2427 0d39 39       		.uleb128 0x39
 2428 0d3a E30A0000 		.4byte	0xae3
 2429 0d3e 10000000 		.4byte	.LBB79
 2430 0d42 06000000 		.4byte	.LBE79-.LBB79
 2431 0d46 01       		.byte	0x1
 2432 0d47 4901     		.2byte	0x149
 2433 0d49 2A       		.uleb128 0x2a
 2434 0d4a 0C000000 		.4byte	.LVL26
 2435 0d4e 580B0000 		.4byte	0xb58
 2436 0d52 2A       		.uleb128 0x2a
 2437 0d53 10000000 		.4byte	.LVL27
 2438 0d57 180A0000 		.4byte	0xa18
 2439 0d5b 2A       		.uleb128 0x2a
 2440 0d5c 1A000000 		.4byte	.LVL28
 2441 0d60 580B0000 		.4byte	0xb58
 2442 0d64 2A       		.uleb128 0x2a
 2443 0d65 42000000 		.4byte	.LVL29
 2444 0d69 580B0000 		.4byte	0xb58
 2445 0d6d 2A       		.uleb128 0x2a
 2446 0d6e 46000000 		.4byte	.LVL30
 2447 0d72 460A0000 		.4byte	0xa46
ARM GAS  /tmp/ccQ8K1iD.s 			page 44


 2448 0d76 2A       		.uleb128 0x2a
 2449 0d77 4A000000 		.4byte	.LVL31
 2450 0d7b 200A0000 		.4byte	0xa20
 2451 0d7f 3A       		.uleb128 0x3a
 2452 0d80 54000000 		.4byte	.LVL33
 2453 0d84 A10A0000 		.4byte	0xaa1
 2454 0d88 3B       		.uleb128 0x3b
 2455 0d89 01       		.uleb128 0x1
 2456 0d8a 50       		.byte	0x50
 2457 0d8b 03       		.uleb128 0x3
 2458 0d8c F3       		.byte	0xf3
 2459 0d8d 01       		.uleb128 0x1
 2460 0d8e 50       		.byte	0x50
 2461 0d8f 00       		.byte	0
 2462 0d90 00       		.byte	0
 2463 0d91 36       		.uleb128 0x36
 2464 0d92 33060000 		.4byte	.LASF160
 2465 0d96 01       		.byte	0x1
 2466 0d97 BB01     		.2byte	0x1bb
 2467 0d99 020A0000 		.4byte	0xa02
 2468 0d9d 00000000 		.4byte	.LFB336
 2469 0da1 E4000000 		.4byte	.LFE336-.LFB336
 2470 0da5 01       		.uleb128 0x1
 2471 0da6 9C       		.byte	0x9c
 2472 0da7 2A0F0000 		.4byte	0xf2a
 2473 0dab 37       		.uleb128 0x37
 2474 0dac F1050000 		.4byte	.LASF150
 2475 0db0 01       		.byte	0x1
 2476 0db1 BB01     		.2byte	0x1bb
 2477 0db3 D5000000 		.4byte	0xd5
 2478 0db7 E2010000 		.4byte	.LLST12
 2479 0dbb 3C       		.uleb128 0x3c
 2480 0dbc 62756600 		.ascii	"buf\000"
 2481 0dc0 01       		.byte	0x1
 2482 0dc1 BB01     		.2byte	0x1bb
 2483 0dc3 2A0F0000 		.4byte	0xf2a
 2484 0dc7 4A020000 		.4byte	.LLST13
 2485 0dcb 37       		.uleb128 0x37
 2486 0dcc 07050000 		.4byte	.LASF153
 2487 0dd0 01       		.byte	0x1
 2488 0dd1 BB01     		.2byte	0x1bb
 2489 0dd3 D5000000 		.4byte	0xd5
 2490 0dd7 6B020000 		.4byte	.LLST14
 2491 0ddb 38       		.uleb128 0x38
 2492 0ddc 6200     		.ascii	"b\000"
 2493 0dde 01       		.byte	0x1
 2494 0ddf BD01     		.2byte	0x1bd
 2495 0de1 090A0000 		.4byte	0xa09
 2496 0de5 C2020000 		.4byte	.LLST15
 2497 0de9 3D       		.uleb128 0x3d
 2498 0dea 95040000 		.4byte	.LASF172
 2499 0dee 01       		.byte	0x1
 2500 0def 0F02     		.2byte	0x20f
 2501 0df1 D2000000 		.4byte	.L45
 2502 0df5 3E       		.uleb128 0x3e
 2503 0df6 E30A0000 		.4byte	0xae3
 2504 0dfa 1E000000 		.4byte	.LBB81
ARM GAS  /tmp/ccQ8K1iD.s 			page 45


 2505 0dfe 18000000 		.4byte	.Ldebug_ranges0+0x18
 2506 0e02 01       		.byte	0x1
 2507 0e03 D501     		.2byte	0x1d5
 2508 0e05 35       		.uleb128 0x35
 2509 0e06 3E000000 		.4byte	.LBB85
 2510 0e0a 3E000000 		.4byte	.LBE85-.LBB85
 2511 0e0e 9A0E0000 		.4byte	0xe9a
 2512 0e12 38       		.uleb128 0x38
 2513 0e13 763100   		.ascii	"v1\000"
 2514 0e16 01       		.byte	0x1
 2515 0e17 DD01     		.2byte	0x1dd
 2516 0e19 310F0000 		.4byte	0xf31
 2517 0e1d 2C030000 		.4byte	.LLST16
 2518 0e21 22       		.uleb128 0x22
 2519 0e22 763200   		.ascii	"v2\000"
 2520 0e25 01       		.byte	0x1
 2521 0e26 E601     		.2byte	0x1e6
 2522 0e28 310F0000 		.4byte	0xf31
 2523 0e2c 34       		.uleb128 0x34
 2524 0e2d EB0A0000 		.4byte	0xaeb
 2525 0e31 58000000 		.4byte	.LBB86
 2526 0e35 02000000 		.4byte	.LBE86-.LBB86
 2527 0e39 01       		.byte	0x1
 2528 0e3a DF01     		.2byte	0x1df
 2529 0e3c 530E0000 		.4byte	0xe53
 2530 0e40 2B       		.uleb128 0x2b
 2531 0e41 020B0000 		.4byte	0xb02
 2532 0e45 3F030000 		.4byte	.LLST17
 2533 0e49 2B       		.uleb128 0x2b
 2534 0e4a F70A0000 		.4byte	0xaf7
 2535 0e4e 52030000 		.4byte	.LLST18
 2536 0e52 00       		.byte	0
 2537 0e53 39       		.uleb128 0x39
 2538 0e54 0F0A0000 		.4byte	0xa0f
 2539 0e58 5A000000 		.4byte	.LBB88
 2540 0e5c 04000000 		.4byte	.LBE88-.LBB88
 2541 0e60 01       		.byte	0x1
 2542 0e61 E201     		.2byte	0x1e2
 2543 0e63 34       		.uleb128 0x34
 2544 0e64 7A0A0000 		.4byte	0xa7a
 2545 0e68 62000000 		.4byte	.LBB90
 2546 0e6c 02000000 		.4byte	.LBE90-.LBB90
 2547 0e70 01       		.byte	0x1
 2548 0e71 E601     		.2byte	0x1e6
 2549 0e73 900E0000 		.4byte	0xe90
 2550 0e77 2B       		.uleb128 0x2b
 2551 0e78 8A0A0000 		.4byte	0xa8a
 2552 0e7c 65030000 		.4byte	.LLST19
 2553 0e80 2C       		.uleb128 0x2c
 2554 0e81 62000000 		.4byte	.LBB91
 2555 0e85 02000000 		.4byte	.LBE91-.LBB91
 2556 0e89 32       		.uleb128 0x32
 2557 0e8a 950A0000 		.4byte	0xa95
 2558 0e8e 00       		.byte	0
 2559 0e8f 00       		.byte	0
 2560 0e90 2A       		.uleb128 0x2a
 2561 0e91 62000000 		.4byte	.LVL44
ARM GAS  /tmp/ccQ8K1iD.s 			page 46


 2562 0e95 580B0000 		.4byte	0xb58
 2563 0e99 00       		.byte	0
 2564 0e9a 34       		.uleb128 0x34
 2565 0e9b 0E0B0000 		.4byte	0xb0e
 2566 0e9f 9C000000 		.4byte	.LBB92
 2567 0ea3 06000000 		.4byte	.LBE92-.LBB92
 2568 0ea7 01       		.byte	0x1
 2569 0ea8 F601     		.2byte	0x1f6
 2570 0eaa C10E0000 		.4byte	0xec1
 2571 0eae 2B       		.uleb128 0x2b
 2572 0eaf 250B0000 		.4byte	0xb25
 2573 0eb3 78030000 		.4byte	.LLST20
 2574 0eb7 2B       		.uleb128 0x2b
 2575 0eb8 1A0B0000 		.4byte	0xb1a
 2576 0ebc 8B030000 		.4byte	.LLST21
 2577 0ec0 00       		.byte	0
 2578 0ec1 39       		.uleb128 0x39
 2579 0ec2 0F0A0000 		.4byte	0xa0f
 2580 0ec6 A2000000 		.4byte	.LBB94
 2581 0eca 04000000 		.4byte	.LBE94-.LBB94
 2582 0ece 01       		.byte	0x1
 2583 0ecf F901     		.2byte	0x1f9
 2584 0ed1 3F       		.uleb128 0x3f
 2585 0ed2 310B0000 		.4byte	0xb31
 2586 0ed6 AA000000 		.4byte	.LBB96
 2587 0eda 30000000 		.4byte	.Ldebug_ranges0+0x30
 2588 0ede 01       		.byte	0x1
 2589 0edf FD01     		.2byte	0x1fd
 2590 0ee1 FC0E0000 		.4byte	0xefc
 2591 0ee5 2B       		.uleb128 0x2b
 2592 0ee6 410B0000 		.4byte	0xb41
 2593 0eea AB030000 		.4byte	.LLST22
 2594 0eee 2D       		.uleb128 0x2d
 2595 0eef 30000000 		.4byte	.Ldebug_ranges0+0x30
 2596 0ef3 33       		.uleb128 0x33
 2597 0ef4 4C0B0000 		.4byte	0xb4c
 2598 0ef8 01       		.uleb128 0x1
 2599 0ef9 55       		.byte	0x55
 2600 0efa 00       		.byte	0
 2601 0efb 00       		.byte	0
 2602 0efc 2A       		.uleb128 0x2a
 2603 0efd 24000000 		.4byte	.LVL38
 2604 0f01 180A0000 		.4byte	0xa18
 2605 0f05 2A       		.uleb128 0x2a
 2606 0f06 2C000000 		.4byte	.LVL39
 2607 0f0a 580B0000 		.4byte	0xb58
 2608 0f0e 2A       		.uleb128 0x2a
 2609 0f0f AA000000 		.4byte	.LVL53
 2610 0f13 580B0000 		.4byte	0xb58
 2611 0f17 2A       		.uleb128 0x2a
 2612 0f18 CC000000 		.4byte	.LVL57
 2613 0f1c 200A0000 		.4byte	0xa20
 2614 0f20 2A       		.uleb128 0x2a
 2615 0f21 D6000000 		.4byte	.LVL59
 2616 0f25 200A0000 		.4byte	0xa20
 2617 0f29 00       		.byte	0
 2618 0f2a 0A       		.uleb128 0xa
ARM GAS  /tmp/ccQ8K1iD.s 			page 47


 2619 0f2b 04       		.byte	0x4
 2620 0f2c 300F0000 		.4byte	0xf30
 2621 0f30 40       		.uleb128 0x40
 2622 0f31 18       		.uleb128 0x18
 2623 0f32 D5000000 		.4byte	0xd5
 2624 0f36 41       		.uleb128 0x41
 2625 0f37 81010000 		.4byte	.LASF173
 2626 0f3b 01       		.byte	0x1
 2627 0f3c 1802     		.2byte	0x218
 2628 0f3e 00000000 		.4byte	.LFB337
 2629 0f42 28000000 		.4byte	.LFE337-.LFB337
 2630 0f46 01       		.uleb128 0x1
 2631 0f47 9C       		.byte	0x9c
 2632 0f48 6F0F0000 		.4byte	0xf6f
 2633 0f4c 3C       		.uleb128 0x3c
 2634 0f4d 73657400 		.ascii	"set\000"
 2635 0f51 01       		.byte	0x1
 2636 0f52 1802     		.2byte	0x218
 2637 0f54 020A0000 		.4byte	0xa02
 2638 0f58 CE030000 		.4byte	.LLST23
 2639 0f5c 2A       		.uleb128 0x2a
 2640 0f5d 0E000000 		.4byte	.LVL61
 2641 0f61 180A0000 		.4byte	0xa18
 2642 0f65 42       		.uleb128 0x42
 2643 0f66 20000000 		.4byte	.LVL63
 2644 0f6a 200A0000 		.4byte	0xa20
 2645 0f6e 00       		.byte	0
 2646 0f6f 10       		.uleb128 0x10
 2647 0f70 310F0000 		.4byte	0xf31
 2648 0f74 7F0F0000 		.4byte	0xf7f
 2649 0f78 11       		.uleb128 0x11
 2650 0f79 82040000 		.4byte	0x482
 2651 0f7d 17       		.byte	0x17
 2652 0f7e 00       		.byte	0
 2653 0f7f 43       		.uleb128 0x43
 2654 0f80 CF070000 		.4byte	.LASF161
 2655 0f84 01       		.byte	0x1
 2656 0f85 5B       		.byte	0x5b
 2657 0f86 900F0000 		.4byte	0xf90
 2658 0f8a 05       		.uleb128 0x5
 2659 0f8b 03       		.byte	0x3
 2660 0f8c 00000000 		.4byte	flash_memmap
 2661 0f90 18       		.uleb128 0x18
 2662 0f91 6F0F0000 		.4byte	0xf6f
 2663 0f95 43       		.uleb128 0x43
 2664 0f96 86040000 		.4byte	.LASF162
 2665 0f9a 01       		.byte	0x1
 2666 0f9b 78       		.byte	0x78
 2667 0f9c 8E040000 		.4byte	0x48e
 2668 0fa0 05       		.uleb128 0x5
 2669 0fa1 03       		.byte	0x3
 2670 0fa2 00000000 		.4byte	flash_pageaddr
 2671 0fa6 43       		.uleb128 0x43
 2672 0fa7 24000000 		.4byte	.LASF163
 2673 0fab 01       		.byte	0x1
 2674 0fac 79       		.byte	0x79
 2675 0fad 020A0000 		.4byte	0xa02
ARM GAS  /tmp/ccQ8K1iD.s 			page 48


 2676 0fb1 05       		.uleb128 0x5
 2677 0fb2 03       		.byte	0x3
 2678 0fb3 00000000 		.4byte	flash_pageaddr_initialised
 2679 0fb7 43       		.uleb128 0x43
 2680 0fb8 73050000 		.4byte	.LASF164
 2681 0fbc 01       		.byte	0x1
 2682 0fbd 7C       		.byte	0x7c
 2683 0fbe 020A0000 		.4byte	0xa02
 2684 0fc2 05       		.uleb128 0x5
 2685 0fc3 03       		.byte	0x3
 2686 0fc4 00000000 		.4byte	flash_keep_unlocked
 2687 0fc8 44       		.uleb128 0x44
 2688 0fc9 CD010000 		.4byte	.LASF165
 2689 0fcd 11       		.byte	0x11
 2690 0fce 0408     		.2byte	0x804
 2691 0fd0 D40F0000 		.4byte	0xfd4
 2692 0fd4 0F       		.uleb128 0xf
 2693 0fd5 CA000000 		.4byte	0xca
 2694 0fd9 45       		.uleb128 0x45
 2695 0fda 636800   		.ascii	"ch\000"
 2696 0fdd 08       		.byte	0x8
 2697 0fde C701     		.2byte	0x1c7
 2698 0fe0 06040000 		.4byte	0x406
 2699 0fe4 00       		.byte	0
 2700              		.section	.debug_abbrev,"",%progbits
 2701              	.Ldebug_abbrev0:
 2702 0000 01       		.uleb128 0x1
 2703 0001 11       		.uleb128 0x11
 2704 0002 01       		.byte	0x1
 2705 0003 25       		.uleb128 0x25
 2706 0004 0E       		.uleb128 0xe
 2707 0005 13       		.uleb128 0x13
 2708 0006 0B       		.uleb128 0xb
 2709 0007 03       		.uleb128 0x3
 2710 0008 0E       		.uleb128 0xe
 2711 0009 1B       		.uleb128 0x1b
 2712 000a 0E       		.uleb128 0xe
 2713 000b 55       		.uleb128 0x55
 2714 000c 17       		.uleb128 0x17
 2715 000d 11       		.uleb128 0x11
 2716 000e 01       		.uleb128 0x1
 2717 000f 10       		.uleb128 0x10
 2718 0010 17       		.uleb128 0x17
 2719 0011 00       		.byte	0
 2720 0012 00       		.byte	0
 2721 0013 02       		.uleb128 0x2
 2722 0014 24       		.uleb128 0x24
 2723 0015 00       		.byte	0
 2724 0016 0B       		.uleb128 0xb
 2725 0017 0B       		.uleb128 0xb
 2726 0018 3E       		.uleb128 0x3e
 2727 0019 0B       		.uleb128 0xb
 2728 001a 03       		.uleb128 0x3
 2729 001b 0E       		.uleb128 0xe
 2730 001c 00       		.byte	0
 2731 001d 00       		.byte	0
 2732 001e 03       		.uleb128 0x3
ARM GAS  /tmp/ccQ8K1iD.s 			page 49


 2733 001f 24       		.uleb128 0x24
 2734 0020 00       		.byte	0
 2735 0021 0B       		.uleb128 0xb
 2736 0022 0B       		.uleb128 0xb
 2737 0023 3E       		.uleb128 0x3e
 2738 0024 0B       		.uleb128 0xb
 2739 0025 03       		.uleb128 0x3
 2740 0026 08       		.uleb128 0x8
 2741 0027 00       		.byte	0
 2742 0028 00       		.byte	0
 2743 0029 04       		.uleb128 0x4
 2744 002a 16       		.uleb128 0x16
 2745 002b 00       		.byte	0
 2746 002c 03       		.uleb128 0x3
 2747 002d 0E       		.uleb128 0xe
 2748 002e 3A       		.uleb128 0x3a
 2749 002f 0B       		.uleb128 0xb
 2750 0030 3B       		.uleb128 0x3b
 2751 0031 0B       		.uleb128 0xb
 2752 0032 49       		.uleb128 0x49
 2753 0033 13       		.uleb128 0x13
 2754 0034 00       		.byte	0
 2755 0035 00       		.byte	0
 2756 0036 05       		.uleb128 0x5
 2757 0037 13       		.uleb128 0x13
 2758 0038 01       		.byte	0x1
 2759 0039 03       		.uleb128 0x3
 2760 003a 0E       		.uleb128 0xe
 2761 003b 0B       		.uleb128 0xb
 2762 003c 0B       		.uleb128 0xb
 2763 003d 3A       		.uleb128 0x3a
 2764 003e 0B       		.uleb128 0xb
 2765 003f 3B       		.uleb128 0x3b
 2766 0040 0B       		.uleb128 0xb
 2767 0041 01       		.uleb128 0x1
 2768 0042 13       		.uleb128 0x13
 2769 0043 00       		.byte	0
 2770 0044 00       		.byte	0
 2771 0045 06       		.uleb128 0x6
 2772 0046 0D       		.uleb128 0xd
 2773 0047 00       		.byte	0
 2774 0048 03       		.uleb128 0x3
 2775 0049 0E       		.uleb128 0xe
 2776 004a 3A       		.uleb128 0x3a
 2777 004b 0B       		.uleb128 0xb
 2778 004c 3B       		.uleb128 0x3b
 2779 004d 0B       		.uleb128 0xb
 2780 004e 49       		.uleb128 0x49
 2781 004f 13       		.uleb128 0x13
 2782 0050 38       		.uleb128 0x38
 2783 0051 0B       		.uleb128 0xb
 2784 0052 00       		.byte	0
 2785 0053 00       		.byte	0
 2786 0054 07       		.uleb128 0x7
 2787 0055 0D       		.uleb128 0xd
 2788 0056 00       		.byte	0
 2789 0057 03       		.uleb128 0x3
ARM GAS  /tmp/ccQ8K1iD.s 			page 50


 2790 0058 08       		.uleb128 0x8
 2791 0059 3A       		.uleb128 0x3a
 2792 005a 0B       		.uleb128 0xb
 2793 005b 3B       		.uleb128 0x3b
 2794 005c 0B       		.uleb128 0xb
 2795 005d 49       		.uleb128 0x49
 2796 005e 13       		.uleb128 0x13
 2797 005f 38       		.uleb128 0x38
 2798 0060 0B       		.uleb128 0xb
 2799 0061 00       		.byte	0
 2800 0062 00       		.byte	0
 2801 0063 08       		.uleb128 0x8
 2802 0064 0D       		.uleb128 0xd
 2803 0065 00       		.byte	0
 2804 0066 03       		.uleb128 0x3
 2805 0067 08       		.uleb128 0x8
 2806 0068 3A       		.uleb128 0x3a
 2807 0069 0B       		.uleb128 0xb
 2808 006a 3B       		.uleb128 0x3b
 2809 006b 05       		.uleb128 0x5
 2810 006c 49       		.uleb128 0x49
 2811 006d 13       		.uleb128 0x13
 2812 006e 38       		.uleb128 0x38
 2813 006f 0B       		.uleb128 0xb
 2814 0070 00       		.byte	0
 2815 0071 00       		.byte	0
 2816 0072 09       		.uleb128 0x9
 2817 0073 0D       		.uleb128 0xd
 2818 0074 00       		.byte	0
 2819 0075 03       		.uleb128 0x3
 2820 0076 0E       		.uleb128 0xe
 2821 0077 3A       		.uleb128 0x3a
 2822 0078 0B       		.uleb128 0xb
 2823 0079 3B       		.uleb128 0x3b
 2824 007a 05       		.uleb128 0x5
 2825 007b 49       		.uleb128 0x49
 2826 007c 13       		.uleb128 0x13
 2827 007d 38       		.uleb128 0x38
 2828 007e 0B       		.uleb128 0xb
 2829 007f 00       		.byte	0
 2830 0080 00       		.byte	0
 2831 0081 0A       		.uleb128 0xa
 2832 0082 0F       		.uleb128 0xf
 2833 0083 00       		.byte	0
 2834 0084 0B       		.uleb128 0xb
 2835 0085 0B       		.uleb128 0xb
 2836 0086 49       		.uleb128 0x49
 2837 0087 13       		.uleb128 0x13
 2838 0088 00       		.byte	0
 2839 0089 00       		.byte	0
 2840 008a 0B       		.uleb128 0xb
 2841 008b 13       		.uleb128 0x13
 2842 008c 01       		.byte	0x1
 2843 008d 03       		.uleb128 0x3
 2844 008e 0E       		.uleb128 0xe
 2845 008f 0B       		.uleb128 0xb
 2846 0090 0B       		.uleb128 0xb
ARM GAS  /tmp/ccQ8K1iD.s 			page 51


 2847 0091 3A       		.uleb128 0x3a
 2848 0092 0B       		.uleb128 0xb
 2849 0093 3B       		.uleb128 0x3b
 2850 0094 05       		.uleb128 0x5
 2851 0095 01       		.uleb128 0x1
 2852 0096 13       		.uleb128 0x13
 2853 0097 00       		.byte	0
 2854 0098 00       		.byte	0
 2855 0099 0C       		.uleb128 0xc
 2856 009a 15       		.uleb128 0x15
 2857 009b 01       		.byte	0x1
 2858 009c 27       		.uleb128 0x27
 2859 009d 19       		.uleb128 0x19
 2860 009e 01       		.uleb128 0x1
 2861 009f 13       		.uleb128 0x13
 2862 00a0 00       		.byte	0
 2863 00a1 00       		.byte	0
 2864 00a2 0D       		.uleb128 0xd
 2865 00a3 05       		.uleb128 0x5
 2866 00a4 00       		.byte	0
 2867 00a5 49       		.uleb128 0x49
 2868 00a6 13       		.uleb128 0x13
 2869 00a7 00       		.byte	0
 2870 00a8 00       		.byte	0
 2871 00a9 0E       		.uleb128 0xe
 2872 00aa 0F       		.uleb128 0xf
 2873 00ab 00       		.byte	0
 2874 00ac 0B       		.uleb128 0xb
 2875 00ad 0B       		.uleb128 0xb
 2876 00ae 00       		.byte	0
 2877 00af 00       		.byte	0
 2878 00b0 0F       		.uleb128 0xf
 2879 00b1 35       		.uleb128 0x35
 2880 00b2 00       		.byte	0
 2881 00b3 49       		.uleb128 0x49
 2882 00b4 13       		.uleb128 0x13
 2883 00b5 00       		.byte	0
 2884 00b6 00       		.byte	0
 2885 00b7 10       		.uleb128 0x10
 2886 00b8 01       		.uleb128 0x1
 2887 00b9 01       		.byte	0x1
 2888 00ba 49       		.uleb128 0x49
 2889 00bb 13       		.uleb128 0x13
 2890 00bc 01       		.uleb128 0x1
 2891 00bd 13       		.uleb128 0x13
 2892 00be 00       		.byte	0
 2893 00bf 00       		.byte	0
 2894 00c0 11       		.uleb128 0x11
 2895 00c1 21       		.uleb128 0x21
 2896 00c2 00       		.byte	0
 2897 00c3 49       		.uleb128 0x49
 2898 00c4 13       		.uleb128 0x13
 2899 00c5 2F       		.uleb128 0x2f
 2900 00c6 0B       		.uleb128 0xb
 2901 00c7 00       		.byte	0
 2902 00c8 00       		.byte	0
 2903 00c9 12       		.uleb128 0x12
ARM GAS  /tmp/ccQ8K1iD.s 			page 52


 2904 00ca 13       		.uleb128 0x13
 2905 00cb 01       		.byte	0x1
 2906 00cc 0B       		.uleb128 0xb
 2907 00cd 0B       		.uleb128 0xb
 2908 00ce 3A       		.uleb128 0x3a
 2909 00cf 0B       		.uleb128 0xb
 2910 00d0 3B       		.uleb128 0x3b
 2911 00d1 05       		.uleb128 0x5
 2912 00d2 01       		.uleb128 0x1
 2913 00d3 13       		.uleb128 0x13
 2914 00d4 00       		.byte	0
 2915 00d5 00       		.byte	0
 2916 00d6 13       		.uleb128 0x13
 2917 00d7 16       		.uleb128 0x16
 2918 00d8 00       		.byte	0
 2919 00d9 03       		.uleb128 0x3
 2920 00da 0E       		.uleb128 0xe
 2921 00db 3A       		.uleb128 0x3a
 2922 00dc 0B       		.uleb128 0xb
 2923 00dd 3B       		.uleb128 0x3b
 2924 00de 05       		.uleb128 0x5
 2925 00df 49       		.uleb128 0x49
 2926 00e0 13       		.uleb128 0x13
 2927 00e1 00       		.byte	0
 2928 00e2 00       		.byte	0
 2929 00e3 14       		.uleb128 0x14
 2930 00e4 13       		.uleb128 0x13
 2931 00e5 01       		.byte	0x1
 2932 00e6 0B       		.uleb128 0xb
 2933 00e7 0B       		.uleb128 0xb
 2934 00e8 3A       		.uleb128 0x3a
 2935 00e9 0B       		.uleb128 0xb
 2936 00ea 3B       		.uleb128 0x3b
 2937 00eb 0B       		.uleb128 0xb
 2938 00ec 01       		.uleb128 0x1
 2939 00ed 13       		.uleb128 0x13
 2940 00ee 00       		.byte	0
 2941 00ef 00       		.byte	0
 2942 00f0 15       		.uleb128 0x15
 2943 00f1 17       		.uleb128 0x17
 2944 00f2 01       		.byte	0x1
 2945 00f3 0B       		.uleb128 0xb
 2946 00f4 0B       		.uleb128 0xb
 2947 00f5 3A       		.uleb128 0x3a
 2948 00f6 0B       		.uleb128 0xb
 2949 00f7 3B       		.uleb128 0x3b
 2950 00f8 0B       		.uleb128 0xb
 2951 00f9 01       		.uleb128 0x1
 2952 00fa 13       		.uleb128 0x13
 2953 00fb 00       		.byte	0
 2954 00fc 00       		.byte	0
 2955 00fd 16       		.uleb128 0x16
 2956 00fe 0D       		.uleb128 0xd
 2957 00ff 00       		.byte	0
 2958 0100 03       		.uleb128 0x3
 2959 0101 0E       		.uleb128 0xe
 2960 0102 3A       		.uleb128 0x3a
ARM GAS  /tmp/ccQ8K1iD.s 			page 53


 2961 0103 0B       		.uleb128 0xb
 2962 0104 3B       		.uleb128 0x3b
 2963 0105 0B       		.uleb128 0xb
 2964 0106 49       		.uleb128 0x49
 2965 0107 13       		.uleb128 0x13
 2966 0108 00       		.byte	0
 2967 0109 00       		.byte	0
 2968 010a 17       		.uleb128 0x17
 2969 010b 0D       		.uleb128 0xd
 2970 010c 00       		.byte	0
 2971 010d 03       		.uleb128 0x3
 2972 010e 0E       		.uleb128 0xe
 2973 010f 3A       		.uleb128 0x3a
 2974 0110 0B       		.uleb128 0xb
 2975 0111 3B       		.uleb128 0x3b
 2976 0112 05       		.uleb128 0x5
 2977 0113 49       		.uleb128 0x49
 2978 0114 13       		.uleb128 0x13
 2979 0115 00       		.byte	0
 2980 0116 00       		.byte	0
 2981 0117 18       		.uleb128 0x18
 2982 0118 26       		.uleb128 0x26
 2983 0119 00       		.byte	0
 2984 011a 49       		.uleb128 0x49
 2985 011b 13       		.uleb128 0x13
 2986 011c 00       		.byte	0
 2987 011d 00       		.byte	0
 2988 011e 19       		.uleb128 0x19
 2989 011f 2E       		.uleb128 0x2e
 2990 0120 00       		.byte	0
 2991 0121 03       		.uleb128 0x3
 2992 0122 0E       		.uleb128 0xe
 2993 0123 3A       		.uleb128 0x3a
 2994 0124 0B       		.uleb128 0xb
 2995 0125 3B       		.uleb128 0x3b
 2996 0126 05       		.uleb128 0x5
 2997 0127 27       		.uleb128 0x27
 2998 0128 19       		.uleb128 0x19
 2999 0129 20       		.uleb128 0x20
 3000 012a 0B       		.uleb128 0xb
 3001 012b 00       		.byte	0
 3002 012c 00       		.byte	0
 3003 012d 1A       		.uleb128 0x1a
 3004 012e 2E       		.uleb128 0x2e
 3005 012f 00       		.byte	0
 3006 0130 03       		.uleb128 0x3
 3007 0131 0E       		.uleb128 0xe
 3008 0132 3A       		.uleb128 0x3a
 3009 0133 0B       		.uleb128 0xb
 3010 0134 3B       		.uleb128 0x3b
 3011 0135 0B       		.uleb128 0xb
 3012 0136 27       		.uleb128 0x27
 3013 0137 19       		.uleb128 0x19
 3014 0138 20       		.uleb128 0x20
 3015 0139 0B       		.uleb128 0xb
 3016 013a 00       		.byte	0
 3017 013b 00       		.byte	0
ARM GAS  /tmp/ccQ8K1iD.s 			page 54


 3018 013c 1B       		.uleb128 0x1b
 3019 013d 2E       		.uleb128 0x2e
 3020 013e 00       		.byte	0
 3021 013f 3F       		.uleb128 0x3f
 3022 0140 19       		.uleb128 0x19
 3023 0141 03       		.uleb128 0x3
 3024 0142 0E       		.uleb128 0xe
 3025 0143 3A       		.uleb128 0x3a
 3026 0144 0B       		.uleb128 0xb
 3027 0145 3B       		.uleb128 0x3b
 3028 0146 0B       		.uleb128 0xb
 3029 0147 27       		.uleb128 0x27
 3030 0148 19       		.uleb128 0x19
 3031 0149 20       		.uleb128 0x20
 3032 014a 0B       		.uleb128 0xb
 3033 014b 00       		.byte	0
 3034 014c 00       		.byte	0
 3035 014d 1C       		.uleb128 0x1c
 3036 014e 2E       		.uleb128 0x2e
 3037 014f 01       		.byte	0x1
 3038 0150 3F       		.uleb128 0x3f
 3039 0151 19       		.uleb128 0x19
 3040 0152 03       		.uleb128 0x3
 3041 0153 0E       		.uleb128 0xe
 3042 0154 3A       		.uleb128 0x3a
 3043 0155 0B       		.uleb128 0xb
 3044 0156 3B       		.uleb128 0x3b
 3045 0157 05       		.uleb128 0x5
 3046 0158 27       		.uleb128 0x27
 3047 0159 19       		.uleb128 0x19
 3048 015a 49       		.uleb128 0x49
 3049 015b 13       		.uleb128 0x13
 3050 015c 20       		.uleb128 0x20
 3051 015d 0B       		.uleb128 0xb
 3052 015e 01       		.uleb128 0x1
 3053 015f 13       		.uleb128 0x13
 3054 0160 00       		.byte	0
 3055 0161 00       		.byte	0
 3056 0162 1D       		.uleb128 0x1d
 3057 0163 05       		.uleb128 0x5
 3058 0164 00       		.byte	0
 3059 0165 03       		.uleb128 0x3
 3060 0166 0E       		.uleb128 0xe
 3061 0167 3A       		.uleb128 0x3a
 3062 0168 0B       		.uleb128 0xb
 3063 0169 3B       		.uleb128 0x3b
 3064 016a 05       		.uleb128 0x5
 3065 016b 49       		.uleb128 0x49
 3066 016c 13       		.uleb128 0x13
 3067 016d 00       		.byte	0
 3068 016e 00       		.byte	0
 3069 016f 1E       		.uleb128 0x1e
 3070 0170 2E       		.uleb128 0x2e
 3071 0171 01       		.byte	0x1
 3072 0172 3F       		.uleb128 0x3f
 3073 0173 19       		.uleb128 0x19
 3074 0174 03       		.uleb128 0x3
ARM GAS  /tmp/ccQ8K1iD.s 			page 55


 3075 0175 0E       		.uleb128 0xe
 3076 0176 3A       		.uleb128 0x3a
 3077 0177 0B       		.uleb128 0xb
 3078 0178 3B       		.uleb128 0x3b
 3079 0179 0B       		.uleb128 0xb
 3080 017a 27       		.uleb128 0x27
 3081 017b 19       		.uleb128 0x19
 3082 017c 49       		.uleb128 0x49
 3083 017d 13       		.uleb128 0x13
 3084 017e 20       		.uleb128 0x20
 3085 017f 0B       		.uleb128 0xb
 3086 0180 01       		.uleb128 0x1
 3087 0181 13       		.uleb128 0x13
 3088 0182 00       		.byte	0
 3089 0183 00       		.byte	0
 3090 0184 1F       		.uleb128 0x1f
 3091 0185 05       		.uleb128 0x5
 3092 0186 00       		.byte	0
 3093 0187 03       		.uleb128 0x3
 3094 0188 0E       		.uleb128 0xe
 3095 0189 3A       		.uleb128 0x3a
 3096 018a 0B       		.uleb128 0xb
 3097 018b 3B       		.uleb128 0x3b
 3098 018c 0B       		.uleb128 0xb
 3099 018d 49       		.uleb128 0x49
 3100 018e 13       		.uleb128 0x13
 3101 018f 00       		.byte	0
 3102 0190 00       		.byte	0
 3103 0191 20       		.uleb128 0x20
 3104 0192 0B       		.uleb128 0xb
 3105 0193 01       		.byte	0x1
 3106 0194 00       		.byte	0
 3107 0195 00       		.byte	0
 3108 0196 21       		.uleb128 0x21
 3109 0197 34       		.uleb128 0x34
 3110 0198 00       		.byte	0
 3111 0199 03       		.uleb128 0x3
 3112 019a 0E       		.uleb128 0xe
 3113 019b 3A       		.uleb128 0x3a
 3114 019c 0B       		.uleb128 0xb
 3115 019d 3B       		.uleb128 0x3b
 3116 019e 05       		.uleb128 0x5
 3117 019f 49       		.uleb128 0x49
 3118 01a0 13       		.uleb128 0x13
 3119 01a1 00       		.byte	0
 3120 01a2 00       		.byte	0
 3121 01a3 22       		.uleb128 0x22
 3122 01a4 34       		.uleb128 0x34
 3123 01a5 00       		.byte	0
 3124 01a6 03       		.uleb128 0x3
 3125 01a7 08       		.uleb128 0x8
 3126 01a8 3A       		.uleb128 0x3a
 3127 01a9 0B       		.uleb128 0xb
 3128 01aa 3B       		.uleb128 0x3b
 3129 01ab 05       		.uleb128 0x5
 3130 01ac 49       		.uleb128 0x49
 3131 01ad 13       		.uleb128 0x13
ARM GAS  /tmp/ccQ8K1iD.s 			page 56


 3132 01ae 00       		.byte	0
 3133 01af 00       		.byte	0
 3134 01b0 23       		.uleb128 0x23
 3135 01b1 2E       		.uleb128 0x2e
 3136 01b2 01       		.byte	0x1
 3137 01b3 03       		.uleb128 0x3
 3138 01b4 0E       		.uleb128 0xe
 3139 01b5 3A       		.uleb128 0x3a
 3140 01b6 0B       		.uleb128 0xb
 3141 01b7 3B       		.uleb128 0x3b
 3142 01b8 0B       		.uleb128 0xb
 3143 01b9 27       		.uleb128 0x27
 3144 01ba 19       		.uleb128 0x19
 3145 01bb 49       		.uleb128 0x49
 3146 01bc 13       		.uleb128 0x13
 3147 01bd 20       		.uleb128 0x20
 3148 01be 0B       		.uleb128 0xb
 3149 01bf 01       		.uleb128 0x1
 3150 01c0 13       		.uleb128 0x13
 3151 01c1 00       		.byte	0
 3152 01c2 00       		.byte	0
 3153 01c3 24       		.uleb128 0x24
 3154 01c4 34       		.uleb128 0x34
 3155 01c5 00       		.byte	0
 3156 01c6 03       		.uleb128 0x3
 3157 01c7 0E       		.uleb128 0xe
 3158 01c8 3A       		.uleb128 0x3a
 3159 01c9 0B       		.uleb128 0xb
 3160 01ca 3B       		.uleb128 0x3b
 3161 01cb 0B       		.uleb128 0xb
 3162 01cc 49       		.uleb128 0x49
 3163 01cd 13       		.uleb128 0x13
 3164 01ce 00       		.byte	0
 3165 01cf 00       		.byte	0
 3166 01d0 25       		.uleb128 0x25
 3167 01d1 2E       		.uleb128 0x2e
 3168 01d2 01       		.byte	0x1
 3169 01d3 03       		.uleb128 0x3
 3170 01d4 0E       		.uleb128 0xe
 3171 01d5 3A       		.uleb128 0x3a
 3172 01d6 0B       		.uleb128 0xb
 3173 01d7 3B       		.uleb128 0x3b
 3174 01d8 0B       		.uleb128 0xb
 3175 01d9 27       		.uleb128 0x27
 3176 01da 19       		.uleb128 0x19
 3177 01db 20       		.uleb128 0x20
 3178 01dc 0B       		.uleb128 0xb
 3179 01dd 01       		.uleb128 0x1
 3180 01de 13       		.uleb128 0x13
 3181 01df 00       		.byte	0
 3182 01e0 00       		.byte	0
 3183 01e1 26       		.uleb128 0x26
 3184 01e2 05       		.uleb128 0x5
 3185 01e3 00       		.byte	0
 3186 01e4 03       		.uleb128 0x3
 3187 01e5 08       		.uleb128 0x8
 3188 01e6 3A       		.uleb128 0x3a
ARM GAS  /tmp/ccQ8K1iD.s 			page 57


 3189 01e7 0B       		.uleb128 0xb
 3190 01e8 3B       		.uleb128 0x3b
 3191 01e9 0B       		.uleb128 0xb
 3192 01ea 49       		.uleb128 0x49
 3193 01eb 13       		.uleb128 0x13
 3194 01ec 00       		.byte	0
 3195 01ed 00       		.byte	0
 3196 01ee 27       		.uleb128 0x27
 3197 01ef 2E       		.uleb128 0x2e
 3198 01f0 01       		.byte	0x1
 3199 01f1 03       		.uleb128 0x3
 3200 01f2 0E       		.uleb128 0xe
 3201 01f3 3A       		.uleb128 0x3a
 3202 01f4 0B       		.uleb128 0xb
 3203 01f5 3B       		.uleb128 0x3b
 3204 01f6 0B       		.uleb128 0xb
 3205 01f7 27       		.uleb128 0x27
 3206 01f8 19       		.uleb128 0x19
 3207 01f9 11       		.uleb128 0x11
 3208 01fa 01       		.uleb128 0x1
 3209 01fb 12       		.uleb128 0x12
 3210 01fc 06       		.uleb128 0x6
 3211 01fd 40       		.uleb128 0x40
 3212 01fe 18       		.uleb128 0x18
 3213 01ff 9742     		.uleb128 0x2117
 3214 0201 19       		.uleb128 0x19
 3215 0202 01       		.uleb128 0x1
 3216 0203 13       		.uleb128 0x13
 3217 0204 00       		.byte	0
 3218 0205 00       		.byte	0
 3219 0206 28       		.uleb128 0x28
 3220 0207 1D       		.uleb128 0x1d
 3221 0208 00       		.byte	0
 3222 0209 31       		.uleb128 0x31
 3223 020a 13       		.uleb128 0x13
 3224 020b 11       		.uleb128 0x11
 3225 020c 01       		.uleb128 0x1
 3226 020d 12       		.uleb128 0x12
 3227 020e 06       		.uleb128 0x6
 3228 020f 58       		.uleb128 0x58
 3229 0210 0B       		.uleb128 0xb
 3230 0211 59       		.uleb128 0x59
 3231 0212 0B       		.uleb128 0xb
 3232 0213 00       		.byte	0
 3233 0214 00       		.byte	0
 3234 0215 29       		.uleb128 0x29
 3235 0216 2E       		.uleb128 0x2e
 3236 0217 01       		.byte	0x1
 3237 0218 31       		.uleb128 0x31
 3238 0219 13       		.uleb128 0x13
 3239 021a 11       		.uleb128 0x11
 3240 021b 01       		.uleb128 0x1
 3241 021c 12       		.uleb128 0x12
 3242 021d 06       		.uleb128 0x6
 3243 021e 40       		.uleb128 0x40
 3244 021f 18       		.uleb128 0x18
 3245 0220 9742     		.uleb128 0x2117
ARM GAS  /tmp/ccQ8K1iD.s 			page 58


 3246 0222 19       		.uleb128 0x19
 3247 0223 01       		.uleb128 0x1
 3248 0224 13       		.uleb128 0x13
 3249 0225 00       		.byte	0
 3250 0226 00       		.byte	0
 3251 0227 2A       		.uleb128 0x2a
 3252 0228 898201   		.uleb128 0x4109
 3253 022b 00       		.byte	0
 3254 022c 11       		.uleb128 0x11
 3255 022d 01       		.uleb128 0x1
 3256 022e 31       		.uleb128 0x31
 3257 022f 13       		.uleb128 0x13
 3258 0230 00       		.byte	0
 3259 0231 00       		.byte	0
 3260 0232 2B       		.uleb128 0x2b
 3261 0233 05       		.uleb128 0x5
 3262 0234 00       		.byte	0
 3263 0235 31       		.uleb128 0x31
 3264 0236 13       		.uleb128 0x13
 3265 0237 02       		.uleb128 0x2
 3266 0238 17       		.uleb128 0x17
 3267 0239 00       		.byte	0
 3268 023a 00       		.byte	0
 3269 023b 2C       		.uleb128 0x2c
 3270 023c 0B       		.uleb128 0xb
 3271 023d 01       		.byte	0x1
 3272 023e 11       		.uleb128 0x11
 3273 023f 01       		.uleb128 0x1
 3274 0240 12       		.uleb128 0x12
 3275 0241 06       		.uleb128 0x6
 3276 0242 00       		.byte	0
 3277 0243 00       		.byte	0
 3278 0244 2D       		.uleb128 0x2d
 3279 0245 0B       		.uleb128 0xb
 3280 0246 01       		.byte	0x1
 3281 0247 55       		.uleb128 0x55
 3282 0248 17       		.uleb128 0x17
 3283 0249 00       		.byte	0
 3284 024a 00       		.byte	0
 3285 024b 2E       		.uleb128 0x2e
 3286 024c 34       		.uleb128 0x34
 3287 024d 00       		.byte	0
 3288 024e 31       		.uleb128 0x31
 3289 024f 13       		.uleb128 0x13
 3290 0250 02       		.uleb128 0x2
 3291 0251 17       		.uleb128 0x17
 3292 0252 00       		.byte	0
 3293 0253 00       		.byte	0
 3294 0254 2F       		.uleb128 0x2f
 3295 0255 1D       		.uleb128 0x1d
 3296 0256 01       		.byte	0x1
 3297 0257 31       		.uleb128 0x31
 3298 0258 13       		.uleb128 0x13
 3299 0259 11       		.uleb128 0x11
 3300 025a 01       		.uleb128 0x1
 3301 025b 12       		.uleb128 0x12
 3302 025c 06       		.uleb128 0x6
ARM GAS  /tmp/ccQ8K1iD.s 			page 59


 3303 025d 58       		.uleb128 0x58
 3304 025e 0B       		.uleb128 0xb
 3305 025f 59       		.uleb128 0x59
 3306 0260 05       		.uleb128 0x5
 3307 0261 00       		.byte	0
 3308 0262 00       		.byte	0
 3309 0263 30       		.uleb128 0x30
 3310 0264 05       		.uleb128 0x5
 3311 0265 00       		.byte	0
 3312 0266 31       		.uleb128 0x31
 3313 0267 13       		.uleb128 0x13
 3314 0268 00       		.byte	0
 3315 0269 00       		.byte	0
 3316 026a 31       		.uleb128 0x31
 3317 026b 2E       		.uleb128 0x2e
 3318 026c 00       		.byte	0
 3319 026d 3F       		.uleb128 0x3f
 3320 026e 19       		.uleb128 0x19
 3321 026f 03       		.uleb128 0x3
 3322 0270 0E       		.uleb128 0xe
 3323 0271 3A       		.uleb128 0x3a
 3324 0272 0B       		.uleb128 0xb
 3325 0273 3B       		.uleb128 0x3b
 3326 0274 05       		.uleb128 0x5
 3327 0275 27       		.uleb128 0x27
 3328 0276 19       		.uleb128 0x19
 3329 0277 49       		.uleb128 0x49
 3330 0278 13       		.uleb128 0x13
 3331 0279 11       		.uleb128 0x11
 3332 027a 01       		.uleb128 0x1
 3333 027b 12       		.uleb128 0x12
 3334 027c 06       		.uleb128 0x6
 3335 027d 40       		.uleb128 0x40
 3336 027e 18       		.uleb128 0x18
 3337 027f 9742     		.uleb128 0x2117
 3338 0281 19       		.uleb128 0x19
 3339 0282 00       		.byte	0
 3340 0283 00       		.byte	0
 3341 0284 32       		.uleb128 0x32
 3342 0285 34       		.uleb128 0x34
 3343 0286 00       		.byte	0
 3344 0287 31       		.uleb128 0x31
 3345 0288 13       		.uleb128 0x13
 3346 0289 00       		.byte	0
 3347 028a 00       		.byte	0
 3348 028b 33       		.uleb128 0x33
 3349 028c 34       		.uleb128 0x34
 3350 028d 00       		.byte	0
 3351 028e 31       		.uleb128 0x31
 3352 028f 13       		.uleb128 0x13
 3353 0290 02       		.uleb128 0x2
 3354 0291 18       		.uleb128 0x18
 3355 0292 00       		.byte	0
 3356 0293 00       		.byte	0
 3357 0294 34       		.uleb128 0x34
 3358 0295 1D       		.uleb128 0x1d
 3359 0296 01       		.byte	0x1
ARM GAS  /tmp/ccQ8K1iD.s 			page 60


 3360 0297 31       		.uleb128 0x31
 3361 0298 13       		.uleb128 0x13
 3362 0299 11       		.uleb128 0x11
 3363 029a 01       		.uleb128 0x1
 3364 029b 12       		.uleb128 0x12
 3365 029c 06       		.uleb128 0x6
 3366 029d 58       		.uleb128 0x58
 3367 029e 0B       		.uleb128 0xb
 3368 029f 59       		.uleb128 0x59
 3369 02a0 05       		.uleb128 0x5
 3370 02a1 01       		.uleb128 0x1
 3371 02a2 13       		.uleb128 0x13
 3372 02a3 00       		.byte	0
 3373 02a4 00       		.byte	0
 3374 02a5 35       		.uleb128 0x35
 3375 02a6 0B       		.uleb128 0xb
 3376 02a7 01       		.byte	0x1
 3377 02a8 11       		.uleb128 0x11
 3378 02a9 01       		.uleb128 0x1
 3379 02aa 12       		.uleb128 0x12
 3380 02ab 06       		.uleb128 0x6
 3381 02ac 01       		.uleb128 0x1
 3382 02ad 13       		.uleb128 0x13
 3383 02ae 00       		.byte	0
 3384 02af 00       		.byte	0
 3385 02b0 36       		.uleb128 0x36
 3386 02b1 2E       		.uleb128 0x2e
 3387 02b2 01       		.byte	0x1
 3388 02b3 3F       		.uleb128 0x3f
 3389 02b4 19       		.uleb128 0x19
 3390 02b5 03       		.uleb128 0x3
 3391 02b6 0E       		.uleb128 0xe
 3392 02b7 3A       		.uleb128 0x3a
 3393 02b8 0B       		.uleb128 0xb
 3394 02b9 3B       		.uleb128 0x3b
 3395 02ba 05       		.uleb128 0x5
 3396 02bb 27       		.uleb128 0x27
 3397 02bc 19       		.uleb128 0x19
 3398 02bd 49       		.uleb128 0x49
 3399 02be 13       		.uleb128 0x13
 3400 02bf 11       		.uleb128 0x11
 3401 02c0 01       		.uleb128 0x1
 3402 02c1 12       		.uleb128 0x12
 3403 02c2 06       		.uleb128 0x6
 3404 02c3 40       		.uleb128 0x40
 3405 02c4 18       		.uleb128 0x18
 3406 02c5 9742     		.uleb128 0x2117
 3407 02c7 19       		.uleb128 0x19
 3408 02c8 01       		.uleb128 0x1
 3409 02c9 13       		.uleb128 0x13
 3410 02ca 00       		.byte	0
 3411 02cb 00       		.byte	0
 3412 02cc 37       		.uleb128 0x37
 3413 02cd 05       		.uleb128 0x5
 3414 02ce 00       		.byte	0
 3415 02cf 03       		.uleb128 0x3
 3416 02d0 0E       		.uleb128 0xe
ARM GAS  /tmp/ccQ8K1iD.s 			page 61


 3417 02d1 3A       		.uleb128 0x3a
 3418 02d2 0B       		.uleb128 0xb
 3419 02d3 3B       		.uleb128 0x3b
 3420 02d4 05       		.uleb128 0x5
 3421 02d5 49       		.uleb128 0x49
 3422 02d6 13       		.uleb128 0x13
 3423 02d7 02       		.uleb128 0x2
 3424 02d8 17       		.uleb128 0x17
 3425 02d9 00       		.byte	0
 3426 02da 00       		.byte	0
 3427 02db 38       		.uleb128 0x38
 3428 02dc 34       		.uleb128 0x34
 3429 02dd 00       		.byte	0
 3430 02de 03       		.uleb128 0x3
 3431 02df 08       		.uleb128 0x8
 3432 02e0 3A       		.uleb128 0x3a
 3433 02e1 0B       		.uleb128 0xb
 3434 02e2 3B       		.uleb128 0x3b
 3435 02e3 05       		.uleb128 0x5
 3436 02e4 49       		.uleb128 0x49
 3437 02e5 13       		.uleb128 0x13
 3438 02e6 02       		.uleb128 0x2
 3439 02e7 17       		.uleb128 0x17
 3440 02e8 00       		.byte	0
 3441 02e9 00       		.byte	0
 3442 02ea 39       		.uleb128 0x39
 3443 02eb 1D       		.uleb128 0x1d
 3444 02ec 00       		.byte	0
 3445 02ed 31       		.uleb128 0x31
 3446 02ee 13       		.uleb128 0x13
 3447 02ef 11       		.uleb128 0x11
 3448 02f0 01       		.uleb128 0x1
 3449 02f1 12       		.uleb128 0x12
 3450 02f2 06       		.uleb128 0x6
 3451 02f3 58       		.uleb128 0x58
 3452 02f4 0B       		.uleb128 0xb
 3453 02f5 59       		.uleb128 0x59
 3454 02f6 05       		.uleb128 0x5
 3455 02f7 00       		.byte	0
 3456 02f8 00       		.byte	0
 3457 02f9 3A       		.uleb128 0x3a
 3458 02fa 898201   		.uleb128 0x4109
 3459 02fd 01       		.byte	0x1
 3460 02fe 11       		.uleb128 0x11
 3461 02ff 01       		.uleb128 0x1
 3462 0300 9542     		.uleb128 0x2115
 3463 0302 19       		.uleb128 0x19
 3464 0303 31       		.uleb128 0x31
 3465 0304 13       		.uleb128 0x13
 3466 0305 00       		.byte	0
 3467 0306 00       		.byte	0
 3468 0307 3B       		.uleb128 0x3b
 3469 0308 8A8201   		.uleb128 0x410a
 3470 030b 00       		.byte	0
 3471 030c 02       		.uleb128 0x2
 3472 030d 18       		.uleb128 0x18
 3473 030e 9142     		.uleb128 0x2111
ARM GAS  /tmp/ccQ8K1iD.s 			page 62


 3474 0310 18       		.uleb128 0x18
 3475 0311 00       		.byte	0
 3476 0312 00       		.byte	0
 3477 0313 3C       		.uleb128 0x3c
 3478 0314 05       		.uleb128 0x5
 3479 0315 00       		.byte	0
 3480 0316 03       		.uleb128 0x3
 3481 0317 08       		.uleb128 0x8
 3482 0318 3A       		.uleb128 0x3a
 3483 0319 0B       		.uleb128 0xb
 3484 031a 3B       		.uleb128 0x3b
 3485 031b 05       		.uleb128 0x5
 3486 031c 49       		.uleb128 0x49
 3487 031d 13       		.uleb128 0x13
 3488 031e 02       		.uleb128 0x2
 3489 031f 17       		.uleb128 0x17
 3490 0320 00       		.byte	0
 3491 0321 00       		.byte	0
 3492 0322 3D       		.uleb128 0x3d
 3493 0323 0A       		.uleb128 0xa
 3494 0324 00       		.byte	0
 3495 0325 03       		.uleb128 0x3
 3496 0326 0E       		.uleb128 0xe
 3497 0327 3A       		.uleb128 0x3a
 3498 0328 0B       		.uleb128 0xb
 3499 0329 3B       		.uleb128 0x3b
 3500 032a 05       		.uleb128 0x5
 3501 032b 11       		.uleb128 0x11
 3502 032c 01       		.uleb128 0x1
 3503 032d 00       		.byte	0
 3504 032e 00       		.byte	0
 3505 032f 3E       		.uleb128 0x3e
 3506 0330 1D       		.uleb128 0x1d
 3507 0331 00       		.byte	0
 3508 0332 31       		.uleb128 0x31
 3509 0333 13       		.uleb128 0x13
 3510 0334 52       		.uleb128 0x52
 3511 0335 01       		.uleb128 0x1
 3512 0336 55       		.uleb128 0x55
 3513 0337 17       		.uleb128 0x17
 3514 0338 58       		.uleb128 0x58
 3515 0339 0B       		.uleb128 0xb
 3516 033a 59       		.uleb128 0x59
 3517 033b 05       		.uleb128 0x5
 3518 033c 00       		.byte	0
 3519 033d 00       		.byte	0
 3520 033e 3F       		.uleb128 0x3f
 3521 033f 1D       		.uleb128 0x1d
 3522 0340 01       		.byte	0x1
 3523 0341 31       		.uleb128 0x31
 3524 0342 13       		.uleb128 0x13
 3525 0343 52       		.uleb128 0x52
 3526 0344 01       		.uleb128 0x1
 3527 0345 55       		.uleb128 0x55
 3528 0346 17       		.uleb128 0x17
 3529 0347 58       		.uleb128 0x58
 3530 0348 0B       		.uleb128 0xb
ARM GAS  /tmp/ccQ8K1iD.s 			page 63


 3531 0349 59       		.uleb128 0x59
 3532 034a 05       		.uleb128 0x5
 3533 034b 01       		.uleb128 0x1
 3534 034c 13       		.uleb128 0x13
 3535 034d 00       		.byte	0
 3536 034e 00       		.byte	0
 3537 034f 40       		.uleb128 0x40
 3538 0350 26       		.uleb128 0x26
 3539 0351 00       		.byte	0
 3540 0352 00       		.byte	0
 3541 0353 00       		.byte	0
 3542 0354 41       		.uleb128 0x41
 3543 0355 2E       		.uleb128 0x2e
 3544 0356 01       		.byte	0x1
 3545 0357 3F       		.uleb128 0x3f
 3546 0358 19       		.uleb128 0x19
 3547 0359 03       		.uleb128 0x3
 3548 035a 0E       		.uleb128 0xe
 3549 035b 3A       		.uleb128 0x3a
 3550 035c 0B       		.uleb128 0xb
 3551 035d 3B       		.uleb128 0x3b
 3552 035e 05       		.uleb128 0x5
 3553 035f 27       		.uleb128 0x27
 3554 0360 19       		.uleb128 0x19
 3555 0361 11       		.uleb128 0x11
 3556 0362 01       		.uleb128 0x1
 3557 0363 12       		.uleb128 0x12
 3558 0364 06       		.uleb128 0x6
 3559 0365 40       		.uleb128 0x40
 3560 0366 18       		.uleb128 0x18
 3561 0367 9742     		.uleb128 0x2117
 3562 0369 19       		.uleb128 0x19
 3563 036a 01       		.uleb128 0x1
 3564 036b 13       		.uleb128 0x13
 3565 036c 00       		.byte	0
 3566 036d 00       		.byte	0
 3567 036e 42       		.uleb128 0x42
 3568 036f 898201   		.uleb128 0x4109
 3569 0372 00       		.byte	0
 3570 0373 11       		.uleb128 0x11
 3571 0374 01       		.uleb128 0x1
 3572 0375 9542     		.uleb128 0x2115
 3573 0377 19       		.uleb128 0x19
 3574 0378 31       		.uleb128 0x31
 3575 0379 13       		.uleb128 0x13
 3576 037a 00       		.byte	0
 3577 037b 00       		.byte	0
 3578 037c 43       		.uleb128 0x43
 3579 037d 34       		.uleb128 0x34
 3580 037e 00       		.byte	0
 3581 037f 03       		.uleb128 0x3
 3582 0380 0E       		.uleb128 0xe
 3583 0381 3A       		.uleb128 0x3a
 3584 0382 0B       		.uleb128 0xb
 3585 0383 3B       		.uleb128 0x3b
 3586 0384 0B       		.uleb128 0xb
 3587 0385 49       		.uleb128 0x49
ARM GAS  /tmp/ccQ8K1iD.s 			page 64


 3588 0386 13       		.uleb128 0x13
 3589 0387 02       		.uleb128 0x2
 3590 0388 18       		.uleb128 0x18
 3591 0389 00       		.byte	0
 3592 038a 00       		.byte	0
 3593 038b 44       		.uleb128 0x44
 3594 038c 34       		.uleb128 0x34
 3595 038d 00       		.byte	0
 3596 038e 03       		.uleb128 0x3
 3597 038f 0E       		.uleb128 0xe
 3598 0390 3A       		.uleb128 0x3a
 3599 0391 0B       		.uleb128 0xb
 3600 0392 3B       		.uleb128 0x3b
 3601 0393 05       		.uleb128 0x5
 3602 0394 49       		.uleb128 0x49
 3603 0395 13       		.uleb128 0x13
 3604 0396 3F       		.uleb128 0x3f
 3605 0397 19       		.uleb128 0x19
 3606 0398 3C       		.uleb128 0x3c
 3607 0399 19       		.uleb128 0x19
 3608 039a 00       		.byte	0
 3609 039b 00       		.byte	0
 3610 039c 45       		.uleb128 0x45
 3611 039d 34       		.uleb128 0x34
 3612 039e 00       		.byte	0
 3613 039f 03       		.uleb128 0x3
 3614 03a0 08       		.uleb128 0x8
 3615 03a1 3A       		.uleb128 0x3a
 3616 03a2 0B       		.uleb128 0xb
 3617 03a3 3B       		.uleb128 0x3b
 3618 03a4 05       		.uleb128 0x5
 3619 03a5 49       		.uleb128 0x49
 3620 03a6 13       		.uleb128 0x13
 3621 03a7 3F       		.uleb128 0x3f
 3622 03a8 19       		.uleb128 0x19
 3623 03a9 3C       		.uleb128 0x3c
 3624 03aa 19       		.uleb128 0x19
 3625 03ab 00       		.byte	0
 3626 03ac 00       		.byte	0
 3627 03ad 00       		.byte	0
 3628              		.section	.debug_loc,"",%progbits
 3629              	.Ldebug_loc0:
 3630              	.LLST0:
 3631 0000 00000000 		.4byte	.LVL2
 3632 0004 2C000000 		.4byte	.LVL8
 3633 0008 0100     		.2byte	0x1
 3634 000a 50       		.byte	0x50
 3635 000b 2C000000 		.4byte	.LVL8
 3636 000f 2E000000 		.4byte	.LVL9
 3637 0013 0400     		.2byte	0x4
 3638 0015 F3       		.byte	0xf3
 3639 0016 01       		.uleb128 0x1
 3640 0017 50       		.byte	0x50
 3641 0018 9F       		.byte	0x9f
 3642 0019 2E000000 		.4byte	.LVL9
 3643 001d 30000000 		.4byte	.LVL10
 3644 0021 0100     		.2byte	0x1
ARM GAS  /tmp/ccQ8K1iD.s 			page 65


 3645 0023 50       		.byte	0x50
 3646 0024 30000000 		.4byte	.LVL10
 3647 0028 40000000 		.4byte	.LFE331
 3648 002c 0400     		.2byte	0x4
 3649 002e F3       		.byte	0xf3
 3650 002f 01       		.uleb128 0x1
 3651 0030 50       		.byte	0x50
 3652 0031 9F       		.byte	0x9f
 3653 0032 00000000 		.4byte	0
 3654 0036 00000000 		.4byte	0
 3655              	.LLST1:
 3656 003a 06000000 		.4byte	.LVL3
 3657 003e 2C000000 		.4byte	.LVL8
 3658 0042 0100     		.2byte	0x1
 3659 0044 50       		.byte	0x50
 3660 0045 00000000 		.4byte	0
 3661 0049 00000000 		.4byte	0
 3662              	.LLST2:
 3663 004d 14000000 		.4byte	.LVL4
 3664 0051 28000000 		.4byte	.LVL7
 3665 0055 0100     		.2byte	0x1
 3666 0057 51       		.byte	0x51
 3667 0058 00000000 		.4byte	0
 3668 005c 00000000 		.4byte	0
 3669              	.LLST3:
 3670 0060 14000000 		.4byte	.LVL4
 3671 0064 1E000000 		.4byte	.LVL5
 3672 0068 0100     		.2byte	0x1
 3673 006a 53       		.byte	0x53
 3674 006b 00000000 		.4byte	0
 3675 006f 00000000 		.4byte	0
 3676              	.LLST4:
 3677 0073 00000000 		.4byte	.LVL11
 3678 0077 06000000 		.4byte	.LVL12
 3679 007b 0100     		.2byte	0x1
 3680 007d 50       		.byte	0x50
 3681 007e 06000000 		.4byte	.LVL12
 3682 0082 0C000000 		.4byte	.LFE332
 3683 0086 0400     		.2byte	0x4
 3684 0088 F3       		.byte	0xf3
 3685 0089 01       		.uleb128 0x1
 3686 008a 50       		.byte	0x50
 3687 008b 9F       		.byte	0x9f
 3688 008c 00000000 		.4byte	0
 3689 0090 00000000 		.4byte	0
 3690              	.LLST5:
 3691 0094 00000000 		.4byte	.LVL13
 3692 0098 08000000 		.4byte	.LVL14
 3693 009c 0100     		.2byte	0x1
 3694 009e 50       		.byte	0x50
 3695 009f 08000000 		.4byte	.LVL14
 3696 00a3 0C000000 		.4byte	.LVL15
 3697 00a7 0100     		.2byte	0x1
 3698 00a9 54       		.byte	0x54
 3699 00aa 0C000000 		.4byte	.LVL15
 3700 00ae 0F000000 		.4byte	.LVL16-1
 3701 00b2 0100     		.2byte	0x1
ARM GAS  /tmp/ccQ8K1iD.s 			page 66


 3702 00b4 50       		.byte	0x50
 3703 00b5 0F000000 		.4byte	.LVL16-1
 3704 00b9 2A000000 		.4byte	.LVL24
 3705 00bd 0100     		.2byte	0x1
 3706 00bf 54       		.byte	0x54
 3707 00c0 2A000000 		.4byte	.LVL24
 3708 00c4 30000000 		.4byte	.LFE334
 3709 00c8 0400     		.2byte	0x4
 3710 00ca F3       		.byte	0xf3
 3711 00cb 01       		.uleb128 0x1
 3712 00cc 50       		.byte	0x50
 3713 00cd 9F       		.byte	0x9f
 3714 00ce 00000000 		.4byte	0
 3715 00d2 00000000 		.4byte	0
 3716              	.LLST6:
 3717 00d6 0C000000 		.4byte	.LVL15
 3718 00da 0F000000 		.4byte	.LVL16-1
 3719 00de 0100     		.2byte	0x1
 3720 00e0 50       		.byte	0x50
 3721 00e1 0F000000 		.4byte	.LVL16-1
 3722 00e5 2A000000 		.4byte	.LVL24
 3723 00e9 0100     		.2byte	0x1
 3724 00eb 54       		.byte	0x54
 3725 00ec 2A000000 		.4byte	.LVL24
 3726 00f0 30000000 		.4byte	.LFE334
 3727 00f4 0400     		.2byte	0x4
 3728 00f6 F3       		.byte	0xf3
 3729 00f7 01       		.uleb128 0x1
 3730 00f8 50       		.byte	0x50
 3731 00f9 9F       		.byte	0x9f
 3732 00fa 00000000 		.4byte	0
 3733 00fe 00000000 		.4byte	0
 3734              	.LLST7:
 3735 0102 10000000 		.4byte	.LVL16
 3736 0106 18000000 		.4byte	.LVL18
 3737 010a 0100     		.2byte	0x1
 3738 010c 50       		.byte	0x50
 3739 010d 1A000000 		.4byte	.LVL19
 3740 0111 1E000000 		.4byte	.LVL21
 3741 0115 0100     		.2byte	0x1
 3742 0117 52       		.byte	0x52
 3743 0118 1E000000 		.4byte	.LVL21
 3744 011c 24000000 		.4byte	.LVL22
 3745 0120 0600     		.2byte	0x6
 3746 0122 70       		.byte	0x70
 3747 0123 00       		.sleb128 0
 3748 0124 73       		.byte	0x73
 3749 0125 00       		.sleb128 0
 3750 0126 1C       		.byte	0x1c
 3751 0127 9F       		.byte	0x9f
 3752 0128 26000000 		.4byte	.LVL23
 3753 012c 30000000 		.4byte	.LFE334
 3754 0130 0100     		.2byte	0x1
 3755 0132 52       		.byte	0x52
 3756 0133 00000000 		.4byte	0
 3757 0137 00000000 		.4byte	0
 3758              	.LLST8:
ARM GAS  /tmp/ccQ8K1iD.s 			page 67


 3759 013b 10000000 		.4byte	.LVL16
 3760 013f 16000000 		.4byte	.LVL17
 3761 0143 0100     		.2byte	0x1
 3762 0145 54       		.byte	0x54
 3763 0146 00000000 		.4byte	0
 3764 014a 00000000 		.4byte	0
 3765              	.LLST9:
 3766 014e 1C000000 		.4byte	.LVL20
 3767 0152 1E000000 		.4byte	.LVL21
 3768 0156 0100     		.2byte	0x1
 3769 0158 52       		.byte	0x52
 3770 0159 00000000 		.4byte	0
 3771 015d 00000000 		.4byte	0
 3772              	.LLST10:
 3773 0161 00000000 		.4byte	.LVL25
 3774 0165 0B000000 		.4byte	.LVL26-1
 3775 0169 0100     		.2byte	0x1
 3776 016b 50       		.byte	0x50
 3777 016c 0B000000 		.4byte	.LVL26-1
 3778 0170 50000000 		.4byte	.LVL32
 3779 0174 0100     		.2byte	0x1
 3780 0176 54       		.byte	0x54
 3781 0177 50000000 		.4byte	.LVL32
 3782 017b 53000000 		.4byte	.LVL33-1
 3783 017f 0100     		.2byte	0x1
 3784 0181 50       		.byte	0x50
 3785 0182 53000000 		.4byte	.LVL33-1
 3786 0186 54000000 		.4byte	.LVL33
 3787 018a 0400     		.2byte	0x4
 3788 018c F3       		.byte	0xf3
 3789 018d 01       		.uleb128 0x1
 3790 018e 50       		.byte	0x50
 3791 018f 9F       		.byte	0x9f
 3792 0190 54000000 		.4byte	.LVL33
 3793 0194 56000000 		.4byte	.LVL34
 3794 0198 0100     		.2byte	0x1
 3795 019a 50       		.byte	0x50
 3796 019b 56000000 		.4byte	.LVL34
 3797 019f 58000000 		.4byte	.LVL35
 3798 01a3 0100     		.2byte	0x1
 3799 01a5 54       		.byte	0x54
 3800 01a6 58000000 		.4byte	.LVL35
 3801 01aa 5C000000 		.4byte	.LFE335
 3802 01ae 0400     		.2byte	0x4
 3803 01b0 F3       		.byte	0xf3
 3804 01b1 01       		.uleb128 0x1
 3805 01b2 50       		.byte	0x50
 3806 01b3 9F       		.byte	0x9f
 3807 01b4 00000000 		.4byte	0
 3808 01b8 00000000 		.4byte	0
 3809              	.LLST11:
 3810 01bc 1A000000 		.4byte	.LVL28
 3811 01c0 41000000 		.4byte	.LVL29-1
 3812 01c4 1400     		.2byte	0x14
 3813 01c6 70       		.byte	0x70
 3814 01c7 00       		.sleb128 0
 3815 01c8 3C       		.byte	0x3c
ARM GAS  /tmp/ccQ8K1iD.s 			page 68


 3816 01c9 1D       		.byte	0x1d
 3817 01ca 33       		.byte	0x33
 3818 01cb 24       		.byte	0x24
 3819 01cc 70       		.byte	0x70
 3820 01cd 00       		.sleb128 0
 3821 01ce F7       		.byte	0xf7
 3822 01cf 25       		.uleb128 0x25
 3823 01d0 3C       		.byte	0x3c
 3824 01d1 F7       		.byte	0xf7
 3825 01d2 25       		.uleb128 0x25
 3826 01d3 1B       		.byte	0x1b
 3827 01d4 F7       		.byte	0xf7
 3828 01d5 00       		.uleb128 0
 3829 01d6 37       		.byte	0x37
 3830 01d7 24       		.byte	0x24
 3831 01d8 21       		.byte	0x21
 3832 01d9 9F       		.byte	0x9f
 3833 01da 00000000 		.4byte	0
 3834 01de 00000000 		.4byte	0
 3835              	.LLST12:
 3836 01e2 00000000 		.4byte	.LVL36
 3837 01e6 23000000 		.4byte	.LVL38-1
 3838 01ea 0100     		.2byte	0x1
 3839 01ec 50       		.byte	0x50
 3840 01ed 23000000 		.4byte	.LVL38-1
 3841 01f1 2C000000 		.4byte	.LVL39
 3842 01f5 0400     		.2byte	0x4
 3843 01f7 F3       		.byte	0xf3
 3844 01f8 01       		.uleb128 0x1
 3845 01f9 50       		.byte	0x50
 3846 01fa 9F       		.byte	0x9f
 3847 01fb 2C000000 		.4byte	.LVL39
 3848 01ff 38000000 		.4byte	.LVL40
 3849 0203 0100     		.2byte	0x1
 3850 0205 50       		.byte	0x50
 3851 0206 3A000000 		.4byte	.LVL41
 3852 020a 61000000 		.4byte	.LVL44-1
 3853 020e 0100     		.2byte	0x1
 3854 0210 50       		.byte	0x50
 3855 0211 76000000 		.4byte	.LVL47
 3856 0215 78000000 		.4byte	.LVL48
 3857 0219 0100     		.2byte	0x1
 3858 021b 50       		.byte	0x50
 3859 021c 82000000 		.4byte	.LVL49
 3860 0220 AC000000 		.4byte	.LVL54
 3861 0224 0100     		.2byte	0x1
 3862 0226 55       		.byte	0x55
 3863 0227 AC000000 		.4byte	.LVL54
 3864 022b C0000000 		.4byte	.LVL56
 3865 022f 0600     		.2byte	0x6
 3866 0231 79       		.byte	0x79
 3867 0232 00       		.sleb128 0
 3868 0233 78       		.byte	0x78
 3869 0234 00       		.sleb128 0
 3870 0235 22       		.byte	0x22
 3871 0236 9F       		.byte	0x9f
 3872 0237 C0000000 		.4byte	.LVL56
ARM GAS  /tmp/ccQ8K1iD.s 			page 69


 3873 023b D2000000 		.4byte	.LVL58
 3874 023f 0100     		.2byte	0x1
 3875 0241 55       		.byte	0x55
 3876 0242 00000000 		.4byte	0
 3877 0246 00000000 		.4byte	0
 3878              	.LLST13:
 3879 024a 00000000 		.4byte	.LVL36
 3880 024e 23000000 		.4byte	.LVL38-1
 3881 0252 0100     		.2byte	0x1
 3882 0254 51       		.byte	0x51
 3883 0255 23000000 		.4byte	.LVL38-1
 3884 0259 E4000000 		.4byte	.LFE336
 3885 025d 0400     		.2byte	0x4
 3886 025f F3       		.byte	0xf3
 3887 0260 01       		.uleb128 0x1
 3888 0261 51       		.byte	0x51
 3889 0262 9F       		.byte	0x9f
 3890 0263 00000000 		.4byte	0
 3891 0267 00000000 		.4byte	0
 3892              	.LLST14:
 3893 026b 00000000 		.4byte	.LVL36
 3894 026f 0E000000 		.4byte	.LVL37
 3895 0273 0100     		.2byte	0x1
 3896 0275 52       		.byte	0x52
 3897 0276 0E000000 		.4byte	.LVL37
 3898 027a 78000000 		.4byte	.LVL48
 3899 027e 0100     		.2byte	0x1
 3900 0280 54       		.byte	0x54
 3901 0281 82000000 		.4byte	.LVL49
 3902 0285 A0000000 		.4byte	.LVL51
 3903 0289 0900     		.2byte	0x9
 3904 028b 71       		.byte	0x71
 3905 028c 00       		.sleb128 0
 3906 028d 74       		.byte	0x74
 3907 028e 00       		.sleb128 0
 3908 028f 22       		.byte	0x22
 3909 0290 76       		.byte	0x76
 3910 0291 00       		.sleb128 0
 3911 0292 1C       		.byte	0x1c
 3912 0293 9F       		.byte	0x9f
 3913 0294 A0000000 		.4byte	.LVL51
 3914 0298 A9000000 		.4byte	.LVL53-1
 3915 029c 0900     		.2byte	0x9
 3916 029e 71       		.byte	0x71
 3917 029f 00       		.sleb128 0
 3918 02a0 79       		.byte	0x79
 3919 02a1 00       		.sleb128 0
 3920 02a2 1C       		.byte	0x1c
 3921 02a3 74       		.byte	0x74
 3922 02a4 00       		.sleb128 0
 3923 02a5 22       		.byte	0x22
 3924 02a6 9F       		.byte	0x9f
 3925 02a7 C0000000 		.4byte	.LVL56
 3926 02ab CB000000 		.4byte	.LVL57-1
 3927 02af 0900     		.2byte	0x9
 3928 02b1 71       		.byte	0x71
 3929 02b2 00       		.sleb128 0
ARM GAS  /tmp/ccQ8K1iD.s 			page 70


 3930 02b3 74       		.byte	0x74
 3931 02b4 00       		.sleb128 0
 3932 02b5 22       		.byte	0x22
 3933 02b6 76       		.byte	0x76
 3934 02b7 00       		.sleb128 0
 3935 02b8 1C       		.byte	0x1c
 3936 02b9 9F       		.byte	0x9f
 3937 02ba 00000000 		.4byte	0
 3938 02be 00000000 		.4byte	0
 3939              	.LLST15:
 3940 02c2 00000000 		.4byte	.LVL36
 3941 02c6 23000000 		.4byte	.LVL38-1
 3942 02ca 0100     		.2byte	0x1
 3943 02cc 51       		.byte	0x51
 3944 02cd 23000000 		.4byte	.LVL38-1
 3945 02d1 2C000000 		.4byte	.LVL39
 3946 02d5 0400     		.2byte	0x4
 3947 02d7 F3       		.byte	0xf3
 3948 02d8 01       		.uleb128 0x1
 3949 02d9 51       		.byte	0x51
 3950 02da 9F       		.byte	0x9f
 3951 02db 2C000000 		.4byte	.LVL39
 3952 02df 58000000 		.4byte	.LVL42
 3953 02e3 0100     		.2byte	0x1
 3954 02e5 51       		.byte	0x51
 3955 02e6 58000000 		.4byte	.LVL42
 3956 02ea 61000000 		.4byte	.LVL44-1
 3957 02ee 0300     		.2byte	0x3
 3958 02f0 71       		.byte	0x71
 3959 02f1 7C       		.sleb128 -4
 3960 02f2 9F       		.byte	0x9f
 3961 02f3 74000000 		.4byte	.LVL46
 3962 02f7 78000000 		.4byte	.LVL48
 3963 02fb 0600     		.2byte	0x6
 3964 02fd F3       		.byte	0xf3
 3965 02fe 01       		.uleb128 0x1
 3966 02ff 51       		.byte	0x51
 3967 0300 23       		.byte	0x23
 3968 0301 04       		.uleb128 0x4
 3969 0302 9F       		.byte	0x9f
 3970 0303 82000000 		.4byte	.LVL49
 3971 0307 A0000000 		.4byte	.LVL51
 3972 030b 0100     		.2byte	0x1
 3973 030d 56       		.byte	0x56
 3974 030e A0000000 		.4byte	.LVL51
 3975 0312 C0000000 		.4byte	.LVL56
 3976 0316 0100     		.2byte	0x1
 3977 0318 59       		.byte	0x59
 3978 0319 C0000000 		.4byte	.LVL56
 3979 031d D2000000 		.4byte	.LVL58
 3980 0321 0100     		.2byte	0x1
 3981 0323 56       		.byte	0x56
 3982 0324 00000000 		.4byte	0
 3983 0328 00000000 		.4byte	0
 3984              	.LLST16:
 3985 032c 58000000 		.4byte	.LVL42
 3986 0330 78000000 		.4byte	.LVL48
ARM GAS  /tmp/ccQ8K1iD.s 			page 71


 3987 0334 0100     		.2byte	0x1
 3988 0336 57       		.byte	0x57
 3989 0337 00000000 		.4byte	0
 3990 033b 00000000 		.4byte	0
 3991              	.LLST17:
 3992 033f 58000000 		.4byte	.LVL42
 3993 0343 5A000000 		.4byte	.LVL43
 3994 0347 0100     		.2byte	0x1
 3995 0349 50       		.byte	0x50
 3996 034a 00000000 		.4byte	0
 3997 034e 00000000 		.4byte	0
 3998              	.LLST18:
 3999 0352 58000000 		.4byte	.LVL42
 4000 0356 5A000000 		.4byte	.LVL43
 4001 035a 0100     		.2byte	0x1
 4002 035c 57       		.byte	0x57
 4003 035d 00000000 		.4byte	0
 4004 0361 00000000 		.4byte	0
 4005              	.LLST19:
 4006 0365 62000000 		.4byte	.LVL44
 4007 0369 64000000 		.4byte	.LVL45
 4008 036d 0100     		.2byte	0x1
 4009 036f 50       		.byte	0x50
 4010 0370 00000000 		.4byte	0
 4011 0374 00000000 		.4byte	0
 4012              	.LLST20:
 4013 0378 9C000000 		.4byte	.LVL50
 4014 037c A2000000 		.4byte	.LVL52
 4015 0380 0100     		.2byte	0x1
 4016 0382 55       		.byte	0x55
 4017 0383 00000000 		.4byte	0
 4018 0387 00000000 		.4byte	0
 4019              	.LLST21:
 4020 038b 9C000000 		.4byte	.LVL50
 4021 038f A0000000 		.4byte	.LVL51
 4022 0393 0200     		.2byte	0x2
 4023 0395 76       		.byte	0x76
 4024 0396 00       		.sleb128 0
 4025 0397 A0000000 		.4byte	.LVL51
 4026 039b A2000000 		.4byte	.LVL52
 4027 039f 0200     		.2byte	0x2
 4028 03a1 79       		.byte	0x79
 4029 03a2 00       		.sleb128 0
 4030 03a3 00000000 		.4byte	0
 4031 03a7 00000000 		.4byte	0
 4032              	.LLST22:
 4033 03ab AA000000 		.4byte	.LVL53
 4034 03af AC000000 		.4byte	.LVL54
 4035 03b3 0100     		.2byte	0x1
 4036 03b5 55       		.byte	0x55
 4037 03b6 AC000000 		.4byte	.LVL54
 4038 03ba B2000000 		.4byte	.LVL55
 4039 03be 0600     		.2byte	0x6
 4040 03c0 79       		.byte	0x79
 4041 03c1 00       		.sleb128 0
 4042 03c2 78       		.byte	0x78
 4043 03c3 00       		.sleb128 0
ARM GAS  /tmp/ccQ8K1iD.s 			page 72


 4044 03c4 22       		.byte	0x22
 4045 03c5 9F       		.byte	0x9f
 4046 03c6 00000000 		.4byte	0
 4047 03ca 00000000 		.4byte	0
 4048              	.LLST23:
 4049 03ce 00000000 		.4byte	.LVL60
 4050 03d2 0D000000 		.4byte	.LVL61-1
 4051 03d6 0100     		.2byte	0x1
 4052 03d8 50       		.byte	0x50
 4053 03d9 0D000000 		.4byte	.LVL61-1
 4054 03dd 14000000 		.4byte	.LVL62
 4055 03e1 0400     		.2byte	0x4
 4056 03e3 F3       		.byte	0xf3
 4057 03e4 01       		.uleb128 0x1
 4058 03e5 50       		.byte	0x50
 4059 03e6 9F       		.byte	0x9f
 4060 03e7 14000000 		.4byte	.LVL62
 4061 03eb 1F000000 		.4byte	.LVL63-1
 4062 03ef 0100     		.2byte	0x1
 4063 03f1 50       		.byte	0x50
 4064 03f2 1F000000 		.4byte	.LVL63-1
 4065 03f6 20000000 		.4byte	.LVL63
 4066 03fa 0400     		.2byte	0x4
 4067 03fc F3       		.byte	0xf3
 4068 03fd 01       		.uleb128 0x1
 4069 03fe 50       		.byte	0x50
 4070 03ff 9F       		.byte	0x9f
 4071 0400 20000000 		.4byte	.LVL63
 4072 0404 28000000 		.4byte	.LFE337
 4073 0408 0100     		.2byte	0x1
 4074 040a 50       		.byte	0x50
 4075 040b 00000000 		.4byte	0
 4076 040f 00000000 		.4byte	0
 4077              		.section	.debug_aranges,"",%progbits
 4078 0000 64000000 		.4byte	0x64
 4079 0004 0200     		.2byte	0x2
 4080 0006 00000000 		.4byte	.Ldebug_info0
 4081 000a 04       		.byte	0x4
 4082 000b 00       		.byte	0
 4083 000c 0000     		.2byte	0
 4084 000e 0000     		.2byte	0
 4085 0010 00000000 		.4byte	.LFB327
 4086 0014 14000000 		.4byte	.LFE327-.LFB327
 4087 0018 00000000 		.4byte	.LFB329
 4088 001c 34000000 		.4byte	.LFE329-.LFB329
 4089 0020 00000000 		.4byte	.LFB330
 4090 0024 38000000 		.4byte	.LFE330-.LFB330
 4091 0028 00000000 		.4byte	.LFB331
 4092 002c 40000000 		.4byte	.LFE331-.LFB331
 4093 0030 00000000 		.4byte	.LFB332
 4094 0034 0C000000 		.4byte	.LFE332-.LFB332
 4095 0038 00000000 		.4byte	.LFB333
 4096 003c 04000000 		.4byte	.LFE333-.LFB333
 4097 0040 00000000 		.4byte	.LFB334
 4098 0044 30000000 		.4byte	.LFE334-.LFB334
 4099 0048 00000000 		.4byte	.LFB335
 4100 004c 5C000000 		.4byte	.LFE335-.LFB335
ARM GAS  /tmp/ccQ8K1iD.s 			page 73


 4101 0050 00000000 		.4byte	.LFB336
 4102 0054 E4000000 		.4byte	.LFE336-.LFB336
 4103 0058 00000000 		.4byte	.LFB337
 4104 005c 28000000 		.4byte	.LFE337-.LFB337
 4105 0060 00000000 		.4byte	0
 4106 0064 00000000 		.4byte	0
 4107              		.section	.debug_ranges,"",%progbits
 4108              	.Ldebug_ranges0:
 4109 0000 0E000000 		.4byte	.LBB61
 4110 0004 10000000 		.4byte	.LBE61
 4111 0008 14000000 		.4byte	.LBB64
 4112 000c 28000000 		.4byte	.LBE64
 4113 0010 00000000 		.4byte	0
 4114 0014 00000000 		.4byte	0
 4115 0018 1E000000 		.4byte	.LBB81
 4116 001c 20000000 		.4byte	.LBE81
 4117 0020 24000000 		.4byte	.LBB84
 4118 0024 28000000 		.4byte	.LBE84
 4119 0028 00000000 		.4byte	0
 4120 002c 00000000 		.4byte	0
 4121 0030 AA000000 		.4byte	.LBB96
 4122 0034 AC000000 		.4byte	.LBE96
 4123 0038 B0000000 		.4byte	.LBB99
 4124 003c B2000000 		.4byte	.LBE99
 4125 0040 00000000 		.4byte	0
 4126 0044 00000000 		.4byte	0
 4127 0048 00000000 		.4byte	.LFB327
 4128 004c 14000000 		.4byte	.LFE327
 4129 0050 00000000 		.4byte	.LFB329
 4130 0054 34000000 		.4byte	.LFE329
 4131 0058 00000000 		.4byte	.LFB330
 4132 005c 38000000 		.4byte	.LFE330
 4133 0060 00000000 		.4byte	.LFB331
 4134 0064 40000000 		.4byte	.LFE331
 4135 0068 00000000 		.4byte	.LFB332
 4136 006c 0C000000 		.4byte	.LFE332
 4137 0070 00000000 		.4byte	.LFB333
 4138 0074 04000000 		.4byte	.LFE333
 4139 0078 00000000 		.4byte	.LFB334
 4140 007c 30000000 		.4byte	.LFE334
 4141 0080 00000000 		.4byte	.LFB335
 4142 0084 5C000000 		.4byte	.LFE335
 4143 0088 00000000 		.4byte	.LFB336
 4144 008c E4000000 		.4byte	.LFE336
 4145 0090 00000000 		.4byte	.LFB337
 4146 0094 28000000 		.4byte	.LFE337
 4147 0098 00000000 		.4byte	0
 4148 009c 00000000 		.4byte	0
 4149              		.section	.debug_line,"",%progbits
 4150              	.Ldebug_line0:
 4151 0000 04040000 		.section	.debug_str,"MS",%progbits,1
 4151      02007802 
 4151      00000201 
 4151      FB0E0D00 
 4151      01010101 
 4152              	.LASF22:
 4153 0000 72747469 		.ascii	"rttime_t\000"
ARM GAS  /tmp/ccQ8K1iD.s 			page 74


 4153      6D655F74 
 4153      00
 4154              	.LASF56:
 4155 0009 72656164 		.ascii	"ready_list_t\000"
 4155      795F6C69 
 4155      73745F74 
 4155      00
 4156              	.LASF4:
 4157 0016 73697A65 		.ascii	"size_t\000"
 4157      5F7400
 4158              	.LASF130:
 4159 001d 7264796D 		.ascii	"rdymsg\000"
 4159      736700
 4160              	.LASF163:
 4161 0024 666C6173 		.ascii	"flash_pageaddr_initialised\000"
 4161      685F7061 
 4161      67656164 
 4161      64725F69 
 4161      6E697469 
 4162              	.LASF20:
 4163 003f 75696E74 		.ascii	"uint64_t\000"
 4163      36345F74 
 4163      00
 4164              	.LASF75:
 4165 0048 6B65726E 		.ascii	"kernel_stats\000"
 4165      656C5F73 
 4165      74617473 
 4165      00
 4166              	.LASF5:
 4167 0055 5F5F7569 		.ascii	"__uint8_t\000"
 4167      6E74385F 
 4167      7400
 4168              	.LASF55:
 4169 005f 70726576 		.ascii	"prev\000"
 4169      00
 4170              	.LASF117:
 4171 0064 706F7274 		.ascii	"port_intctx\000"
 4171      5F696E74 
 4171      63747800 
 4172              	.LASF73:
 4173 0070 76746C69 		.ascii	"vtlist\000"
 4173      737400
 4174              	.LASF166:
 4175 0077 474E5520 		.ascii	"GNU C11 5.4.1 20160919 -mcpu=cortex-m4 -mfloat-abi="
 4175      43313120 
 4175      352E342E 
 4175      31203230 
 4175      31363039 
 4176 00aa 68617264 		.ascii	"hard -mfpu=fpv4-sp-d16 -mno-thumb-interwork -mthumb"
 4176      202D6D66 
 4176      70753D66 
 4176      7076342D 
 4176      73702D64 
 4177 00dd 202D6720 		.ascii	" -g -Os -fomit-frame-pointer -falign-functions=16 -"
 4177      2D4F7320 
 4177      2D666F6D 
 4177      69742D66 
ARM GAS  /tmp/ccQ8K1iD.s 			page 75


 4177      72616D65 
 4178 0110 6666756E 		.ascii	"ffunction-sections -fdata-sections -fno-common -fsi"
 4178      6374696F 
 4178      6E2D7365 
 4178      6374696F 
 4178      6E73202D 
 4179 0143 6E676C65 		.ascii	"ngle-precision-constant\000"
 4179      2D707265 
 4179      63697369 
 4179      6F6E2D63 
 4179      6F6E7374 
 4180              	.LASF81:
 4181 015b 4F505443 		.ascii	"OPTCR\000"
 4181      5200
 4182              	.LASF121:
 4183 0161 776F7273 		.ascii	"worst\000"
 4183      7400
 4184              	.LASF82:
 4185 0167 4F505443 		.ascii	"OPTCR1\000"
 4185      523100
 4186              	.LASF124:
 4187 016e 74696D65 		.ascii	"time_measurement_t\000"
 4187      5F6D6561 
 4187      73757265 
 4187      6D656E74 
 4187      5F7400
 4188              	.LASF173:
 4189 0181 73746D33 		.ascii	"stm32_flash_keep_unlocked\000"
 4189      325F666C 
 4189      6173685F 
 4189      6B656570 
 4189      5F756E6C 
 4190              	.LASF154:
 4191 019b 73746D33 		.ascii	"stm32_flash_clear_errors\000"
 4191      325F666C 
 4191      6173685F 
 4191      636C6561 
 4191      725F6572 
 4192              	.LASF74:
 4193 01b4 6D61696E 		.ascii	"mainthread\000"
 4193      74687265 
 4193      616400
 4194              	.LASF134:
 4195 01bf 73656E74 		.ascii	"sentmsg\000"
 4195      6D736700 
 4196              	.LASF62:
 4197 01c7 64656C74 		.ascii	"delta\000"
 4197      6100
 4198              	.LASF165:
 4199 01cd 49544D5F 		.ascii	"ITM_RxBuffer\000"
 4199      52784275 
 4199      66666572 
 4199      00
 4200              	.LASF77:
 4201 01da 73797369 		.ascii	"sysinterval_t\000"
 4201      6E746572 
 4201      76616C5F 
ARM GAS  /tmp/ccQ8K1iD.s 			page 76


 4201      7400
 4202              	.LASF92:
 4203 01e8 52455345 		.ascii	"RESERVED1\000"
 4203      52564544 
 4203      3100
 4204              	.LASF52:
 4205 01f2 6E657874 		.ascii	"next\000"
 4205      00
 4206              	.LASF54:
 4207 01f7 63685F74 		.ascii	"ch_threads_queue\000"
 4207      68726561 
 4207      64735F71 
 4207      75657565 
 4207      00
 4208              	.LASF158:
 4209 0208 67657472 		.ascii	"getreg16\000"
 4209      65673136 
 4209      00
 4210              	.LASF100:
 4211 0211 41484231 		.ascii	"AHB1LPENR\000"
 4211      4C50454E 
 4211      5200
 4212              	.LASF112:
 4213 021b 44434B43 		.ascii	"DCKCFGR\000"
 4213      46475200 
 4214              	.LASF1:
 4215 0223 6C6F6E67 		.ascii	"long long int\000"
 4215      206C6F6E 
 4215      6720696E 
 4215      7400
 4216              	.LASF3:
 4217 0231 7369676E 		.ascii	"signed char\000"
 4217      65642063 
 4217      68617200 
 4218              	.LASF137:
 4219 023d 65776D61 		.ascii	"ewmask\000"
 4219      736B00
 4220              	.LASF83:
 4221 0244 464C4153 		.ascii	"FLASH_TypeDef\000"
 4221      485F5479 
 4221      70654465 
 4221      6600
 4222              	.LASF13:
 4223 0252 6C6F6E67 		.ascii	"long unsigned int\000"
 4223      20756E73 
 4223      69676E65 
 4223      6420696E 
 4223      7400
 4224              	.LASF159:
 4225 0264 73746D33 		.ascii	"stm32_flash_erasepage\000"
 4225      325F666C 
 4225      6173685F 
 4225      65726173 
 4225      65706167 
 4226              	.LASF15:
 4227 027a 6C6F6E67 		.ascii	"long long unsigned int\000"
 4227      206C6F6E 
ARM GAS  /tmp/ccQ8K1iD.s 			page 77


 4227      6720756E 
 4227      7369676E 
 4227      65642069 
 4228              	.LASF132:
 4229 0291 77746F62 		.ascii	"wtobjp\000"
 4229      6A7000
 4230              	.LASF42:
 4231 0298 6D736771 		.ascii	"msgqueue\000"
 4231      75657565 
 4231      00
 4232              	.LASF38:
 4233 02a1 73746174 		.ascii	"state\000"
 4233      6500
 4234              	.LASF71:
 4235 02a7 63685F73 		.ascii	"ch_system\000"
 4235      79737465 
 4235      6D00
 4236              	.LASF11:
 4237 02b1 6C6F6E67 		.ascii	"long int\000"
 4237      20696E74 
 4237      00
 4238              	.LASF91:
 4239 02ba 41504232 		.ascii	"APB2RSTR\000"
 4239      52535452 
 4239      00
 4240              	.LASF104:
 4241 02c3 41504231 		.ascii	"APB1LPENR\000"
 4241      4C50454E 
 4241      5200
 4242              	.LASF24:
 4243 02cd 74737461 		.ascii	"tstate_t\000"
 4243      74655F74 
 4243      00
 4244              	.LASF17:
 4245 02d6 75696E74 		.ascii	"uint16_t\000"
 4245      31365F74 
 4245      00
 4246              	.LASF47:
 4247 02df 73746174 		.ascii	"stats\000"
 4247      7300
 4248              	.LASF156:
 4249 02e5 70757472 		.ascii	"putreg16\000"
 4249      65673136 
 4249      00
 4250              	.LASF84:
 4251 02ee 504C4C43 		.ascii	"PLLCFGR\000"
 4251      46475200 
 4252              	.LASF131:
 4253 02f6 65786974 		.ascii	"exitcode\000"
 4253      636F6465 
 4253      00
 4254              	.LASF12:
 4255 02ff 5F5F7569 		.ascii	"__uint32_t\000"
 4255      6E743332 
 4255      5F7400
 4256              	.LASF114:
 4257 030a 72656761 		.ascii	"regarm_t\000"
ARM GAS  /tmp/ccQ8K1iD.s 			page 78


 4257      726D5F74 
 4257      00
 4258              	.LASF68:
 4259 0313 63685F73 		.ascii	"ch_system_debug\000"
 4259      79737465 
 4259      6D5F6465 
 4259      62756700 
 4260              	.LASF41:
 4261 0323 77616974 		.ascii	"waiting\000"
 4261      696E6700 
 4262              	.LASF142:
 4263 032b 6D757465 		.ascii	"mutex_t\000"
 4263      785F7400 
 4264              	.LASF116:
 4265 0333 706F7274 		.ascii	"port_context\000"
 4265      5F636F6E 
 4265      74657874 
 4265      00
 4266              	.LASF29:
 4267 0340 636E745F 		.ascii	"cnt_t\000"
 4267      7400
 4268              	.LASF0:
 4269 0346 756E7369 		.ascii	"unsigned int\000"
 4269      676E6564 
 4269      20696E74 
 4269      00
 4270              	.LASF85:
 4271 0353 43464752 		.ascii	"CFGR\000"
 4271      00
 4272              	.LASF135:
 4273 0358 77747365 		.ascii	"wtsemp\000"
 4273      6D7000
 4274              	.LASF67:
 4275 035f 73797374 		.ascii	"system_debug_t\000"
 4275      656D5F64 
 4275      65627567 
 4275      5F7400
 4276              	.LASF148:
 4277 036e 70616765 		.ascii	"page\000"
 4277      00
 4278              	.LASF113:
 4279 0373 5243435F 		.ascii	"RCC_TypeDef\000"
 4279      54797065 
 4279      44656600 
 4280              	.LASF125:
 4281 037f 6E5F6972 		.ascii	"n_irq\000"
 4281      7100
 4282              	.LASF32:
 4283 0385 71756575 		.ascii	"queue\000"
 4283      6500
 4284              	.LASF36:
 4285 038b 6E616D65 		.ascii	"name\000"
 4285      00
 4286              	.LASF157:
 4287 0390 67657472 		.ascii	"getreg32\000"
 4287      65673332 
 4287      00
ARM GAS  /tmp/ccQ8K1iD.s 			page 79


 4288              	.LASF9:
 4289 0399 73686F72 		.ascii	"short unsigned int\000"
 4289      7420756E 
 4289      7369676E 
 4289      65642069 
 4289      6E7400
 4290              	.LASF129:
 4291 03ac 6B65726E 		.ascii	"kernel_stats_t\000"
 4291      656C5F73 
 4291      74617473 
 4291      5F7400
 4292              	.LASF50:
 4293 03bb 63685F74 		.ascii	"ch_thread\000"
 4293      68726561 
 4293      6400
 4294              	.LASF110:
 4295 03c5 504C4C49 		.ascii	"PLLI2SCFGR\000"
 4295      32534346 
 4295      475200
 4296              	.LASF27:
 4297 03d0 6D73675F 		.ascii	"msg_t\000"
 4297      7400
 4298              	.LASF88:
 4299 03d6 41484233 		.ascii	"AHB3RSTR\000"
 4299      52535452 
 4299      00
 4300              	.LASF30:
 4301 03df 75636E74 		.ascii	"ucnt_t\000"
 4301      5F7400
 4302              	.LASF43:
 4303 03e6 6570656E 		.ascii	"epending\000"
 4303      64696E67 
 4303      00
 4304              	.LASF70:
 4305 03ef 63685F73 		.ascii	"ch_system_t\000"
 4305      79737465 
 4305      6D5F7400 
 4306              	.LASF94:
 4307 03fb 41484232 		.ascii	"AHB2ENR\000"
 4307      454E5200 
 4308              	.LASF23:
 4309 0403 746D6F64 		.ascii	"tmode_t\000"
 4309      655F7400 
 4310              	.LASF105:
 4311 040b 41504232 		.ascii	"APB2LPENR\000"
 4311      4C50454E 
 4311      5200
 4312              	.LASF128:
 4313 0415 6D5F6372 		.ascii	"m_crit_isr\000"
 4313      69745F69 
 4313      737200
 4314              	.LASF57:
 4315 0420 63685F72 		.ascii	"ch_ready_list\000"
 4315      65616479 
 4315      5F6C6973 
 4315      7400
 4316              	.LASF28:
ARM GAS  /tmp/ccQ8K1iD.s 			page 80


 4317 042e 6576656E 		.ascii	"eventmask_t\000"
 4317      746D6173 
 4317      6B5F7400 
 4318              	.LASF7:
 4319 043a 73686F72 		.ascii	"short int\000"
 4319      7420696E 
 4319      7400
 4320              	.LASF10:
 4321 0444 5F5F696E 		.ascii	"__int32_t\000"
 4321      7433325F 
 4321      7400
 4322              	.LASF144:
 4323 044e 5F5F4453 		.ascii	"__DSB\000"
 4323      4200
 4324              	.LASF64:
 4325 0454 76697274 		.ascii	"virtual_timers_list_t\000"
 4325      75616C5F 
 4325      74696D65 
 4325      72735F6C 
 4325      6973745F 
 4326              	.LASF111:
 4327 046a 504C4C53 		.ascii	"PLLSAICFGR\000"
 4327      41494346 
 4327      475200
 4328              	.LASF115:
 4329 0475 73746B61 		.ascii	"stkalign_t\000"
 4329      6C69676E 
 4329      5F7400
 4330              	.LASF34:
 4331 0480 6E657765 		.ascii	"newer\000"
 4331      7200
 4332              	.LASF162:
 4333 0486 666C6173 		.ascii	"flash_pageaddr\000"
 4333      685F7061 
 4333      67656164 
 4333      647200
 4334              	.LASF172:
 4335 0495 6661696C 		.ascii	"failed\000"
 4335      656400
 4336              	.LASF45:
 4337 049c 7265616C 		.ascii	"realprio\000"
 4337      7072696F 
 4337      00
 4338              	.LASF169:
 4339 04a5 73746D33 		.ascii	"stm32_flash_lock\000"
 4339      325F666C 
 4339      6173685F 
 4339      6C6F636B 
 4339      00
 4340              	.LASF21:
 4341 04b6 7274636E 		.ascii	"rtcnt_t\000"
 4341      745F7400 
 4342              	.LASF48:
 4343 04be 74687265 		.ascii	"thread_reference_t\000"
 4343      61645F72 
 4343      65666572 
 4343      656E6365 
ARM GAS  /tmp/ccQ8K1iD.s 			page 81


 4343      5F7400
 4344              	.LASF119:
 4345 04d1 746D5F63 		.ascii	"tm_calibration_t\000"
 4345      616C6962 
 4345      72617469 
 4345      6F6E5F74 
 4345      00
 4346              	.LASF65:
 4347 04e2 63685F76 		.ascii	"ch_virtual_timers_list\000"
 4347      69727475 
 4347      616C5F74 
 4347      696D6572 
 4347      735F6C69 
 4348              	.LASF133:
 4349 04f9 77747472 		.ascii	"wttrp\000"
 4349      7000
 4350              	.LASF149:
 4351 04ff 61646472 		.ascii	"address\000"
 4351      65737300 
 4352              	.LASF153:
 4353 0507 636F756E 		.ascii	"count\000"
 4353      7400
 4354              	.LASF146:
 4355 050d 73746D33 		.ascii	"stm32_flash_getpagesize\000"
 4355      325F666C 
 4355      6173685F 
 4355      67657470 
 4355      61676573 
 4356              	.LASF101:
 4357 0525 41484232 		.ascii	"AHB2LPENR\000"
 4357      4C50454E 
 4357      5200
 4358              	.LASF147:
 4359 052f 73746D33 		.ascii	"stm32_flash_getpageaddr\000"
 4359      325F666C 
 4359      6173685F 
 4359      67657470 
 4359      61676561 
 4360              	.LASF33:
 4361 0547 7072696F 		.ascii	"prio\000"
 4361      00
 4362              	.LASF90:
 4363 054c 41504231 		.ascii	"APB1RSTR\000"
 4363      52535452 
 4363      00
 4364              	.LASF58:
 4365 0555 63757272 		.ascii	"current\000"
 4365      656E7400 
 4366              	.LASF14:
 4367 055d 5F5F7569 		.ascii	"__uint64_t\000"
 4367      6E743634 
 4367      5F7400
 4368              	.LASF123:
 4369 0568 63756D75 		.ascii	"cumulative\000"
 4369      6C617469 
 4369      766500
 4370              	.LASF164:
ARM GAS  /tmp/ccQ8K1iD.s 			page 82


 4371 0573 666C6173 		.ascii	"flash_keep_unlocked\000"
 4371      685F6B65 
 4371      65705F75 
 4371      6E6C6F63 
 4371      6B656400 
 4372              	.LASF171:
 4373 0587 73746D33 		.ascii	"stm32_flash_getnumpages\000"
 4373      325F666C 
 4373      6173685F 
 4373      6765746E 
 4373      756D7061 
 4374              	.LASF25:
 4375 059f 74726566 		.ascii	"trefs_t\000"
 4375      735F7400 
 4376              	.LASF89:
 4377 05a7 52455345 		.ascii	"RESERVED0\000"
 4377      52564544 
 4377      3000
 4378              	.LASF79:
 4379 05b1 4B455952 		.ascii	"KEYR\000"
 4379      00
 4380              	.LASF96:
 4381 05b6 52455345 		.ascii	"RESERVED2\000"
 4381      52564544 
 4381      3200
 4382              	.LASF40:
 4383 05c0 72656673 		.ascii	"refs\000"
 4383      00
 4384              	.LASF60:
 4385 05c5 76697274 		.ascii	"virtual_timer_t\000"
 4385      75616C5F 
 4385      74696D65 
 4385      725F7400 
 4386              	.LASF106:
 4387 05d5 52455345 		.ascii	"RESERVED5\000"
 4387      52564544 
 4387      3500
 4388              	.LASF108:
 4389 05df 52455345 		.ascii	"RESERVED6\000"
 4389      52564544 
 4389      3600
 4390              	.LASF26:
 4391 05e9 74707269 		.ascii	"tprio_t\000"
 4391      6F5F7400 
 4392              	.LASF150:
 4393 05f1 61646472 		.ascii	"addr\000"
 4393      00
 4394              	.LASF126:
 4395 05f6 6E5F6374 		.ascii	"n_ctxswc\000"
 4395      78737763 
 4395      00
 4396              	.LASF143:
 4397 05ff 5F426F6F 		.ascii	"_Bool\000"
 4397      6C00
 4398              	.LASF18:
 4399 0605 696E7433 		.ascii	"int32_t\000"
 4399      325F7400 
ARM GAS  /tmp/ccQ8K1iD.s 			page 83


 4400              	.LASF6:
 4401 060d 756E7369 		.ascii	"unsigned char\000"
 4401      676E6564 
 4401      20636861 
 4401      7200
 4402              	.LASF63:
 4403 061b 66756E63 		.ascii	"func\000"
 4403      00
 4404              	.LASF66:
 4405 0620 6C617374 		.ascii	"lasttime\000"
 4405      74696D65 
 4405      00
 4406              	.LASF102:
 4407 0629 41484233 		.ascii	"AHB3LPENR\000"
 4407      4C50454E 
 4407      5200
 4408              	.LASF160:
 4409 0633 73746D33 		.ascii	"stm32_flash_write\000"
 4409      325F666C 
 4409      6173685F 
 4409      77726974 
 4409      6500
 4410              	.LASF98:
 4411 0645 41504232 		.ascii	"APB2ENR\000"
 4411      454E5200 
 4412              	.LASF155:
 4413 064d 70757472 		.ascii	"putreg32\000"
 4413      65673332 
 4413      00
 4414              	.LASF95:
 4415 0656 41484233 		.ascii	"AHB3ENR\000"
 4415      454E5200 
 4416              	.LASF138:
 4417 065e 63685F73 		.ascii	"ch_semaphore\000"
 4417      656D6170 
 4417      686F7265 
 4417      00
 4418              	.LASF99:
 4419 066b 52455345 		.ascii	"RESERVED3\000"
 4419      52564544 
 4419      3300
 4420              	.LASF103:
 4421 0675 52455345 		.ascii	"RESERVED4\000"
 4421      52564544 
 4421      3400
 4422              	.LASF168:
 4423 067f 2F686F6D 		.ascii	"/home/user/csse4011/project/4011-surfbee/ardupilot/"
 4423      652F7573 
 4423      65722F63 
 4423      73736534 
 4423      3031312F 
 4424 06b2 6275696C 		.ascii	"build/stm32l475\000"
 4424      642F7374 
 4424      6D33326C 
 4424      34373500 
 4425              	.LASF136:
 4426 06c2 77746D74 		.ascii	"wtmtxp\000"
ARM GAS  /tmp/ccQ8K1iD.s 			page 84


 4426      787000
 4427              	.LASF80:
 4428 06c9 4F50544B 		.ascii	"OPTKEYR\000"
 4428      45595200 
 4429              	.LASF51:
 4430 06d1 63685F74 		.ascii	"ch_threads_list\000"
 4430      68726561 
 4430      64735F6C 
 4430      69737400 
 4431              	.LASF140:
 4432 06e1 6F776E65 		.ascii	"owner\000"
 4432      7200
 4433              	.LASF170:
 4434 06e7 73746D33 		.ascii	"stm32_flash_wait_idle\000"
 4434      325F666C 
 4434      6173685F 
 4434      77616974 
 4434      5F69646C 
 4435              	.LASF2:
 4436 06fd 6C6F6E67 		.ascii	"long double\000"
 4436      20646F75 
 4436      626C6500 
 4437              	.LASF37:
 4438 0709 77616261 		.ascii	"wabase\000"
 4438      736500
 4439              	.LASF141:
 4440 0710 63686172 		.ascii	"char\000"
 4440      00
 4441              	.LASF35:
 4442 0715 6F6C6465 		.ascii	"older\000"
 4442      7200
 4443              	.LASF145:
 4444 071b 73746D33 		.ascii	"stm32_flash_unlock\000"
 4444      325F666C 
 4444      6173685F 
 4444      756E6C6F 
 4444      636B00
 4445              	.LASF8:
 4446 072e 5F5F7569 		.ascii	"__uint16_t\000"
 4446      6E743136 
 4446      5F7400
 4447              	.LASF87:
 4448 0739 41484232 		.ascii	"AHB2RSTR\000"
 4448      52535452 
 4448      00
 4449              	.LASF31:
 4450 0742 74687265 		.ascii	"thread_t\000"
 4450      61645F74 
 4450      00
 4451              	.LASF120:
 4452 074b 62657374 		.ascii	"best\000"
 4452      00
 4453              	.LASF76:
 4454 0750 73797374 		.ascii	"systime_t\000"
 4454      696D655F 
 4454      7400
 4455              	.LASF59:
ARM GAS  /tmp/ccQ8K1iD.s 			page 85


 4456 075a 76746675 		.ascii	"vtfunc_t\000"
 4456      6E635F74 
 4456      00
 4457              	.LASF122:
 4458 0763 6C617374 		.ascii	"last\000"
 4458      00
 4459              	.LASF69:
 4460 0768 70616E69 		.ascii	"panic_msg\000"
 4460      635F6D73 
 4460      6700
 4461              	.LASF118:
 4462 0772 6F666673 		.ascii	"offset\000"
 4462      657400
 4463              	.LASF97:
 4464 0779 41504231 		.ascii	"APB1ENR\000"
 4464      454E5200 
 4465              	.LASF167:
 4466 0781 2E2E2F2E 		.ascii	"../../libraries/AP_HAL_ChibiOS/hwdef/common/flash.c"
 4466      2E2F6C69 
 4466      62726172 
 4466      6965732F 
 4466      41505F48 
 4467 07b4 00       		.ascii	"\000"
 4468              	.LASF61:
 4469 07b5 63685F76 		.ascii	"ch_virtual_timer\000"
 4469      69727475 
 4469      616C5F74 
 4469      696D6572 
 4469      00
 4470              	.LASF86:
 4471 07c6 41484231 		.ascii	"AHB1RSTR\000"
 4471      52535452 
 4471      00
 4472              	.LASF161:
 4473 07cf 666C6173 		.ascii	"flash_memmap\000"
 4473      685F6D65 
 4473      6D6D6170 
 4473      00
 4474              	.LASF109:
 4475 07dc 53534347 		.ascii	"SSCGR\000"
 4475      5200
 4476              	.LASF46:
 4477 07e2 6D706F6F 		.ascii	"mpool\000"
 4477      6C00
 4478              	.LASF53:
 4479 07e8 74687265 		.ascii	"threads_queue_t\000"
 4479      6164735F 
 4479      71756575 
 4479      655F7400 
 4480              	.LASF107:
 4481 07f8 42444352 		.ascii	"BDCR\000"
 4481      00
 4482              	.LASF72:
 4483 07fd 726C6973 		.ascii	"rlist\000"
 4483      7400
 4484              	.LASF16:
 4485 0803 75696E74 		.ascii	"uint8_t\000"
ARM GAS  /tmp/ccQ8K1iD.s 			page 86


 4485      385F7400 
 4486              	.LASF39:
 4487 080b 666C6167 		.ascii	"flags\000"
 4487      7300
 4488              	.LASF78:
 4489 0811 73697A65 		.ascii	"sizetype\000"
 4489      74797065 
 4489      00
 4490              	.LASF139:
 4491 081a 63685F6D 		.ascii	"ch_mutex\000"
 4491      75746578 
 4491      00
 4492              	.LASF151:
 4493 0823 72657476 		.ascii	"retval\000"
 4493      616C00
 4494              	.LASF93:
 4495 082a 41484231 		.ascii	"AHB1ENR\000"
 4495      454E5200 
 4496              	.LASF49:
 4497 0832 74687265 		.ascii	"threads_list_t\000"
 4497      6164735F 
 4497      6C697374 
 4497      5F7400
 4498              	.LASF44:
 4499 0841 6D74786C 		.ascii	"mtxlist\000"
 4499      69737400 
 4500              	.LASF127:
 4501 0849 6D5F6372 		.ascii	"m_crit_thd\000"
 4501      69745F74 
 4501      686400
 4502              	.LASF152:
 4503 0854 73746D33 		.ascii	"stm32_flash_ispageerased\000"
 4503      325F666C 
 4503      6173685F 
 4503      69737061 
 4503      67656572 
 4504              	.LASF19:
 4505 086d 75696E74 		.ascii	"uint32_t\000"
 4505      33325F74 
 4505      00
 4506              		.ident	"GCC: (15:5.4.1+svn241155-1) 5.4.1 20160919"
ARM GAS  /tmp/ccQ8K1iD.s 			page 87


DEFINED SYMBOLS
                            *ABS*:0000000000000000 flash.c
     /tmp/ccQ8K1iD.s:22     .text.stm32_flash_wait_idle:0000000000000000 $t
     /tmp/ccQ8K1iD.s:26     .text.stm32_flash_wait_idle:0000000000000000 stm32_flash_wait_idle
     /tmp/ccQ8K1iD.s:58     .text.stm32_flash_wait_idle:0000000000000010 $d
     /tmp/ccQ8K1iD.s:63     .text.stm32_flash_unlock:0000000000000000 $t
     /tmp/ccQ8K1iD.s:67     .text.stm32_flash_unlock:0000000000000000 stm32_flash_unlock
     /tmp/ccQ8K1iD.s:106    .text.stm32_flash_unlock:0000000000000028 $d
     /tmp/ccQ8K1iD.s:115    .text.stm32_flash_lock:0000000000000000 $t
     /tmp/ccQ8K1iD.s:120    .text.stm32_flash_lock:0000000000000000 stm32_flash_lock
     /tmp/ccQ8K1iD.s:161    .text.stm32_flash_lock:0000000000000030 $d
     /tmp/ccQ8K1iD.s:169    .text.stm32_flash_getpageaddr:0000000000000000 $t
     /tmp/ccQ8K1iD.s:174    .text.stm32_flash_getpageaddr:0000000000000000 stm32_flash_getpageaddr
     /tmp/ccQ8K1iD.s:248    .text.stm32_flash_getpageaddr:0000000000000034 $d
     /tmp/ccQ8K1iD.s:255    .text.stm32_flash_getpagesize:0000000000000000 $t
     /tmp/ccQ8K1iD.s:260    .text.stm32_flash_getpagesize:0000000000000000 stm32_flash_getpagesize
     /tmp/ccQ8K1iD.s:276    .text.stm32_flash_getpagesize:0000000000000008 $d
     /tmp/ccQ8K1iD.s:281    .text.stm32_flash_getnumpages:0000000000000000 $t
     /tmp/ccQ8K1iD.s:286    .text.stm32_flash_getnumpages:0000000000000000 stm32_flash_getnumpages
     /tmp/ccQ8K1iD.s:300    .text.stm32_flash_ispageerased:0000000000000000 $t
     /tmp/ccQ8K1iD.s:305    .text.stm32_flash_ispageerased:0000000000000000 stm32_flash_ispageerased
     /tmp/ccQ8K1iD.s:385    .text.stm32_flash_ispageerased:000000000000002c $d
     /tmp/ccQ8K1iD.s:390    .text.stm32_flash_erasepage:0000000000000000 $t
     /tmp/ccQ8K1iD.s:395    .text.stm32_flash_erasepage:0000000000000000 stm32_flash_erasepage
     /tmp/ccQ8K1iD.s:475    .text.stm32_flash_erasepage:0000000000000058 $d
     /tmp/ccQ8K1iD.s:480    .text.stm32_flash_write:0000000000000000 $t
     /tmp/ccQ8K1iD.s:485    .text.stm32_flash_write:0000000000000000 stm32_flash_write
     /tmp/ccQ8K1iD.s:724    .text.stm32_flash_write:00000000000000dc $d
     /tmp/ccQ8K1iD.s:730    .text.stm32_flash_keep_unlocked:0000000000000000 $t
     /tmp/ccQ8K1iD.s:735    .text.stm32_flash_keep_unlocked:0000000000000000 stm32_flash_keep_unlocked
     /tmp/ccQ8K1iD.s:780    .text.stm32_flash_keep_unlocked:0000000000000024 $d
     /tmp/ccQ8K1iD.s:785    .bss.flash_pageaddr:0000000000000000 $d
     /tmp/ccQ8K1iD.s:789    .bss.flash_pageaddr:0000000000000000 flash_pageaddr
     /tmp/ccQ8K1iD.s:792    .rodata.flash_memmap:0000000000000000 $d
     /tmp/ccQ8K1iD.s:796    .rodata.flash_memmap:0000000000000000 flash_memmap
     /tmp/ccQ8K1iD.s:825    .bss.flash_pageaddr_initialised:0000000000000000 flash_pageaddr_initialised
     /tmp/ccQ8K1iD.s:826    .bss.flash_pageaddr_initialised:0000000000000000 $d
     /tmp/ccQ8K1iD.s:831    .bss.flash_keep_unlocked:0000000000000000 flash_keep_unlocked
     /tmp/ccQ8K1iD.s:832    .bss.flash_keep_unlocked:0000000000000000 $d
                     .debug_frame:0000000000000010 $d

NO UNDEFINED SYMBOLS
