ARM GAS  /tmp/ccQ8K1iD.s 			page 1


   1              		.syntax unified
   2              		.cpu cortex-m4
   3              		.eabi_attribute 27, 1
   4              		.eabi_attribute 28, 1
   5              		.fpu fpv4-sp-d16
   6              		.eabi_attribute 20, 1
   7              		.eabi_attribute 21, 1
   8              		.eabi_attribute 23, 3
   9              		.eabi_attribute 24, 1
  10              		.eabi_attribute 25, 1
  11              		.eabi_attribute 26, 1
  12              		.eabi_attribute 30, 4
  13              		.eabi_attribute 34, 1
  14              		.eabi_attribute 18, 4
  15              		.thumb
  16              		.syntax unified
  17              		.file	"flash.c"
  18              		.text
  19              	.Ltext0:
  20              		.cfi_sections	.debug_frame
  21              		.section	.text.stm32_flash_wait_idle,"ax",%progbits
  22              		.align	1
  23              		.thumb
  24              		.thumb_func
  25              		.type	stm32_flash_wait_idle, %function
  26              	stm32_flash_wait_idle:
  27              	.LFB327:
  28              		.file 1 "../../libraries/AP_HAL_ChibiOS/hwdef/common/flash.c"
  29              		.loc 1 160 0
  30              		.cfi_startproc
  31              		@ args = 0, pretend = 0, frame = 0
  32              		@ frame_needed = 0, uses_anonymous_args = 0
  33              		@ link register save eliminated.
  34              	.LBB44:
  35              	.LBB45:
  36              		.file 2 "../../modules/ChibiOS/os/common/ext/ARM/CMSIS/Core/Include/cmsis_gcc.h"
  37              		.loc 2 879 0
  38              		.syntax unified
  39              	@ 879 "../../modules/ChibiOS/os/common/ext/ARM/CMSIS/Core/Include/cmsis_gcc.h" 1
  40 0000 BFF34F8F 		dsb 0xF
  41              	@ 0 "" 2
  42              		.thumb
  43              		.syntax unified
  44              	.LBE45:
  45              	.LBE44:
  46              		.loc 1 168 0
  47 0004 024A     		ldr	r2, .L5
  48              	.L2:
  49              		.loc 1 168 0 is_stmt 0 discriminator 1
  50 0006 D368     		ldr	r3, [r2, #12]
  51 0008 DB03     		lsls	r3, r3, #15
  52 000a FCD4     		bmi	.L2
  53              		.loc 1 172 0 is_stmt 1
  54 000c 7047     		bx	lr
  55              	.L6:
  56 000e 00BF     		.align	2
  57              	.L5:
ARM GAS  /tmp/ccQ8K1iD.s 			page 2


  58 0010 003C0240 		.word	1073888256
  59              		.cfi_endproc
  60              	.LFE327:
  61              		.size	stm32_flash_wait_idle, .-stm32_flash_wait_idle
  62              		.section	.text.stm32_flash_unlock,"ax",%progbits
  63              		.align	1
  64              		.thumb
  65              		.thumb_func
  66              		.type	stm32_flash_unlock, %function
  67              	stm32_flash_unlock:
  68              	.LFB329:
  69              		.loc 1 185 0
  70              		.cfi_startproc
  71              		@ args = 0, pretend = 0, frame = 0
  72              		@ frame_needed = 0, uses_anonymous_args = 0
  73 0000 08B5     		push	{r3, lr}
  74              		.cfi_def_cfa_offset 8
  75              		.cfi_offset 3, -8
  76              		.cfi_offset 14, -4
  77              		.loc 1 186 0
  78 0002 094B     		ldr	r3, .L10
  79 0004 1B78     		ldrb	r3, [r3]	@ zero_extendqisi2
  80 0006 73B9     		cbnz	r3, .L7
  81              	.LBB48:
  82              	.LBB49:
  83              		.loc 1 189 0
  84 0008 FFF7FEFF 		bl	stm32_flash_wait_idle
  85              	.LVL0:
  86              		.loc 1 203 0
  87 000c 074B     		ldr	r3, .L10+4
  88 000e 1A69     		ldr	r2, [r3, #16]
  89 0010 002A     		cmp	r2, #0
  90              		.loc 1 205 0
  91 0012 BFBF     		itttt	lt
  92 0014 064A     		ldrlt	r2, .L10+8
  93 0016 5A60     		strlt	r2, [r3, #4]
  94              		.loc 1 206 0
  95 0018 02F18832 		addlt	r2, r2, #-2004318072
  96 001c 5A60     		strlt	r2, [r3, #4]
  97              		.loc 1 212 0
  98 001e 1A68     		ldr	r2, [r3]
  99 0020 22F48062 		bic	r2, r2, #1024
 100 0024 1A60     		str	r2, [r3]
 101              	.L7:
 102 0026 08BD     		pop	{r3, pc}
 103              	.L11:
 104              		.align	2
 105              	.L10:
 106 0028 00000000 		.word	.LANCHOR0
 107 002c 003C0240 		.word	1073888256
 108 0030 23016745 		.word	1164378403
 109              	.LBE49:
 110              	.LBE48:
 111              		.cfi_endproc
 112              	.LFE329:
 113              		.size	stm32_flash_unlock, .-stm32_flash_unlock
 114              		.section	.text.stm32_flash_lock,"ax",%progbits
ARM GAS  /tmp/ccQ8K1iD.s 			page 3


 115              		.align	1
 116              		.global	stm32_flash_lock
 117              		.thumb
 118              		.thumb_func
 119              		.type	stm32_flash_lock, %function
 120              	stm32_flash_lock:
 121              	.LFB330:
 122              		.loc 1 217 0
 123              		.cfi_startproc
 124              		@ args = 0, pretend = 0, frame = 0
 125              		@ frame_needed = 0, uses_anonymous_args = 0
 126 0000 08B5     		push	{r3, lr}
 127              		.cfi_def_cfa_offset 8
 128              		.cfi_offset 3, -8
 129              		.cfi_offset 14, -4
 130              		.loc 1 218 0
 131 0002 0B4B     		ldr	r3, .L14
 132 0004 1B78     		ldrb	r3, [r3]	@ zero_extendqisi2
 133 0006 93B9     		cbnz	r3, .L12
 134              	.LBB52:
 135              	.LBB53:
 136              		.loc 1 232 0
 137 0008 FFF7FEFF 		bl	stm32_flash_wait_idle
 138              	.LVL1:
 139              		.loc 1 233 0
 140 000c 094B     		ldr	r3, .L14+4
 141 000e 1A69     		ldr	r2, [r3, #16]
 142 0010 42F00042 		orr	r2, r2, #-2147483648
 143 0014 1A61     		str	r2, [r3, #16]
 144              		.loc 1 238 0
 145 0016 1A68     		ldr	r2, [r3]
 146 0018 42F48052 		orr	r2, r2, #4096
 147 001c 1A60     		str	r2, [r3]
 148              		.loc 1 239 0
 149 001e 1A68     		ldr	r2, [r3]
 150 0020 22F48052 		bic	r2, r2, #4096
 151 0024 1A60     		str	r2, [r3]
 152              		.loc 1 240 0
 153 0026 1A68     		ldr	r2, [r3]
 154 0028 42F48062 		orr	r2, r2, #1024
 155 002c 1A60     		str	r2, [r3]
 156              	.L12:
 157 002e 08BD     		pop	{r3, pc}
 158              	.L15:
 159              		.align	2
 160              	.L14:
 161 0030 00000000 		.word	.LANCHOR0
 162 0034 003C0240 		.word	1073888256
 163              	.LBE53:
 164              	.LBE52:
 165              		.cfi_endproc
 166              	.LFE330:
 167              		.size	stm32_flash_lock, .-stm32_flash_lock
 168              		.section	.text.stm32_flash_getpageaddr,"ax",%progbits
 169              		.align	1
 170              		.global	stm32_flash_getpageaddr
 171              		.thumb
ARM GAS  /tmp/ccQ8K1iD.s 			page 4


 172              		.thumb_func
 173              		.type	stm32_flash_getpageaddr, %function
 174              	stm32_flash_getpageaddr:
 175              	.LFB331:
 176              		.loc 1 250 0
 177              		.cfi_startproc
 178              		@ args = 0, pretend = 0, frame = 0
 179              		@ frame_needed = 0, uses_anonymous_args = 0
 180              	.LVL2:
 181              		.loc 1 251 0
 182 0000 1728     		cmp	r0, #23
 183              		.loc 1 250 0
 184 0002 70B5     		push	{r4, r5, r6, lr}
 185              		.cfi_def_cfa_offset 16
 186              		.cfi_offset 4, -16
 187              		.cfi_offset 5, -12
 188              		.cfi_offset 6, -8
 189              		.cfi_offset 14, -4
 190              		.loc 1 251 0
 191 0004 13D8     		bhi	.L20
 192              	.LVL3:
 193              	.LBB59:
 194              	.LBB60:
 195              		.loc 1 257 0
 196 0006 0B4A     		ldr	r2, .L22
 197 0008 0B4C     		ldr	r4, .L22+4
 198 000a 1378     		ldrb	r3, [r2]	@ zero_extendqisi2
 199 000c 63B9     		cbnz	r3, .L18
 200              	.LBB61:
 201              	.LBB62:
 202              	.LBB63:
 203              		.loc 1 281 0
 204 000e 0B4E     		ldr	r6, .L22+8
 205              	.LBE63:
 206              	.LBE62:
 207              	.LBE61:
 208              		.loc 1 257 0
 209 0010 4FF00061 		mov	r1, #134217728
 210              	.L19:
 211              	.LVL4:
 212              	.LBB64:
 213              		.loc 1 262 0
 214 0014 44F82310 		str	r1, [r4, r3, lsl #2]
 215              		.loc 1 263 0
 216 0018 56F82350 		ldr	r5, [r6, r3, lsl #2]
 217 001c 0133     		adds	r3, r3, #1
 218              	.LVL5:
 219              		.loc 1 261 0
 220 001e 182B     		cmp	r3, #24
 221              		.loc 1 263 0
 222 0020 2944     		add	r1, r1, r5
 223              	.LVL6:
 224              		.loc 1 261 0
 225 0022 F7D1     		bne	.L19
 226              		.loc 1 265 0
 227 0024 0123     		movs	r3, #1
 228 0026 1370     		strb	r3, [r2]
ARM GAS  /tmp/ccQ8K1iD.s 			page 5


 229              	.LVL7:
 230              	.L18:
 231              	.LBE64:
 232              		.loc 1 268 0
 233 0028 54F82000 		ldr	r0, [r4, r0, lsl #2]
 234              	.LVL8:
 235 002c 70BD     		pop	{r4, r5, r6, pc}
 236              	.LVL9:
 237              	.L20:
 238              	.LBE60:
 239              	.LBE59:
 240              		.loc 1 252 0
 241 002e 0020     		movs	r0, #0
 242              	.LVL10:
 243              		.loc 1 270 0
 244 0030 70BD     		pop	{r4, r5, r6, pc}
 245              	.L23:
 246 0032 00BF     		.align	2
 247              	.L22:
 248 0034 00000000 		.word	.LANCHOR1
 249 0038 00000000 		.word	.LANCHOR2
 250 003c 00000000 		.word	.LANCHOR3
 251              		.cfi_endproc
 252              	.LFE331:
 253              		.size	stm32_flash_getpageaddr, .-stm32_flash_getpageaddr
 254              		.section	.text.stm32_flash_getpagesize,"ax",%progbits
 255              		.align	1
 256              		.global	stm32_flash_getpagesize
 257              		.thumb
 258              		.thumb_func
 259              		.type	stm32_flash_getpagesize, %function
 260              	stm32_flash_getpagesize:
 261              	.LFB332:
 262              		.loc 1 276 0
 263              		.cfi_startproc
 264              		@ args = 0, pretend = 0, frame = 0
 265              		@ frame_needed = 0, uses_anonymous_args = 0
 266              		@ link register save eliminated.
 267              	.LVL11:
 268              		.loc 1 283 0
 269 0000 014B     		ldr	r3, .L25
 270 0002 53F82000 		ldr	r0, [r3, r0, lsl #2]
 271              	.LVL12:
 272 0006 7047     		bx	lr
 273              	.L26:
 274              		.align	2
 275              	.L25:
 276 0008 00000000 		.word	.LANCHOR3
 277              		.cfi_endproc
 278              	.LFE332:
 279              		.size	stm32_flash_getpagesize, .-stm32_flash_getpagesize
 280              		.section	.text.stm32_flash_getnumpages,"ax",%progbits
 281              		.align	1
 282              		.global	stm32_flash_getnumpages
 283              		.thumb
 284              		.thumb_func
 285              		.type	stm32_flash_getnumpages, %function
ARM GAS  /tmp/ccQ8K1iD.s 			page 6


 286              	stm32_flash_getnumpages:
 287              	.LFB333:
 288              		.loc 1 289 0
 289              		.cfi_startproc
 290              		@ args = 0, pretend = 0, frame = 0
 291              		@ frame_needed = 0, uses_anonymous_args = 0
 292              		@ link register save eliminated.
 293              		.loc 1 291 0
 294 0000 1820     		movs	r0, #24
 295 0002 7047     		bx	lr
 296              		.cfi_endproc
 297              	.LFE333:
 298              		.size	stm32_flash_getnumpages, .-stm32_flash_getnumpages
 299              		.section	.text.stm32_flash_ispageerased,"ax",%progbits
 300              		.align	1
 301              		.global	stm32_flash_ispageerased
 302              		.thumb
 303              		.thumb_func
 304              		.type	stm32_flash_ispageerased, %function
 305              	stm32_flash_ispageerased:
 306              	.LFB334:
 307              		.loc 1 294 0
 308              		.cfi_startproc
 309              		@ args = 0, pretend = 0, frame = 0
 310              		@ frame_needed = 0, uses_anonymous_args = 0
 311              	.LVL13:
 312              		.loc 1 298 0
 313 0000 1728     		cmp	r0, #23
 314              		.loc 1 294 0
 315 0002 10B5     		push	{r4, lr}
 316              		.cfi_def_cfa_offset 8
 317              		.cfi_offset 4, -8
 318              		.cfi_offset 14, -4
 319              		.loc 1 294 0
 320 0004 0446     		mov	r4, r0
 321              		.loc 1 298 0
 322 0006 01D9     		bls	.L29
 323              	.LVL14:
 324              	.L32:
 325              		.loc 1 299 0
 326 0008 0020     		movs	r0, #0
 327 000a 10BD     		pop	{r4, pc}
 328              	.LVL15:
 329              	.L29:
 330              	.LBB72:
 331              	.LBB73:
 332              		.loc 1 302 0
 333 000c FFF7FEFF 		bl	stm32_flash_getpageaddr
 334              	.LVL16:
 335              	.LBB74:
 336              	.LBB75:
 337              		.loc 1 281 0
 338 0010 064B     		ldr	r3, .L35
 339 0012 53F82430 		ldr	r3, [r3, r4, lsl #2]
 340              	.LVL17:
 341 0016 1844     		add	r0, r0, r3
 342              	.LVL18:
ARM GAS  /tmp/ccQ8K1iD.s 			page 7


 343              	.L31:
 344 0018 C21A     		subs	r2, r0, r3
 345              	.LVL19:
 346              	.LBE75:
 347              	.LBE74:
 348              		.loc 1 302 0
 349 001a 23B1     		cbz	r3, .L34
 350              	.LVL20:
 351              	.LBB76:
 352              	.LBB77:
 353              	.LBB78:
 354              		.loc 1 149 0
 355              		.syntax unified
 356              	@ 149 "../../libraries/AP_HAL_ChibiOS/hwdef/common/flash.c" 1
 357 001c 1268     			ldr r2, [r2]
 358              		
 359              	@ 0 "" 2
 360              	.LVL21:
 361              		.thumb
 362              		.syntax unified
 363              	.LBE78:
 364              	.LBE77:
 365              		.loc 1 305 0
 366 001e 0132     		adds	r2, r2, #1
 367 0020 F2D1     		bne	.L32
 368              	.LBE76:
 369              		.loc 1 303 0
 370 0022 043B     		subs	r3, r3, #4
 371              	.LVL22:
 372 0024 F8E7     		b	.L31
 373              	.LVL23:
 374              	.L34:
 375              		.loc 1 310 0
 376 0026 0120     		movs	r0, #1
 377              	.LBE73:
 378              	.LBE72:
 379              		.loc 1 311 0
 380 0028 10BD     		pop	{r4, pc}
 381              	.LVL24:
 382              	.L36:
 383 002a 00BF     		.align	2
 384              	.L35:
 385 002c 00000000 		.word	.LANCHOR3
 386              		.cfi_endproc
 387              	.LFE334:
 388              		.size	stm32_flash_ispageerased, .-stm32_flash_ispageerased
 389              		.section	.text.stm32_flash_erasepage,"ax",%progbits
 390              		.align	1
 391              		.global	stm32_flash_erasepage
 392              		.thumb
 393              		.thumb_func
 394              		.type	stm32_flash_erasepage, %function
 395              	stm32_flash_erasepage:
 396              	.LFB335:
 397              		.loc 1 317 0
 398              		.cfi_startproc
 399              		@ args = 0, pretend = 0, frame = 0
ARM GAS  /tmp/ccQ8K1iD.s 			page 8


 400              		@ frame_needed = 0, uses_anonymous_args = 0
 401              	.LVL25:
 402              		.loc 1 318 0
 403 0000 1728     		cmp	r0, #23
 404              		.loc 1 317 0
 405 0002 10B5     		push	{r4, lr}
 406              		.cfi_def_cfa_offset 8
 407              		.cfi_offset 4, -8
 408              		.cfi_offset 14, -4
 409              		.loc 1 317 0
 410 0004 0446     		mov	r4, r0
 411              		.loc 1 318 0
 412 0006 25D8     		bhi	.L38
 413              		.loc 1 325 0
 414 0008 FFF7FEFF 		bl	stm32_flash_wait_idle
 415              	.LVL26:
 416              		.loc 1 326 0
 417 000c FFF7FEFF 		bl	stm32_flash_unlock
 418              	.LVL27:
 419              	.LBB79:
 420              	.LBB80:
 421              		.loc 1 180 0
 422 0010 1149     		ldr	r1, .L39
 423 0012 F323     		movs	r3, #243
 424 0014 CB60     		str	r3, [r1, #12]
 425              	.LBE80:
 426              	.LBE79:
 427              		.loc 1 358 0
 428 0016 FFF7FEFF 		bl	stm32_flash_wait_idle
 429              	.LVL28:
 430              		.loc 1 364 0
 431 001a 0C23     		movs	r3, #12
 432 001c B0FBF3F2 		udiv	r2, r0, r3
 433 0020 03FB1203 		mls	r3, r3, r2, r0
 434 0024 D201     		lsls	r2, r2, #7
 435 0026 42EAC303 		orr	r3, r2, r3, lsl #3
 436 002a DBB2     		uxtb	r3, r3
 437 002c 43F40073 		orr	r3, r3, #512
 438 0030 43F00203 		orr	r3, r3, #2
 439 0034 0B61     		str	r3, [r1, #16]
 440              		.loc 1 365 0
 441 0036 0B69     		ldr	r3, [r1, #16]
 442 0038 43F48033 		orr	r3, r3, #65536
 443 003c 0B61     		str	r3, [r1, #16]
 444              		.loc 1 368 0
 445 003e FFF7FEFF 		bl	stm32_flash_wait_idle
 446              	.LVL29:
 447              		.loc 1 370 0
 448 0042 FFF7FEFF 		bl	stm32_flash_getpageaddr
 449              	.LVL30:
 450              		.loc 1 372 0
 451 0046 FFF7FEFF 		bl	stm32_flash_lock
 452              	.LVL31:
 453              		.loc 1 376 0
 454 004a 2046     		mov	r0, r4
 455              		.loc 1 377 0
 456 004c BDE81040 		pop	{r4, lr}
ARM GAS  /tmp/ccQ8K1iD.s 			page 9


 457              		.cfi_remember_state
 458              		.cfi_restore 14
 459              		.cfi_restore 4
 460              		.cfi_def_cfa_offset 0
 461              	.LVL32:
 462              		.loc 1 376 0
 463 0050 FFF7FEBF 		b	stm32_flash_ispageerased
 464              	.LVL33:
 465              	.L38:
 466              		.cfi_restore_state
 467              		.loc 1 377 0
 468 0054 0020     		movs	r0, #0
 469              	.LVL34:
 470 0056 10BD     		pop	{r4, pc}
 471              	.LVL35:
 472              	.L40:
 473              		.align	2
 474              	.L39:
 475 0058 003C0240 		.word	1073888256
 476              		.cfi_endproc
 477              	.LFE335:
 478              		.size	stm32_flash_erasepage, .-stm32_flash_erasepage
 479              		.section	.text.stm32_flash_write,"ax",%progbits
 480              		.align	1
 481              		.global	stm32_flash_write
 482              		.thumb
 483              		.thumb_func
 484              		.type	stm32_flash_write, %function
 485              	stm32_flash_write:
 486              	.LFB336:
 487              		.loc 1 444 0
 488              		.cfi_startproc
 489              		@ args = 0, pretend = 0, frame = 0
 490              		@ frame_needed = 0, uses_anonymous_args = 0
 491              	.LVL36:
 492 0000 2DE9F843 		push	{r3, r4, r5, r6, r7, r8, r9, lr}
 493              		.cfi_def_cfa_offset 32
 494              		.cfi_offset 3, -32
 495              		.cfi_offset 4, -28
 496              		.cfi_offset 5, -24
 497              		.cfi_offset 6, -20
 498              		.cfi_offset 7, -16
 499              		.cfi_offset 8, -12
 500              		.cfi_offset 9, -8
 501              		.cfi_offset 14, -4
 502              		.loc 1 448 0
 503 0004 12F00103 		ands	r3, r2, #1
 504              		.loc 1 444 0
 505 0008 1446     		mov	r4, r2
 506              		.loc 1 448 0
 507 000a 64D1     		bne	.L55
 508              		.loc 1 452 0
 509 000c 0244     		add	r2, r2, r0
 510              	.LVL37:
 511 000e B2F1026F 		cmp	r2, #136314880
 512 0012 60D2     		bcs	.L55
 513              		.loc 1 458 0
ARM GAS  /tmp/ccQ8K1iD.s 			page 10


 514 0014 314B     		ldr	r3, .L57
 515 0016 1B68     		ldr	r3, [r3]
 516 0018 13F00103 		ands	r3, r3, #1
 517 001c 5BD0     		beq	.L55
 518              	.LBB81:
 519              	.LBB82:
 520              		.loc 1 180 0
 521 001e 304D     		ldr	r5, .L57+4
 522              	.LBE82:
 523              	.LBE81:
 524              		.loc 1 466 0
 525 0020 FFF7FEFF 		bl	stm32_flash_unlock
 526              	.LVL38:
 527              	.LBB84:
 528              	.LBB83:
 529              		.loc 1 180 0
 530 0024 F323     		movs	r3, #243
 531 0026 EB60     		str	r3, [r5, #12]
 532              	.LBE83:
 533              	.LBE84:
 534              		.loc 1 471 0
 535 0028 FFF7FEFF 		bl	stm32_flash_wait_idle
 536              	.LVL39:
 537              	.L43:
 538              		.loc 1 474 0
 539 002c 032C     		cmp	r4, #3
 540 002e 04D8     		bhi	.L46
 541              	.L49:
 542 0030 C1EB0008 		rsb	r8, r1, r0
 543              		.loc 1 444 0
 544 0034 0E46     		mov	r6, r1
 545 0036 2A48     		ldr	r0, .L57+4
 546              	.LVL40:
 547 0038 1EE0     		b	.L47
 548              	.LVL41:
 549              	.L46:
 550              		.loc 1 474 0 discriminator 1
 551 003a 8307     		lsls	r3, r0, #30
 552 003c F8D1     		bne	.L49
 553              	.LBB85:
 554              		.loc 1 475 0
 555 003e 2B69     		ldr	r3, [r5, #16]
 556 0040 274E     		ldr	r6, .L57+4
 557 0042 23F44073 		bic	r3, r3, #768
 558 0046 2B61     		str	r3, [r5, #16]
 559              		.loc 1 476 0
 560 0048 2B69     		ldr	r3, [r5, #16]
 561 004a 43F40073 		orr	r3, r3, #512
 562 004e 43F00103 		orr	r3, r3, #1
 563 0052 2B61     		str	r3, [r5, #16]
 564              		.loc 1 477 0
 565 0054 51F8047B 		ldr	r7, [r1], #4
 566              	.LVL42:
 567              	.LBB86:
 568              	.LBB87:
 569              		.loc 1 156 0
 570 0058 0760     		str	r7, [r0]
ARM GAS  /tmp/ccQ8K1iD.s 			page 11


 571              	.LVL43:
 572              	.LBE87:
 573              	.LBE86:
 574              	.LBB88:
 575              	.LBB89:
 576              		.loc 2 879 0
 577              		.syntax unified
 578              	@ 879 "../../modules/ChibiOS/os/common/ext/ARM/CMSIS/Core/Include/cmsis_gcc.h" 1
 579 005a BFF34F8F 		dsb 0xF
 580              	@ 0 "" 2
 581              		.thumb
 582              		.syntax unified
 583              	.LBE89:
 584              	.LBE88:
 585              		.loc 1 484 0
 586 005e FFF7FEFF 		bl	stm32_flash_wait_idle
 587              	.LVL44:
 588              	.LBB90:
 589              	.LBB91:
 590              		.loc 1 149 0
 591              		.syntax unified
 592              	@ 149 "../../libraries/AP_HAL_ChibiOS/hwdef/common/flash.c" 1
 593 0062 0368     			ldr r3, [r0]
 594              		
 595              	@ 0 "" 2
 596              	.LVL45:
 597              		.thumb
 598              		.syntax unified
 599              	.LBE91:
 600              	.LBE90:
 601              		.loc 1 487 0
 602 0064 9F42     		cmp	r7, r3
 603 0066 04D0     		beq	.L44
 604              		.loc 1 488 0
 605 0068 3369     		ldr	r3, [r6, #16]
 606 006a 23F00103 		bic	r3, r3, #1
 607 006e 3361     		str	r3, [r6, #16]
 608              		.loc 1 489 0
 609 0070 2FE0     		b	.L45
 610              	.L44:
 611              		.loc 1 492 0
 612 0072 043C     		subs	r4, r4, #4
 613              	.LVL46:
 614              		.loc 1 494 0
 615 0074 0430     		adds	r0, r0, #4
 616              	.LVL47:
 617 0076 D9E7     		b	.L43
 618              	.LVL48:
 619              	.L47:
 620 0078 A31B     		subs	r3, r4, r6
 621 007a 0B44     		add	r3, r3, r1
 622              	.LBE85:
 623              		.loc 1 498 0
 624 007c 012B     		cmp	r3, #1
 625 007e 08EB0605 		add	r5, r8, r6
 626              	.LVL49:
 627 0082 174F     		ldr	r7, .L57+4
ARM GAS  /tmp/ccQ8K1iD.s 			page 12


 628 0084 1CD9     		bls	.L56
 629              		.loc 1 499 0
 630 0086 0369     		ldr	r3, [r0, #16]
 631 0088 23F44073 		bic	r3, r3, #768
 632 008c 0361     		str	r3, [r0, #16]
 633              		.loc 1 500 0
 634 008e 0369     		ldr	r3, [r0, #16]
 635 0090 43F48073 		orr	r3, r3, #256
 636 0094 43F00103 		orr	r3, r3, #1
 637 0098 0361     		str	r3, [r0, #16]
 638 009a B146     		mov	r9, r6
 639              	.LVL50:
 640              	.LBB92:
 641              	.LBB93:
 642              		.loc 1 142 0
 643 009c 36F8023B 		ldrh	r3, [r6], #2
 644              	.LVL51:
 645              		.syntax unified
 646              	@ 142 "../../libraries/AP_HAL_ChibiOS/hwdef/common/flash.c" 1
 647 00a0 2B80     			strh r3, [r5]
 648              		
 649              	@ 0 "" 2
 650              	.LVL52:
 651              		.thumb
 652              		.syntax unified
 653              	.LBE93:
 654              	.LBE92:
 655              	.LBB94:
 656              	.LBB95:
 657              		.loc 2 879 0
 658              		.syntax unified
 659              	@ 879 "../../modules/ChibiOS/os/common/ext/ARM/CMSIS/Core/Include/cmsis_gcc.h" 1
 660 00a2 BFF34F8F 		dsb 0xF
 661              	@ 0 "" 2
 662              		.thumb
 663              		.syntax unified
 664              	.LBE95:
 665              	.LBE94:
 666              		.loc 1 507 0
 667 00a6 FFF7FEFF 		bl	stm32_flash_wait_idle
 668              	.LVL53:
 669              	.LBB96:
 670              	.LBB97:
 671              		.loc 1 135 0
 672              		.syntax unified
 673              	@ 135 "../../libraries/AP_HAL_ChibiOS/hwdef/common/flash.c" 1
 674 00aa 2D88     			ldrh r5, [r5]
 675              		
 676              	@ 0 "" 2
 677              	.LVL54:
 678              		.thumb
 679              		.syntax unified
 680              	.LBE97:
 681              	.LBE96:
 682              		.loc 1 509 0
 683 00ac B9F80030 		ldrh	r3, [r9]
 684              	.LBB99:
ARM GAS  /tmp/ccQ8K1iD.s 			page 13


 685              	.LBB98:
 686              		.loc 1 135 0
 687 00b0 ADB2     		uxth	r5, r5
 688              	.LVL55:
 689              	.LBE98:
 690              	.LBE99:
 691              		.loc 1 509 0
 692 00b2 AB42     		cmp	r3, r5
 693 00b4 E0D0     		beq	.L47
 694              		.loc 1 510 0
 695 00b6 3B69     		ldr	r3, [r7, #16]
 696 00b8 23F00103 		bic	r3, r3, #1
 697 00bc 3B61     		str	r3, [r7, #16]
 698              		.loc 1 511 0
 699 00be 08E0     		b	.L45
 700              	.LVL56:
 701              	.L56:
 702              		.loc 1 519 0
 703 00c0 3B69     		ldr	r3, [r7, #16]
 704 00c2 23F00103 		bic	r3, r3, #1
 705 00c6 3B61     		str	r3, [r7, #16]
 706              		.loc 1 521 0
 707 00c8 FFF7FEFF 		bl	stm32_flash_lock
 708              	.LVL57:
 709              		.loc 1 525 0
 710 00cc 0120     		movs	r0, #1
 711 00ce BDE8F883 		pop	{r3, r4, r5, r6, r7, r8, r9, pc}
 712              	.LVL58:
 713              	.L45:
 714              		.loc 1 528 0
 715 00d2 FFF7FEFF 		bl	stm32_flash_lock
 716              	.LVL59:
 717              	.L55:
 718              		.loc 1 532 0
 719 00d6 0020     		movs	r0, #0
 720 00d8 BDE8F883 		pop	{r3, r4, r5, r6, r7, r8, r9, pc}
 721              	.L58:
 722              		.align	2
 723              	.L57:
 724 00dc 00380240 		.word	1073887232
 725 00e0 003C0240 		.word	1073888256
 726              		.cfi_endproc
 727              	.LFE336:
 728              		.size	stm32_flash_write, .-stm32_flash_write
 729              		.section	.text.stm32_flash_keep_unlocked,"ax",%progbits
 730              		.align	1
 731              		.global	stm32_flash_keep_unlocked
 732              		.thumb
 733              		.thumb_func
 734              		.type	stm32_flash_keep_unlocked, %function
 735              	stm32_flash_keep_unlocked:
 736              	.LFB337:
 737              		.loc 1 537 0
 738              		.cfi_startproc
 739              		@ args = 0, pretend = 0, frame = 0
 740              		@ frame_needed = 0, uses_anonymous_args = 0
 741              	.LVL60:
ARM GAS  /tmp/ccQ8K1iD.s 			page 14


 742 0000 0849     		ldr	r1, .L65
 743 0002 08B5     		push	{r3, lr}
 744              		.cfi_def_cfa_offset 8
 745              		.cfi_offset 3, -8
 746              		.cfi_offset 14, -4
 747              		.loc 1 538 0
 748 0004 0B78     		ldrb	r3, [r1]	@ zero_extendqisi2
 749 0006 28B1     		cbz	r0, .L60
 750              		.loc 1 538 0 is_stmt 0 discriminator 1
 751 0008 53B9     		cbnz	r3, .L59
 752              		.loc 1 539 0 is_stmt 1
 753 000a FFF7FEFF 		bl	stm32_flash_unlock
 754              	.LVL61:
 755              		.loc 1 540 0
 756 000e 0123     		movs	r3, #1
 757 0010 0B70     		strb	r3, [r1]
 758 0012 08BD     		pop	{r3, pc}
 759              	.LVL62:
 760              	.L60:
 761              		.loc 1 541 0 discriminator 1
 762 0014 23B1     		cbz	r3, .L59
 763              		.loc 1 545 0
 764 0016 BDE80840 		pop	{r3, lr}
 765              		.cfi_remember_state
 766              		.cfi_restore 14
 767              		.cfi_restore 3
 768              		.cfi_def_cfa_offset 0
 769              		.loc 1 542 0
 770 001a 0870     		strb	r0, [r1]
 771              		.loc 1 543 0
 772 001c FFF7FEBF 		b	stm32_flash_lock
 773              	.LVL63:
 774              	.L59:
 775              		.cfi_restore_state
 776 0020 08BD     		pop	{r3, pc}
 777              	.L66:
 778 0022 00BF     		.align	2
 779              	.L65:
 780 0024 00000000 		.word	.LANCHOR0
 781              		.cfi_endproc
 782              	.LFE337:
 783              		.size	stm32_flash_keep_unlocked, .-stm32_flash_keep_unlocked
 784              		.section	.bss.flash_pageaddr,"aw",%nobits
 785              		.align	2
 786              		.set	.LANCHOR2,. + 0
 787              		.type	flash_pageaddr, %object
 788              		.size	flash_pageaddr, 96
 789              	flash_pageaddr:
 790 0000 00000000 		.space	96
 790      00000000 
 790      00000000 
 790      00000000 
 790      00000000 
 791              		.section	.rodata.flash_memmap,"a",%progbits
 792              		.align	2
 793              		.set	.LANCHOR3,. + 0
 794              		.type	flash_memmap, %object
ARM GAS  /tmp/ccQ8K1iD.s 			page 15


 795              		.size	flash_memmap, 96
 796              	flash_memmap:
 797 0000 00400000 		.word	16384
 798 0004 00400000 		.word	16384
 799 0008 00400000 		.word	16384
 800 000c 00400000 		.word	16384
 801 0010 00000100 		.word	65536
 802 0014 00000200 		.word	131072
 803 0018 00000200 		.word	131072
 804 001c 00000200 		.word	131072
 805 0020 00000200 		.word	131072
 806 0024 00000200 		.word	131072
 807 0028 00000200 		.word	131072
 808 002c 00000200 		.word	131072
 809 0030 00400000 		.word	16384
 810 0034 00400000 		.word	16384
 811 0038 00400000 		.word	16384
 812 003c 00400000 		.word	16384
 813 0040 00000100 		.word	65536
 814 0044 00000200 		.word	131072
 815 0048 00000200 		.word	131072
 816 004c 00000200 		.word	131072
 817 0050 00000200 		.word	131072
 818 0054 00000200 		.word	131072
 819 0058 00000200 		.word	131072
 820 005c 00000200 		.word	131072
 821              		.section	.bss.flash_pageaddr_initialised,"aw",%nobits
 822              		.set	.LANCHOR1,. + 0
 823              		.type	flash_pageaddr_initialised, %object
 824              		.size	flash_pageaddr_initialised, 1
 825              	flash_pageaddr_initialised:
 826 0000 00       		.space	1
 827              		.section	.bss.flash_keep_unlocked,"aw",%nobits
 828              		.set	.LANCHOR0,. + 0
 829              		.type	flash_keep_unlocked, %object
 830              		.size	flash_keep_unlocked, 1
 831              	flash_keep_unlocked:
 832 0000 00       		.space	1
 833              		.text
 834              	.Letext0:
 835              		.file 3 "/usr/lib/gcc/arm-none-eabi/5.4.1/include/stddef.h"
 836              		.file 4 "/usr/include/newlib/machine/_default_types.h"
 837              		.file 5 "/usr/include/newlib/sys/_stdint.h"
 838              		.file 6 "../../modules/ChibiOS/os/common/ports/ARMCMx/compilers/GCC/chtypes.h"
 839              		.file 7 "../../modules/ChibiOS/os/rt/include/chsystypes.h"
 840              		.file 8 "../../modules/ChibiOS/os/rt/include/chschd.h"
 841              		.file 9 "../../modules/ChibiOS/os/rt/include/chtime.h"
 842              		.file 10 "../../modules/ChibiOS/os/common/ext/ST/STM32F4xx/stm32f427xx.h"
 843              		.file 11 "../../modules/ChibiOS/os/common/ports/ARMCMx/chcore.h"
 844              		.file 12 "../../modules/ChibiOS/os/common/ports/ARMCMx/chcore_v7m.h"
 845              		.file 13 "../../modules/ChibiOS/os/rt/include/chtm.h"
 846              		.file 14 "../../modules/ChibiOS/os/rt/include/chstats.h"
 847              		.file 15 "../../modules/ChibiOS/os/rt/include/chsem.h"
 848              		.file 16 "../../modules/ChibiOS/os/rt/include/chmtx.h"
 849              		.file 17 "../../modules/ChibiOS/os/common/ext/ARM/CMSIS/Core/Include/core_cm4.h"