ARM GAS  /tmp/ccudzU1t.s 			page 1


   1              		.syntax unified
   2              		.cpu cortex-m4
   3              		.eabi_attribute 27, 1
   4              		.eabi_attribute 28, 1
   5              		.fpu fpv4-sp-d16
   6              		.eabi_attribute 20, 1
   7              		.eabi_attribute 21, 1
   8              		.eabi_attribute 23, 3
   9              		.eabi_attribute 24, 1
  10              		.eabi_attribute 25, 1
  11              		.eabi_attribute 26, 1
  12              		.eabi_attribute 30, 4
  13              		.eabi_attribute 34, 1
  14              		.eabi_attribute 18, 4
  15              		.thumb
  16              		.syntax unified
  17              		.file	"hal.c"
  18              		.text
  19              	.Ltext0:
  20              		.cfi_sections	.debug_frame
  21              		.section	.text.halInit,"ax",%progbits
  22              		.align	1
  23              		.global	halInit
  24              		.thumb
  25              		.thumb_func
  26              		.type	halInit, %function
  27              	halInit:
  28              	.LFB323:
  29              		.file 1 "../../modules/ChibiOS/os/hal/src/hal.c"
  30              		.loc 1 56 0
  31              		.cfi_startproc
  32              		@ args = 0, pretend = 0, frame = 0
  33              		@ frame_needed = 0, uses_anonymous_args = 0
  34 0000 08B5     		push	{r3, lr}
  35              		.cfi_def_cfa_offset 8
  36              		.cfi_offset 3, -8
  37              		.cfi_offset 14, -4
  38              		.loc 1 62 0
  39 0002 FFF7FEFF 		bl	hal_lld_init
  40              	.LVL0:
  41              		.loc 1 66 0
  42 0006 FFF7FEFF 		bl	_pal_lld_init
  43              	.LVL1:
  44              		.loc 1 72 0
  45 000a FFF7FEFF 		bl	adcInit
  46              	.LVL2:
  47              		.loc 1 87 0
  48 000e FFF7FEFF 		bl	i2cInit
  49              	.LVL3:
  50              		.loc 1 102 0
  51 0012 FFF7FEFF 		bl	pwmInit
  52              	.LVL4:
  53              		.loc 1 105 0
  54 0016 FFF7FEFF 		bl	sdInit
  55              	.LVL5:
  56              		.loc 1 108 0
  57 001a FFF7FEFF 		bl	sdcInit
ARM GAS  /tmp/ccudzU1t.s 			page 2


  58              	.LVL6:
  59              		.loc 1 111 0
  60 001e FFF7FEFF 		bl	spiInit
  61              	.LVL7:
  62              		.loc 1 120 0
  63 0022 FFF7FEFF 		bl	usbInit
  64              	.LVL8:
  65              		.loc 1 126 0
  66 0026 FFF7FEFF 		bl	sduInit
  67              	.LVL9:
  68              		.loc 1 146 0
  69 002a FFF7FEFF 		bl	boardInit
  70              	.LVL10:
  71              		.loc 1 155 0
  72 002e BDE80840 		pop	{r3, lr}
  73              		.cfi_restore 14
  74              		.cfi_restore 3
  75              		.cfi_def_cfa_offset 0
  76              		.loc 1 153 0
  77 0032 FFF7FEBF 		b	stInit
  78              	.LVL11:
  79              		.cfi_endproc
  80              	.LFE323:
  81              		.size	halInit, .-halInit
  82              		.text
  83              	.Letext0:
  84              		.file 2 "/usr/include/newlib/machine/_default_types.h"
  85              		.file 3 "/usr/include/newlib/sys/_stdint.h"
  86              		.file 4 "../../modules/ChibiOS/os/common/ports/ARMCMx/compilers/GCC/chtypes.h"
  87              		.file 5 "../../modules/ChibiOS/os/rt/include/chsystypes.h"
  88              		.file 6 "../../modules/ChibiOS/os/rt/include/chschd.h"
  89              		.file 7 "../../modules/ChibiOS/os/rt/include/chtime.h"
  90              		.file 8 "../../modules/ChibiOS/os/common/ports/ARMCMx/chcore.h"
  91              		.file 9 "../../modules/ChibiOS/os/common/ports/ARMCMx/chcore_v7m.h"
  92              		.file 10 "../../modules/ChibiOS/os/rt/include/chtm.h"
  93              		.file 11 "../../modules/ChibiOS/os/rt/include/chstats.h"
  94              		.file 12 "../../modules/ChibiOS/os/rt/include/chsem.h"
  95              		.file 13 "../../modules/ChibiOS/os/rt/include/chmtx.h"
  96              		.file 14 "../../modules/ChibiOS/os/hal/ports/STM32/STM32F4xx/hal_lld_type1.h"
  97              		.file 15 "../../modules/ChibiOS/os/hal/ports/STM32/LLD/GPIOv2/hal_pal_lld.h"
  98              		.file 16 "../../modules/ChibiOS/os/hal/include/hal_adc.h"
  99              		.file 17 "../../modules/ChibiOS/os/hal/include/hal_i2c.h"
 100              		.file 18 "../../modules/ChibiOS/os/hal/include/hal_pwm.h"
 101              		.file 19 "../../modules/ChibiOS/os/hal/include/hal_serial.h"
 102              		.file 20 "../../modules/ChibiOS/os/hal/include/hal_sdc.h"
 103              		.file 21 "../../modules/ChibiOS/os/hal/include/hal_spi.h"
 104              		.file 22 "../../modules/ChibiOS/os/hal/include/hal_usb.h"
 105              		.file 23 "../../modules/ChibiOS/os/hal/include/hal_serial_usb.h"
 106              		.file 24 "../../libraries/AP_HAL_ChibiOS/hwdef/common/board.h"
 107              		.file 25 "../../modules/ChibiOS/os/hal/include/hal_st.h"
 108              		.file 26 "../../modules/ChibiOS/os/hal/osal/rt/osal.h"
 109              		.file 27 "../../modules/ChibiOS/os/common/ext/ARM/CMSIS/Core/Include/core_cm4.h"
 110              		.section	.debug_info,"",%progbits
 111              	.Ldebug_info0:
 112 0000 CE080000 		.4byte	0x8ce
 113 0004 0400     		.2byte	0x4
 114 0006 00000000 		.4byte	.Ldebug_abbrev0
ARM GAS  /tmp/ccudzU1t.s 			page 3


 115 000a 04       		.byte	0x4
 116 000b 01       		.uleb128 0x1
 117 000c 80000000 		.4byte	.LASF119
 118 0010 0C       		.byte	0xc
 119 0011 40040000 		.4byte	.LASF120
 120 0015 B3040000 		.4byte	.LASF121
 121 0019 00000000 		.4byte	.Ldebug_ranges0+0
 122 001d 00000000 		.4byte	0
 123 0021 00000000 		.4byte	.Ldebug_line0
 124 0025 02       		.uleb128 0x2
 125 0026 04       		.byte	0x4
 126 0027 05       		.byte	0x5
 127 0028 696E7400 		.ascii	"int\000"
 128 002c 03       		.uleb128 0x3
 129 002d 04       		.byte	0x4
 130 002e 07       		.byte	0x7
 131 002f 7E020000 		.4byte	.LASF0
 132 0033 03       		.uleb128 0x3
 133 0034 08       		.byte	0x8
 134 0035 05       		.byte	0x5
 135 0036 E6010000 		.4byte	.LASF1
 136 003a 03       		.uleb128 0x3
 137 003b 08       		.byte	0x8
 138 003c 04       		.byte	0x4
 139 003d 98030000 		.4byte	.LASF2
 140 0041 03       		.uleb128 0x3
 141 0042 01       		.byte	0x1
 142 0043 06       		.byte	0x6
 143 0044 F4010000 		.4byte	.LASF3
 144 0048 04       		.uleb128 0x4
 145 0049 45000000 		.4byte	.LASF7
 146 004d 02       		.byte	0x2
 147 004e 1D       		.byte	0x1d
 148 004f 53000000 		.4byte	0x53
 149 0053 03       		.uleb128 0x3
 150 0054 01       		.byte	0x1
 151 0055 08       		.byte	0x8
 152 0056 2A040000 		.4byte	.LASF4
 153 005a 03       		.uleb128 0x3
 154 005b 02       		.byte	0x2
 155 005c 05       		.byte	0x5
 156 005d 67040000 		.4byte	.LASF5
 157 0061 03       		.uleb128 0x3
 158 0062 02       		.byte	0x2
 159 0063 07       		.byte	0x7
 160 0064 AC020000 		.4byte	.LASF6
 161 0068 04       		.uleb128 0x4
 162 0069 31030000 		.4byte	.LASF8
 163 006d 02       		.byte	0x2
 164 006e 3F       		.byte	0x3f
 165 006f 73000000 		.4byte	0x73
 166 0073 03       		.uleb128 0x3
 167 0074 04       		.byte	0x4
 168 0075 05       		.byte	0x5
 169 0076 16020000 		.4byte	.LASF9
 170 007a 04       		.uleb128 0x4
 171 007b 36020000 		.4byte	.LASF10
ARM GAS  /tmp/ccudzU1t.s 			page 4


 172 007f 02       		.byte	0x2
 173 0080 41       		.byte	0x41
 174 0081 85000000 		.4byte	0x85
 175 0085 03       		.uleb128 0x3
 176 0086 04       		.byte	0x4
 177 0087 07       		.byte	0x7
 178 0088 13050000 		.4byte	.LASF11
 179 008c 04       		.uleb128 0x4
 180 008d CF030000 		.4byte	.LASF12
 181 0091 02       		.byte	0x2
 182 0092 5B       		.byte	0x5b
 183 0093 97000000 		.4byte	0x97
 184 0097 03       		.uleb128 0x3
 185 0098 08       		.byte	0x8
 186 0099 07       		.byte	0x7
 187 009a 7D010000 		.4byte	.LASF13
 188 009e 04       		.uleb128 0x4
 189 009f BC050000 		.4byte	.LASF14
 190 00a3 03       		.byte	0x3
 191 00a4 18       		.byte	0x18
 192 00a5 48000000 		.4byte	0x48
 193 00a9 04       		.uleb128 0x4
 194 00aa 22040000 		.4byte	.LASF15
 195 00ae 03       		.byte	0x3
 196 00af 2C       		.byte	0x2c
 197 00b0 68000000 		.4byte	0x68
 198 00b4 04       		.uleb128 0x4
 199 00b5 86050000 		.4byte	.LASF16
 200 00b9 03       		.byte	0x3
 201 00ba 30       		.byte	0x30
 202 00bb 7A000000 		.4byte	0x7a
 203 00bf 04       		.uleb128 0x4
 204 00c0 2F000000 		.4byte	.LASF17
 205 00c4 03       		.byte	0x3
 206 00c5 3C       		.byte	0x3c
 207 00c6 8C000000 		.4byte	0x8c
 208 00ca 04       		.uleb128 0x4
 209 00cb 7E050000 		.4byte	.LASF18
 210 00cf 04       		.byte	0x4
 211 00d0 27       		.byte	0x27
 212 00d1 B4000000 		.4byte	0xb4
 213 00d5 04       		.uleb128 0x4
 214 00d6 DD010000 		.4byte	.LASF19
 215 00da 04       		.byte	0x4
 216 00db 28       		.byte	0x28
 217 00dc BF000000 		.4byte	0xbf
 218 00e0 04       		.uleb128 0x4
 219 00e1 04030000 		.4byte	.LASF20
 220 00e5 04       		.byte	0x4
 221 00e6 2A       		.byte	0x2a
 222 00e7 9E000000 		.4byte	0x9e
 223 00eb 04       		.uleb128 0x4
 224 00ec 1F020000 		.4byte	.LASF21
 225 00f0 04       		.byte	0x4
 226 00f1 2B       		.byte	0x2b
 227 00f2 9E000000 		.4byte	0x9e
 228 00f6 04       		.uleb128 0x4
ARM GAS  /tmp/ccudzU1t.s 			page 5


 229 00f7 E5030000 		.4byte	.LASF22
 230 00fb 04       		.byte	0x4
 231 00fc 2C       		.byte	0x2c
 232 00fd 9E000000 		.4byte	0x9e
 233 0101 04       		.uleb128 0x4
 234 0102 0B040000 		.4byte	.LASF23
 235 0106 04       		.byte	0x4
 236 0107 2E       		.byte	0x2e
 237 0108 B4000000 		.4byte	0xb4
 238 010c 04       		.uleb128 0x4
 239 010d DD020000 		.4byte	.LASF24
 240 0111 04       		.byte	0x4
 241 0112 2F       		.byte	0x2f
 242 0113 A9000000 		.4byte	0xa9
 243 0117 04       		.uleb128 0x4
 244 0118 25030000 		.4byte	.LASF25
 245 011c 04       		.byte	0x4
 246 011d 31       		.byte	0x31
 247 011e B4000000 		.4byte	0xb4
 248 0122 04       		.uleb128 0x4
 249 0123 78020000 		.4byte	.LASF26
 250 0127 04       		.byte	0x4
 251 0128 33       		.byte	0x33
 252 0129 A9000000 		.4byte	0xa9
 253 012d 04       		.uleb128 0x4
 254 012e E8020000 		.4byte	.LASF27
 255 0132 04       		.byte	0x4
 256 0133 34       		.byte	0x34
 257 0134 B4000000 		.4byte	0xb4
 258 0138 04       		.uleb128 0x4
 259 0139 3F050000 		.4byte	.LASF28
 260 013d 05       		.byte	0x5
 261 013e 34       		.byte	0x34
 262 013f 43010000 		.4byte	0x143
 263 0143 05       		.uleb128 0x5
 264 0144 D3020000 		.4byte	.LASF47
 265 0148 60       		.byte	0x60
 266 0149 06       		.byte	0x6
 267 014a 8E       		.byte	0x8e
 268 014b 2E020000 		.4byte	0x22e
 269 014f 06       		.uleb128 0x6
 270 0150 A0020000 		.4byte	.LASF29
 271 0154 06       		.byte	0x6
 272 0155 8F       		.byte	0x8f
 273 0156 63020000 		.4byte	0x263
 274 015a 00       		.byte	0
 275 015b 06       		.uleb128 0x6
 276 015c C2030000 		.4byte	.LASF30
 277 0160 06       		.byte	0x6
 278 0161 90       		.byte	0x90
 279 0162 01010000 		.4byte	0x101
 280 0166 08       		.byte	0x8
 281 0167 07       		.uleb128 0x7
 282 0168 63747800 		.ascii	"ctx\000"
 283 016c 06       		.byte	0x6
 284 016d 91       		.byte	0x91
 285 016e 7E040000 		.4byte	0x47e
ARM GAS  /tmp/ccudzU1t.s 			page 6


 286 0172 0C       		.byte	0xc
 287 0173 06       		.uleb128 0x6
 288 0174 4E030000 		.4byte	.LASF31
 289 0178 06       		.byte	0x6
 290 0179 93       		.byte	0x93
 291 017a 39020000 		.4byte	0x239
 292 017e 10       		.byte	0x10
 293 017f 06       		.uleb128 0x6
 294 0180 31050000 		.4byte	.LASF32
 295 0184 06       		.byte	0x6
 296 0185 94       		.byte	0x94
 297 0186 39020000 		.4byte	0x239
 298 018a 14       		.byte	0x14
 299 018b 06       		.uleb128 0x6
 300 018c CE020000 		.4byte	.LASF33
 301 0190 06       		.byte	0x6
 302 0191 9B       		.byte	0x9b
 303 0192 64070000 		.4byte	0x764
 304 0196 18       		.byte	0x18
 305 0197 06       		.uleb128 0x6
 306 0198 25050000 		.4byte	.LASF34
 307 019c 06       		.byte	0x6
 308 019d A4       		.byte	0xa4
 309 019e 76070000 		.4byte	0x776
 310 01a2 1C       		.byte	0x1c
 311 01a3 06       		.uleb128 0x6
 312 01a4 10020000 		.4byte	.LASF35
 313 01a8 06       		.byte	0x6
 314 01a9 A9       		.byte	0xa9
 315 01aa EB000000 		.4byte	0xeb
 316 01ae 20       		.byte	0x20
 317 01af 06       		.uleb128 0x6
 318 01b0 C4050000 		.4byte	.LASF36
 319 01b4 06       		.byte	0x6
 320 01b5 AD       		.byte	0xad
 321 01b6 E0000000 		.4byte	0xe0
 322 01ba 21       		.byte	0x21
 323 01bb 06       		.uleb128 0x6
 324 01bc ED030000 		.4byte	.LASF37
 325 01c0 06       		.byte	0x6
 326 01c1 B2       		.byte	0xb2
 327 01c2 F6000000 		.4byte	0xf6
 328 01c6 22       		.byte	0x22
 329 01c7 08       		.uleb128 0x8
 330 01c8 7500     		.ascii	"u\000"
 331 01ca 06       		.byte	0x6
 332 01cb 0301     		.2byte	0x103
 333 01cd 9A060000 		.4byte	0x69a
 334 01d1 24       		.byte	0x24
 335 01d2 09       		.uleb128 0x9
 336 01d3 5A020000 		.4byte	.LASF38
 337 01d7 06       		.byte	0x6
 338 01d8 0801     		.2byte	0x108
 339 01da 3F020000 		.4byte	0x23f
 340 01de 28       		.byte	0x28
 341 01df 09       		.uleb128 0x9
 342 01e0 07020000 		.4byte	.LASF39
ARM GAS  /tmp/ccudzU1t.s 			page 7


 343 01e4 06       		.byte	0x6
 344 01e5 0E01     		.2byte	0x10e
 345 01e7 63020000 		.4byte	0x263
 346 01eb 2C       		.byte	0x2c
 347 01ec 09       		.uleb128 0x9
 348 01ed EF020000 		.4byte	.LASF40
 349 01f1 06       		.byte	0x6
 350 01f2 1401     		.2byte	0x114
 351 01f4 17010000 		.4byte	0x117
 352 01f8 34       		.byte	0x34
 353 01f9 09       		.uleb128 0x9
 354 01fa EF050000 		.4byte	.LASF41
 355 01fe 06       		.byte	0x6
 356 01ff 1B01     		.2byte	0x11b
 357 0201 5E070000 		.4byte	0x75e
 358 0205 38       		.byte	0x38
 359 0206 09       		.uleb128 0x9
 360 0207 5C030000 		.4byte	.LASF42
 361 020b 06       		.byte	0x6
 362 020c 1F01     		.2byte	0x11f
 363 020e 01010000 		.4byte	0x101
 364 0212 3C       		.byte	0x3c
 365 0213 09       		.uleb128 0x9
 366 0214 A6020000 		.4byte	.LASF43
 367 0218 06       		.byte	0x6
 368 0219 2601     		.2byte	0x126
 369 021b 16030000 		.4byte	0x316
 370 021f 40       		.byte	0x40
 371 0220 09       		.uleb128 0x9
 372 0221 30020000 		.4byte	.LASF44
 373 0225 06       		.byte	0x6
 374 0226 2C01     		.2byte	0x12c
 375 0228 4B060000 		.4byte	0x64b
 376 022c 48       		.byte	0x48
 377 022d 00       		.byte	0
 378 022e 04       		.uleb128 0x4
 379 022f 6E030000 		.4byte	.LASF45
 380 0233 05       		.byte	0x5
 381 0234 39       		.byte	0x39
 382 0235 39020000 		.4byte	0x239
 383 0239 0A       		.uleb128 0xa
 384 023a 04       		.byte	0x4
 385 023b 38010000 		.4byte	0x138
 386 023f 04       		.uleb128 0x4
 387 0240 D1050000 		.4byte	.LASF46
 388 0244 05       		.byte	0x5
 389 0245 3E       		.byte	0x3e
 390 0246 4A020000 		.4byte	0x24a
 391 024a 05       		.uleb128 0x5
 392 024b FD040000 		.4byte	.LASF48
 393 024f 04       		.byte	0x4
 394 0250 06       		.byte	0x6
 395 0251 7C       		.byte	0x7c
 396 0252 63020000 		.4byte	0x263
 397 0256 06       		.uleb128 0x6
 398 0257 D8010000 		.4byte	.LASF49
 399 025b 06       		.byte	0x6
ARM GAS  /tmp/ccudzU1t.s 			page 8


 400 025c 7D       		.byte	0x7d
 401 025d 39020000 		.4byte	0x239
 402 0261 00       		.byte	0
 403 0262 00       		.byte	0
 404 0263 04       		.uleb128 0x4
 405 0264 8F050000 		.4byte	.LASF50
 406 0268 05       		.byte	0x5
 407 0269 45       		.byte	0x45
 408 026a 6E020000 		.4byte	0x26e
 409 026e 05       		.uleb128 0x5
 410 026f 60000000 		.4byte	.LASF51
 411 0273 08       		.byte	0x8
 412 0274 06       		.byte	0x6
 413 0275 83       		.byte	0x83
 414 0276 93020000 		.4byte	0x293
 415 027a 06       		.uleb128 0x6
 416 027b D8010000 		.4byte	.LASF49
 417 027f 06       		.byte	0x6
 418 0280 84       		.byte	0x84
 419 0281 39020000 		.4byte	0x239
 420 0285 00       		.byte	0
 421 0286 06       		.uleb128 0x6
 422 0287 4F000000 		.4byte	.LASF52
 423 028b 06       		.byte	0x6
 424 028c 85       		.byte	0x85
 425 028d 39020000 		.4byte	0x239
 426 0291 04       		.byte	0x4
 427 0292 00       		.byte	0
 428 0293 04       		.uleb128 0x4
 429 0294 00000000 		.4byte	.LASF53
 430 0298 05       		.byte	0x5
 431 0299 4C       		.byte	0x4c
 432 029a 9E020000 		.4byte	0x29e
 433 029e 0B       		.uleb128 0xb
 434 029f 17030000 		.4byte	.LASF54
 435 02a3 1C       		.byte	0x1c
 436 02a4 06       		.byte	0x6
 437 02a5 5E01     		.2byte	0x15e
 438 02a7 FA020000 		.4byte	0x2fa
 439 02ab 09       		.uleb128 0x9
 440 02ac A0020000 		.4byte	.LASF29
 441 02b0 06       		.byte	0x6
 442 02b1 5F01     		.2byte	0x15f
 443 02b3 63020000 		.4byte	0x263
 444 02b7 00       		.byte	0
 445 02b8 09       		.uleb128 0x9
 446 02b9 C2030000 		.4byte	.LASF30
 447 02bd 06       		.byte	0x6
 448 02be 6001     		.2byte	0x160
 449 02c0 01010000 		.4byte	0x101
 450 02c4 08       		.byte	0x8
 451 02c5 08       		.uleb128 0x8
 452 02c6 63747800 		.ascii	"ctx\000"
 453 02ca 06       		.byte	0x6
 454 02cb 6201     		.2byte	0x162
 455 02cd 7E040000 		.4byte	0x47e
 456 02d1 0C       		.byte	0xc
ARM GAS  /tmp/ccudzU1t.s 			page 9


 457 02d2 09       		.uleb128 0x9
 458 02d3 4E030000 		.4byte	.LASF31
 459 02d7 06       		.byte	0x6
 460 02d8 6501     		.2byte	0x165
 461 02da 39020000 		.4byte	0x239
 462 02de 10       		.byte	0x10
 463 02df 09       		.uleb128 0x9
 464 02e0 31050000 		.4byte	.LASF32
 465 02e4 06       		.byte	0x6
 466 02e5 6601     		.2byte	0x166
 467 02e7 39020000 		.4byte	0x239
 468 02eb 14       		.byte	0x14
 469 02ec 09       		.uleb128 0x9
 470 02ed C7030000 		.4byte	.LASF55
 471 02f1 06       		.byte	0x6
 472 02f2 6901     		.2byte	0x169
 473 02f4 39020000 		.4byte	0x239
 474 02f8 18       		.byte	0x18
 475 02f9 00       		.byte	0
 476 02fa 04       		.uleb128 0x4
 477 02fb 57050000 		.4byte	.LASF56
 478 02ff 05       		.byte	0x5
 479 0300 51       		.byte	0x51
 480 0301 05030000 		.4byte	0x305
 481 0305 0A       		.uleb128 0xa
 482 0306 04       		.byte	0x4
 483 0307 0B030000 		.4byte	0x30b
 484 030b 0C       		.uleb128 0xc
 485 030c 16030000 		.4byte	0x316
 486 0310 0D       		.uleb128 0xd
 487 0311 16030000 		.4byte	0x316
 488 0315 00       		.byte	0
 489 0316 0E       		.uleb128 0xe
 490 0317 04       		.byte	0x4
 491 0318 04       		.uleb128 0x4
 492 0319 F2030000 		.4byte	.LASF57
 493 031d 05       		.byte	0x5
 494 031e 56       		.byte	0x56
 495 031f 23030000 		.4byte	0x323
 496 0323 0B       		.uleb128 0xb
 497 0324 95040000 		.4byte	.LASF58
 498 0328 14       		.byte	0x14
 499 0329 06       		.byte	0x6
 500 032a 3901     		.2byte	0x139
 501 032c 72030000 		.4byte	0x372
 502 0330 09       		.uleb128 0x9
 503 0331 D8010000 		.4byte	.LASF49
 504 0335 06       		.byte	0x6
 505 0336 3A01     		.2byte	0x13a
 506 0338 7C070000 		.4byte	0x77c
 507 033c 00       		.byte	0
 508 033d 09       		.uleb128 0x9
 509 033e 4F000000 		.4byte	.LASF52
 510 0342 06       		.byte	0x6
 511 0343 3B01     		.2byte	0x13b
 512 0345 7C070000 		.4byte	0x77c
 513 0349 04       		.byte	0x4
ARM GAS  /tmp/ccudzU1t.s 			page 10


 514 034a 09       		.uleb128 0x9
 515 034b 22000000 		.4byte	.LASF59
 516 034f 06       		.byte	0x6
 517 0350 3C01     		.2byte	0x13c
 518 0352 56040000 		.4byte	0x456
 519 0356 08       		.byte	0x8
 520 0357 09       		.uleb128 0x9
 521 0358 D3010000 		.4byte	.LASF60
 522 035c 06       		.byte	0x6
 523 035d 3D01     		.2byte	0x13d
 524 035f FA020000 		.4byte	0x2fa
 525 0363 0C       		.byte	0xc
 526 0364 08       		.uleb128 0x8
 527 0365 70617200 		.ascii	"par\000"
 528 0369 06       		.byte	0x6
 529 036a 3F01     		.2byte	0x13f
 530 036c 16030000 		.4byte	0x316
 531 0370 10       		.byte	0x10
 532 0371 00       		.byte	0
 533 0372 04       		.uleb128 0x4
 534 0373 B0010000 		.4byte	.LASF61
 535 0377 05       		.byte	0x5
 536 0378 5B       		.byte	0x5b
 537 0379 7D030000 		.4byte	0x37d
 538 037d 0B       		.uleb128 0xb
 539 037e 81030000 		.4byte	.LASF62
 540 0382 10       		.byte	0x10
 541 0383 06       		.byte	0x6
 542 0384 4901     		.2byte	0x149
 543 0386 BF030000 		.4byte	0x3bf
 544 038a 09       		.uleb128 0x9
 545 038b D8010000 		.4byte	.LASF49
 546 038f 06       		.byte	0x6
 547 0390 4A01     		.2byte	0x14a
 548 0392 7C070000 		.4byte	0x77c
 549 0396 00       		.byte	0
 550 0397 09       		.uleb128 0x9
 551 0398 4F000000 		.4byte	.LASF52
 552 039c 06       		.byte	0x6
 553 039d 4C01     		.2byte	0x14c
 554 039f 7C070000 		.4byte	0x77c
 555 03a3 04       		.byte	0x4
 556 03a4 09       		.uleb128 0x9
 557 03a5 22000000 		.4byte	.LASF59
 558 03a9 06       		.byte	0x6
 559 03aa 4E01     		.2byte	0x14e
 560 03ac 56040000 		.4byte	0x456
 561 03b0 08       		.byte	0x8
 562 03b1 09       		.uleb128 0x9
 563 03b2 71040000 		.4byte	.LASF63
 564 03b6 06       		.byte	0x6
 565 03b7 5601     		.2byte	0x156
 566 03b9 4B040000 		.4byte	0x44b
 567 03bd 0C       		.byte	0xc
 568 03be 00       		.byte	0
 569 03bf 04       		.uleb128 0x4
 570 03c0 71000000 		.4byte	.LASF64
ARM GAS  /tmp/ccudzU1t.s 			page 11


 571 03c4 05       		.byte	0x5
 572 03c5 60       		.byte	0x60
 573 03c6 CA030000 		.4byte	0x3ca
 574 03ca 0B       		.uleb128 0xb
 575 03cb 4A020000 		.4byte	.LASF65
 576 03cf 04       		.byte	0x4
 577 03d0 06       		.byte	0x6
 578 03d1 7001     		.2byte	0x170
 579 03d3 E5030000 		.4byte	0x3e5
 580 03d7 09       		.uleb128 0x9
 581 03d8 60050000 		.4byte	.LASF66
 582 03dc 06       		.byte	0x6
 583 03dd 7801     		.2byte	0x178
 584 03df 82070000 		.4byte	0x782
 585 03e3 00       		.byte	0
 586 03e4 00       		.byte	0
 587 03e5 04       		.uleb128 0x4
 588 03e6 F8020000 		.4byte	.LASF67
 589 03ea 05       		.byte	0x5
 590 03eb 65       		.byte	0x65
 591 03ec F0030000 		.4byte	0x3f0
 592 03f0 0B       		.uleb128 0xb
 593 03f1 8B040000 		.4byte	.LASF68
 594 03f5 D0       		.byte	0xd0
 595 03f6 06       		.byte	0x6
 596 03f7 9001     		.2byte	0x190
 597 03f9 4B040000 		.4byte	0x44b
 598 03fd 09       		.uleb128 0x9
 599 03fe B6050000 		.4byte	.LASF69
 600 0402 06       		.byte	0x6
 601 0403 9401     		.2byte	0x194
 602 0405 93020000 		.4byte	0x293
 603 0409 00       		.byte	0
 604 040a 09       		.uleb128 0x9
 605 040b 00020000 		.4byte	.LASF70
 606 040f 06       		.byte	0x6
 607 0410 9801     		.2byte	0x198
 608 0412 72030000 		.4byte	0x372
 609 0416 1C       		.byte	0x1c
 610 0417 08       		.uleb128 0x8
 611 0418 64626700 		.ascii	"dbg\000"
 612 041c 06       		.byte	0x6
 613 041d 9C01     		.2byte	0x19c
 614 041f BF030000 		.4byte	0x3bf
 615 0423 2C       		.byte	0x2c
 616 0424 09       		.uleb128 0x9
 617 0425 9D010000 		.4byte	.LASF71
 618 0429 06       		.byte	0x6
 619 042a A001     		.2byte	0x1a0
 620 042c 38010000 		.4byte	0x138
 621 0430 30       		.byte	0x30
 622 0431 08       		.uleb128 0x8
 623 0432 746D00   		.ascii	"tm\000"
 624 0435 06       		.byte	0x6
 625 0436 A501     		.2byte	0x1a5
 626 0438 FD050000 		.4byte	0x5fd
 627 043c 90       		.byte	0x90
ARM GAS  /tmp/ccudzU1t.s 			page 12


 628 043d 09       		.uleb128 0x9
 629 043e 38000000 		.4byte	.LASF72
 630 0442 06       		.byte	0x6
 631 0443 AB01     		.2byte	0x1ab
 632 0445 8F060000 		.4byte	0x68f
 633 0449 98       		.byte	0x98
 634 044a 00       		.byte	0
 635 044b 04       		.uleb128 0x4
 636 044c 4D050000 		.4byte	.LASF73
 637 0450 07       		.byte	0x7
 638 0451 6D       		.byte	0x6d
 639 0452 B4000000 		.4byte	0xb4
 640 0456 04       		.uleb128 0x4
 641 0457 6A020000 		.4byte	.LASF74
 642 045b 07       		.byte	0x7
 643 045c 79       		.byte	0x79
 644 045d B4000000 		.4byte	0xb4
 645 0461 03       		.uleb128 0x3
 646 0462 04       		.byte	0x4
 647 0463 07       		.byte	0x7
 648 0464 65030000 		.4byte	.LASF75
 649 0468 04       		.uleb128 0x4
 650 0469 41020000 		.4byte	.LASF76
 651 046d 08       		.byte	0x8
 652 046e 65       		.byte	0x65
 653 046f 16030000 		.4byte	0x316
 654 0473 04       		.uleb128 0x4
 655 0474 43030000 		.4byte	.LASF77
 656 0478 08       		.byte	0x8
 657 0479 6D       		.byte	0x6d
 658 047a BF000000 		.4byte	0xbf
 659 047e 05       		.uleb128 0x5
 660 047f A4030000 		.4byte	.LASF78
 661 0483 04       		.byte	0x4
 662 0484 08       		.byte	0x8
 663 0485 89       		.byte	0x89
 664 0486 96040000 		.4byte	0x496
 665 048a 07       		.uleb128 0x7
 666 048b 737000   		.ascii	"sp\000"
 667 048e 08       		.byte	0x8
 668 048f 8A       		.byte	0x8a
 669 0490 E2050000 		.4byte	0x5e2
 670 0494 00       		.byte	0
 671 0495 00       		.byte	0
 672 0496 0B       		.uleb128 0xb
 673 0497 54000000 		.4byte	.LASF79
 674 049b 64       		.byte	0x64
 675 049c 09       		.byte	0x9
 676 049d 5901     		.2byte	0x159
 677 049f E2050000 		.4byte	0x5e2
 678 04a3 08       		.uleb128 0x8
 679 04a4 73313600 		.ascii	"s16\000"
 680 04a8 09       		.byte	0x9
 681 04a9 5B01     		.2byte	0x15b
 682 04ab 68040000 		.4byte	0x468
 683 04af 00       		.byte	0
 684 04b0 08       		.uleb128 0x8
ARM GAS  /tmp/ccudzU1t.s 			page 13


 685 04b1 73313700 		.ascii	"s17\000"
 686 04b5 09       		.byte	0x9
 687 04b6 5C01     		.2byte	0x15c
 688 04b8 68040000 		.4byte	0x468
 689 04bc 04       		.byte	0x4
 690 04bd 08       		.uleb128 0x8
 691 04be 73313800 		.ascii	"s18\000"
 692 04c2 09       		.byte	0x9
 693 04c3 5D01     		.2byte	0x15d
 694 04c5 68040000 		.4byte	0x468
 695 04c9 08       		.byte	0x8
 696 04ca 08       		.uleb128 0x8
 697 04cb 73313900 		.ascii	"s19\000"
 698 04cf 09       		.byte	0x9
 699 04d0 5E01     		.2byte	0x15e
 700 04d2 68040000 		.4byte	0x468
 701 04d6 0C       		.byte	0xc
 702 04d7 08       		.uleb128 0x8
 703 04d8 73323000 		.ascii	"s20\000"
 704 04dc 09       		.byte	0x9
 705 04dd 5F01     		.2byte	0x15f
 706 04df 68040000 		.4byte	0x468
 707 04e3 10       		.byte	0x10
 708 04e4 08       		.uleb128 0x8
 709 04e5 73323100 		.ascii	"s21\000"
 710 04e9 09       		.byte	0x9
 711 04ea 6001     		.2byte	0x160
 712 04ec 68040000 		.4byte	0x468
 713 04f0 14       		.byte	0x14
 714 04f1 08       		.uleb128 0x8
 715 04f2 73323200 		.ascii	"s22\000"
 716 04f6 09       		.byte	0x9
 717 04f7 6101     		.2byte	0x161
 718 04f9 68040000 		.4byte	0x468
 719 04fd 18       		.byte	0x18
 720 04fe 08       		.uleb128 0x8
 721 04ff 73323300 		.ascii	"s23\000"
 722 0503 09       		.byte	0x9
 723 0504 6201     		.2byte	0x162
 724 0506 68040000 		.4byte	0x468
 725 050a 1C       		.byte	0x1c
 726 050b 08       		.uleb128 0x8
 727 050c 73323400 		.ascii	"s24\000"
 728 0510 09       		.byte	0x9
 729 0511 6301     		.2byte	0x163
 730 0513 68040000 		.4byte	0x468
 731 0517 20       		.byte	0x20
 732 0518 08       		.uleb128 0x8
 733 0519 73323500 		.ascii	"s25\000"
 734 051d 09       		.byte	0x9
 735 051e 6401     		.2byte	0x164
 736 0520 68040000 		.4byte	0x468
 737 0524 24       		.byte	0x24
 738 0525 08       		.uleb128 0x8
 739 0526 73323600 		.ascii	"s26\000"
 740 052a 09       		.byte	0x9
 741 052b 6501     		.2byte	0x165
ARM GAS  /tmp/ccudzU1t.s 			page 14


 742 052d 68040000 		.4byte	0x468
 743 0531 28       		.byte	0x28
 744 0532 08       		.uleb128 0x8
 745 0533 73323700 		.ascii	"s27\000"
 746 0537 09       		.byte	0x9
 747 0538 6601     		.2byte	0x166
 748 053a 68040000 		.4byte	0x468
 749 053e 2C       		.byte	0x2c
 750 053f 08       		.uleb128 0x8
 751 0540 73323800 		.ascii	"s28\000"
 752 0544 09       		.byte	0x9
 753 0545 6701     		.2byte	0x167
 754 0547 68040000 		.4byte	0x468
 755 054b 30       		.byte	0x30
 756 054c 08       		.uleb128 0x8
 757 054d 73323900 		.ascii	"s29\000"
 758 0551 09       		.byte	0x9
 759 0552 6801     		.2byte	0x168
 760 0554 68040000 		.4byte	0x468
 761 0558 34       		.byte	0x34
 762 0559 08       		.uleb128 0x8
 763 055a 73333000 		.ascii	"s30\000"
 764 055e 09       		.byte	0x9
 765 055f 6901     		.2byte	0x169
 766 0561 68040000 		.4byte	0x468
 767 0565 38       		.byte	0x38
 768 0566 08       		.uleb128 0x8
 769 0567 73333100 		.ascii	"s31\000"
 770 056b 09       		.byte	0x9
 771 056c 6A01     		.2byte	0x16a
 772 056e 68040000 		.4byte	0x468
 773 0572 3C       		.byte	0x3c
 774 0573 08       		.uleb128 0x8
 775 0574 723400   		.ascii	"r4\000"
 776 0577 09       		.byte	0x9
 777 0578 6C01     		.2byte	0x16c
 778 057a 68040000 		.4byte	0x468
 779 057e 40       		.byte	0x40
 780 057f 08       		.uleb128 0x8
 781 0580 723500   		.ascii	"r5\000"
 782 0583 09       		.byte	0x9
 783 0584 6D01     		.2byte	0x16d
 784 0586 68040000 		.4byte	0x468
 785 058a 44       		.byte	0x44
 786 058b 08       		.uleb128 0x8
 787 058c 723600   		.ascii	"r6\000"
 788 058f 09       		.byte	0x9
 789 0590 6E01     		.2byte	0x16e
 790 0592 68040000 		.4byte	0x468
 791 0596 48       		.byte	0x48
 792 0597 08       		.uleb128 0x8
 793 0598 723700   		.ascii	"r7\000"
 794 059b 09       		.byte	0x9
 795 059c 6F01     		.2byte	0x16f
 796 059e 68040000 		.4byte	0x468
 797 05a2 4C       		.byte	0x4c
 798 05a3 08       		.uleb128 0x8
ARM GAS  /tmp/ccudzU1t.s 			page 15


 799 05a4 723800   		.ascii	"r8\000"
 800 05a7 09       		.byte	0x9
 801 05a8 7001     		.2byte	0x170
 802 05aa 68040000 		.4byte	0x468
 803 05ae 50       		.byte	0x50
 804 05af 08       		.uleb128 0x8
 805 05b0 723900   		.ascii	"r9\000"
 806 05b3 09       		.byte	0x9
 807 05b4 7101     		.2byte	0x171
 808 05b6 68040000 		.4byte	0x468
 809 05ba 54       		.byte	0x54
 810 05bb 08       		.uleb128 0x8
 811 05bc 72313000 		.ascii	"r10\000"
 812 05c0 09       		.byte	0x9
 813 05c1 7201     		.2byte	0x172
 814 05c3 68040000 		.4byte	0x468
 815 05c7 58       		.byte	0x58
 816 05c8 08       		.uleb128 0x8
 817 05c9 72313100 		.ascii	"r11\000"
 818 05cd 09       		.byte	0x9
 819 05ce 7301     		.2byte	0x173
 820 05d0 68040000 		.4byte	0x468
 821 05d4 5C       		.byte	0x5c
 822 05d5 08       		.uleb128 0x8
 823 05d6 6C7200   		.ascii	"lr\000"
 824 05d9 09       		.byte	0x9
 825 05da 7401     		.2byte	0x174
 826 05dc 68040000 		.4byte	0x468
 827 05e0 60       		.byte	0x60
 828 05e1 00       		.byte	0
 829 05e2 0A       		.uleb128 0xa
 830 05e3 04       		.byte	0x4
 831 05e4 96040000 		.4byte	0x496
 832 05e8 0F       		.uleb128 0xf
 833 05e9 04       		.byte	0x4
 834 05ea 0A       		.byte	0xa
 835 05eb 38       		.byte	0x38
 836 05ec FD050000 		.4byte	0x5fd
 837 05f0 06       		.uleb128 0x6
 838 05f1 6A050000 		.4byte	.LASF80
 839 05f5 0A       		.byte	0xa
 840 05f6 3C       		.byte	0x3c
 841 05f7 CA000000 		.4byte	0xca
 842 05fb 00       		.byte	0
 843 05fc 00       		.byte	0
 844 05fd 04       		.uleb128 0x4
 845 05fe B1030000 		.4byte	.LASF81
 846 0602 0A       		.byte	0xa
 847 0603 3D       		.byte	0x3d
 848 0604 E8050000 		.4byte	0x5e8
 849 0608 0F       		.uleb128 0xf
 850 0609 18       		.byte	0x18
 851 060a 0A       		.byte	0xa
 852 060b 48       		.byte	0x48
 853 060c 4B060000 		.4byte	0x64b
 854 0610 06       		.uleb128 0x6
 855 0611 48050000 		.4byte	.LASF82
ARM GAS  /tmp/ccudzU1t.s 			page 16


 856 0615 0A       		.byte	0xa
 857 0616 49       		.byte	0x49
 858 0617 CA000000 		.4byte	0xca
 859 061b 00       		.byte	0
 860 061c 06       		.uleb128 0x6
 861 061d 64010000 		.4byte	.LASF83
 862 0621 0A       		.byte	0xa
 863 0622 4A       		.byte	0x4a
 864 0623 CA000000 		.4byte	0xca
 865 0627 04       		.byte	0x4
 866 0628 06       		.uleb128 0x6
 867 0629 E3020000 		.4byte	.LASF84
 868 062d 0A       		.byte	0xa
 869 062e 4B       		.byte	0x4b
 870 062f CA000000 		.4byte	0xca
 871 0633 08       		.byte	0x8
 872 0634 07       		.uleb128 0x7
 873 0635 6E00     		.ascii	"n\000"
 874 0637 0A       		.byte	0xa
 875 0638 4C       		.byte	0x4c
 876 0639 2D010000 		.4byte	0x12d
 877 063d 0C       		.byte	0xc
 878 063e 06       		.uleb128 0x6
 879 063f DA030000 		.4byte	.LASF85
 880 0643 0A       		.byte	0xa
 881 0644 4D       		.byte	0x4d
 882 0645 D5000000 		.4byte	0xd5
 883 0649 10       		.byte	0x10
 884 064a 00       		.byte	0
 885 064b 04       		.uleb128 0x4
 886 064c 6A010000 		.4byte	.LASF86
 887 0650 0A       		.byte	0xa
 888 0651 4E       		.byte	0x4e
 889 0652 08060000 		.4byte	0x608
 890 0656 0F       		.uleb128 0xf
 891 0657 38       		.byte	0x38
 892 0658 0B       		.byte	0xb
 893 0659 38       		.byte	0x38
 894 065a 8F060000 		.4byte	0x68f
 895 065e 06       		.uleb128 0x6
 896 065f 9A020000 		.4byte	.LASF87
 897 0663 0B       		.byte	0xb
 898 0664 39       		.byte	0x39
 899 0665 2D010000 		.4byte	0x12d
 900 0669 00       		.byte	0
 901 066a 06       		.uleb128 0x6
 902 066b 13040000 		.4byte	.LASF88
 903 066f 0B       		.byte	0xb
 904 0670 3A       		.byte	0x3a
 905 0671 2D010000 		.4byte	0x12d
 906 0675 04       		.byte	0x4
 907 0676 06       		.uleb128 0x6
 908 0677 F7050000 		.4byte	.LASF89
 909 067b 0B       		.byte	0xb
 910 067c 3B       		.byte	0x3b
 911 067d 4B060000 		.4byte	0x64b
 912 0681 08       		.byte	0x8
ARM GAS  /tmp/ccudzU1t.s 			page 17


 913 0682 06       		.uleb128 0x6
 914 0683 0C030000 		.4byte	.LASF90
 915 0687 0B       		.byte	0xb
 916 0688 3D       		.byte	0x3d
 917 0689 4B060000 		.4byte	0x64b
 918 068d 20       		.byte	0x20
 919 068e 00       		.byte	0
 920 068f 04       		.uleb128 0x4
 921 0690 BF020000 		.4byte	.LASF91
 922 0694 0B       		.byte	0xb
 923 0695 3F       		.byte	0x3f
 924 0696 56060000 		.4byte	0x656
 925 069a 10       		.uleb128 0x10
 926 069b 04       		.byte	0x4
 927 069c 06       		.byte	0x6
 928 069d C6       		.byte	0xc6
 929 069e FC060000 		.4byte	0x6fc
 930 06a2 11       		.uleb128 0x11
 931 06a3 28000000 		.4byte	.LASF92
 932 06a7 06       		.byte	0x6
 933 06a8 CD       		.byte	0xcd
 934 06a9 0C010000 		.4byte	0x10c
 935 06ad 11       		.uleb128 0x11
 936 06ae 94010000 		.4byte	.LASF93
 937 06b2 06       		.byte	0x6
 938 06b3 D4       		.byte	0xd4
 939 06b4 0C010000 		.4byte	0x10c
 940 06b8 11       		.uleb128 0x11
 941 06b9 CA050000 		.4byte	.LASF94
 942 06bd 06       		.byte	0x6
 943 06be DB       		.byte	0xdb
 944 06bf 16030000 		.4byte	0x316
 945 06c3 11       		.uleb128 0x11
 946 06c4 1C000000 		.4byte	.LASF95
 947 06c8 06       		.byte	0x6
 948 06c9 E2       		.byte	0xe2
 949 06ca FC060000 		.4byte	0x6fc
 950 06ce 11       		.uleb128 0x11
 951 06cf A8010000 		.4byte	.LASF96
 952 06d3 06       		.byte	0x6
 953 06d4 E7       		.byte	0xe7
 954 06d5 0C010000 		.4byte	0x10c
 955 06d9 11       		.uleb128 0x11
 956 06da 8B020000 		.4byte	.LASF97
 957 06de 06       		.byte	0x6
 958 06df F0       		.byte	0xf0
 959 06e0 27070000 		.4byte	0x727
 960 06e4 11       		.uleb128 0x11
 961 06e5 F6040000 		.4byte	.LASF98
 962 06e9 06       		.byte	0x6
 963 06ea F9       		.byte	0xf9
 964 06eb 5E070000 		.4byte	0x75e
 965 06ef 12       		.uleb128 0x12
 966 06f0 84040000 		.4byte	.LASF99
 967 06f4 06       		.byte	0x6
 968 06f5 0101     		.2byte	0x101
 969 06f7 17010000 		.4byte	0x117
ARM GAS  /tmp/ccudzU1t.s 			page 18


 970 06fb 00       		.byte	0
 971 06fc 0A       		.uleb128 0xa
 972 06fd 04       		.byte	0x4
 973 06fe 2E020000 		.4byte	0x22e
 974 0702 05       		.uleb128 0x5
 975 0703 A6040000 		.4byte	.LASF100
 976 0707 0C       		.byte	0xc
 977 0708 0C       		.byte	0xc
 978 0709 34       		.byte	0x34
 979 070a 27070000 		.4byte	0x727
 980 070e 06       		.uleb128 0x6
 981 070f A0020000 		.4byte	.LASF29
 982 0713 0C       		.byte	0xc
 983 0714 35       		.byte	0x35
 984 0715 63020000 		.4byte	0x263
 985 0719 00       		.byte	0
 986 071a 07       		.uleb128 0x7
 987 071b 636E7400 		.ascii	"cnt\000"
 988 071f 0C       		.byte	0xc
 989 0720 37       		.byte	0x37
 990 0721 22010000 		.4byte	0x122
 991 0725 08       		.byte	0x8
 992 0726 00       		.byte	0
 993 0727 0A       		.uleb128 0xa
 994 0728 04       		.byte	0x4
 995 0729 02070000 		.4byte	0x702
 996 072d 05       		.uleb128 0x5
 997 072e 9F050000 		.4byte	.LASF101
 998 0732 10       		.byte	0x10
 999 0733 0D       		.byte	0xd
 1000 0734 39       		.byte	0x39
 1001 0735 5E070000 		.4byte	0x75e
 1002 0739 06       		.uleb128 0x6
 1003 073a A0020000 		.4byte	.LASF29
 1004 073e 0D       		.byte	0xd
 1005 073f 3A       		.byte	0x3a
 1006 0740 63020000 		.4byte	0x263
 1007 0744 00       		.byte	0
 1008 0745 06       		.uleb128 0x6
 1009 0746 0D050000 		.4byte	.LASF102
 1010 074a 0D       		.byte	0xd
 1011 074b 3C       		.byte	0x3c
 1012 074c 39020000 		.4byte	0x239
 1013 0750 08       		.byte	0x8
 1014 0751 06       		.uleb128 0x6
 1015 0752 D8010000 		.4byte	.LASF49
 1016 0756 0D       		.byte	0xd
 1017 0757 3E       		.byte	0x3e
 1018 0758 92070000 		.4byte	0x792
 1019 075c 0C       		.byte	0xc
 1020 075d 00       		.byte	0
 1021 075e 0A       		.uleb128 0xa
 1022 075f 04       		.byte	0x4
 1023 0760 2D070000 		.4byte	0x72d
 1024 0764 0A       		.uleb128 0xa
 1025 0765 04       		.byte	0x4
 1026 0766 71070000 		.4byte	0x771
ARM GAS  /tmp/ccudzU1t.s 			page 19


 1027 076a 03       		.uleb128 0x3
 1028 076b 01       		.byte	0x1
 1029 076c 08       		.byte	0x8
 1030 076d 2C050000 		.4byte	.LASF103
 1031 0771 13       		.uleb128 0x13
 1032 0772 6A070000 		.4byte	0x76a
 1033 0776 0A       		.uleb128 0xa
 1034 0777 04       		.byte	0x4
 1035 0778 73040000 		.4byte	0x473
 1036 077c 0A       		.uleb128 0xa
 1037 077d 04       		.byte	0x4
 1038 077e 18030000 		.4byte	0x318
 1039 0782 14       		.uleb128 0x14
 1040 0783 64070000 		.4byte	0x764
 1041 0787 04       		.uleb128 0x4
 1042 0788 62020000 		.4byte	.LASF104
 1043 078c 0D       		.byte	0xd
 1044 078d 34       		.byte	0x34
 1045 078e 2D070000 		.4byte	0x72d
 1046 0792 0A       		.uleb128 0xa
 1047 0793 04       		.byte	0x4
 1048 0794 87070000 		.4byte	0x787
 1049 0798 03       		.uleb128 0x3
 1050 0799 01       		.byte	0x1
 1051 079a 02       		.byte	0x2
 1052 079b 1C040000 		.4byte	.LASF105
 1053 079f 15       		.uleb128 0x15
 1054 07a0 02040000 		.4byte	.LASF122
 1055 07a4 1A       		.byte	0x1a
 1056 07a5 D301     		.2byte	0x1d3
 1057 07a7 03       		.byte	0x3
 1058 07a8 16       		.uleb128 0x16
 1059 07a9 92020000 		.4byte	.LASF123
 1060 07ad 01       		.byte	0x1
 1061 07ae 38       		.byte	0x38
 1062 07af 00000000 		.4byte	.LFB323
 1063 07b3 36000000 		.4byte	.LFE323-.LFB323
 1064 07b7 01       		.uleb128 0x1
 1065 07b8 9C       		.byte	0x9c
 1066 07b9 2A080000 		.4byte	0x82a
 1067 07bd 17       		.uleb128 0x17
 1068 07be 06000000 		.4byte	.LVL0
 1069 07c2 46080000 		.4byte	0x846
 1070 07c6 17       		.uleb128 0x17
 1071 07c7 0A000000 		.4byte	.LVL1
 1072 07cb 52080000 		.4byte	0x852
 1073 07cf 17       		.uleb128 0x17
 1074 07d0 0E000000 		.4byte	.LVL2
 1075 07d4 5E080000 		.4byte	0x85e
 1076 07d8 17       		.uleb128 0x17
 1077 07d9 12000000 		.4byte	.LVL3
 1078 07dd 6A080000 		.4byte	0x86a
 1079 07e1 17       		.uleb128 0x17
 1080 07e2 16000000 		.4byte	.LVL4
 1081 07e6 75080000 		.4byte	0x875
 1082 07ea 17       		.uleb128 0x17
 1083 07eb 1A000000 		.4byte	.LVL5
ARM GAS  /tmp/ccudzU1t.s 			page 20


 1084 07ef 81080000 		.4byte	0x881
 1085 07f3 17       		.uleb128 0x17
 1086 07f4 1E000000 		.4byte	.LVL6
 1087 07f8 8D080000 		.4byte	0x88d
 1088 07fc 17       		.uleb128 0x17
 1089 07fd 22000000 		.4byte	.LVL7
 1090 0801 98080000 		.4byte	0x898
 1091 0805 17       		.uleb128 0x17
 1092 0806 26000000 		.4byte	.LVL8
 1093 080a A4080000 		.4byte	0x8a4
 1094 080e 17       		.uleb128 0x17
 1095 080f 2A000000 		.4byte	.LVL9
 1096 0813 B0080000 		.4byte	0x8b0
 1097 0817 17       		.uleb128 0x17
 1098 0818 2E000000 		.4byte	.LVL10
 1099 081c BB080000 		.4byte	0x8bb
 1100 0820 18       		.uleb128 0x18
 1101 0821 36000000 		.4byte	.LVL11
 1102 0825 C6080000 		.4byte	0x8c6
 1103 0829 00       		.byte	0
 1104 082a 19       		.uleb128 0x19
 1105 082b C6010000 		.4byte	.LASF106
 1106 082f 1B       		.byte	0x1b
 1107 0830 0408     		.2byte	0x804
 1108 0832 36080000 		.4byte	0x836
 1109 0836 14       		.uleb128 0x14
 1110 0837 A9000000 		.4byte	0xa9
 1111 083b 1A       		.uleb128 0x1a
 1112 083c 636800   		.ascii	"ch\000"
 1113 083f 06       		.byte	0x6
 1114 0840 C701     		.2byte	0x1c7
 1115 0842 E5030000 		.4byte	0x3e5
 1116 0846 1B       		.uleb128 0x1b
 1117 0847 71050000 		.4byte	.LASF107
 1118 084b 71050000 		.4byte	.LASF107
 1119 084f 0E       		.byte	0xe
 1120 0850 A007     		.2byte	0x7a0
 1121 0852 1B       		.uleb128 0x1b
 1122 0853 A8050000 		.4byte	.LASF108
 1123 0857 A8050000 		.4byte	.LASF108
 1124 085b 0F       		.byte	0xf
 1125 085c F201     		.2byte	0x1f2
 1126 085e 1B       		.uleb128 0x1b
 1127 085f 3B030000 		.4byte	.LASF109
 1128 0863 3B030000 		.4byte	.LASF109
 1129 0867 10       		.byte	0x10
 1130 0868 7E01     		.2byte	0x17e
 1131 086a 1C       		.uleb128 0x1c
 1132 086b E0050000 		.4byte	.LASF110
 1133 086f E0050000 		.4byte	.LASF110
 1134 0873 11       		.byte	0x11
 1135 0874 8B       		.byte	0x8b
 1136 0875 1B       		.uleb128 0x1b
 1137 0876 28020000 		.4byte	.LASF111
 1138 087a 28020000 		.4byte	.LASF111
 1139 087e 12       		.byte	0x12
 1140 087f 1F01     		.2byte	0x11f
ARM GAS  /tmp/ccudzU1t.s 			page 21


 1141 0881 1B       		.uleb128 0x1b
 1142 0882 E8050000 		.4byte	.LASF112
 1143 0886 E8050000 		.4byte	.LASF112
 1144 088a 13       		.byte	0x13
 1145 088b 2201     		.2byte	0x122
 1146 088d 1C       		.uleb128 0x1c
 1147 088e 14000000 		.4byte	.LASF113
 1148 0892 14000000 		.4byte	.LASF113
 1149 0896 14       		.byte	0x14
 1150 0897 BA       		.byte	0xba
 1151 0898 1B       		.uleb128 0x1b
 1152 0899 54030000 		.4byte	.LASF114
 1153 089d 54030000 		.4byte	.LASF114
 1154 08a1 15       		.byte	0x15
 1155 08a2 F301     		.2byte	0x1f3
 1156 08a4 1B       		.uleb128 0x1b
 1157 08a5 37050000 		.4byte	.LASF115
 1158 08a9 37050000 		.4byte	.LASF115
 1159 08ad 16       		.byte	0x16
 1160 08ae 5D02     		.2byte	0x25d
 1161 08b0 1C       		.uleb128 0x1c
 1162 08b1 38040000 		.4byte	.LASF116
 1163 08b5 38040000 		.4byte	.LASF116
 1164 08b9 17       		.byte	0x17
 1165 08ba B0       		.byte	0xb0
 1166 08bb 1C       		.uleb128 0x1c
 1167 08bc 7A040000 		.4byte	.LASF117
 1168 08c0 7A040000 		.4byte	.LASF117
 1169 08c4 18       		.byte	0x18
 1170 08c5 26       		.byte	0x26
 1171 08c6 1C       		.uleb128 0x1c
 1172 08c7 0D000000 		.4byte	.LASF118
 1173 08cb 0D000000 		.4byte	.LASF118
 1174 08cf 19       		.byte	0x19
 1175 08d0 56       		.byte	0x56
 1176 08d1 00       		.byte	0
 1177              		.section	.debug_abbrev,"",%progbits
 1178              	.Ldebug_abbrev0:
 1179 0000 01       		.uleb128 0x1
 1180 0001 11       		.uleb128 0x11
 1181 0002 01       		.byte	0x1
 1182 0003 25       		.uleb128 0x25
 1183 0004 0E       		.uleb128 0xe
 1184 0005 13       		.uleb128 0x13
 1185 0006 0B       		.uleb128 0xb
 1186 0007 03       		.uleb128 0x3
 1187 0008 0E       		.uleb128 0xe
 1188 0009 1B       		.uleb128 0x1b
 1189 000a 0E       		.uleb128 0xe
 1190 000b 55       		.uleb128 0x55
 1191 000c 17       		.uleb128 0x17
 1192 000d 11       		.uleb128 0x11
 1193 000e 01       		.uleb128 0x1
 1194 000f 10       		.uleb128 0x10
 1195 0010 17       		.uleb128 0x17
 1196 0011 00       		.byte	0
 1197 0012 00       		.byte	0
ARM GAS  /tmp/ccudzU1t.s 			page 22


 1198 0013 02       		.uleb128 0x2
 1199 0014 24       		.uleb128 0x24
 1200 0015 00       		.byte	0
 1201 0016 0B       		.uleb128 0xb
 1202 0017 0B       		.uleb128 0xb
 1203 0018 3E       		.uleb128 0x3e
 1204 0019 0B       		.uleb128 0xb
 1205 001a 03       		.uleb128 0x3
 1206 001b 08       		.uleb128 0x8
 1207 001c 00       		.byte	0
 1208 001d 00       		.byte	0
 1209 001e 03       		.uleb128 0x3
 1210 001f 24       		.uleb128 0x24
 1211 0020 00       		.byte	0
 1212 0021 0B       		.uleb128 0xb
 1213 0022 0B       		.uleb128 0xb
 1214 0023 3E       		.uleb128 0x3e
 1215 0024 0B       		.uleb128 0xb
 1216 0025 03       		.uleb128 0x3
 1217 0026 0E       		.uleb128 0xe
 1218 0027 00       		.byte	0
 1219 0028 00       		.byte	0
 1220 0029 04       		.uleb128 0x4
 1221 002a 16       		.uleb128 0x16
 1222 002b 00       		.byte	0
 1223 002c 03       		.uleb128 0x3
 1224 002d 0E       		.uleb128 0xe
 1225 002e 3A       		.uleb128 0x3a
 1226 002f 0B       		.uleb128 0xb
 1227 0030 3B       		.uleb128 0x3b
 1228 0031 0B       		.uleb128 0xb
 1229 0032 49       		.uleb128 0x49
 1230 0033 13       		.uleb128 0x13
 1231 0034 00       		.byte	0
 1232 0035 00       		.byte	0
 1233 0036 05       		.uleb128 0x5
 1234 0037 13       		.uleb128 0x13
 1235 0038 01       		.byte	0x1
 1236 0039 03       		.uleb128 0x3
 1237 003a 0E       		.uleb128 0xe
 1238 003b 0B       		.uleb128 0xb
 1239 003c 0B       		.uleb128 0xb
 1240 003d 3A       		.uleb128 0x3a
 1241 003e 0B       		.uleb128 0xb
 1242 003f 3B       		.uleb128 0x3b
 1243 0040 0B       		.uleb128 0xb
 1244 0041 01       		.uleb128 0x1
 1245 0042 13       		.uleb128 0x13
 1246 0043 00       		.byte	0
 1247 0044 00       		.byte	0
 1248 0045 06       		.uleb128 0x6
 1249 0046 0D       		.uleb128 0xd
 1250 0047 00       		.byte	0
 1251 0048 03       		.uleb128 0x3
 1252 0049 0E       		.uleb128 0xe
 1253 004a 3A       		.uleb128 0x3a
 1254 004b 0B       		.uleb128 0xb
ARM GAS  /tmp/ccudzU1t.s 			page 23


 1255 004c 3B       		.uleb128 0x3b
 1256 004d 0B       		.uleb128 0xb
 1257 004e 49       		.uleb128 0x49
 1258 004f 13       		.uleb128 0x13
 1259 0050 38       		.uleb128 0x38
 1260 0051 0B       		.uleb128 0xb
 1261 0052 00       		.byte	0
 1262 0053 00       		.byte	0
 1263 0054 07       		.uleb128 0x7
 1264 0055 0D       		.uleb128 0xd
 1265 0056 00       		.byte	0
 1266 0057 03       		.uleb128 0x3
 1267 0058 08       		.uleb128 0x8
 1268 0059 3A       		.uleb128 0x3a
 1269 005a 0B       		.uleb128 0xb
 1270 005b 3B       		.uleb128 0x3b
 1271 005c 0B       		.uleb128 0xb
 1272 005d 49       		.uleb128 0x49
 1273 005e 13       		.uleb128 0x13
 1274 005f 38       		.uleb128 0x38
 1275 0060 0B       		.uleb128 0xb
 1276 0061 00       		.byte	0
 1277 0062 00       		.byte	0
 1278 0063 08       		.uleb128 0x8
 1279 0064 0D       		.uleb128 0xd
 1280 0065 00       		.byte	0
 1281 0066 03       		.uleb128 0x3
 1282 0067 08       		.uleb128 0x8
 1283 0068 3A       		.uleb128 0x3a
 1284 0069 0B       		.uleb128 0xb
 1285 006a 3B       		.uleb128 0x3b
 1286 006b 05       		.uleb128 0x5
 1287 006c 49       		.uleb128 0x49
 1288 006d 13       		.uleb128 0x13
 1289 006e 38       		.uleb128 0x38
 1290 006f 0B       		.uleb128 0xb
 1291 0070 00       		.byte	0
 1292 0071 00       		.byte	0
 1293 0072 09       		.uleb128 0x9
 1294 0073 0D       		.uleb128 0xd
 1295 0074 00       		.byte	0
 1296 0075 03       		.uleb128 0x3
 1297 0076 0E       		.uleb128 0xe
 1298 0077 3A       		.uleb128 0x3a
 1299 0078 0B       		.uleb128 0xb
 1300 0079 3B       		.uleb128 0x3b
 1301 007a 05       		.uleb128 0x5
 1302 007b 49       		.uleb128 0x49
 1303 007c 13       		.uleb128 0x13
 1304 007d 38       		.uleb128 0x38
 1305 007e 0B       		.uleb128 0xb
 1306 007f 00       		.byte	0
 1307 0080 00       		.byte	0
 1308 0081 0A       		.uleb128 0xa
 1309 0082 0F       		.uleb128 0xf
 1310 0083 00       		.byte	0
 1311 0084 0B       		.uleb128 0xb
ARM GAS  /tmp/ccudzU1t.s 			page 24


 1312 0085 0B       		.uleb128 0xb
 1313 0086 49       		.uleb128 0x49
 1314 0087 13       		.uleb128 0x13
 1315 0088 00       		.byte	0
 1316 0089 00       		.byte	0
 1317 008a 0B       		.uleb128 0xb
 1318 008b 13       		.uleb128 0x13
 1319 008c 01       		.byte	0x1
 1320 008d 03       		.uleb128 0x3
 1321 008e 0E       		.uleb128 0xe
 1322 008f 0B       		.uleb128 0xb
 1323 0090 0B       		.uleb128 0xb
 1324 0091 3A       		.uleb128 0x3a
 1325 0092 0B       		.uleb128 0xb
 1326 0093 3B       		.uleb128 0x3b
 1327 0094 05       		.uleb128 0x5
 1328 0095 01       		.uleb128 0x1
 1329 0096 13       		.uleb128 0x13
 1330 0097 00       		.byte	0
 1331 0098 00       		.byte	0
 1332 0099 0C       		.uleb128 0xc
 1333 009a 15       		.uleb128 0x15
 1334 009b 01       		.byte	0x1
 1335 009c 27       		.uleb128 0x27
 1336 009d 19       		.uleb128 0x19
 1337 009e 01       		.uleb128 0x1
 1338 009f 13       		.uleb128 0x13
 1339 00a0 00       		.byte	0
 1340 00a1 00       		.byte	0
 1341 00a2 0D       		.uleb128 0xd
 1342 00a3 05       		.uleb128 0x5
 1343 00a4 00       		.byte	0
 1344 00a5 49       		.uleb128 0x49
 1345 00a6 13       		.uleb128 0x13
 1346 00a7 00       		.byte	0
 1347 00a8 00       		.byte	0
 1348 00a9 0E       		.uleb128 0xe
 1349 00aa 0F       		.uleb128 0xf
 1350 00ab 00       		.byte	0
 1351 00ac 0B       		.uleb128 0xb
 1352 00ad 0B       		.uleb128 0xb
 1353 00ae 00       		.byte	0
 1354 00af 00       		.byte	0
 1355 00b0 0F       		.uleb128 0xf
 1356 00b1 13       		.uleb128 0x13
 1357 00b2 01       		.byte	0x1
 1358 00b3 0B       		.uleb128 0xb
 1359 00b4 0B       		.uleb128 0xb
 1360 00b5 3A       		.uleb128 0x3a
 1361 00b6 0B       		.uleb128 0xb
 1362 00b7 3B       		.uleb128 0x3b
 1363 00b8 0B       		.uleb128 0xb
 1364 00b9 01       		.uleb128 0x1
 1365 00ba 13       		.uleb128 0x13
 1366 00bb 00       		.byte	0
 1367 00bc 00       		.byte	0
 1368 00bd 10       		.uleb128 0x10
ARM GAS  /tmp/ccudzU1t.s 			page 25


 1369 00be 17       		.uleb128 0x17
 1370 00bf 01       		.byte	0x1
 1371 00c0 0B       		.uleb128 0xb
 1372 00c1 0B       		.uleb128 0xb
 1373 00c2 3A       		.uleb128 0x3a
 1374 00c3 0B       		.uleb128 0xb
 1375 00c4 3B       		.uleb128 0x3b
 1376 00c5 0B       		.uleb128 0xb
 1377 00c6 01       		.uleb128 0x1
 1378 00c7 13       		.uleb128 0x13
 1379 00c8 00       		.byte	0
 1380 00c9 00       		.byte	0
 1381 00ca 11       		.uleb128 0x11
 1382 00cb 0D       		.uleb128 0xd
 1383 00cc 00       		.byte	0
 1384 00cd 03       		.uleb128 0x3
 1385 00ce 0E       		.uleb128 0xe
 1386 00cf 3A       		.uleb128 0x3a
 1387 00d0 0B       		.uleb128 0xb
 1388 00d1 3B       		.uleb128 0x3b
 1389 00d2 0B       		.uleb128 0xb
 1390 00d3 49       		.uleb128 0x49
 1391 00d4 13       		.uleb128 0x13
 1392 00d5 00       		.byte	0
 1393 00d6 00       		.byte	0
 1394 00d7 12       		.uleb128 0x12
 1395 00d8 0D       		.uleb128 0xd
 1396 00d9 00       		.byte	0
 1397 00da 03       		.uleb128 0x3
 1398 00db 0E       		.uleb128 0xe
 1399 00dc 3A       		.uleb128 0x3a
 1400 00dd 0B       		.uleb128 0xb
 1401 00de 3B       		.uleb128 0x3b
 1402 00df 05       		.uleb128 0x5
 1403 00e0 49       		.uleb128 0x49
 1404 00e1 13       		.uleb128 0x13
 1405 00e2 00       		.byte	0
 1406 00e3 00       		.byte	0
 1407 00e4 13       		.uleb128 0x13
 1408 00e5 26       		.uleb128 0x26
 1409 00e6 00       		.byte	0
 1410 00e7 49       		.uleb128 0x49
 1411 00e8 13       		.uleb128 0x13
 1412 00e9 00       		.byte	0
 1413 00ea 00       		.byte	0
 1414 00eb 14       		.uleb128 0x14
 1415 00ec 35       		.uleb128 0x35
 1416 00ed 00       		.byte	0
 1417 00ee 49       		.uleb128 0x49
 1418 00ef 13       		.uleb128 0x13
 1419 00f0 00       		.byte	0
 1420 00f1 00       		.byte	0
 1421 00f2 15       		.uleb128 0x15
 1422 00f3 2E       		.uleb128 0x2e
 1423 00f4 00       		.byte	0
 1424 00f5 03       		.uleb128 0x3
 1425 00f6 0E       		.uleb128 0xe
ARM GAS  /tmp/ccudzU1t.s 			page 26


 1426 00f7 3A       		.uleb128 0x3a
 1427 00f8 0B       		.uleb128 0xb
 1428 00f9 3B       		.uleb128 0x3b
 1429 00fa 05       		.uleb128 0x5
 1430 00fb 27       		.uleb128 0x27
 1431 00fc 19       		.uleb128 0x19
 1432 00fd 20       		.uleb128 0x20
 1433 00fe 0B       		.uleb128 0xb
 1434 00ff 00       		.byte	0
 1435 0100 00       		.byte	0
 1436 0101 16       		.uleb128 0x16
 1437 0102 2E       		.uleb128 0x2e
 1438 0103 01       		.byte	0x1
 1439 0104 3F       		.uleb128 0x3f
 1440 0105 19       		.uleb128 0x19
 1441 0106 03       		.uleb128 0x3
 1442 0107 0E       		.uleb128 0xe
 1443 0108 3A       		.uleb128 0x3a
 1444 0109 0B       		.uleb128 0xb
 1445 010a 3B       		.uleb128 0x3b
 1446 010b 0B       		.uleb128 0xb
 1447 010c 27       		.uleb128 0x27
 1448 010d 19       		.uleb128 0x19
 1449 010e 11       		.uleb128 0x11
 1450 010f 01       		.uleb128 0x1
 1451 0110 12       		.uleb128 0x12
 1452 0111 06       		.uleb128 0x6
 1453 0112 40       		.uleb128 0x40
 1454 0113 18       		.uleb128 0x18
 1455 0114 9742     		.uleb128 0x2117
 1456 0116 19       		.uleb128 0x19
 1457 0117 01       		.uleb128 0x1
 1458 0118 13       		.uleb128 0x13
 1459 0119 00       		.byte	0
 1460 011a 00       		.byte	0
 1461 011b 17       		.uleb128 0x17
 1462 011c 898201   		.uleb128 0x4109
 1463 011f 00       		.byte	0
 1464 0120 11       		.uleb128 0x11
 1465 0121 01       		.uleb128 0x1
 1466 0122 31       		.uleb128 0x31
 1467 0123 13       		.uleb128 0x13
 1468 0124 00       		.byte	0
 1469 0125 00       		.byte	0
 1470 0126 18       		.uleb128 0x18
 1471 0127 898201   		.uleb128 0x4109
 1472 012a 00       		.byte	0
 1473 012b 11       		.uleb128 0x11
 1474 012c 01       		.uleb128 0x1
 1475 012d 9542     		.uleb128 0x2115
 1476 012f 19       		.uleb128 0x19
 1477 0130 31       		.uleb128 0x31
 1478 0131 13       		.uleb128 0x13
 1479 0132 00       		.byte	0
 1480 0133 00       		.byte	0
 1481 0134 19       		.uleb128 0x19
 1482 0135 34       		.uleb128 0x34
ARM GAS  /tmp/ccudzU1t.s 			page 27


 1483 0136 00       		.byte	0
 1484 0137 03       		.uleb128 0x3
 1485 0138 0E       		.uleb128 0xe
 1486 0139 3A       		.uleb128 0x3a
 1487 013a 0B       		.uleb128 0xb
 1488 013b 3B       		.uleb128 0x3b
 1489 013c 05       		.uleb128 0x5
 1490 013d 49       		.uleb128 0x49
 1491 013e 13       		.uleb128 0x13
 1492 013f 3F       		.uleb128 0x3f
 1493 0140 19       		.uleb128 0x19
 1494 0141 3C       		.uleb128 0x3c
 1495 0142 19       		.uleb128 0x19
 1496 0143 00       		.byte	0
 1497 0144 00       		.byte	0
 1498 0145 1A       		.uleb128 0x1a
 1499 0146 34       		.uleb128 0x34
 1500 0147 00       		.byte	0
 1501 0148 03       		.uleb128 0x3
 1502 0149 08       		.uleb128 0x8
 1503 014a 3A       		.uleb128 0x3a
 1504 014b 0B       		.uleb128 0xb
 1505 014c 3B       		.uleb128 0x3b
 1506 014d 05       		.uleb128 0x5
 1507 014e 49       		.uleb128 0x49
 1508 014f 13       		.uleb128 0x13
 1509 0150 3F       		.uleb128 0x3f
 1510 0151 19       		.uleb128 0x19
 1511 0152 3C       		.uleb128 0x3c
 1512 0153 19       		.uleb128 0x19
 1513 0154 00       		.byte	0
 1514 0155 00       		.byte	0
 1515 0156 1B       		.uleb128 0x1b
 1516 0157 2E       		.uleb128 0x2e
 1517 0158 00       		.byte	0
 1518 0159 3F       		.uleb128 0x3f
 1519 015a 19       		.uleb128 0x19
 1520 015b 3C       		.uleb128 0x3c
 1521 015c 19       		.uleb128 0x19
 1522 015d 6E       		.uleb128 0x6e
 1523 015e 0E       		.uleb128 0xe
 1524 015f 03       		.uleb128 0x3
 1525 0160 0E       		.uleb128 0xe
 1526 0161 3A       		.uleb128 0x3a
 1527 0162 0B       		.uleb128 0xb
 1528 0163 3B       		.uleb128 0x3b
 1529 0164 05       		.uleb128 0x5
 1530 0165 00       		.byte	0
 1531 0166 00       		.byte	0
 1532 0167 1C       		.uleb128 0x1c
 1533 0168 2E       		.uleb128 0x2e
 1534 0169 00       		.byte	0
 1535 016a 3F       		.uleb128 0x3f
 1536 016b 19       		.uleb128 0x19
 1537 016c 3C       		.uleb128 0x3c
 1538 016d 19       		.uleb128 0x19
 1539 016e 6E       		.uleb128 0x6e
ARM GAS  /tmp/ccudzU1t.s 			page 28


 1540 016f 0E       		.uleb128 0xe
 1541 0170 03       		.uleb128 0x3
 1542 0171 0E       		.uleb128 0xe
 1543 0172 3A       		.uleb128 0x3a
 1544 0173 0B       		.uleb128 0xb
 1545 0174 3B       		.uleb128 0x3b
 1546 0175 0B       		.uleb128 0xb
 1547 0176 00       		.byte	0
 1548 0177 00       		.byte	0
 1549 0178 00       		.byte	0
 1550              		.section	.debug_aranges,"",%progbits
 1551 0000 1C000000 		.4byte	0x1c
 1552 0004 0200     		.2byte	0x2
 1553 0006 00000000 		.4byte	.Ldebug_info0
 1554 000a 04       		.byte	0x4
 1555 000b 00       		.byte	0
 1556 000c 0000     		.2byte	0
 1557 000e 0000     		.2byte	0
 1558 0010 00000000 		.4byte	.LFB323
 1559 0014 36000000 		.4byte	.LFE323-.LFB323
 1560 0018 00000000 		.4byte	0
 1561 001c 00000000 		.4byte	0
 1562              		.section	.debug_ranges,"",%progbits
 1563              	.Ldebug_ranges0:
 1564 0000 00000000 		.4byte	.LFB323
 1565 0004 36000000 		.4byte	.LFE323
 1566 0008 00000000 		.4byte	0
 1567 000c 00000000 		.4byte	0
 1568              		.section	.debug_line,"",%progbits
 1569              	.Ldebug_line0:
 1570 0000 A5030000 		.section	.debug_str,"MS",%progbits,1
 1570      02007903 
 1570      00000201 
 1570      FB0E0D00 
 1570      01010101 
 1571              	.LASF53:
 1572 0000 72656164 		.ascii	"ready_list_t\000"
 1572      795F6C69 
 1572      73745F74 
 1572      00
 1573              	.LASF118:
 1574 000d 7374496E 		.ascii	"stInit\000"
 1574      697400
 1575              	.LASF113:
 1576 0014 73646349 		.ascii	"sdcInit\000"
 1576      6E697400 
 1577              	.LASF95:
 1578 001c 77747472 		.ascii	"wttrp\000"
 1578      7000
 1579              	.LASF59:
 1580 0022 64656C74 		.ascii	"delta\000"
 1580      6100
 1581              	.LASF92:
 1582 0028 7264796D 		.ascii	"rdymsg\000"
 1582      736700
 1583              	.LASF17:
 1584 002f 75696E74 		.ascii	"uint64_t\000"
ARM GAS  /tmp/ccudzU1t.s 			page 29


 1584      36345F74 
 1584      00
 1585              	.LASF72:
 1586 0038 6B65726E 		.ascii	"kernel_stats\000"
 1586      656C5F73 
 1586      74617473 
 1586      00
 1587              	.LASF7:
 1588 0045 5F5F7569 		.ascii	"__uint8_t\000"
 1588      6E74385F 
 1588      7400
 1589              	.LASF52:
 1590 004f 70726576 		.ascii	"prev\000"
 1590      00
 1591              	.LASF79:
 1592 0054 706F7274 		.ascii	"port_intctx\000"
 1592      5F696E74 
 1592      63747800 
 1593              	.LASF51:
 1594 0060 63685F74 		.ascii	"ch_threads_queue\000"
 1594      68726561 
 1594      64735F71 
 1594      75657565 
 1594      00
 1595              	.LASF64:
 1596 0071 73797374 		.ascii	"system_debug_t\000"
 1596      656D5F64 
 1596      65627567 
 1596      5F7400
 1597              	.LASF119:
 1598 0080 474E5520 		.ascii	"GNU C11 5.4.1 20160919 -mcpu=cortex-m4 -mfloat-abi="
 1598      43313120 
 1598      352E342E 
 1598      31203230 
 1598      31363039 
 1599 00b3 68617264 		.ascii	"hard -mfpu=fpv4-sp-d16 -mno-thumb-interwork -mthumb"
 1599      202D6D66 
 1599      70753D66 
 1599      7076342D 
 1599      73702D64 
 1600 00e6 202D6720 		.ascii	" -g -Os -fomit-frame-pointer -falign-functions=16 -"
 1600      2D4F7320 
 1600      2D666F6D 
 1600      69742D66 
 1600      72616D65 
 1601 0119 6666756E 		.ascii	"ffunction-sections -fdata-sections -fno-common -fsi"
 1601      6374696F 
 1601      6E2D7365 
 1601      6374696F 
 1601      6E73202D 
 1602 014c 6E676C65 		.ascii	"ngle-precision-constant\000"
 1602      2D707265 
 1602      63697369 
 1602      6F6E2D63 
 1602      6F6E7374 
 1603              	.LASF83:
 1604 0164 776F7273 		.ascii	"worst\000"
ARM GAS  /tmp/ccudzU1t.s 			page 30


 1604      7400
 1605              	.LASF86:
 1606 016a 74696D65 		.ascii	"time_measurement_t\000"
 1606      5F6D6561 
 1606      73757265 
 1606      6D656E74 
 1606      5F7400
 1607              	.LASF13:
 1608 017d 6C6F6E67 		.ascii	"long long unsigned int\000"
 1608      206C6F6E 
 1608      6720756E 
 1608      7369676E 
 1608      65642069 
 1609              	.LASF93:
 1610 0194 65786974 		.ascii	"exitcode\000"
 1610      636F6465 
 1610      00
 1611              	.LASF71:
 1612 019d 6D61696E 		.ascii	"mainthread\000"
 1612      74687265 
 1612      616400
 1613              	.LASF96:
 1614 01a8 73656E74 		.ascii	"sentmsg\000"
 1614      6D736700 
 1615              	.LASF61:
 1616 01b0 76697274 		.ascii	"virtual_timers_list_t\000"
 1616      75616C5F 
 1616      74696D65 
 1616      72735F6C 
 1616      6973745F 
 1617              	.LASF106:
 1618 01c6 49544D5F 		.ascii	"ITM_RxBuffer\000"
 1618      52784275 
 1618      66666572 
 1618      00
 1619              	.LASF60:
 1620 01d3 66756E63 		.ascii	"func\000"
 1620      00
 1621              	.LASF49:
 1622 01d8 6E657874 		.ascii	"next\000"
 1622      00
 1623              	.LASF19:
 1624 01dd 72747469 		.ascii	"rttime_t\000"
 1624      6D655F74 
 1624      00
 1625              	.LASF1:
 1626 01e6 6C6F6E67 		.ascii	"long long int\000"
 1626      206C6F6E 
 1626      6720696E 
 1626      7400
 1627              	.LASF3:
 1628 01f4 7369676E 		.ascii	"signed char\000"
 1628      65642063 
 1628      68617200 
 1629              	.LASF70:
 1630 0200 76746C69 		.ascii	"vtlist\000"
 1630      737400
ARM GAS  /tmp/ccudzU1t.s 			page 31


 1631              	.LASF39:
 1632 0207 6D736771 		.ascii	"msgqueue\000"
 1632      75657565 
 1632      00
 1633              	.LASF35:
 1634 0210 73746174 		.ascii	"state\000"
 1634      6500
 1635              	.LASF9:
 1636 0216 6C6F6E67 		.ascii	"long int\000"
 1636      20696E74 
 1636      00
 1637              	.LASF21:
 1638 021f 74737461 		.ascii	"tstate_t\000"
 1638      74655F74 
 1638      00
 1639              	.LASF111:
 1640 0228 70776D49 		.ascii	"pwmInit\000"
 1640      6E697400 
 1641              	.LASF44:
 1642 0230 73746174 		.ascii	"stats\000"
 1642      7300
 1643              	.LASF10:
 1644 0236 5F5F7569 		.ascii	"__uint32_t\000"
 1644      6E743332 
 1644      5F7400
 1645              	.LASF76:
 1646 0241 72656761 		.ascii	"regarm_t\000"
 1646      726D5F74 
 1646      00
 1647              	.LASF65:
 1648 024a 63685F73 		.ascii	"ch_system_debug\000"
 1648      79737465 
 1648      6D5F6465 
 1648      62756700 
 1649              	.LASF38:
 1650 025a 77616974 		.ascii	"waiting\000"
 1650      696E6700 
 1651              	.LASF104:
 1652 0262 6D757465 		.ascii	"mutex_t\000"
 1652      785F7400 
 1653              	.LASF74:
 1654 026a 73797369 		.ascii	"sysinterval_t\000"
 1654      6E746572 
 1654      76616C5F 
 1654      7400
 1655              	.LASF26:
 1656 0278 636E745F 		.ascii	"cnt_t\000"
 1656      7400
 1657              	.LASF0:
 1658 027e 756E7369 		.ascii	"unsigned int\000"
 1658      676E6564 
 1658      20696E74 
 1658      00
 1659              	.LASF97:
 1660 028b 77747365 		.ascii	"wtsemp\000"
 1660      6D7000
 1661              	.LASF123:
ARM GAS  /tmp/ccudzU1t.s 			page 32


 1662 0292 68616C49 		.ascii	"halInit\000"
 1662      6E697400 
 1663              	.LASF87:
 1664 029a 6E5F6972 		.ascii	"n_irq\000"
 1664      7100
 1665              	.LASF29:
 1666 02a0 71756575 		.ascii	"queue\000"
 1666      6500
 1667              	.LASF43:
 1668 02a6 6D706F6F 		.ascii	"mpool\000"
 1668      6C00
 1669              	.LASF6:
 1670 02ac 73686F72 		.ascii	"short unsigned int\000"
 1670      7420756E 
 1670      7369676E 
 1670      65642069 
 1670      6E7400
 1671              	.LASF91:
 1672 02bf 6B65726E 		.ascii	"kernel_stats_t\000"
 1672      656C5F73 
 1672      74617473 
 1672      5F7400
 1673              	.LASF33:
 1674 02ce 6E616D65 		.ascii	"name\000"
 1674      00
 1675              	.LASF47:
 1676 02d3 63685F74 		.ascii	"ch_thread\000"
 1676      68726561 
 1676      6400
 1677              	.LASF24:
 1678 02dd 6D73675F 		.ascii	"msg_t\000"
 1678      7400
 1679              	.LASF84:
 1680 02e3 6C617374 		.ascii	"last\000"
 1680      00
 1681              	.LASF27:
 1682 02e8 75636E74 		.ascii	"ucnt_t\000"
 1682      5F7400
 1683              	.LASF40:
 1684 02ef 6570656E 		.ascii	"epending\000"
 1684      64696E67 
 1684      00
 1685              	.LASF67:
 1686 02f8 63685F73 		.ascii	"ch_system_t\000"
 1686      79737465 
 1686      6D5F7400 
 1687              	.LASF20:
 1688 0304 746D6F64 		.ascii	"tmode_t\000"
 1688      655F7400 
 1689              	.LASF90:
 1690 030c 6D5F6372 		.ascii	"m_crit_isr\000"
 1690      69745F69 
 1690      737200
 1691              	.LASF54:
 1692 0317 63685F72 		.ascii	"ch_ready_list\000"
 1692      65616479 
 1692      5F6C6973 
ARM GAS  /tmp/ccudzU1t.s 			page 33


 1692      7400
 1693              	.LASF25:
 1694 0325 6576656E 		.ascii	"eventmask_t\000"
 1694      746D6173 
 1694      6B5F7400 
 1695              	.LASF8:
 1696 0331 5F5F696E 		.ascii	"__int32_t\000"
 1696      7433325F 
 1696      7400
 1697              	.LASF109:
 1698 033b 61646349 		.ascii	"adcInit\000"
 1698      6E697400 
 1699              	.LASF77:
 1700 0343 73746B61 		.ascii	"stkalign_t\000"
 1700      6C69676E 
 1700      5F7400
 1701              	.LASF31:
 1702 034e 6E657765 		.ascii	"newer\000"
 1702      7200
 1703              	.LASF114:
 1704 0354 73706949 		.ascii	"spiInit\000"
 1704      6E697400 
 1705              	.LASF42:
 1706 035c 7265616C 		.ascii	"realprio\000"
 1706      7072696F 
 1706      00
 1707              	.LASF75:
 1708 0365 73697A65 		.ascii	"sizetype\000"
 1708      74797065 
 1708      00
 1709              	.LASF45:
 1710 036e 74687265 		.ascii	"thread_reference_t\000"
 1710      61645F72 
 1710      65666572 
 1710      656E6365 
 1710      5F7400
 1711              	.LASF62:
 1712 0381 63685F76 		.ascii	"ch_virtual_timers_list\000"
 1712      69727475 
 1712      616C5F74 
 1712      696D6572 
 1712      735F6C69 
 1713              	.LASF2:
 1714 0398 6C6F6E67 		.ascii	"long double\000"
 1714      20646F75 
 1714      626C6500 
 1715              	.LASF78:
 1716 03a4 706F7274 		.ascii	"port_context\000"
 1716      5F636F6E 
 1716      74657874 
 1716      00
 1717              	.LASF81:
 1718 03b1 746D5F63 		.ascii	"tm_calibration_t\000"
 1718      616C6962 
 1718      72617469 
 1718      6F6E5F74 
 1718      00
ARM GAS  /tmp/ccudzU1t.s 			page 34


 1719              	.LASF30:
 1720 03c2 7072696F 		.ascii	"prio\000"
 1720      00
 1721              	.LASF55:
 1722 03c7 63757272 		.ascii	"current\000"
 1722      656E7400 
 1723              	.LASF12:
 1724 03cf 5F5F7569 		.ascii	"__uint64_t\000"
 1724      6E743634 
 1724      5F7400
 1725              	.LASF85:
 1726 03da 63756D75 		.ascii	"cumulative\000"
 1726      6C617469 
 1726      766500
 1727              	.LASF22:
 1728 03e5 74726566 		.ascii	"trefs_t\000"
 1728      735F7400 
 1729              	.LASF37:
 1730 03ed 72656673 		.ascii	"refs\000"
 1730      00
 1731              	.LASF57:
 1732 03f2 76697274 		.ascii	"virtual_timer_t\000"
 1732      75616C5F 
 1732      74696D65 
 1732      725F7400 
 1733              	.LASF122:
 1734 0402 6F73616C 		.ascii	"osalInit\000"
 1734      496E6974 
 1734      00
 1735              	.LASF23:
 1736 040b 74707269 		.ascii	"tprio_t\000"
 1736      6F5F7400 
 1737              	.LASF88:
 1738 0413 6E5F6374 		.ascii	"n_ctxswc\000"
 1738      78737763 
 1738      00
 1739              	.LASF105:
 1740 041c 5F426F6F 		.ascii	"_Bool\000"
 1740      6C00
 1741              	.LASF15:
 1742 0422 696E7433 		.ascii	"int32_t\000"
 1742      325F7400 
 1743              	.LASF4:
 1744 042a 756E7369 		.ascii	"unsigned char\000"
 1744      676E6564 
 1744      20636861 
 1744      7200
 1745              	.LASF116:
 1746 0438 73647549 		.ascii	"sduInit\000"
 1746      6E697400 
 1747              	.LASF120:
 1748 0440 2E2E2F2E 		.ascii	"../../modules/ChibiOS/os/hal/src/hal.c\000"
 1748      2E2F6D6F 
 1748      64756C65 
 1748      732F4368 
 1748      6962694F 
 1749              	.LASF5:
ARM GAS  /tmp/ccudzU1t.s 			page 35


 1750 0467 73686F72 		.ascii	"short int\000"
 1750      7420696E 
 1750      7400
 1751              	.LASF63:
 1752 0471 6C617374 		.ascii	"lasttime\000"
 1752      74696D65 
 1752      00
 1753              	.LASF117:
 1754 047a 626F6172 		.ascii	"boardInit\000"
 1754      64496E69 
 1754      7400
 1755              	.LASF99:
 1756 0484 65776D61 		.ascii	"ewmask\000"
 1756      736B00
 1757              	.LASF68:
 1758 048b 63685F73 		.ascii	"ch_system\000"
 1758      79737465 
 1758      6D00
 1759              	.LASF58:
 1760 0495 63685F76 		.ascii	"ch_virtual_timer\000"
 1760      69727475 
 1760      616C5F74 
 1760      696D6572 
 1760      00
 1761              	.LASF100:
 1762 04a6 63685F73 		.ascii	"ch_semaphore\000"
 1762      656D6170 
 1762      686F7265 
 1762      00
 1763              	.LASF121:
 1764 04b3 2F686F6D 		.ascii	"/home/user/csse4011/project/4011-surfbee/ardupilot/"
 1764      652F7573 
 1764      65722F63 
 1764      73736534 
 1764      3031312F 
 1765 04e6 6275696C 		.ascii	"build/stm32l475\000"
 1765      642F7374 
 1765      6D33326C 
 1765      34373500 
 1766              	.LASF98:
 1767 04f6 77746D74 		.ascii	"wtmtxp\000"
 1767      787000
 1768              	.LASF48:
 1769 04fd 63685F74 		.ascii	"ch_threads_list\000"
 1769      68726561 
 1769      64735F6C 
 1769      69737400 
 1770              	.LASF102:
 1771 050d 6F776E65 		.ascii	"owner\000"
 1771      7200
 1772              	.LASF11:
 1773 0513 6C6F6E67 		.ascii	"long unsigned int\000"
 1773      20756E73 
 1773      69676E65 
 1773      6420696E 
 1773      7400
 1774              	.LASF34:
ARM GAS  /tmp/ccudzU1t.s 			page 36


 1775 0525 77616261 		.ascii	"wabase\000"
 1775      736500
 1776              	.LASF103:
 1777 052c 63686172 		.ascii	"char\000"
 1777      00
 1778              	.LASF32:
 1779 0531 6F6C6465 		.ascii	"older\000"
 1779      7200
 1780              	.LASF115:
 1781 0537 75736249 		.ascii	"usbInit\000"
 1781      6E697400 
 1782              	.LASF28:
 1783 053f 74687265 		.ascii	"thread_t\000"
 1783      61645F74 
 1783      00
 1784              	.LASF82:
 1785 0548 62657374 		.ascii	"best\000"
 1785      00
 1786              	.LASF73:
 1787 054d 73797374 		.ascii	"systime_t\000"
 1787      696D655F 
 1787      7400
 1788              	.LASF56:
 1789 0557 76746675 		.ascii	"vtfunc_t\000"
 1789      6E635F74 
 1789      00
 1790              	.LASF66:
 1791 0560 70616E69 		.ascii	"panic_msg\000"
 1791      635F6D73 
 1791      6700
 1792              	.LASF80:
 1793 056a 6F666673 		.ascii	"offset\000"
 1793      657400
 1794              	.LASF107:
 1795 0571 68616C5F 		.ascii	"hal_lld_init\000"
 1795      6C6C645F 
 1795      696E6974 
 1795      00
 1796              	.LASF18:
 1797 057e 7274636E 		.ascii	"rtcnt_t\000"
 1797      745F7400 
 1798              	.LASF16:
 1799 0586 75696E74 		.ascii	"uint32_t\000"
 1799      33325F74 
 1799      00
 1800              	.LASF50:
 1801 058f 74687265 		.ascii	"threads_queue_t\000"
 1801      6164735F 
 1801      71756575 
 1801      655F7400 
 1802              	.LASF101:
 1803 059f 63685F6D 		.ascii	"ch_mutex\000"
 1803      75746578 
 1803      00
 1804              	.LASF108:
 1805 05a8 5F70616C 		.ascii	"_pal_lld_init\000"
 1805      5F6C6C64 
ARM GAS  /tmp/ccudzU1t.s 			page 37


 1805      5F696E69 
 1805      7400
 1806              	.LASF69:
 1807 05b6 726C6973 		.ascii	"rlist\000"
 1807      7400
 1808              	.LASF14:
 1809 05bc 75696E74 		.ascii	"uint8_t\000"
 1809      385F7400 
 1810              	.LASF36:
 1811 05c4 666C6167 		.ascii	"flags\000"
 1811      7300
 1812              	.LASF94:
 1813 05ca 77746F62 		.ascii	"wtobjp\000"
 1813      6A7000
 1814              	.LASF46:
 1815 05d1 74687265 		.ascii	"threads_list_t\000"
 1815      6164735F 
 1815      6C697374 
 1815      5F7400
 1816              	.LASF110:
 1817 05e0 69326349 		.ascii	"i2cInit\000"
 1817      6E697400 
 1818              	.LASF112:
 1819 05e8 7364496E 		.ascii	"sdInit\000"
 1819      697400
 1820              	.LASF41:
 1821 05ef 6D74786C 		.ascii	"mtxlist\000"
 1821      69737400 
 1822              	.LASF89:
 1823 05f7 6D5F6372 		.ascii	"m_crit_thd\000"
 1823      69745F74 
 1823      686400
 1824              		.ident	"GCC: (15:5.4.1+svn241155-1) 5.4.1 20160919"
ARM GAS  /tmp/ccudzU1t.s 			page 38


DEFINED SYMBOLS
                            *ABS*:0000000000000000 hal.c
     /tmp/ccudzU1t.s:22     .text.halInit:0000000000000000 $t
     /tmp/ccudzU1t.s:27     .text.halInit:0000000000000000 halInit
                     .debug_frame:0000000000000010 $d

UNDEFINED SYMBOLS
hal_lld_init
_pal_lld_init
adcInit
i2cInit
pwmInit
sdInit
sdcInit
spiInit
usbInit
sduInit
boardInit
stInit
