ARM GAS  /tmp/ccudzU1t.s 			page 1


   1              		.syntax unified
   2              		.cpu cortex-m4
   3              		.eabi_attribute 27, 1
   4              		.eabi_attribute 28, 1
   5              		.fpu fpv4-sp-d16
   6              		.eabi_attribute 20, 1
   7              		.eabi_attribute 21, 1
   8              		.eabi_attribute 23, 3
   9              		.eabi_attribute 24, 1
  10              		.eabi_attribute 25, 1
  11              		.eabi_attribute 26, 1
  12              		.eabi_attribute 30, 4
  13              		.eabi_attribute 34, 1
  14              		.eabi_attribute 18, 4
  15              		.thumb
  16              		.syntax unified
  17              		.file	"hal.c"
  18              		.text
  19              	.Ltext0:
  20              		.cfi_sections	.debug_frame
  21              		.section	.text.halInit,"ax",%progbits
  22              		.align	1
  23              		.global	halInit
  24              		.thumb
  25              		.thumb_func
  26              		.type	halInit, %function
  27              	halInit:
  28              	.LFB323:
  29              		.file 1 "../../modules/ChibiOS/os/hal/src/hal.c"
  30              		.loc 1 56 0
  31              		.cfi_startproc
  32              		@ args = 0, pretend = 0, frame = 0
  33              		@ frame_needed = 0, uses_anonymous_args = 0
  34 0000 08B5     		push	{r3, lr}
  35              		.cfi_def_cfa_offset 8
  36              		.cfi_offset 3, -8
  37              		.cfi_offset 14, -4
  38              		.loc 1 62 0
  39 0002 FFF7FEFF 		bl	hal_lld_init
  40              	.LVL0:
  41              		.loc 1 66 0
  42 0006 FFF7FEFF 		bl	_pal_lld_init
  43              	.LVL1:
  44              		.loc 1 72 0
  45 000a FFF7FEFF 		bl	adcInit
  46              	.LVL2:
  47              		.loc 1 87 0
  48 000e FFF7FEFF 		bl	i2cInit
  49              	.LVL3:
  50              		.loc 1 102 0
  51 0012 FFF7FEFF 		bl	pwmInit
  52              	.LVL4:
  53              		.loc 1 105 0
  54 0016 FFF7FEFF 		bl	sdInit
  55              	.LVL5:
  56              		.loc 1 108 0
  57 001a FFF7FEFF 		bl	sdcInit
ARM GAS  /tmp/ccudzU1t.s 			page 2


  58              	.LVL6:
  59              		.loc 1 111 0
  60 001e FFF7FEFF 		bl	spiInit
  61              	.LVL7:
  62              		.loc 1 120 0
  63 0022 FFF7FEFF 		bl	usbInit
  64              	.LVL8:
  65              		.loc 1 126 0
  66 0026 FFF7FEFF 		bl	sduInit
  67              	.LVL9:
  68              		.loc 1 146 0
  69 002a FFF7FEFF 		bl	boardInit
  70              	.LVL10:
  71              		.loc 1 155 0
  72 002e BDE80840 		pop	{r3, lr}
  73              		.cfi_restore 14
  74              		.cfi_restore 3
  75              		.cfi_def_cfa_offset 0
  76              		.loc 1 153 0
  77 0032 FFF7FEBF 		b	stInit
  78              	.LVL11:
  79              		.cfi_endproc
  80              	.LFE323:
  81              		.size	halInit, .-halInit
  82              		.text
  83              	.Letext0:
  84              		.file 2 "/usr/include/newlib/machine/_default_types.h"
  85              		.file 3 "/usr/include/newlib/sys/_stdint.h"
  86              		.file 4 "../../modules/ChibiOS/os/common/ports/ARMCMx/compilers/GCC/chtypes.h"
  87              		.file 5 "../../modules/ChibiOS/os/rt/include/chsystypes.h"
  88              		.file 6 "../../modules/ChibiOS/os/rt/include/chschd.h"
  89              		.file 7 "../../modules/ChibiOS/os/rt/include/chtime.h"
  90              		.file 8 "../../modules/ChibiOS/os/common/ports/ARMCMx/chcore.h"
  91              		.file 9 "../../modules/ChibiOS/os/common/ports/ARMCMx/chcore_v7m.h"
  92              		.file 10 "../../modules/ChibiOS/os/rt/include/chtm.h"
  93              		.file 11 "../../modules/ChibiOS/os/rt/include/chstats.h"
  94              		.file 12 "../../modules/ChibiOS/os/rt/include/chsem.h"
  95              		.file 13 "../../modules/ChibiOS/os/rt/include/chmtx.h"
  96              		.file 14 "../../modules/ChibiOS/os/hal/ports/STM32/STM32F4xx/hal_lld_type1.h"
  97              		.file 15 "../../modules/ChibiOS/os/hal/ports/STM32/LLD/GPIOv2/hal_pal_lld.h"
  98              		.file 16 "../../modules/ChibiOS/os/hal/include/hal_adc.h"
  99              		.file 17 "../../modules/ChibiOS/os/hal/include/hal_i2c.h"
 100              		.file 18 "../../modules/ChibiOS/os/hal/include/hal_pwm.h"
 101              		.file 19 "../../modules/ChibiOS/os/hal/include/hal_serial.h"
 102              		.file 20 "../../modules/ChibiOS/os/hal/include/hal_sdc.h"
 103              		.file 21 "../../modules/ChibiOS/os/hal/include/hal_spi.h"
 104              		.file 22 "../../modules/ChibiOS/os/hal/include/hal_usb.h"
 105              		.file 23 "../../modules/ChibiOS/os/hal/include/hal_serial_usb.h"
 106              		.file 24 "../../libraries/AP_HAL_ChibiOS/hwdef/common/board.h"
 107              		.file 25 "../../modules/ChibiOS/os/hal/include/hal_st.h"
 108              		.file 26 "../../modules/ChibiOS/os/hal/osal/rt/osal.h"
 109              		.file 27 "../../modules/ChibiOS/os/common/ext/ARM/CMSIS/Core/Include/core_cm4.h"