ARM GAS  /tmp/ccoZWWVe.s 			page 1


   1              		.syntax unified
   2              		.cpu cortex-m4
   3              		.eabi_attribute 27, 1
   4              		.eabi_attribute 28, 1
   5              		.fpu fpv4-sp-d16
   6              		.eabi_attribute 20, 1
   7              		.eabi_attribute 21, 1
   8              		.eabi_attribute 23, 3
   9              		.eabi_attribute 24, 1
  10              		.eabi_attribute 25, 1
  11              		.eabi_attribute 26, 1
  12              		.eabi_attribute 30, 4
  13              		.eabi_attribute 34, 1
  14              		.eabi_attribute 18, 4
  15              		.thumb
  16              		.syntax unified
  17              		.file	"hal_usb.c"
  18              		.text
  19              	.Ltext0:
  20              		.cfi_sections	.debug_frame
  21              		.section	.text.chSysLockFromISR,"ax",%progbits
  22              		.align	1
  23              		.thumb
  24              		.thumb_func
  25              		.type	chSysLockFromISR, %function
  26              	chSysLockFromISR:
  27              	.LFB186:
  28              		.file 1 "../../modules/ChibiOS/os/rt/include/chsys.h"
  29              		.loc 1 393 0
  30              		.cfi_startproc
  31              		@ args = 0, pretend = 0, frame = 0
  32              		@ frame_needed = 0, uses_anonymous_args = 0
  33              		@ link register save eliminated.
  34              	.LVL0:
  35              	.LBB82:
  36              	.LBB83:
  37              	.LBB84:
  38              	.LBB85:
  39              		.file 2 "../../modules/ChibiOS/os/common/ext/ARM/CMSIS/Core/Include/cmsis_gcc.h"
  40              		.loc 2 493 0
  41 0000 2023     		movs	r3, #32
  42              		.syntax unified
  43              	@ 493 "../../modules/ChibiOS/os/common/ext/ARM/CMSIS/Core/Include/cmsis_gcc.h" 1
  44 0002 83F31188 		MSR basepri, r3
  45              	@ 0 "" 2
  46              	.LVL1:
  47              		.thumb
  48              		.syntax unified
  49              	.LBE85:
  50              	.LBE84:
  51              	.LBE83:
  52              	.LBE82:
  53              		.loc 1 396 0
  54 0006 FFF7FEBF 		b	_stats_start_measure_crit_isr
  55              	.LVL2:
  56              		.cfi_endproc
  57              	.LFE186:
ARM GAS  /tmp/ccoZWWVe.s 			page 2


  58              		.size	chSysLockFromISR, .-chSysLockFromISR
  59              		.section	.text.chSysUnlockFromISR,"ax",%progbits
  60              		.align	1
  61              		.thumb
  62              		.thumb_func
  63              		.type	chSysUnlockFromISR, %function
  64              	chSysUnlockFromISR:
  65              	.LFB187:
  66              		.loc 1 413 0
  67              		.cfi_startproc
  68              		@ args = 0, pretend = 0, frame = 0
  69              		@ frame_needed = 0, uses_anonymous_args = 0
  70 0000 08B5     		push	{r3, lr}
  71              		.cfi_def_cfa_offset 8
  72              		.cfi_offset 3, -8
  73              		.cfi_offset 14, -4
  74              		.loc 1 416 0
  75 0002 FFF7FEFF 		bl	_stats_stop_measure_crit_isr
  76              	.LVL3:
  77              	.LBB86:
  78              	.LBB87:
  79              	.LBB88:
  80              	.LBB89:
  81              		.loc 2 493 0
  82 0006 0023     		movs	r3, #0
  83              		.syntax unified
  84              	@ 493 "../../modules/ChibiOS/os/common/ext/ARM/CMSIS/Core/Include/cmsis_gcc.h" 1
  85 0008 83F31188 		MSR basepri, r3
  86              	@ 0 "" 2
  87              	.LVL4:
  88              		.thumb
  89              		.syntax unified
  90 000c 08BD     		pop	{r3, pc}
  91              	.LBE89:
  92              	.LBE88:
  93              	.LBE87:
  94              	.LBE86:
  95              		.cfi_endproc
  96              	.LFE187:
  97              		.size	chSysUnlockFromISR, .-chSysUnlockFromISR
  98              		.section	.text.usbInit,"ax",%progbits
  99              		.align	1
 100              		.global	usbInit
 101              		.thumb
 102              		.thumb_func
 103              		.type	usbInit, %function
 104              	usbInit:
 105              	.LFB326:
 106              		.file 3 "../../modules/ChibiOS/os/hal/src/hal_usb.c"
 107              		.loc 3 270 0
 108              		.cfi_startproc
 109              		@ args = 0, pretend = 0, frame = 0
 110              		@ frame_needed = 0, uses_anonymous_args = 0
 111              		@ link register save eliminated.
 112              		.loc 3 272 0
 113 0000 FFF7FEBF 		b	usb_lld_init
 114              	.LVL5:
ARM GAS  /tmp/ccoZWWVe.s 			page 3


 115              		.cfi_endproc
 116              	.LFE326:
 117              		.size	usbInit, .-usbInit
 118              		.section	.text.usbObjectInit,"ax",%progbits
 119              		.align	1
 120              		.global	usbObjectInit
 121              		.thumb
 122              		.thumb_func
 123              		.type	usbObjectInit, %function
 124              	usbObjectInit:
 125              	.LFB327:
 126              		.loc 3 282 0
 127              		.cfi_startproc
 128              		@ args = 0, pretend = 0, frame = 0
 129              		@ frame_needed = 0, uses_anonymous_args = 0
 130              		@ link register save eliminated.
 131              	.LVL6:
 132              		.loc 3 285 0
 133 0000 0123     		movs	r3, #1
 134 0002 0370     		strb	r3, [r0]
 135              		.loc 3 286 0
 136 0004 0023     		movs	r3, #0
 137 0006 4360     		str	r3, [r0, #4]
 138              	.LVL7:
 139              		.loc 3 288 0
 140 0008 C361     		str	r3, [r0, #28]
 141              		.loc 3 289 0
 142 000a 8362     		str	r3, [r0, #40]
 143              	.LVL8:
 144              		.loc 3 288 0
 145 000c 0362     		str	r3, [r0, #32]
 146              		.loc 3 289 0
 147 000e C362     		str	r3, [r0, #44]
 148              	.LVL9:
 149              		.loc 3 288 0
 150 0010 4362     		str	r3, [r0, #36]
 151              		.loc 3 289 0
 152 0012 0363     		str	r3, [r0, #48]
 153              	.LVL10:
 154              		.loc 3 291 0
 155 0014 0381     		strh	r3, [r0, #8]	@ movhi
 156              		.loc 3 292 0
 157 0016 4381     		strh	r3, [r0, #10]	@ movhi
 158 0018 7047     		bx	lr
 159              		.cfi_endproc
 160              	.LFE327:
 161              		.size	usbObjectInit, .-usbObjectInit
 162              		.section	.text.usbStart,"ax",%progbits
 163              		.align	1
 164              		.global	usbStart
 165              		.thumb
 166              		.thumb_func
 167              		.type	usbStart, %function
 168              	usbStart:
 169              	.LFB328:
 170              		.loc 3 303 0
 171              		.cfi_startproc
ARM GAS  /tmp/ccoZWWVe.s 			page 4


 172              		@ args = 0, pretend = 0, frame = 0
 173              		@ frame_needed = 0, uses_anonymous_args = 0
 174              	.LVL11:
 175 0000 38B5     		push	{r3, r4, r5, lr}
 176              		.cfi_def_cfa_offset 16
 177              		.cfi_offset 3, -16
 178              		.cfi_offset 4, -12
 179              		.cfi_offset 5, -8
 180              		.cfi_offset 14, -4
 181              		.loc 3 303 0
 182 0002 0446     		mov	r4, r0
 183 0004 0D46     		mov	r5, r1
 184              	.LBB104:
 185              	.LBB105:
 186              	.LBB106:
 187              	.LBB107:
 188              	.LBB108:
 189              	.LBB109:
 190              		.loc 2 493 0
 191 0006 2023     		movs	r3, #32
 192              		.syntax unified
 193              	@ 493 "../../modules/ChibiOS/os/common/ext/ARM/CMSIS/Core/Include/cmsis_gcc.h" 1
 194 0008 83F31188 		MSR basepri, r3
 195              	@ 0 "" 2
 196              	.LVL12:
 197              		.thumb
 198              		.syntax unified
 199              	.LBE109:
 200              	.LBE108:
 201              	.LBE107:
 202              		.loc 1 356 0
 203 000c FFF7FEFF 		bl	_stats_start_measure_crit_thd
 204              	.LVL13:
 205              	.LBE106:
 206              	.LBE105:
 207              	.LBE104:
 208              		.loc 3 311 0
 209 0010 6560     		str	r5, [r4, #4]
 210              	.LVL14:
 211              		.loc 3 313 0
 212 0012 0025     		movs	r5, #0
 213              	.LVL15:
 214              		.loc 3 315 0
 215 0014 2046     		mov	r0, r4
 216              		.loc 3 313 0
 217 0016 E560     		str	r5, [r4, #12]
 218              	.LVL16:
 219 0018 2561     		str	r5, [r4, #16]
 220              	.LVL17:
 221 001a 6561     		str	r5, [r4, #20]
 222              	.LVL18:
 223 001c A561     		str	r5, [r4, #24]
 224              	.LVL19:
 225              		.loc 3 315 0
 226 001e FFF7FEFF 		bl	usb_lld_start
 227              	.LVL20:
 228              		.loc 3 316 0
ARM GAS  /tmp/ccoZWWVe.s 			page 5


 229 0022 0223     		movs	r3, #2
 230 0024 2370     		strb	r3, [r4]
 231              	.LBB110:
 232              	.LBB111:
 233              	.LBB112:
 234              		.loc 1 368 0
 235 0026 FFF7FEFF 		bl	_stats_stop_measure_crit_thd
 236              	.LVL21:
 237              	.LBB113:
 238              	.LBB114:
 239              	.LBB115:
 240              		.loc 2 493 0
 241              		.syntax unified
 242              	@ 493 "../../modules/ChibiOS/os/common/ext/ARM/CMSIS/Core/Include/cmsis_gcc.h" 1
 243 002a 85F31188 		MSR basepri, r5
 244              	@ 0 "" 2
 245              	.LVL22:
 246              		.thumb
 247              		.syntax unified
 248 002e 38BD     		pop	{r3, r4, r5, pc}
 249              	.LBE115:
 250              	.LBE114:
 251              	.LBE113:
 252              	.LBE112:
 253              	.LBE111:
 254              	.LBE110:
 255              		.cfi_endproc
 256              	.LFE328:
 257              		.size	usbStart, .-usbStart
 258              		.section	.text.usbStop,"ax",%progbits
 259              		.align	1
 260              		.global	usbStop
 261              		.thumb
 262              		.thumb_func
 263              		.type	usbStop, %function
 264              	usbStop:
 265              	.LFB329:
 266              		.loc 3 327 0
 267              		.cfi_startproc
 268              		@ args = 0, pretend = 0, frame = 0
 269              		@ frame_needed = 0, uses_anonymous_args = 0
 270              	.LVL23:
 271 0000 38B5     		push	{r3, r4, r5, lr}
 272              		.cfi_def_cfa_offset 16
 273              		.cfi_offset 3, -16
 274              		.cfi_offset 4, -12
 275              		.cfi_offset 5, -8
 276              		.cfi_offset 14, -4
 277              		.loc 3 327 0
 278 0002 0446     		mov	r4, r0
 279              	.LBB132:
 280              	.LBB133:
 281              	.LBB134:
 282              	.LBB135:
 283              	.LBB136:
 284              	.LBB137:
 285              		.loc 2 493 0
ARM GAS  /tmp/ccoZWWVe.s 			page 6


 286 0004 2023     		movs	r3, #32
 287              		.syntax unified
 288              	@ 493 "../../modules/ChibiOS/os/common/ext/ARM/CMSIS/Core/Include/cmsis_gcc.h" 1
 289 0006 83F31188 		MSR basepri, r3
 290              	@ 0 "" 2
 291              	.LVL24:
 292              		.thumb
 293              		.syntax unified
 294              	.LBE137:
 295              	.LBE136:
 296              	.LBE135:
 297              		.loc 1 356 0
 298 000a FFF7FEFF 		bl	_stats_start_measure_crit_thd
 299              	.LVL25:
 300              	.LBE134:
 301              	.LBE133:
 302              	.LBE132:
 303              		.loc 3 339 0
 304 000e 2046     		mov	r0, r4
 305 0010 FFF7FEFF 		bl	usb_lld_stop
 306              	.LVL26:
 307              		.loc 3 340 0
 308 0014 0025     		movs	r5, #0
 309              		.loc 3 341 0
 310 0016 0123     		movs	r3, #1
 311 0018 2370     		strb	r3, [r4]
 312              	.LVL27:
 313              		.loc 3 340 0
 314 001a 6560     		str	r5, [r4, #4]
 315              		.loc 3 355 0
 316 001c E560     		str	r5, [r4, #12]
 317              	.LVL28:
 318 001e 2561     		str	r5, [r4, #16]
 319              	.LVL29:
 320 0020 6561     		str	r5, [r4, #20]
 321              	.LVL30:
 322 0022 A561     		str	r5, [r4, #24]
 323              	.LVL31:
 324              	.LBB138:
 325              	.LBB139:
 326              		.file 4 "../../modules/ChibiOS/os/hal/osal/rt/osal.h"
 327              		.loc 4 618 0
 328 0024 FFF7FEFF 		bl	chSchRescheduleS
 329              	.LVL32:
 330              	.LBE139:
 331              	.LBE138:
 332              	.LBB140:
 333              	.LBB141:
 334              	.LBB142:
 335              		.loc 1 368 0
 336 0028 FFF7FEFF 		bl	_stats_stop_measure_crit_thd
 337              	.LVL33:
 338              	.LBB143:
 339              	.LBB144:
 340              	.LBB145:
 341              		.loc 2 493 0
 342              		.syntax unified
ARM GAS  /tmp/ccoZWWVe.s 			page 7


 343              	@ 493 "../../modules/ChibiOS/os/common/ext/ARM/CMSIS/Core/Include/cmsis_gcc.h" 1
 344 002c 85F31188 		MSR basepri, r5
 345              	@ 0 "" 2
 346              	.LVL34:
 347              		.thumb
 348              		.syntax unified
 349 0030 38BD     		pop	{r3, r4, r5, pc}
 350              	.LBE145:
 351              	.LBE144:
 352              	.LBE143:
 353              	.LBE142:
 354              	.LBE141:
 355              	.LBE140:
 356              		.cfi_endproc
 357              	.LFE329:
 358              		.size	usbStop, .-usbStop
 359              		.section	.text.usbInitEndpointI,"ax",%progbits
 360              		.align	1
 361              		.global	usbInitEndpointI
 362              		.thumb
 363              		.thumb_func
 364              		.type	usbInitEndpointI, %function
 365              	usbInitEndpointI:
 366              	.LFB330:
 367              		.loc 3 376 0
 368              		.cfi_startproc
 369              		@ args = 0, pretend = 0, frame = 0
 370              		@ frame_needed = 0, uses_anonymous_args = 0
 371              	.LVL35:
 372 0000 70B5     		push	{r4, r5, r6, lr}
 373              		.cfi_def_cfa_offset 16
 374              		.cfi_offset 4, -16
 375              		.cfi_offset 5, -12
 376              		.cfi_offset 6, -8
 377              		.cfi_offset 14, -4
 378              		.loc 3 385 0
 379 0002 00EB8103 		add	r3, r0, r1, lsl #2
 380              		.loc 3 376 0
 381 0006 0546     		mov	r5, r0
 382              		.loc 3 388 0
 383 0008 5069     		ldr	r0, [r2, #20]
 384              	.LVL36:
 385              		.loc 3 385 0
 386 000a DA60     		str	r2, [r3, #12]
 387              		.loc 3 376 0
 388 000c 0E46     		mov	r6, r1
 389 000e 1446     		mov	r4, r2
 390              		.loc 3 388 0
 391 0010 18B1     		cbz	r0, .L8
 392              		.loc 3 389 0
 393 0012 1022     		movs	r2, #16
 394              	.LVL37:
 395 0014 0021     		movs	r1, #0
 396              	.LVL38:
 397 0016 FFF7FEFF 		bl	memset
 398              	.LVL39:
 399              	.L8:
ARM GAS  /tmp/ccoZWWVe.s 			page 8


 400              		.loc 3 391 0
 401 001a A069     		ldr	r0, [r4, #24]
 402 001c 18B1     		cbz	r0, .L9
 403              		.loc 3 392 0
 404 001e 1022     		movs	r2, #16
 405 0020 0021     		movs	r1, #0
 406 0022 FFF7FEFF 		bl	memset
 407              	.LVL40:
 408              	.L9:
 409              		.loc 3 396 0
 410 0026 3146     		mov	r1, r6
 411 0028 2846     		mov	r0, r5
 412              		.loc 3 397 0
 413 002a BDE87040 		pop	{r4, r5, r6, lr}
 414              		.cfi_restore 14
 415              		.cfi_restore 6
 416              		.cfi_restore 5
 417              		.cfi_restore 4
 418              		.cfi_def_cfa_offset 0
 419              	.LVL41:
 420              		.loc 3 396 0
 421 002e FFF7FEBF 		b	usb_lld_init_endpoint
 422              	.LVL42:
 423              		.cfi_endproc
 424              	.LFE330:
 425              		.size	usbInitEndpointI, .-usbInitEndpointI
 426              		.section	.text.usbDisableEndpointsI,"ax",%progbits
 427              		.align	1
 428              		.global	usbDisableEndpointsI
 429              		.thumb
 430              		.thumb_func
 431              		.type	usbDisableEndpointsI, %function
 432              	usbDisableEndpointsI:
 433              	.LFB331:
 434              		.loc 3 410 0
 435              		.cfi_startproc
 436              		@ args = 0, pretend = 0, frame = 0
 437              		@ frame_needed = 0, uses_anonymous_args = 0
 438              		@ link register save eliminated.
 439              	.LVL43:
 440              		.loc 3 417 0
 441 0000 0289     		ldrh	r2, [r0, #8]
 442 0002 02F00102 		and	r2, r2, #1
 443 0006 0281     		strh	r2, [r0, #8]	@ movhi
 444              		.loc 3 418 0
 445 0008 4289     		ldrh	r2, [r0, #10]
 446 000a 02F00102 		and	r2, r2, #1
 447 000e 4281     		strh	r2, [r0, #10]	@ movhi
 448              	.LVL44:
 449              		.loc 3 432 0
 450 0010 0022     		movs	r2, #0
 451 0012 0261     		str	r2, [r0, #16]
 452              	.LVL45:
 453 0014 4261     		str	r2, [r0, #20]
 454              	.LVL46:
 455 0016 8261     		str	r2, [r0, #24]
 456              	.LVL47:
ARM GAS  /tmp/ccoZWWVe.s 			page 9


 457              		.loc 3 436 0
 458 0018 FFF7FEBF 		b	usb_lld_disable_endpoints
 459              	.LVL48:
 460              		.cfi_endproc
 461              	.LFE331:
 462              		.size	usbDisableEndpointsI, .-usbDisableEndpointsI
 463              		.section	.text.usbStartReceiveI,"ax",%progbits
 464              		.align	1
 465              		.global	usbStartReceiveI
 466              		.thumb
 467              		.thumb_func
 468              		.type	usbStartReceiveI, %function
 469              	usbStartReceiveI:
 470              	.LFB332:
 471              		.loc 3 454 0
 472              		.cfi_startproc
 473              		@ args = 0, pretend = 0, frame = 0
 474              		@ frame_needed = 0, uses_anonymous_args = 0
 475              		@ link register save eliminated.
 476              	.LVL49:
 477 0000 F0B4     		push	{r4, r5, r6, r7}
 478              		.cfi_def_cfa_offset 16
 479              		.cfi_offset 4, -16
 480              		.cfi_offset 5, -12
 481              		.cfi_offset 6, -8
 482              		.cfi_offset 7, -4
 483              		.loc 3 466 0
 484 0002 00EB8104 		add	r4, r0, r1, lsl #2
 485              		.loc 3 462 0
 486 0006 0125     		movs	r5, #1
 487              		.loc 3 466 0
 488 0008 E468     		ldr	r4, [r4, #12]
 489              		.loc 3 462 0
 490 000a 05FA01F6 		lsl	r6, r5, r1
 491 000e 4589     		ldrh	r5, [r0, #10]
 492              		.loc 3 466 0
 493 0010 A469     		ldr	r4, [r4, #24]
 494              	.LVL50:
 495              		.loc 3 462 0
 496 0012 3543     		orrs	r5, r5, r6
 497 0014 4581     		strh	r5, [r0, #10]	@ movhi
 498              		.loc 3 469 0
 499 0016 2360     		str	r3, [r4]
 500              		.loc 3 470 0
 501 0018 0023     		movs	r3, #0
 502              	.LVL51:
 503              		.loc 3 468 0
 504 001a A260     		str	r2, [r4, #8]
 505              		.loc 3 470 0
 506 001c 6360     		str	r3, [r4, #4]
 507              		.loc 3 477 0
 508 001e F0BC     		pop	{r4, r5, r6, r7}
 509              		.cfi_restore 7
 510              		.cfi_restore 6
 511              		.cfi_restore 5
 512              		.cfi_restore 4
 513              		.cfi_def_cfa_offset 0
ARM GAS  /tmp/ccoZWWVe.s 			page 10


 514              	.LVL52:
 515              		.loc 3 476 0
 516 0020 FFF7FEBF 		b	usb_lld_start_out
 517              	.LVL53:
 518              		.cfi_endproc
 519              	.LFE332:
 520              		.size	usbStartReceiveI, .-usbStartReceiveI
 521              		.section	.text.usbStartTransmitI,"ax",%progbits
 522              		.align	1
 523              		.global	usbStartTransmitI
 524              		.thumb
 525              		.thumb_func
 526              		.type	usbStartTransmitI, %function
 527              	usbStartTransmitI:
 528              	.LFB333:
 529              		.loc 3 493 0
 530              		.cfi_startproc
 531              		@ args = 0, pretend = 0, frame = 0
 532              		@ frame_needed = 0, uses_anonymous_args = 0
 533              		@ link register save eliminated.
 534              	.LVL54:
 535 0000 F0B4     		push	{r4, r5, r6, r7}
 536              		.cfi_def_cfa_offset 16
 537              		.cfi_offset 4, -16
 538              		.cfi_offset 5, -12
 539              		.cfi_offset 6, -8
 540              		.cfi_offset 7, -4
 541              		.loc 3 505 0
 542 0002 00EB8104 		add	r4, r0, r1, lsl #2
 543              		.loc 3 501 0
 544 0006 0125     		movs	r5, #1
 545              		.loc 3 505 0
 546 0008 E468     		ldr	r4, [r4, #12]
 547              		.loc 3 501 0
 548 000a 05FA01F6 		lsl	r6, r5, r1
 549 000e 0589     		ldrh	r5, [r0, #8]
 550              		.loc 3 505 0
 551 0010 6469     		ldr	r4, [r4, #20]
 552              	.LVL55:
 553              		.loc 3 501 0
 554 0012 3543     		orrs	r5, r5, r6
 555 0014 0581     		strh	r5, [r0, #8]	@ movhi
 556              		.loc 3 508 0
 557 0016 2360     		str	r3, [r4]
 558              		.loc 3 509 0
 559 0018 0023     		movs	r3, #0
 560              	.LVL56:
 561              		.loc 3 507 0
 562 001a A260     		str	r2, [r4, #8]
 563              		.loc 3 509 0
 564 001c 6360     		str	r3, [r4, #4]
 565              		.loc 3 516 0
 566 001e F0BC     		pop	{r4, r5, r6, r7}
 567              		.cfi_restore 7
 568              		.cfi_restore 6
 569              		.cfi_restore 5
 570              		.cfi_restore 4
ARM GAS  /tmp/ccoZWWVe.s 			page 11


 571              		.cfi_def_cfa_offset 0
 572              	.LVL57:
 573              		.loc 3 515 0
 574 0020 FFF7FEBF 		b	usb_lld_start_in
 575              	.LVL58:
 576              		.cfi_endproc
 577              	.LFE333:
 578              		.size	usbStartTransmitI, .-usbStartTransmitI
 579              		.section	.text.usbStallReceiveI,"ax",%progbits
 580              		.align	1
 581              		.global	usbStallReceiveI
 582              		.thumb
 583              		.thumb_func
 584              		.type	usbStallReceiveI, %function
 585              	usbStallReceiveI:
 586              	.LFB334:
 587              		.loc 3 599 0
 588              		.cfi_startproc
 589              		@ args = 0, pretend = 0, frame = 0
 590              		@ frame_needed = 0, uses_anonymous_args = 0
 591              	.LVL59:
 592 0000 10B5     		push	{r4, lr}
 593              		.cfi_def_cfa_offset 8
 594              		.cfi_offset 4, -8
 595              		.cfi_offset 14, -4
 596              		.loc 3 604 0
 597 0002 0123     		movs	r3, #1
 598 0004 4489     		ldrh	r4, [r0, #10]
 599 0006 03FA01F2 		lsl	r2, r3, r1
 600 000a 1440     		ands	r4, r2, r4
 601 000c 03D1     		bne	.L22
 602              		.loc 3 608 0
 603 000e FFF7FEFF 		bl	usb_lld_stall_out
 604              	.LVL60:
 605              		.loc 3 609 0
 606 0012 2046     		mov	r0, r4
 607 0014 10BD     		pop	{r4, pc}
 608              	.LVL61:
 609              	.L22:
 610              		.loc 3 605 0
 611 0016 1846     		mov	r0, r3
 612              	.LVL62:
 613              		.loc 3 610 0
 614 0018 10BD     		pop	{r4, pc}
 615              		.cfi_endproc
 616              	.LFE334:
 617              		.size	usbStallReceiveI, .-usbStallReceiveI
 618              		.section	.text.usbStallTransmitI,"ax",%progbits
 619              		.align	1
 620              		.global	usbStallTransmitI
 621              		.thumb
 622              		.thumb_func
 623              		.type	usbStallTransmitI, %function
 624              	usbStallTransmitI:
 625              	.LFB335:
 626              		.loc 3 624 0
 627              		.cfi_startproc
ARM GAS  /tmp/ccoZWWVe.s 			page 12


 628              		@ args = 0, pretend = 0, frame = 0
 629              		@ frame_needed = 0, uses_anonymous_args = 0
 630              	.LVL63:
 631 0000 10B5     		push	{r4, lr}
 632              		.cfi_def_cfa_offset 8
 633              		.cfi_offset 4, -8
 634              		.cfi_offset 14, -4
 635              		.loc 3 629 0
 636 0002 0123     		movs	r3, #1
 637 0004 0489     		ldrh	r4, [r0, #8]
 638 0006 03FA01F2 		lsl	r2, r3, r1
 639 000a 1440     		ands	r4, r2, r4
 640 000c 03D1     		bne	.L25
 641              		.loc 3 633 0
 642 000e FFF7FEFF 		bl	usb_lld_stall_in
 643              	.LVL64:
 644              		.loc 3 634 0
 645 0012 2046     		mov	r0, r4
 646 0014 10BD     		pop	{r4, pc}
 647              	.LVL65:
 648              	.L25:
 649              		.loc 3 630 0
 650 0016 1846     		mov	r0, r3
 651              	.LVL66:
 652              		.loc 3 635 0
 653 0018 10BD     		pop	{r4, pc}
 654              		.cfi_endproc
 655              	.LFE335:
 656              		.size	usbStallTransmitI, .-usbStallTransmitI
 657              		.section	.text.usbWakeupHost,"ax",%progbits
 658              		.align	1
 659              		.global	usbWakeupHost
 660              		.thumb
 661              		.thumb_func
 662              		.type	usbWakeupHost, %function
 663              	usbWakeupHost:
 664              	.LFB336:
 665              		.loc 3 646 0
 666              		.cfi_startproc
 667              		@ args = 0, pretend = 0, frame = 0
 668              		@ frame_needed = 0, uses_anonymous_args = 0
 669              	.LVL67:
 670              		.loc 3 648 0
 671 0000 0378     		ldrb	r3, [r0]	@ zero_extendqisi2
 672 0002 052B     		cmp	r3, #5
 673              		.loc 3 646 0
 674 0004 10B5     		push	{r4, lr}
 675              		.cfi_def_cfa_offset 8
 676              		.cfi_offset 4, -8
 677              		.cfi_offset 14, -4
 678              		.loc 3 646 0
 679 0006 0446     		mov	r4, r0
 680              		.loc 3 648 0
 681 0008 11D1     		bne	.L26
 682              		.loc 3 650 0
 683 000a 426D     		ldr	r2, [r0, #84]
 684 000c D2F80438 		ldr	r3, [r2, #2052]
ARM GAS  /tmp/ccoZWWVe.s 			page 13


 685 0010 43F00103 		orr	r3, r3, #1
 686 0014 C2F80438 		str	r3, [r2, #2052]
 687              	.LVL68:
 688              	.LBB146:
 689              	.LBB147:
 690              		.loc 4 720 0
 691 0018 4FF4FA60 		mov	r0, #2000
 692              	.LVL69:
 693 001c FFF7FEFF 		bl	chThdSleep
 694              	.LVL70:
 695              	.LBE147:
 696              	.LBE146:
 697              		.loc 3 650 0
 698 0020 626D     		ldr	r2, [r4, #84]
 699 0022 D2F80438 		ldr	r3, [r2, #2052]
 700 0026 23F00103 		bic	r3, r3, #1
 701 002a C2F80438 		str	r3, [r2, #2052]
 702              	.L26:
 703 002e 10BD     		pop	{r4, pc}
 704              		.cfi_endproc
 705              	.LFE336:
 706              		.size	usbWakeupHost, .-usbWakeupHost
 707              		.section	.text._usb_reset,"ax",%progbits
 708              		.align	1
 709              		.global	_usb_reset
 710              		.thumb
 711              		.thumb_func
 712              		.type	_usb_reset, %function
 713              	_usb_reset:
 714              	.LFB337:
 715              		.loc 3 663 0
 716              		.cfi_startproc
 717              		@ args = 0, pretend = 0, frame = 0
 718              		@ frame_needed = 0, uses_anonymous_args = 0
 719              	.LVL71:
 720 0000 70B5     		push	{r4, r5, r6, lr}
 721              		.cfi_def_cfa_offset 16
 722              		.cfi_offset 4, -16
 723              		.cfi_offset 5, -12
 724              		.cfi_offset 6, -8
 725              		.cfi_offset 14, -4
 726              		.loc 3 667 0
 727 0002 0223     		movs	r3, #2
 728              		.loc 3 670 0
 729 0004 0025     		movs	r5, #0
 730              		.loc 3 663 0
 731 0006 0446     		mov	r4, r0
 732              		.loc 3 667 0
 733 0008 0370     		strb	r3, [r0]
 734              		.loc 3 670 0
 735 000a A0F84C50 		strh	r5, [r0, #76]	@ movhi
 736              		.loc 3 671 0
 737 000e 80F84E50 		strb	r5, [r0, #78]
 738              		.loc 3 672 0
 739 0012 80F84F50 		strb	r5, [r0, #79]
 740              		.loc 3 673 0
 741 0016 0581     		strh	r5, [r0, #8]	@ movhi
ARM GAS  /tmp/ccoZWWVe.s 			page 14


 742              		.loc 3 674 0
 743 0018 4581     		strh	r5, [r0, #10]	@ movhi
 744              	.LVL72:
 745              		.loc 3 691 0
 746 001a C560     		str	r5, [r0, #12]
 747              	.LVL73:
 748 001c 0561     		str	r5, [r0, #16]
 749              	.LVL74:
 750 001e 4561     		str	r5, [r0, #20]
 751              	.LVL75:
 752 0020 8561     		str	r5, [r0, #24]
 753              	.LVL76:
 754              		.loc 3 695 0
 755 0022 80F83450 		strb	r5, [r0, #52]
 756              		.loc 3 698 0
 757 0026 FFF7FEFF 		bl	usb_lld_reset
 758              	.LVL77:
 759              		.loc 3 701 0
 760 002a 6368     		ldr	r3, [r4, #4]
 761 002c 1B68     		ldr	r3, [r3]
 762 002e 23B1     		cbz	r3, .L28
 763              		.loc 3 701 0 is_stmt 0 discriminator 1
 764 0030 2946     		mov	r1, r5
 765 0032 2046     		mov	r0, r4
 766              		.loc 3 702 0 is_stmt 1 discriminator 1
 767 0034 BDE87040 		pop	{r4, r5, r6, lr}
 768              		.cfi_remember_state
 769              		.cfi_restore 14
 770              		.cfi_restore 6
 771              		.cfi_restore 5
 772              		.cfi_restore 4
 773              		.cfi_def_cfa_offset 0
 774              	.LVL78:
 775              		.loc 3 701 0 discriminator 1
 776 0038 1847     		bx	r3	@ indirect register sibling call
 777              	.LVL79:
 778              	.L28:
 779              		.cfi_restore_state
 780 003a 70BD     		pop	{r4, r5, r6, pc}
 781              		.cfi_endproc
 782              	.LFE337:
 783              		.size	_usb_reset, .-_usb_reset
 784              		.section	.text._usb_suspend,"ax",%progbits
 785              		.align	1
 786              		.global	_usb_suspend
 787              		.thumb
 788              		.thumb_func
 789              		.type	_usb_suspend, %function
 790              	_usb_suspend:
 791              	.LFB338:
 792              		.loc 3 713 0
 793              		.cfi_startproc
 794              		@ args = 0, pretend = 0, frame = 0
 795              		@ frame_needed = 0, uses_anonymous_args = 0
 796              		@ link register save eliminated.
 797              	.LVL80:
 798              		.loc 3 721 0
ARM GAS  /tmp/ccoZWWVe.s 			page 15


 799 0000 4368     		ldr	r3, [r0, #4]
 800              		.loc 3 717 0
 801 0002 0278     		ldrb	r2, [r0]	@ zero_extendqisi2
 802              		.loc 3 721 0
 803 0004 1B68     		ldr	r3, [r3]
 804              		.loc 3 717 0
 805 0006 80F85020 		strb	r2, [r0, #80]
 806              		.loc 3 718 0
 807 000a 0522     		movs	r2, #5
 808 000c 0270     		strb	r2, [r0]
 809              		.loc 3 721 0
 810 000e 0BB1     		cbz	r3, .L30
 811              		.loc 3 721 0 is_stmt 0 discriminator 1
 812 0010 0421     		movs	r1, #4
 813 0012 1847     		bx	r3	@ indirect register sibling call
 814              	.LVL81:
 815              	.L30:
 816 0014 7047     		bx	lr
 817              		.cfi_endproc
 818              	.LFE338:
 819              		.size	_usb_suspend, .-_usb_suspend
 820              		.section	.text._usb_wakeup,"ax",%progbits
 821              		.align	1
 822              		.global	_usb_wakeup
 823              		.thumb
 824              		.thumb_func
 825              		.type	_usb_wakeup, %function
 826              	_usb_wakeup:
 827              	.LFB339:
 828              		.loc 3 753 0 is_stmt 1
 829              		.cfi_startproc
 830              		@ args = 0, pretend = 0, frame = 0
 831              		@ frame_needed = 0, uses_anonymous_args = 0
 832              		@ link register save eliminated.
 833              	.LVL82:
 834              		.loc 3 759 0
 835 0000 4368     		ldr	r3, [r0, #4]
 836              		.loc 3 756 0
 837 0002 90F85020 		ldrb	r2, [r0, #80]	@ zero_extendqisi2
 838              		.loc 3 759 0
 839 0006 1B68     		ldr	r3, [r3]
 840              		.loc 3 756 0
 841 0008 0270     		strb	r2, [r0]
 842              		.loc 3 759 0
 843 000a 0BB1     		cbz	r3, .L32
 844              		.loc 3 759 0 is_stmt 0 discriminator 1
 845 000c 0521     		movs	r1, #5
 846 000e 1847     		bx	r3	@ indirect register sibling call
 847              	.LVL83:
 848              	.L32:
 849 0010 7047     		bx	lr
 850              		.cfi_endproc
 851              	.LFE339:
 852              		.size	_usb_wakeup, .-_usb_wakeup
 853              		.section	.text._usb_ep0setup,"ax",%progbits
 854              		.align	1
 855              		.global	_usb_ep0setup
ARM GAS  /tmp/ccoZWWVe.s 			page 16


 856              		.thumb
 857              		.thumb_func
 858              		.type	_usb_ep0setup, %function
 859              	_usb_ep0setup:
 860              	.LFB340:
 861              		.loc 3 772 0 is_stmt 1
 862              		.cfi_startproc
 863              		@ args = 0, pretend = 0, frame = 0
 864              		@ frame_needed = 0, uses_anonymous_args = 0
 865              	.LVL84:
 866              		.loc 3 777 0
 867 0000 90F83430 		ldrb	r3, [r0, #52]	@ zero_extendqisi2
 868              		.loc 3 772 0
 869 0004 70B5     		push	{r4, r5, r6, lr}
 870              		.cfi_def_cfa_offset 16
 871              		.cfi_offset 4, -16
 872              		.cfi_offset 5, -12
 873              		.cfi_offset 6, -8
 874              		.cfi_offset 14, -4
 875              		.loc 3 772 0
 876 0006 0446     		mov	r4, r0
 877              		.loc 3 777 0
 878 0008 13B1     		cbz	r3, .L35
 879              		.loc 3 782 0
 880 000a 0023     		movs	r3, #0
 881 000c 80F83430 		strb	r3, [r0, #52]
 882              	.L35:
 883              		.loc 3 786 0
 884 0010 04F14402 		add	r2, r4, #68
 885 0014 2046     		mov	r0, r4
 886              	.LVL85:
 887 0016 FFF7FEFF 		bl	usb_lld_read_setup
 888              	.LVL86:
 889              		.loc 3 791 0
 890 001a 6368     		ldr	r3, [r4, #4]
 891 001c 9B68     		ldr	r3, [r3, #8]
 892 001e 33B9     		cbnz	r3, .L36
 893              	.L40:
 894              		.loc 3 797 0
 895 0020 94F84430 		ldrb	r3, [r4, #68]	@ zero_extendqisi2
 896 0024 13F06006 		ands	r6, r3, #96
 897 0028 40F0F780 		bne	.L37
 898 002c 05E0     		b	.L121
 899              	.L36:
 900              		.loc 3 792 0 discriminator 1
 901 002e 2046     		mov	r0, r4
 902 0030 9847     		blx	r3
 903              	.LVL87:
 904              		.loc 3 791 0 discriminator 1
 905 0032 0028     		cmp	r0, #0
 906 0034 40F00381 		bne	.L39
 907 0038 F2E7     		b	.L40
 908              	.L121:
 909              	.LVL88:
 910              	.LBB176:
 911              	.LBB177:
 912              		.loc 3 88 0
ARM GAS  /tmp/ccoZWWVe.s 			page 17


 913 003a 94F84550 		ldrb	r5, [r4, #69]	@ zero_extendqisi2
 914 003e 03F07F03 		and	r3, r3, #127
 915 0042 43EA0525 		orr	r5, r3, r5, lsl #8
 916 0046 40F20233 		movw	r3, #770
 917 004a 9D42     		cmp	r5, r3
 918 004c 00F0D480 		beq	.L42
 919 0050 14D8     		bhi	.L43
 920 0052 022D     		cmp	r5, #2
 921 0054 00F0A580 		beq	.L44
 922 0058 04D8     		bhi	.L45
 923 005a 55B3     		cbz	r5, .L46
 924 005c 012D     		cmp	r5, #1
 925 005e 00F09980 		beq	.L47
 926 0062 DAE0     		b	.L37
 927              	.L45:
 928 0064 B5F5817F 		cmp	r5, #258
 929 0068 00F0B580 		beq	.L48
 930 006c B5F5407F 		cmp	r5, #768
 931 0070 30D0     		beq	.L49
 932 0072 B5F5807F 		cmp	r5, #256
 933 0076 40F0D080 		bne	.L37
 934 007a 21E0     		b	.L122
 935              	.L43:
 936 007c 40F20163 		movw	r3, #1537
 937 0080 9D42     		cmp	r5, r3
 938 0082 06D8     		bhi	.L51
 939 0084 B5F5C06F 		cmp	r5, #1536
 940 0088 4CD2     		bcs	.L52
 941 008a B5F5A06F 		cmp	r5, #1280
 942 008e 30D0     		beq	.L53
 943 0090 C3E0     		b	.L37
 944              	.L51:
 945 0092 B5F5106F 		cmp	r5, #2304
 946 0096 5AD0     		beq	.L54
 947 0098 40F60243 		movw	r3, #3074
 948 009c 9D42     		cmp	r5, r3
 949 009e 79D0     		beq	.L47
 950 00a0 B5F5006F 		cmp	r5, #2048
 951 00a4 40F0B980 		bne	.L37
 952              		.loc 3 142 0
 953 00a8 04F14F03 		add	r3, r4, #79
 954 00ac A363     		str	r3, [r4, #56]
 955 00ae 0123     		movs	r3, #1
 956 00b0 4BE0     		b	.L116
 957              	.L46:
 958              		.loc 3 93 0
 959 00b2 04F14C03 		add	r3, r4, #76
 960 00b6 A363     		str	r3, [r4, #56]
 961 00b8 0223     		movs	r3, #2
 962 00ba E363     		str	r3, [r4, #60]
 963 00bc 2564     		str	r5, [r4, #64]
 964 00be BEE0     		b	.L39
 965              	.L122:
 966              		.loc 3 98 0
 967 00c0 94F84630 		ldrb	r3, [r4, #70]	@ zero_extendqisi2
 968 00c4 012B     		cmp	r3, #1
 969 00c6 40F0A880 		bne	.L37
ARM GAS  /tmp/ccoZWWVe.s 			page 18


 970              		.loc 3 99 0
 971 00ca B4F84C30 		ldrh	r3, [r4, #76]
 972 00ce 23F00203 		bic	r3, r3, #2
 973 00d2 08E0     		b	.L112
 974              	.L49:
 975              		.loc 3 107 0
 976 00d4 94F84630 		ldrb	r3, [r4, #70]	@ zero_extendqisi2
 977 00d8 012B     		cmp	r3, #1
 978 00da 40F09E80 		bne	.L37
 979              		.loc 3 108 0
 980 00de B4F84C30 		ldrh	r3, [r4, #76]
 981 00e2 43F00203 		orr	r3, r3, #2
 982              	.L112:
 983 00e6 A4F84C30 		strh	r3, [r4, #76]	@ movhi
 984              		.loc 3 109 0
 985 00ea A663     		str	r6, [r4, #56]
 986 00ec E663     		str	r6, [r4, #60]
 987 00ee 2664     		str	r6, [r4, #64]
 988 00f0 AFE0     		b	.L79
 989              	.L53:
 990              		.loc 3 118 0
 991 00f2 B4F84430 		ldrh	r3, [r4, #68]
 992 00f6 B3F5A06F 		cmp	r3, #1280
 993 00fa 0ED1     		bne	.L60
 994              	.LVL89:
 995              	.LBB178:
 996              	.LBB179:
 997              		.loc 3 66 0
 998 00fc 94F84630 		ldrb	r3, [r4, #70]	@ zero_extendqisi2
 999 0100 84F84E30 		strb	r3, [r4, #78]
 1000              		.loc 3 67 0
 1001 0104 2046     		mov	r0, r4
 1002 0106 FFF7FEFF 		bl	usb_lld_set_address
 1003              	.LVL90:
 1004              		.loc 3 68 0
 1005 010a 6368     		ldr	r3, [r4, #4]
 1006 010c 1B68     		ldr	r3, [r3]
 1007 010e 13B1     		cbz	r3, .L61
 1008 0110 0121     		movs	r1, #1
 1009 0112 2046     		mov	r0, r4
 1010 0114 9847     		blx	r3
 1011              	.LVL91:
 1012              	.L61:
 1013              		.loc 3 69 0
 1014 0116 0323     		movs	r3, #3
 1015 0118 2370     		strb	r3, [r4]
 1016              	.LVL92:
 1017              	.L60:
 1018              	.LBE179:
 1019              	.LBE178:
 1020              		.loc 3 122 0
 1021 011a 0023     		movs	r3, #0
 1022 011c A363     		str	r3, [r4, #56]
 1023 011e E363     		str	r3, [r4, #60]
 1024 0120 2364     		str	r3, [r4, #64]
 1025 0122 96E0     		b	.L79
 1026              	.L52:
ARM GAS  /tmp/ccoZWWVe.s 			page 19


 1027              		.loc 3 130 0
 1028 0124 94F84920 		ldrb	r2, [r4, #73]	@ zero_extendqisi2
 1029 0128 6168     		ldr	r1, [r4, #4]
 1030 012a 94F84830 		ldrb	r3, [r4, #72]	@ zero_extendqisi2
 1031 012e 4D68     		ldr	r5, [r1, #4]
 1032 0130 94F84710 		ldrb	r1, [r4, #71]	@ zero_extendqisi2
 1033 0134 43EA0223 		orr	r3, r3, r2, lsl #8
 1034 0138 2046     		mov	r0, r4
 1035 013a 94F84620 		ldrb	r2, [r4, #70]	@ zero_extendqisi2
 1036 013e A847     		blx	r5
 1037              	.LVL93:
 1038              		.loc 3 133 0
 1039 0140 0028     		cmp	r0, #0
 1040 0142 6AD0     		beq	.L37
 1041              		.loc 3 137 0
 1042 0144 4368     		ldr	r3, [r0, #4]
 1043 0146 A363     		str	r3, [r4, #56]
 1044 0148 0368     		ldr	r3, [r0]
 1045              	.LVL94:
 1046              	.L116:
 1047              		.loc 3 142 0
 1048 014a E363     		str	r3, [r4, #60]
 1049 014c 41E0     		b	.L113
 1050              	.L54:
 1051              		.loc 3 153 0
 1052 014e 2378     		ldrb	r3, [r4]	@ zero_extendqisi2
 1053 0150 042B     		cmp	r3, #4
 1054 0152 0FD1     		bne	.L63
 1055              	.LBB180:
 1056              	.LBB181:
 1057              		.loc 4 533 0
 1058 0154 FFF7FEFF 		bl	chSysLockFromISR
 1059              	.LVL95:
 1060              	.LBE181:
 1061              	.LBE180:
 1062              		.loc 3 156 0
 1063 0158 2046     		mov	r0, r4
 1064 015a FFF7FEFF 		bl	usbDisableEndpointsI
 1065              	.LVL96:
 1066              	.LBB182:
 1067              	.LBB183:
 1068              		.loc 4 544 0
 1069 015e FFF7FEFF 		bl	chSysUnlockFromISR
 1070              	.LVL97:
 1071              	.LBE183:
 1072              	.LBE182:
 1073              		.loc 3 160 0
 1074 0162 6368     		ldr	r3, [r4, #4]
 1075              		.loc 3 158 0
 1076 0164 84F84F60 		strb	r6, [r4, #79]
 1077              		.loc 3 160 0
 1078 0168 1B68     		ldr	r3, [r3]
 1079              		.loc 3 159 0
 1080 016a 0321     		movs	r1, #3
 1081 016c 2170     		strb	r1, [r4]
 1082              		.loc 3 160 0
 1083 016e 0BB1     		cbz	r3, .L63
ARM GAS  /tmp/ccoZWWVe.s 			page 20


 1084 0170 2046     		mov	r0, r4
 1085 0172 9847     		blx	r3
 1086              	.LVL98:
 1087              	.L63:
 1088              		.loc 3 162 0
 1089 0174 94F84630 		ldrb	r3, [r4, #70]	@ zero_extendqisi2
 1090 0178 002B     		cmp	r3, #0
 1091 017a CED0     		beq	.L60
 1092              		.loc 3 164 0
 1093 017c 84F84F30 		strb	r3, [r4, #79]
 1094              		.loc 3 165 0
 1095 0180 0423     		movs	r3, #4
 1096 0182 2370     		strb	r3, [r4]
 1097              		.loc 3 166 0
 1098 0184 6368     		ldr	r3, [r4, #4]
 1099 0186 1B68     		ldr	r3, [r3]
 1100 0188 002B     		cmp	r3, #0
 1101 018a C6D0     		beq	.L60
 1102 018c 0221     		movs	r1, #2
 1103 018e 2046     		mov	r0, r4
 1104 0190 9847     		blx	r3
 1105              	.LVL99:
 1106 0192 C2E7     		b	.L60
 1107              	.L47:
 1108              		.loc 3 176 0
 1109 0194 494B     		ldr	r3, .L123
 1110 0196 A363     		str	r3, [r4, #56]
 1111 0198 0223     		movs	r3, #2
 1112 019a E363     		str	r3, [r4, #60]
 1113 019c 0023     		movs	r3, #0
 1114 019e 2364     		str	r3, [r4, #64]
 1115 01a0 4DE0     		b	.L39
 1116              	.L44:
 1117              		.loc 3 181 0
 1118 01a2 94F84810 		ldrb	r1, [r4, #72]	@ zero_extendqisi2
 1119 01a6 11F0800F 		tst	r1, #128
 1120              		.loc 3 182 0
 1121 01aa 2046     		mov	r0, r4
 1122 01ac 01F00F01 		and	r1, r1, #15
 1123              		.loc 3 181 0
 1124 01b0 02D0     		beq	.L66
 1125              	.LVL100:
 1126              		.loc 3 182 0
 1127 01b2 FFF7FEFF 		bl	usb_lld_get_status_in
 1128              	.LVL101:
 1129 01b6 01E0     		b	.L120
 1130              	.LVL102:
 1131              	.L66:
 1132              		.loc 3 199 0
 1133 01b8 FFF7FEFF 		bl	usb_lld_get_status_out
 1134              	.LVL103:
 1135              	.L120:
 1136 01bc 0128     		cmp	r0, #1
 1137 01be 05D0     		beq	.L69
 1138 01c0 0228     		cmp	r0, #2
 1139 01c2 2AD1     		bne	.L37
 1140              		.loc 3 207 0
ARM GAS  /tmp/ccoZWWVe.s 			page 21


 1141 01c4 3E4B     		ldr	r3, .L123+4
 1142 01c6 A363     		str	r3, [r4, #56]
 1143 01c8 E063     		str	r0, [r4, #60]
 1144 01ca 02E0     		b	.L113
 1145              	.L69:
 1146              		.loc 3 202 0
 1147 01cc 3D4B     		ldr	r3, .L123+8
 1148 01ce A363     		str	r3, [r4, #56]
 1149 01d0 E563     		str	r5, [r4, #60]
 1150              	.L113:
 1151 01d2 2664     		str	r6, [r4, #64]
 1152 01d4 33E0     		b	.L39
 1153              	.L48:
 1154              		.loc 3 217 0
 1155 01d6 94F84630 		ldrb	r3, [r4, #70]	@ zero_extendqisi2
 1156 01da F3B9     		cbnz	r3, .L37
 1157              		.loc 3 221 0
 1158 01dc 94F84830 		ldrb	r3, [r4, #72]	@ zero_extendqisi2
 1159 01e0 13F00F01 		ands	r1, r3, #15
 1160 01e4 99D0     		beq	.L60
 1161              		.loc 3 222 0
 1162 01e6 1A06     		lsls	r2, r3, #24
 1163              		.loc 3 223 0
 1164 01e8 2046     		mov	r0, r4
 1165              		.loc 3 222 0
 1166 01ea 02D5     		bpl	.L71
 1167              	.LVL104:
 1168              		.loc 3 223 0
 1169 01ec FFF7FEFF 		bl	usb_lld_clear_in
 1170              	.LVL105:
 1171 01f0 93E7     		b	.L60
 1172              	.LVL106:
 1173              	.L71:
 1174              		.loc 3 226 0
 1175 01f2 FFF7FEFF 		bl	usb_lld_clear_out
 1176              	.LVL107:
 1177 01f6 90E7     		b	.L60
 1178              	.L42:
 1179              		.loc 3 233 0
 1180 01f8 94F84630 		ldrb	r3, [r4, #70]	@ zero_extendqisi2
 1181 01fc 6BB9     		cbnz	r3, .L37
 1182              		.loc 3 237 0
 1183 01fe 94F84830 		ldrb	r3, [r4, #72]	@ zero_extendqisi2
 1184 0202 13F00F01 		ands	r1, r3, #15
 1185 0206 88D0     		beq	.L60
 1186              		.loc 3 238 0
 1187 0208 1B06     		lsls	r3, r3, #24
 1188              		.loc 3 239 0
 1189 020a 2046     		mov	r0, r4
 1190              		.loc 3 238 0
 1191 020c 02D5     		bpl	.L72
 1192              	.LVL108:
 1193              		.loc 3 239 0
 1194 020e FFF7FEFF 		bl	usb_lld_stall_in
 1195              	.LVL109:
 1196 0212 82E7     		b	.L60
 1197              	.LVL110:
ARM GAS  /tmp/ccoZWWVe.s 			page 22


 1198              	.L72:
 1199              		.loc 3 242 0
 1200 0214 FFF7FEFF 		bl	usb_lld_stall_out
 1201              	.LVL111:
 1202 0218 7FE7     		b	.L60
 1203              	.LVL112:
 1204              	.L37:
 1205              	.LBE177:
 1206              	.LBE176:
 1207              		.loc 3 803 0
 1208 021a 0021     		movs	r1, #0
 1209 021c 2046     		mov	r0, r4
 1210 021e FFF7FEFF 		bl	usb_lld_stall_in
 1211              	.LVL113:
 1212              		.loc 3 804 0
 1213 0222 0021     		movs	r1, #0
 1214 0224 2046     		mov	r0, r4
 1215 0226 FFF7FEFF 		bl	usb_lld_stall_out
 1216              	.LVL114:
 1217              		.loc 3 805 0
 1218 022a 6368     		ldr	r3, [r4, #4]
 1219 022c 1B68     		ldr	r3, [r3]
 1220 022e 13B1     		cbz	r3, .L73
 1221              		.loc 3 805 0 is_stmt 0 discriminator 1
 1222 0230 0621     		movs	r1, #6
 1223 0232 2046     		mov	r0, r4
 1224 0234 9847     		blx	r3
 1225              	.LVL115:
 1226              	.L73:
 1227              		.loc 3 806 0 is_stmt 1
 1228 0236 0623     		movs	r3, #6
 1229 0238 84F83430 		strb	r3, [r4, #52]
 1230              		.loc 3 807 0
 1231 023c 70BD     		pop	{r4, r5, r6, pc}
 1232              	.LVL116:
 1233              	.L39:
 1234              		.loc 3 819 0
 1235 023e 94F84B20 		ldrb	r2, [r4, #75]	@ zero_extendqisi2
 1236 0242 94F84A30 		ldrb	r3, [r4, #74]	@ zero_extendqisi2
 1237 0246 43EA0223 		orr	r3, r3, r2, lsl #8
 1238              	.LVL117:
 1239              		.loc 3 821 0
 1240 024a E26B     		ldr	r2, [r4, #60]
 1241 024c 9342     		cmp	r3, r2
 1242 024e 00D2     		bcs	.L79
 1243              		.loc 3 822 0
 1244 0250 E363     		str	r3, [r4, #60]
 1245              	.LVL118:
 1246              	.L79:
 1247              		.loc 3 824 0
 1248 0252 94F94430 		ldrsb	r3, [r4, #68]
 1249 0256 E56B     		ldr	r5, [r4, #60]
 1250 0258 002B     		cmp	r3, #0
 1251 025a 12DA     		bge	.L75
 1252              		.loc 3 826 0
 1253 025c 45B1     		cbz	r5, .L76
 1254              		.loc 3 828 0
ARM GAS  /tmp/ccoZWWVe.s 			page 23


 1255 025e 0923     		movs	r3, #9
 1256 0260 84F83430 		strb	r3, [r4, #52]
 1257              	.LBB184:
 1258              	.LBB185:
 1259              		.loc 4 533 0
 1260 0264 FFF7FEFF 		bl	chSysLockFromISR
 1261              	.LVL119:
 1262              	.LBE185:
 1263              	.LBE184:
 1264              		.loc 3 830 0
 1265 0268 E36B     		ldr	r3, [r4, #60]
 1266 026a A26B     		ldr	r2, [r4, #56]
 1267 026c 0021     		movs	r1, #0
 1268 026e 1DE0     		b	.L114
 1269              	.L76:
 1270              		.loc 3 836 0
 1271 0270 1423     		movs	r3, #20
 1272 0272 84F83430 		strb	r3, [r4, #52]
 1273              	.LBB186:
 1274              	.LBB187:
 1275              		.loc 4 533 0
 1276 0276 FFF7FEFF 		bl	chSysLockFromISR
 1277              	.LVL120:
 1278              	.LBE187:
 1279              	.LBE186:
 1280              		.loc 3 839 0
 1281 027a 2B46     		mov	r3, r5
 1282 027c 2A46     		mov	r2, r5
 1283 027e 2946     		mov	r1, r5
 1284 0280 08E0     		b	.L117
 1285              	.L75:
 1286              		.loc 3 848 0
 1287 0282 5DB1     		cbz	r5, .L77
 1288              		.loc 3 850 0
 1289 0284 1523     		movs	r3, #21
 1290 0286 84F83430 		strb	r3, [r4, #52]
 1291              	.LBB188:
 1292              	.LBB189:
 1293              		.loc 4 533 0
 1294 028a FFF7FEFF 		bl	chSysLockFromISR
 1295              	.LVL121:
 1296              	.LBE189:
 1297              	.LBE188:
 1298              		.loc 3 852 0
 1299 028e E36B     		ldr	r3, [r4, #60]
 1300 0290 A26B     		ldr	r2, [r4, #56]
 1301 0292 0021     		movs	r1, #0
 1302              	.L117:
 1303 0294 2046     		mov	r0, r4
 1304 0296 FFF7FEFF 		bl	usbStartReceiveI
 1305              	.LVL122:
 1306 029a 0AE0     		b	.L115
 1307              	.L77:
 1308              		.loc 3 858 0
 1309 029c 0B23     		movs	r3, #11
 1310 029e 84F83430 		strb	r3, [r4, #52]
 1311              	.LBB190:
ARM GAS  /tmp/ccoZWWVe.s 			page 24


 1312              	.LBB191:
 1313              		.loc 4 533 0
 1314 02a2 FFF7FEFF 		bl	chSysLockFromISR
 1315              	.LVL123:
 1316              	.LBE191:
 1317              	.LBE190:
 1318              		.loc 3 861 0
 1319 02a6 2B46     		mov	r3, r5
 1320 02a8 2A46     		mov	r2, r5
 1321 02aa 2946     		mov	r1, r5
 1322              	.L114:
 1323 02ac 2046     		mov	r0, r4
 1324 02ae FFF7FEFF 		bl	usbStartTransmitI
 1325              	.LVL124:
 1326              	.L115:
 1327              		.loc 3 868 0
 1328 02b2 BDE87040 		pop	{r4, r5, r6, lr}
 1329              		.cfi_restore 14
 1330              		.cfi_restore 6
 1331              		.cfi_restore 5
 1332              		.cfi_restore 4
 1333              		.cfi_def_cfa_offset 0
 1334              	.LVL125:
 1335              	.LBB192:
 1336              	.LBB193:
 1337              		.loc 4 544 0
 1338 02b6 FFF7FEBF 		b	chSysUnlockFromISR
 1339              	.LVL126:
 1340              	.L124:
 1341 02ba 00BF     		.align	2
 1342              	.L123:
 1343 02bc 00000000 		.word	.LANCHOR0
 1344 02c0 00000000 		.word	.LANCHOR2
 1345 02c4 00000000 		.word	.LANCHOR1
 1346              	.LBE193:
 1347              	.LBE192:
 1348              		.cfi_endproc
 1349              	.LFE340:
 1350              		.size	_usb_ep0setup, .-_usb_ep0setup
 1351              		.section	.text._usb_ep0in,"ax",%progbits
 1352              		.align	1
 1353              		.global	_usb_ep0in
 1354              		.thumb
 1355              		.thumb_func
 1356              		.type	_usb_ep0in, %function
 1357              	_usb_ep0in:
 1358              	.LFB341:
 1359              		.loc 3 880 0
 1360              		.cfi_startproc
 1361              		@ args = 0, pretend = 0, frame = 0
 1362              		@ frame_needed = 0, uses_anonymous_args = 0
 1363              	.LVL127:
 1364 0000 38B5     		push	{r3, r4, r5, lr}
 1365              		.cfi_def_cfa_offset 16
 1366              		.cfi_offset 3, -16
 1367              		.cfi_offset 4, -12
 1368              		.cfi_offset 5, -8
ARM GAS  /tmp/ccoZWWVe.s 			page 25


 1369              		.cfi_offset 14, -4
 1370              		.loc 3 884 0
 1371 0002 90F83430 		ldrb	r3, [r0, #52]	@ zero_extendqisi2
 1372              		.loc 3 880 0
 1373 0006 0446     		mov	r4, r0
 1374              		.loc 3 884 0
 1375 0008 152B     		cmp	r3, #21
 1376 000a 4CD8     		bhi	.L125
 1377 000c DFE803F0 		tbb	[pc, r3]
 1378              	.L128:
 1379 0010 3B       		.byte	(.L127-.L128)/2
 1380 0011 4B       		.byte	(.L125-.L128)/2
 1381 0012 4B       		.byte	(.L125-.L128)/2
 1382 0013 4B       		.byte	(.L125-.L128)/2
 1383 0014 4B       		.byte	(.L125-.L128)/2
 1384 0015 4B       		.byte	(.L125-.L128)/2
 1385 0016 3B       		.byte	(.L127-.L128)/2
 1386 0017 4B       		.byte	(.L125-.L128)/2
 1387 0018 4B       		.byte	(.L125-.L128)/2
 1388 0019 0B       		.byte	(.L129-.L128)/2
 1389 001a 27       		.byte	(.L130-.L128)/2
 1390 001b 36       		.byte	(.L131-.L128)/2
 1391 001c 4B       		.byte	(.L125-.L128)/2
 1392 001d 4B       		.byte	(.L125-.L128)/2
 1393 001e 4B       		.byte	(.L125-.L128)/2
 1394 001f 4B       		.byte	(.L125-.L128)/2
 1395 0020 4B       		.byte	(.L125-.L128)/2
 1396 0021 4B       		.byte	(.L125-.L128)/2
 1397 0022 4B       		.byte	(.L125-.L128)/2
 1398 0023 4B       		.byte	(.L125-.L128)/2
 1399 0024 3B       		.byte	(.L127-.L128)/2
 1400 0025 3B       		.byte	(.L127-.L128)/2
 1401              		.p2align 1
 1402              	.L129:
 1403              	.LVL128:
 1404              		.loc 3 890 0
 1405 0026 90F84B10 		ldrb	r1, [r0, #75]	@ zero_extendqisi2
 1406              	.LVL129:
 1407 002a 90F84A20 		ldrb	r2, [r0, #74]	@ zero_extendqisi2
 1408 002e C36B     		ldr	r3, [r0, #60]
 1409 0030 42EA0122 		orr	r2, r2, r1, lsl #8
 1410 0034 9A42     		cmp	r2, r3
 1411 0036 12D9     		bls	.L130
 1412              		.loc 3 891 0 discriminator 1
 1413 0038 C268     		ldr	r2, [r0, #12]
 1414              		.loc 3 890 0 discriminator 1
 1415 003a 158A     		ldrh	r5, [r2, #16]
 1416 003c B3FBF5F2 		udiv	r2, r3, r5
 1417 0040 05FB1235 		mls	r5, r5, r2, r3
 1418 0044 5DB9     		cbnz	r5, .L130
 1419              	.LBB194:
 1420              	.LBB195:
 1421              		.loc 4 533 0
 1422 0046 FFF7FEFF 		bl	chSysLockFromISR
 1423              	.LVL130:
 1424              	.LBE195:
 1425              	.LBE194:
ARM GAS  /tmp/ccoZWWVe.s 			page 26


 1426              		.loc 3 893 0
 1427 004a 2B46     		mov	r3, r5
 1428 004c 2A46     		mov	r2, r5
 1429 004e 2946     		mov	r1, r5
 1430 0050 2046     		mov	r0, r4
 1431 0052 FFF7FEFF 		bl	usbStartTransmitI
 1432              	.LVL131:
 1433              	.LBB196:
 1434              	.LBB197:
 1435              		.loc 4 544 0
 1436 0056 FFF7FEFF 		bl	chSysUnlockFromISR
 1437              	.LVL132:
 1438              	.LBE197:
 1439              	.LBE196:
 1440              		.loc 3 895 0
 1441 005a 0A23     		movs	r3, #10
 1442 005c 21E0     		b	.L140
 1443              	.LVL133:
 1444              	.L130:
 1445              		.loc 3 901 0
 1446 005e 1423     		movs	r3, #20
 1447 0060 84F83430 		strb	r3, [r4, #52]
 1448              	.LBB198:
 1449              	.LBB199:
 1450              		.loc 4 533 0
 1451 0064 FFF7FEFF 		bl	chSysLockFromISR
 1452              	.LVL134:
 1453              	.LBE199:
 1454              	.LBE198:
 1455              		.loc 3 904 0
 1456 0068 0023     		movs	r3, #0
 1457 006a 1A46     		mov	r2, r3
 1458 006c 1946     		mov	r1, r3
 1459 006e 2046     		mov	r0, r4
 1460 0070 FFF7FEFF 		bl	usbStartReceiveI
 1461              	.LVL135:
 1462              		.loc 3 935 0
 1463 0074 BDE83840 		pop	{r3, r4, r5, lr}
 1464              		.cfi_remember_state
 1465              		.cfi_restore 14
 1466              		.cfi_restore 5
 1467              		.cfi_restore 4
 1468              		.cfi_restore 3
 1469              		.cfi_def_cfa_offset 0
 1470              	.LVL136:
 1471              	.LBB200:
 1472              	.LBB201:
 1473              		.loc 4 544 0
 1474 0078 FFF7FEBF 		b	chSysUnlockFromISR
 1475              	.LVL137:
 1476              	.L131:
 1477              		.cfi_restore_state
 1478              	.LBE201:
 1479              	.LBE200:
 1480              		.loc 3 912 0
 1481 007c 036C     		ldr	r3, [r0, #64]
 1482 007e 03B1     		cbz	r3, .L132
ARM GAS  /tmp/ccoZWWVe.s 			page 27


 1483              		.loc 3 913 0
 1484 0080 9847     		blx	r3
 1485              	.LVL138:
 1486              	.L132:
 1487              		.loc 3 915 0
 1488 0082 0023     		movs	r3, #0
 1489 0084 0DE0     		b	.L140
 1490              	.LVL139:
 1491              	.L127:
 1492              		.loc 3 927 0
 1493 0086 0021     		movs	r1, #0
 1494              	.LVL140:
 1495 0088 FFF7FEFF 		bl	usb_lld_stall_in
 1496              	.LVL141:
 1497              		.loc 3 928 0
 1498 008c 0021     		movs	r1, #0
 1499 008e 2046     		mov	r0, r4
 1500 0090 FFF7FEFF 		bl	usb_lld_stall_out
 1501              	.LVL142:
 1502              		.loc 3 929 0
 1503 0094 6368     		ldr	r3, [r4, #4]
 1504 0096 1B68     		ldr	r3, [r3]
 1505 0098 13B1     		cbz	r3, .L133
 1506              		.loc 3 929 0 is_stmt 0 discriminator 1
 1507 009a 0621     		movs	r1, #6
 1508 009c 2046     		mov	r0, r4
 1509 009e 9847     		blx	r3
 1510              	.LVL143:
 1511              	.L133:
 1512              		.loc 3 930 0 is_stmt 1
 1513 00a0 0623     		movs	r3, #6
 1514              	.L140:
 1515 00a2 84F83430 		strb	r3, [r4, #52]
 1516              	.L125:
 1517 00a6 38BD     		pop	{r3, r4, r5, pc}
 1518              		.cfi_endproc
 1519              	.LFE341:
 1520              		.size	_usb_ep0in, .-_usb_ep0in
 1521              		.section	.text._usb_ep0out,"ax",%progbits
 1522              		.align	1
 1523              		.global	_usb_ep0out
 1524              		.thumb
 1525              		.thumb_func
 1526              		.type	_usb_ep0out, %function
 1527              	_usb_ep0out:
 1528              	.LFB342:
 1529              		.loc 3 947 0
 1530              		.cfi_startproc
 1531              		@ args = 0, pretend = 0, frame = 0
 1532              		@ frame_needed = 0, uses_anonymous_args = 0
 1533              	.LVL144:
 1534              		.loc 3 950 0
 1535 0000 90F83420 		ldrb	r2, [r0, #52]	@ zero_extendqisi2
 1536 0004 152A     		cmp	r2, #21
 1537              		.loc 3 947 0
 1538 0006 38B5     		push	{r3, r4, r5, lr}
 1539              		.cfi_def_cfa_offset 16
ARM GAS  /tmp/ccoZWWVe.s 			page 28


 1540              		.cfi_offset 3, -16
 1541              		.cfi_offset 4, -12
 1542              		.cfi_offset 5, -8
 1543              		.cfi_offset 14, -4
 1544              		.loc 3 947 0
 1545 0008 0446     		mov	r4, r0
 1546 000a 33D8     		bhi	.L141
 1547 000c 0123     		movs	r3, #1
 1548 000e 03FA02F2 		lsl	r2, r3, r2
 1549 0012 40F64163 		movw	r3, #3649
 1550 0016 1340     		ands	r3, r3, r2
 1551 0018 E3B9     		cbnz	r3, .L143
 1552 001a 12F48015 		ands	r5, r2, #1048576
 1553 001e 10D1     		bne	.L144
 1554 0020 9302     		lsls	r3, r2, #10
 1555 0022 27D5     		bpl	.L141
 1556              		.loc 3 953 0
 1557 0024 0B23     		movs	r3, #11
 1558 0026 80F83430 		strb	r3, [r0, #52]
 1559              	.LBB202:
 1560              	.LBB203:
 1561              		.loc 4 533 0
 1562 002a FFF7FEFF 		bl	chSysLockFromISR
 1563              	.LVL145:
 1564              	.LBE203:
 1565              	.LBE202:
 1566              		.loc 3 956 0
 1567 002e 2B46     		mov	r3, r5
 1568 0030 2A46     		mov	r2, r5
 1569 0032 2946     		mov	r1, r5
 1570 0034 2046     		mov	r0, r4
 1571 0036 FFF7FEFF 		bl	usbStartTransmitI
 1572              	.LVL146:
 1573              		.loc 3 994 0
 1574 003a BDE83840 		pop	{r3, r4, r5, lr}
 1575              		.cfi_remember_state
 1576              		.cfi_restore 14
 1577              		.cfi_restore 5
 1578              		.cfi_restore 4
 1579              		.cfi_restore 3
 1580              		.cfi_def_cfa_offset 0
 1581              	.LVL147:
 1582              	.LBB204:
 1583              	.LBB205:
 1584              		.loc 4 544 0
 1585 003e FFF7FEBF 		b	chSysUnlockFromISR
 1586              	.LVL148:
 1587              	.L144:
 1588              		.cfi_restore_state
 1589              	.LBE205:
 1590              	.LBE204:
 1591              		.loc 3 966 0
 1592 0042 C368     		ldr	r3, [r0, #12]
 1593 0044 9B69     		ldr	r3, [r3, #24]
 1594 0046 5B68     		ldr	r3, [r3, #4]
 1595 0048 A3B9     		cbnz	r3, .L141
 1596              		.loc 3 970 0
ARM GAS  /tmp/ccoZWWVe.s 			page 29


 1597 004a 036C     		ldr	r3, [r0, #64]
 1598 004c 03B1     		cbz	r3, .L145
 1599              		.loc 3 971 0
 1600 004e 9847     		blx	r3
 1601              	.LVL149:
 1602              	.L145:
 1603              		.loc 3 973 0
 1604 0050 0023     		movs	r3, #0
 1605 0052 0DE0     		b	.L156
 1606              	.LVL150:
 1607              	.L143:
 1608              		.loc 3 986 0
 1609 0054 0021     		movs	r1, #0
 1610              	.LVL151:
 1611 0056 FFF7FEFF 		bl	usb_lld_stall_in
 1612              	.LVL152:
 1613              		.loc 3 987 0
 1614 005a 0021     		movs	r1, #0
 1615 005c 2046     		mov	r0, r4
 1616 005e FFF7FEFF 		bl	usb_lld_stall_out
 1617              	.LVL153:
 1618              		.loc 3 988 0
 1619 0062 6368     		ldr	r3, [r4, #4]
 1620 0064 1B68     		ldr	r3, [r3]
 1621 0066 13B1     		cbz	r3, .L146
 1622              		.loc 3 988 0 is_stmt 0 discriminator 1
 1623 0068 0621     		movs	r1, #6
 1624 006a 2046     		mov	r0, r4
 1625 006c 9847     		blx	r3
 1626              	.LVL154:
 1627              	.L146:
 1628              		.loc 3 989 0 is_stmt 1
 1629 006e 0623     		movs	r3, #6
 1630              	.L156:
 1631 0070 84F83430 		strb	r3, [r4, #52]
 1632              	.L141:
 1633 0074 38BD     		pop	{r3, r4, r5, pc}
 1634              		.cfi_endproc
 1635              	.LFE342:
 1636              		.size	_usb_ep0out, .-_usb_ep0out
 1637              		.section	.rodata.zero_status,"a",%progbits
 1638              		.set	.LANCHOR0,. + 0
 1639              		.type	zero_status, %object
 1640              		.size	zero_status, 2
 1641              	zero_status:
 1642 0000 0000     		.space	2
 1643              		.section	.rodata.active_status,"a",%progbits
 1644              		.set	.LANCHOR2,. + 0
 1645              		.type	active_status, %object
 1646              		.size	active_status, 2
 1647              	active_status:
 1648 0000 0000     		.space	2
 1649              		.section	.rodata.halted_status,"a",%progbits
 1650              		.set	.LANCHOR1,. + 0
 1651              		.type	halted_status, %object
 1652              		.size	halted_status, 2
 1653              	halted_status:
ARM GAS  /tmp/ccoZWWVe.s 			page 30


 1654 0000 01       		.byte	1
 1655 0001 00       		.byte	0
 1656              		.text
 1657              	.Letext0:
 1658              		.file 5 "/usr/lib/gcc/arm-none-eabi/5.4.1/include/stddef.h"
 1659              		.file 6 "/usr/include/newlib/machine/_default_types.h"
 1660              		.file 7 "/usr/include/newlib/sys/_stdint.h"
 1661              		.file 8 "../../modules/ChibiOS/os/common/ports/ARMCMx/compilers/GCC/chtypes.h"
 1662              		.file 9 "../../modules/ChibiOS/os/rt/include/chsystypes.h"
 1663              		.file 10 "../../modules/ChibiOS/os/rt/include/chschd.h"
 1664              		.file 11 "../../modules/ChibiOS/os/rt/include/chtime.h"
 1665              		.file 12 "../../modules/ChibiOS/os/common/ports/ARMCMx/chcore.h"
 1666              		.file 13 "../../modules/ChibiOS/os/common/ports/ARMCMx/chcore_v7m.h"
 1667              		.file 14 "../../modules/ChibiOS/os/rt/include/chtm.h"
 1668              		.file 15 "../../modules/ChibiOS/os/rt/include/chstats.h"
 1669              		.file 16 "../../modules/ChibiOS/os/rt/include/chsem.h"
 1670              		.file 17 "../../modules/ChibiOS/os/rt/include/chmtx.h"
 1671              		.file 18 "../../modules/ChibiOS/os/hal/include/hal_usb.h"
 1672              		.file 19 "../../modules/ChibiOS/os/hal/ports/STM32/LLD/OTGv1/hal_usb_lld.h"
 1673              		.file 20 "../../modules/ChibiOS/os/hal/ports/STM32/LLD/OTGv1/stm32_otg.h"
 1674              		.file 21 "../../modules/ChibiOS/os/rt/include/chthreads.h"
 1675              		.file 22 "../../modules/ChibiOS/os/common/ext/ARM/CMSIS/Core/Include/core_cm4.h"