ARM GAS  /tmp/ccQRI9r6.s 			page 1


   1              		.syntax unified
   2              		.cpu cortex-m4
   3              		.eabi_attribute 27, 1
   4              		.eabi_attribute 28, 1
   5              		.fpu fpv4-sp-d16
   6              		.eabi_attribute 20, 1
   7              		.eabi_attribute 21, 1
   8              		.eabi_attribute 23, 3
   9              		.eabi_attribute 24, 1
  10              		.eabi_attribute 25, 1
  11              		.eabi_attribute 26, 1
  12              		.eabi_attribute 30, 4
  13              		.eabi_attribute 34, 1
  14              		.eabi_attribute 18, 4
  15              		.thumb
  16              		.syntax unified
  17              		.file	"hal_pal_lld.c"
  18              		.text
  19              	.Ltext0:
  20              		.cfi_sections	.debug_frame
  21              		.section	.text._pal_lld_init,"ax",%progbits
  22              		.align	1
  23              		.global	_pal_lld_init
  24              		.thumb
  25              		.thumb_func
  26              		.type	_pal_lld_init, %function
  27              	_pal_lld_init:
  28              	.LFB323:
  29              		.file 1 "../../modules/ChibiOS/os/hal/ports/STM32/LLD/GPIOv2/hal_pal_lld.c"
  30              		.loc 1 65 0
  31              		.cfi_startproc
  32              		@ args = 0, pretend = 0, frame = 0
  33              		@ frame_needed = 0, uses_anonymous_args = 0
  34              		@ link register save eliminated.
  35              	.LVL0:
  36              		.loc 1 65 0
  37 0000 0023     		movs	r3, #0
  38              		.loc 1 71 0
  39 0002 0449     		ldr	r1, .L5
  40 0004 1A46     		mov	r2, r3
  41              	.LVL1:
  42              	.L2:
  43              		.loc 1 71 0 is_stmt 0 discriminator 3
  44 0006 5A50     		str	r2, [r3, r1]
  45 0008 C818     		adds	r0, r1, r3
  46 000a 0833     		adds	r3, r3, #8
  47              		.loc 1 70 0 is_stmt 1 discriminator 3
  48 000c 802B     		cmp	r3, #128
  49              		.loc 1 71 0 discriminator 3
  50 000e 4260     		str	r2, [r0, #4]
  51              		.loc 1 70 0 discriminator 3
  52 0010 F9D1     		bne	.L2
  53              		.loc 1 74 0
  54 0012 7047     		bx	lr
  55              	.L6:
  56              		.align	2
  57              	.L5:
ARM GAS  /tmp/ccQRI9r6.s 			page 2


  58 0014 00000000 		.word	.LANCHOR0
  59              		.cfi_endproc
  60              	.LFE323:
  61              		.size	_pal_lld_init, .-_pal_lld_init
  62              		.section	.text._pal_lld_setgroupmode,"ax",%progbits
  63              		.align	1
  64              		.global	_pal_lld_setgroupmode
  65              		.thumb
  66              		.thumb_func
  67              		.type	_pal_lld_setgroupmode, %function
  68              	_pal_lld_setgroupmode:
  69              	.LFB324:
  70              		.loc 1 91 0
  71              		.cfi_startproc
  72              		@ args = 0, pretend = 0, frame = 8
  73              		@ frame_needed = 0, uses_anonymous_args = 0
  74              	.LVL2:
  75 0000 2DE9F74F 		push	{r0, r1, r2, r4, r5, r6, r7, r8, r9, r10, fp, lr}
  76              		.cfi_def_cfa_offset 48
  77              		.cfi_offset 4, -36
  78              		.cfi_offset 5, -32
  79              		.cfi_offset 6, -28
  80              		.cfi_offset 7, -24
  81              		.cfi_offset 8, -20
  82              		.cfi_offset 9, -16
  83              		.cfi_offset 10, -12
  84              		.cfi_offset 11, -8
  85              		.cfi_offset 14, -4
  86              		.loc 1 97 0
  87 0004 C2F3C313 		ubfx	r3, r2, #7, #4
  88              		.loc 1 93 0
  89 0008 02F00308 		and	r8, r2, #3
  90              	.LVL3:
  91              		.loc 1 94 0
  92 000c C2F3800C 		ubfx	ip, r2, #2, #1
  93              	.LVL4:
  94              		.loc 1 95 0
  95 0010 C2F3C10E 		ubfx	lr, r2, #3, #2
  96              	.LVL5:
  97              		.loc 1 96 0
  98 0014 C2F34117 		ubfx	r7, r2, #5, #2
  99              	.LVL6:
 100              		.loc 1 97 0
 101 0018 0193     		str	r3, [sp, #4]
 102              	.LVL7:
 103              		.loc 1 93 0
 104 001a 4646     		mov	r6, r8
 105              		.loc 1 98 0
 106 001c 0024     		movs	r4, #0
 107              	.LBB2:
 108              		.loc 1 107 0
 109 001e 4FF00109 		mov	r9, #1
 110              		.loc 1 108 0
 111 0022 4FF0030A 		mov	r10, #3
 112              	.LVL8:
 113              	.L14:
 114              	.LBE2:
ARM GAS  /tmp/ccQRI9r6.s 			page 3


 115              		.loc 1 100 0
 116 0026 CB07     		lsls	r3, r1, #31
 117 0028 4ED5     		bpl	.L8
 118              	.LBB3:
 119              		.loc 1 103 0
 120 002a 019A     		ldr	r2, [sp, #4]
 121 002c 04F00703 		and	r3, r4, #7
 122 0030 9B00     		lsls	r3, r3, #2
 123 0032 02FA03F5 		lsl	r5, r2, r3
 124              	.LVL9:
 125              		.loc 1 106 0
 126 0036 0F22     		movs	r2, #15
 127 0038 02FA03F3 		lsl	r3, r2, r3
 128              	.LVL10:
 129              		.loc 1 107 0
 130 003c 4268     		ldr	r2, [r0, #4]
 131 003e 09FA04FB 		lsl	fp, r9, r4
 132 0042 22EA0B02 		bic	r2, r2, fp
 133 0046 42EA0C02 		orr	r2, r2, ip
 134 004a 4260     		str	r2, [r0, #4]
 135              		.loc 1 108 0
 136 004c 6200     		lsls	r2, r4, #1
 137 004e D0F808B0 		ldr	fp, [r0, #8]
 138 0052 0AFA02F2 		lsl	r2, r10, r2
 139 0056 D243     		mvns	r2, r2
 140 0058 0BEA020B 		and	fp, fp, r2
 141 005c 4BEA0E0B 		orr	fp, fp, lr
 142 0060 C0F808B0 		str	fp, [r0, #8]
 143              		.loc 1 109 0
 144 0064 D0F80CB0 		ldr	fp, [r0, #12]
 145 0068 02EA0B0B 		and	fp, r2, fp
 146 006c 4BEA070B 		orr	fp, fp, r7
 147              		.loc 1 110 0
 148 0070 B8F1020F 		cmp	r8, #2
 149              		.loc 1 109 0
 150 0074 C0F80CB0 		str	fp, [r0, #12]
 151 0078 6FEA0303 		mvn	r3, r3
 152              	.LVL11:
 153              		.loc 1 110 0
 154 007c 13D1     		bne	.L9
 155              		.loc 1 113 0
 156 007e 072C     		cmp	r4, #7
 157              		.loc 1 114 0
 158 0080 95BF     		itete	ls
 159 0082 D0F820B0 		ldrls	fp, [r0, #32]
 160              		.loc 1 116 0
 161 0086 D0F824B0 		ldrhi	fp, [r0, #36]
 162              		.loc 1 114 0
 163 008a 03EA0B03 		andls	r3, r3, fp
 164              	.LVL12:
 165              		.loc 1 116 0
 166 008e 03EA0B03 		andhi	r3, r3, fp
 167              		.loc 1 114 0
 168 0092 95BF     		itete	ls
 169 0094 2B43     		orrls	r3, r3, r5
 170              		.loc 1 116 0
 171 0096 2B43     		orrhi	r3, r3, r5
ARM GAS  /tmp/ccQRI9r6.s 			page 4


 172              		.loc 1 114 0
 173 0098 0362     		strls	r3, [r0, #32]
 174              		.loc 1 116 0
 175 009a 4362     		strhi	r3, [r0, #36]
 176              		.loc 1 117 0
 177 009c 0368     		ldr	r3, [r0]
 178 009e 1A40     		ands	r2, r2, r3
 179 00a0 3243     		orrs	r2, r2, r6
 180 00a2 0260     		str	r2, [r0]
 181 00a4 10E0     		b	.L8
 182              	.L9:
 183              		.loc 1 122 0
 184 00a6 D0F800B0 		ldr	fp, [r0]
 185 00aa 02EA0B02 		and	r2, r2, fp
 186 00ae 3243     		orrs	r2, r2, r6
 187              		.loc 1 123 0
 188 00b0 072C     		cmp	r4, #7
 189              		.loc 1 122 0
 190 00b2 0260     		str	r2, [r0]
 191              		.loc 1 124 0
 192 00b4 95BF     		itete	ls
 193 00b6 026A     		ldrls	r2, [r0, #32]
 194              		.loc 1 126 0
 195 00b8 426A     		ldrhi	r2, [r0, #36]
 196              		.loc 1 124 0
 197 00ba 1340     		andls	r3, r3, r2
 198              		.loc 1 126 0
 199 00bc 1340     		andhi	r3, r3, r2
 200              		.loc 1 124 0
 201 00be 95BF     		itete	ls
 202 00c0 1D43     		orrls	r5, r5, r3
 203              	.LVL13:
 204              		.loc 1 126 0
 205 00c2 1D43     		orrhi	r5, r5, r3
 206              		.loc 1 124 0
 207 00c4 0562     		strls	r5, [r0, #32]
 208              		.loc 1 126 0
 209 00c6 4562     		strhi	r5, [r0, #36]
 210              	.LVL14:
 211              	.L8:
 212              	.LBE3:
 213              		.loc 1 130 0
 214 00c8 4908     		lsrs	r1, r1, #1
 215              	.LVL15:
 216 00ca 07D0     		beq	.L7
 217              		.loc 1 132 0
 218 00cc 4FEA4C0C 		lsl	ip, ip, #1
 219              	.LVL16:
 220              		.loc 1 133 0
 221 00d0 4FEA8E0E 		lsl	lr, lr, #2
 222              	.LVL17:
 223              		.loc 1 134 0
 224 00d4 BF00     		lsls	r7, r7, #2
 225              	.LVL18:
 226              		.loc 1 135 0
 227 00d6 B600     		lsls	r6, r6, #2
 228              	.LVL19:
ARM GAS  /tmp/ccQRI9r6.s 			page 5


 229              		.loc 1 136 0
 230 00d8 0134     		adds	r4, r4, #1
 231              	.LVL20:
 232              		.loc 1 137 0
 233 00da A4E7     		b	.L14
 234              	.L7:
 235              		.loc 1 138 0
 236 00dc 03B0     		add	sp, sp, #12
 237              		.cfi_def_cfa_offset 36
 238              		@ sp needed
 239 00de BDE8F08F 		pop	{r4, r5, r6, r7, r8, r9, r10, fp, pc}
 240              		.cfi_endproc
 241              	.LFE324:
 242              		.size	_pal_lld_setgroupmode, .-_pal_lld_setgroupmode
 243              		.section	.text._pal_lld_enablepadevent,"ax",%progbits
 244              		.align	1
 245              		.global	_pal_lld_enablepadevent
 246              		.thumb
 247              		.thumb_func
 248              		.type	_pal_lld_enablepadevent, %function
 249              	_pal_lld_enablepadevent:
 250              	.LFB325:
 251              		.loc 1 153 0
 252              		.cfi_startproc
 253              		@ args = 0, pretend = 0, frame = 0
 254              		@ frame_needed = 0, uses_anonymous_args = 0
 255              	.LVL21:
 256 0000 70B5     		push	{r4, r5, r6, lr}
 257              		.cfi_def_cfa_offset 16
 258              		.cfi_offset 4, -16
 259              		.cfi_offset 5, -12
 260              		.cfi_offset 6, -8
 261              		.cfi_offset 14, -4
 262              		.loc 1 158 0
 263 0002 0124     		movs	r4, #1
 264 0004 8C40     		lsls	r4, r4, r1
 265              	.LVL22:
 266              		.loc 1 173 0
 267 0006 01F00305 		and	r5, r1, #3
 268 000a 21F00301 		bic	r1, r1, #3
 269              	.LVL23:
 270 000e 01F18041 		add	r1, r1, #1073741824
 271 0012 01F59C31 		add	r1, r1, #79872
 272 0016 AD00     		lsls	r5, r5, #2
 273              	.LVL24:
 274              		.loc 1 181 0
 275 0018 8B68     		ldr	r3, [r1, #8]
 276 001a C0F38320 		ubfx	r0, r0, #10, #4
 277              	.LVL25:
 278 001e 0F26     		movs	r6, #15
 279 0020 A840     		lsls	r0, r0, r5
 280 0022 06FA05F5 		lsl	r5, r6, r5
 281              	.LVL26:
 282 0026 23EA0503 		bic	r3, r3, r5
 283 002a 0343     		orrs	r3, r3, r0
 284 002c 8B60     		str	r3, [r1, #8]
 285 002e 0C4B     		ldr	r3, .L25
ARM GAS  /tmp/ccQRI9r6.s 			page 6


 286              		.loc 1 199 0
 287 0030 9868     		ldr	r0, [r3, #8]
 288              		.loc 1 198 0
 289 0032 12F0010F 		tst	r2, #1
 290 0036 6FEA0401 		mvn	r1, r4
 291              		.loc 1 199 0
 292 003a 14BF     		ite	ne
 293 003c 2043     		orrne	r0, r0, r4
 294              		.loc 1 201 0
 295 003e 0840     		andeq	r0, r0, r1
 296 0040 9860     		str	r0, [r3, #8]
 297 0042 074B     		ldr	r3, .L25
 298              		.loc 1 202 0
 299 0044 12F0020F 		tst	r2, #2
 300              		.loc 1 203 0
 301 0048 DA68     		ldr	r2, [r3, #12]
 302              	.LVL27:
 303 004a 14BF     		ite	ne
 304 004c 2243     		orrne	r2, r2, r4
 305              		.loc 1 205 0
 306 004e 0A40     		andeq	r2, r2, r1
 307 0050 DA60     		str	r2, [r3, #12]
 308              		.loc 1 208 0
 309 0052 1A68     		ldr	r2, [r3]
 310 0054 1443     		orrs	r4, r4, r2
 311              	.LVL28:
 312 0056 1C60     		str	r4, [r3]
 313              		.loc 1 209 0
 314 0058 5A68     		ldr	r2, [r3, #4]
 315 005a 0A40     		ands	r2, r2, r1
 316 005c 5A60     		str	r2, [r3, #4]
 317 005e 70BD     		pop	{r4, r5, r6, pc}
 318              	.L26:
 319              		.align	2
 320              	.L25:
 321 0060 003C0140 		.word	1073822720
 322              		.cfi_endproc
 323              	.LFE325:
 324              		.size	_pal_lld_enablepadevent, .-_pal_lld_enablepadevent
 325              		.section	.text._pal_lld_disablepadevent,"ax",%progbits
 326              		.align	1
 327              		.global	_pal_lld_disablepadevent
 328              		.thumb
 329              		.thumb_func
 330              		.type	_pal_lld_disablepadevent, %function
 331              	_pal_lld_disablepadevent:
 332              	.LFB326:
 333              		.loc 1 222 0
 334              		.cfi_startproc
 335              		@ args = 0, pretend = 0, frame = 0
 336              		@ frame_needed = 0, uses_anonymous_args = 0
 337              	.LVL29:
 338              		.loc 1 229 0
 339 0000 114B     		ldr	r3, .L32
 340              		.loc 1 222 0
 341 0002 70B5     		push	{r4, r5, r6, lr}
 342              		.cfi_def_cfa_offset 16
ARM GAS  /tmp/ccQRI9r6.s 			page 7


 343              		.cfi_offset 4, -16
 344              		.cfi_offset 5, -12
 345              		.cfi_offset 6, -8
 346              		.cfi_offset 14, -4
 347              		.loc 1 229 0
 348 0004 9C68     		ldr	r4, [r3, #8]
 349              	.LVL30:
 350              		.loc 1 230 0
 351 0006 DE68     		ldr	r6, [r3, #12]
 352              	.LVL31:
 353              		.loc 1 234 0
 354 0008 0120     		movs	r0, #1
 355              	.LVL32:
 356 000a 8840     		lsls	r0, r0, r1
 357              	.LVL33:
 358              		.loc 1 237 0
 359 000c 44EA0602 		orr	r2, r4, r6
 360 0010 0242     		tst	r2, r0
 361 0012 17D0     		beq	.L27
 362              	.LBB4:
 363              		.loc 1 241 0
 364 0014 8D08     		lsrs	r5, r1, #2
 365              	.LVL34:
 366              		.loc 1 248 0
 367 0016 0235     		adds	r5, r5, #2
 368              	.LVL35:
 369 0018 0C4A     		ldr	r2, .L32+4
 370 001a 52F82520 		ldr	r2, [r2, r5, lsl #2]
 371              	.LVL36:
 372              		.loc 1 261 0
 373 001e 1D68     		ldr	r5, [r3]
 374              	.LVL37:
 375 0020 C243     		mvns	r2, r0
 376 0022 1540     		ands	r5, r5, r2
 377 0024 1D60     		str	r5, [r3]
 378              		.loc 1 262 0
 379 0026 5D68     		ldr	r5, [r3, #4]
 380              		.loc 1 263 0
 381 0028 1440     		ands	r4, r4, r2
 382              	.LVL38:
 383              		.loc 1 262 0
 384 002a 1540     		ands	r5, r5, r2
 385              		.loc 1 264 0
 386 002c 3240     		ands	r2, r2, r6
 387              		.loc 1 262 0
 388 002e 5D60     		str	r5, [r3, #4]
 389              		.loc 1 263 0
 390 0030 9C60     		str	r4, [r3, #8]
 391              		.loc 1 264 0
 392 0032 DA60     		str	r2, [r3, #12]
 393              		.loc 1 265 0
 394 0034 5861     		str	r0, [r3, #20]
 395              		.loc 1 270 0
 396 0036 064B     		ldr	r3, .L32+8
 397 0038 0022     		movs	r2, #0
 398 003a 43F83120 		str	r2, [r3, r1, lsl #3]
 399 003e 03EBC103 		add	r3, r3, r1, lsl #3
ARM GAS  /tmp/ccQRI9r6.s 			page 8


 400 0042 5A60     		str	r2, [r3, #4]
 401              	.LVL39:
 402              	.L27:
 403 0044 70BD     		pop	{r4, r5, r6, pc}
 404              	.LVL40:
 405              	.L33:
 406 0046 00BF     		.align	2
 407              	.L32:
 408 0048 003C0140 		.word	1073822720
 409 004c 00380140 		.word	1073821696
 410 0050 00000000 		.word	.LANCHOR0
 411              	.LBE4:
 412              		.cfi_endproc
 413              	.LFE326:
 414              		.size	_pal_lld_disablepadevent, .-_pal_lld_disablepadevent
 415              		.global	_pal_events
 416              		.section	.bss._pal_events,"aw",%nobits
 417              		.align	2
 418              		.set	.LANCHOR0,. + 0
 419              		.type	_pal_events, %object
 420              		.size	_pal_events, 128
 421              	_pal_events:
 422 0000 00000000 		.space	128
 422      00000000 
 422      00000000 
 422      00000000 
 422      00000000 
 423              		.text
 424              	.Letext0:
 425              		.file 2 "/usr/lib/gcc/arm-none-eabi/5.4.1/include/stddef.h"
 426              		.file 3 "/usr/include/newlib/machine/_default_types.h"
 427              		.file 4 "/usr/include/newlib/sys/_stdint.h"
 428              		.file 5 "../../modules/ChibiOS/os/common/ports/ARMCMx/compilers/GCC/chtypes.h"
 429              		.file 6 "../../modules/ChibiOS/os/rt/include/chsystypes.h"
 430              		.file 7 "../../modules/ChibiOS/os/rt/include/chschd.h"
 431              		.file 8 "../../modules/ChibiOS/os/rt/include/chtime.h"
 432              		.file 9 "../../modules/ChibiOS/os/common/ext/ST/STM32F4xx/stm32f427xx.h"
 433              		.file 10 "../../modules/ChibiOS/os/common/ports/ARMCMx/chcore.h"
 434              		.file 11 "../../modules/ChibiOS/os/common/ports/ARMCMx/chcore_v7m.h"
 435              		.file 12 "../../modules/ChibiOS/os/rt/include/chtm.h"
 436              		.file 13 "../../modules/ChibiOS/os/rt/include/chstats.h"
 437              		.file 14 "../../modules/ChibiOS/os/rt/include/chsem.h"
 438              		.file 15 "../../modules/ChibiOS/os/rt/include/chmtx.h"
 439              		.file 16 "../../modules/ChibiOS/os/hal/include/hal_pal.h"
 440              		.file 17 "../../modules/ChibiOS/os/hal/ports/STM32/LLD/GPIOv2/stm32_gpio.h"
 441              		.file 18 "../../modules/ChibiOS/os/hal/ports/STM32/LLD/GPIOv2/hal_pal_lld.h"
 442              		.file 19 "../../modules/ChibiOS/os/common/ext/ARM/CMSIS/Core/Include/core_cm4.h"