ARM GAS  /tmp/ccTllMdB.s 			page 1


   1              		.syntax unified
   2              		.cpu cortex-m4
   3              		.eabi_attribute 27, 1
   4              		.eabi_attribute 28, 1
   5              		.fpu fpv4-sp-d16
   6              		.eabi_attribute 20, 1
   7              		.eabi_attribute 21, 1
   8              		.eabi_attribute 23, 3
   9              		.eabi_attribute 24, 1
  10              		.eabi_attribute 25, 1
  11              		.eabi_attribute 26, 1
  12              		.eabi_attribute 30, 4
  13              		.eabi_attribute 34, 1
  14              		.eabi_attribute 18, 4
  15              		.thumb
  16              		.syntax unified
  17              		.file	"hal_buffers.c"
  18              		.text
  19              	.Ltext0:
  20              		.cfi_sections	.debug_frame
  21              		.section	.text.chSysLock,"ax",%progbits
  22              		.align	1
  23              		.thumb
  24              		.thumb_func
  25              		.type	chSysLock, %function
  26              	chSysLock:
  27              	.LFB184:
  28              		.file 1 "../../modules/ChibiOS/os/rt/include/chsys.h"
  29              		.loc 1 353 0
  30              		.cfi_startproc
  31              		@ args = 0, pretend = 0, frame = 0
  32              		@ frame_needed = 0, uses_anonymous_args = 0
  33              		@ link register save eliminated.
  34              	.LVL0:
  35              	.LBB103:
  36              	.LBB104:
  37              	.LBB105:
  38              		.file 2 "../../modules/ChibiOS/os/common/ext/ARM/CMSIS/Core/Include/cmsis_gcc.h"
  39              		.loc 2 493 0
  40 0000 2023     		movs	r3, #32
  41              		.syntax unified
  42              	@ 493 "../../modules/ChibiOS/os/common/ext/ARM/CMSIS/Core/Include/cmsis_gcc.h" 1
  43 0002 83F31188 		MSR basepri, r3
  44              	@ 0 "" 2
  45              	.LVL1:
  46              		.thumb
  47              		.syntax unified
  48              	.LBE105:
  49              	.LBE104:
  50              	.LBE103:
  51              		.loc 1 356 0
  52 0006 FFF7FEBF 		b	_stats_start_measure_crit_thd
  53              	.LVL2:
  54              		.cfi_endproc
  55              	.LFE184:
  56              		.size	chSysLock, .-chSysLock
  57              		.section	.text.chSysUnlock,"ax",%progbits
ARM GAS  /tmp/ccTllMdB.s 			page 2


  58              		.align	1
  59              		.thumb
  60              		.thumb_func
  61              		.type	chSysUnlock, %function
  62              	chSysUnlock:
  63              	.LFB185:
  64              		.loc 1 365 0
  65              		.cfi_startproc
  66              		@ args = 0, pretend = 0, frame = 0
  67              		@ frame_needed = 0, uses_anonymous_args = 0
  68 0000 08B5     		push	{r3, lr}
  69              		.cfi_def_cfa_offset 8
  70              		.cfi_offset 3, -8
  71              		.cfi_offset 14, -4
  72              		.loc 1 368 0
  73 0002 FFF7FEFF 		bl	_stats_stop_measure_crit_thd
  74              	.LVL3:
  75              	.LBB106:
  76              	.LBB107:
  77              	.LBB108:
  78              		.loc 2 493 0
  79 0006 0023     		movs	r3, #0
  80              		.syntax unified
  81              	@ 493 "../../modules/ChibiOS/os/common/ext/ARM/CMSIS/Core/Include/cmsis_gcc.h" 1
  82 0008 83F31188 		MSR basepri, r3
  83              	@ 0 "" 2
  84              	.LVL4:
  85              		.thumb
  86              		.syntax unified
  87 000c 08BD     		pop	{r3, pc}
  88              	.LBE108:
  89              	.LBE107:
  90              	.LBE106:
  91              		.cfi_endproc
  92              	.LFE185:
  93              		.size	chSysUnlock, .-chSysUnlock
  94              		.section	.text.ibqObjectInit,"ax",%progbits
  95              		.align	1
  96              		.global	ibqObjectInit
  97              		.thumb
  98              		.thumb_func
  99              		.type	ibqObjectInit, %function
 100              	ibqObjectInit:
 101              	.LFB323:
 102              		.file 3 "../../modules/ChibiOS/os/hal/src/hal_buffers.c"
 103              		.loc 3 77 0
 104              		.cfi_startproc
 105              		@ args = 12, pretend = 0, frame = 0
 106              		@ frame_needed = 0, uses_anonymous_args = 0
 107              	.LVL5:
 108 0000 30B5     		push	{r4, r5, lr}
 109              		.cfi_def_cfa_offset 12
 110              		.cfi_offset 4, -12
 111              		.cfi_offset 5, -8
 112              		.cfi_offset 14, -4
 113              		.loc 3 77 0
 114 0002 039C     		ldr	r4, [sp, #12]
ARM GAS  /tmp/ccTllMdB.s 			page 3


 115              		.loc 3 82 0
 116 0004 0172     		strb	r1, [r0, #8]
 117              		.loc 3 86 0
 118 0006 0433     		adds	r3, r3, #4
 119              	.LVL6:
 120 0008 04FB0325 		mla	r5, r4, r3, r2
 121              		.loc 3 87 0
 122 000c C361     		str	r3, [r0, #28]
 123              		.loc 3 92 0
 124 000e 049B     		ldr	r3, [sp, #16]
 125              	.LVL7:
 126 0010 0363     		str	r3, [r0, #48]
 127              		.loc 3 83 0
 128 0012 0021     		movs	r1, #0
 129              	.LVL8:
 130              		.loc 3 93 0
 131 0014 059B     		ldr	r3, [sp, #20]
 132              	.LBB109:
 133              	.LBB110:
 134              	.LBB111:
 135              	.LBB112:
 136              		.file 4 "../../modules/ChibiOS/os/rt/include/chschd.h"
 137              		.loc 4 539 0
 138 0016 0060     		str	r0, [r0]
 139              		.loc 4 540 0
 140 0018 4060     		str	r0, [r0, #4]
 141              	.LVL9:
 142              	.LBE112:
 143              	.LBE111:
 144              	.LBE110:
 145              	.LBE109:
 146              		.loc 3 83 0
 147 001a C160     		str	r1, [r0, #12]
 148              		.loc 3 84 0
 149 001c 4261     		str	r2, [r0, #20]
 150              		.loc 3 85 0
 151 001e 0261     		str	r2, [r0, #16]
 152              		.loc 3 86 0
 153 0020 8561     		str	r5, [r0, #24]
 154              		.loc 3 88 0
 155 0022 0462     		str	r4, [r0, #32]
 156              		.loc 3 89 0
 157 0024 4262     		str	r2, [r0, #36]
 158              		.loc 3 90 0
 159 0026 8162     		str	r1, [r0, #40]
 160              		.loc 3 91 0
 161 0028 C162     		str	r1, [r0, #44]
 162              		.loc 3 93 0
 163 002a 4363     		str	r3, [r0, #52]
 164 002c 30BD     		pop	{r4, r5, pc}
 165              		.cfi_endproc
 166              	.LFE323:
 167              		.size	ibqObjectInit, .-ibqObjectInit
 168              		.section	.text.ibqResetI,"ax",%progbits
 169              		.align	1
 170              		.global	ibqResetI
 171              		.thumb
ARM GAS  /tmp/ccTllMdB.s 			page 4


 172              		.thumb_func
 173              		.type	ibqResetI, %function
 174              	ibqResetI:
 175              	.LFB324:
 176              		.loc 3 107 0
 177              		.cfi_startproc
 178              		@ args = 0, pretend = 0, frame = 0
 179              		@ frame_needed = 0, uses_anonymous_args = 0
 180              		@ link register save eliminated.
 181              	.LVL10:
 182              		.loc 3 111 0
 183 0000 0022     		movs	r2, #0
 184              		.loc 3 112 0
 185 0002 416A     		ldr	r1, [r0, #36]
 186 0004 4161     		str	r1, [r0, #20]
 187              		.loc 3 113 0
 188 0006 0161     		str	r1, [r0, #16]
 189              		.loc 3 111 0
 190 0008 C260     		str	r2, [r0, #12]
 191              		.loc 3 114 0
 192 000a 8262     		str	r2, [r0, #40]
 193              		.loc 3 115 0
 194 000c C262     		str	r2, [r0, #44]
 195              	.LVL11:
 196              	.LBB113:
 197              	.LBB114:
 198              		.file 5 "../../modules/ChibiOS/os/hal/osal/rt/osal.h"
 199              		.loc 5 857 0
 200 000e 6FF00101 		mvn	r1, #1
 201 0012 FFF7FEBF 		b	chThdDequeueAllI
 202              	.LVL12:
 203              	.LBE114:
 204              	.LBE113:
 205              		.cfi_endproc
 206              	.LFE324:
 207              		.size	ibqResetI, .-ibqResetI
 208              		.section	.text.ibqGetEmptyBufferI,"ax",%progbits
 209              		.align	1
 210              		.global	ibqGetEmptyBufferI
 211              		.thumb
 212              		.thumb_func
 213              		.type	ibqGetEmptyBufferI, %function
 214              	ibqGetEmptyBufferI:
 215              	.LFB325:
 216              		.loc 3 129 0
 217              		.cfi_startproc
 218              		@ args = 0, pretend = 0, frame = 0
 219              		@ frame_needed = 0, uses_anonymous_args = 0
 220              		@ link register save eliminated.
 221              	.LVL13:
 222              		.loc 3 133 0
 223 0000 0369     		ldr	r3, [r0, #16]
 224 0002 4269     		ldr	r2, [r0, #20]
 225 0004 9342     		cmp	r3, r2
 226 0006 03D1     		bne	.L6
 227              		.loc 3 133 0 is_stmt 0 discriminator 1
 228 0008 C268     		ldr	r2, [r0, #12]
ARM GAS  /tmp/ccTllMdB.s 			page 5


 229 000a 0AB1     		cbz	r2, .L6
 230              		.loc 3 134 0 is_stmt 1
 231 000c 0020     		movs	r0, #0
 232              	.LVL14:
 233 000e 7047     		bx	lr
 234              	.LVL15:
 235              	.L6:
 236              		.loc 3 137 0
 237 0010 181D     		adds	r0, r3, #4
 238              	.LVL16:
 239              		.loc 3 138 0
 240 0012 7047     		bx	lr
 241              		.cfi_endproc
 242              	.LFE325:
 243              		.size	ibqGetEmptyBufferI, .-ibqGetEmptyBufferI
 244              		.section	.text.ibqPostFullBufferI,"ax",%progbits
 245              		.align	1
 246              		.global	ibqPostFullBufferI
 247              		.thumb
 248              		.thumb_func
 249              		.type	ibqPostFullBufferI, %function
 250              	ibqPostFullBufferI:
 251              	.LFB326:
 252              		.loc 3 148 0
 253              		.cfi_startproc
 254              		@ args = 0, pretend = 0, frame = 0
 255              		@ frame_needed = 0, uses_anonymous_args = 0
 256              		@ link register save eliminated.
 257              	.LVL17:
 258 0000 10B4     		push	{r4}
 259              		.cfi_def_cfa_offset 4
 260              		.cfi_offset 4, -4
 261              		.loc 3 156 0
 262 0002 0469     		ldr	r4, [r0, #16]
 263 0004 2160     		str	r1, [r4]
 264              		.loc 3 159 0
 265 0006 C268     		ldr	r2, [r0, #12]
 266              		.loc 3 160 0
 267 0008 C369     		ldr	r3, [r0, #28]
 268              		.loc 3 159 0
 269 000a 0132     		adds	r2, r2, #1
 270 000c C260     		str	r2, [r0, #12]
 271              		.loc 3 161 0
 272 000e 8269     		ldr	r2, [r0, #24]
 273              		.loc 3 160 0
 274 0010 2344     		add	r3, r3, r4
 275              		.loc 3 161 0
 276 0012 9342     		cmp	r3, r2
 277              		.loc 3 160 0
 278 0014 0361     		str	r3, [r0, #16]
 279              		.loc 3 162 0
 280 0016 24BF     		itt	cs
 281 0018 436A     		ldrcs	r3, [r0, #36]
 282 001a 0361     		strcs	r3, [r0, #16]
 283              	.LVL18:
 284              	.LBB115:
 285              	.LBB116:
ARM GAS  /tmp/ccTllMdB.s 			page 6


 286              		.loc 5 844 0
 287 001c 0021     		movs	r1, #0
 288              	.LVL19:
 289              	.LBE116:
 290              	.LBE115:
 291              		.loc 3 167 0
 292 001e 5DF8044B 		ldr	r4, [sp], #4
 293              		.cfi_restore 4
 294              		.cfi_def_cfa_offset 0
 295              	.LBB118:
 296              	.LBB117:
 297              		.loc 5 844 0
 298 0022 FFF7FEBF 		b	chThdDequeueNextI
 299              	.LVL20:
 300              	.LBE117:
 301              	.LBE118:
 302              		.cfi_endproc
 303              	.LFE326:
 304              		.size	ibqPostFullBufferI, .-ibqPostFullBufferI
 305              		.section	.text.ibqGetFullBufferTimeoutS,"ax",%progbits
 306              		.align	1
 307              		.global	ibqGetFullBufferTimeoutS
 308              		.thumb
 309              		.thumb_func
 310              		.type	ibqGetFullBufferTimeoutS, %function
 311              	ibqGetFullBufferTimeoutS:
 312              	.LFB328:
 313              		.loc 3 223 0
 314              		.cfi_startproc
 315              		@ args = 0, pretend = 0, frame = 0
 316              		@ frame_needed = 0, uses_anonymous_args = 0
 317              	.LVL21:
 318 0000 38B5     		push	{r3, r4, r5, lr}
 319              		.cfi_def_cfa_offset 16
 320              		.cfi_offset 3, -16
 321              		.cfi_offset 4, -12
 322              		.cfi_offset 5, -8
 323              		.cfi_offset 14, -4
 324 0002 0446     		mov	r4, r0
 325 0004 0D46     		mov	r5, r1
 326              	.LVL22:
 327              	.L16:
 328              		.loc 3 227 0
 329 0006 E368     		ldr	r3, [r4, #12]
 330 0008 43B9     		cbnz	r3, .L20
 331              	.LBB127:
 332              		.loc 3 228 0
 333 000a 237A     		ldrb	r3, [r4, #8]	@ zero_extendqisi2
 334 000c 73B9     		cbnz	r3, .L19
 335              	.LVL23:
 336              	.LBB128:
 337              	.LBB129:
 338              		.loc 5 831 0
 339 000e 2946     		mov	r1, r5
 340 0010 2046     		mov	r0, r4
 341 0012 FFF7FEFF 		bl	chThdEnqueueTimeoutS
 342              	.LVL24:
ARM GAS  /tmp/ccTllMdB.s 			page 7


 343              	.LBE129:
 344              	.LBE128:
 345              		.loc 3 232 0
 346 0016 0028     		cmp	r0, #0
 347 0018 F5DA     		bge	.L16
 348 001a 09E0     		b	.L17
 349              	.L20:
 350              	.LVL25:
 351              	.LBE127:
 352              	.LBB130:
 353              	.LBB131:
 354              		.loc 3 240 0
 355 001c 6369     		ldr	r3, [r4, #20]
 356 001e 1A1D     		adds	r2, r3, #4
 357              		.loc 3 241 0
 358 0020 1B68     		ldr	r3, [r3]
 359              		.loc 3 240 0
 360 0022 A262     		str	r2, [r4, #40]
 361              		.loc 3 241 0
 362 0024 1344     		add	r3, r3, r2
 363 0026 E362     		str	r3, [r4, #44]
 364              	.LVL26:
 365 0028 0020     		movs	r0, #0
 366 002a 38BD     		pop	{r3, r4, r5, pc}
 367              	.LVL27:
 368              	.L19:
 369              	.LBE131:
 370              	.LBE130:
 371              	.LBB132:
 372              		.loc 3 229 0
 373 002c 6FF00100 		mvn	r0, #1
 374              	.L17:
 375              	.LBE132:
 376              		.loc 3 244 0
 377 0030 38BD     		pop	{r3, r4, r5, pc}
 378              		.cfi_endproc
 379              	.LFE328:
 380              		.size	ibqGetFullBufferTimeoutS, .-ibqGetFullBufferTimeoutS
 381              		.section	.text.ibqGetFullBufferTimeout,"ax",%progbits
 382              		.align	1
 383              		.global	ibqGetFullBufferTimeout
 384              		.thumb
 385              		.thumb_func
 386              		.type	ibqGetFullBufferTimeout, %function
 387              	ibqGetFullBufferTimeout:
 388              	.LFB327:
 389              		.loc 3 191 0
 390              		.cfi_startproc
 391              		@ args = 0, pretend = 0, frame = 0
 392              		@ frame_needed = 0, uses_anonymous_args = 0
 393              	.LVL28:
 394 0000 38B5     		push	{r3, r4, r5, lr}
 395              		.cfi_def_cfa_offset 16
 396              		.cfi_offset 3, -16
 397              		.cfi_offset 4, -12
 398              		.cfi_offset 5, -8
 399              		.cfi_offset 14, -4
ARM GAS  /tmp/ccTllMdB.s 			page 8


 400              		.loc 3 191 0
 401 0002 0446     		mov	r4, r0
 402 0004 0D46     		mov	r5, r1
 403              	.LBB133:
 404              	.LBB134:
 405              		.loc 5 511 0
 406 0006 FFF7FEFF 		bl	chSysLock
 407              	.LVL29:
 408              	.LBE134:
 409              	.LBE133:
 410              		.loc 3 195 0
 411 000a 2946     		mov	r1, r5
 412 000c 2046     		mov	r0, r4
 413 000e FFF7FEFF 		bl	ibqGetFullBufferTimeoutS
 414              	.LVL30:
 415 0012 0446     		mov	r4, r0
 416              	.LVL31:
 417              	.LBB135:
 418              	.LBB136:
 419              		.loc 5 522 0
 420 0014 FFF7FEFF 		bl	chSysUnlock
 421              	.LVL32:
 422              	.LBE136:
 423              	.LBE135:
 424              		.loc 3 199 0
 425 0018 2046     		mov	r0, r4
 426 001a 38BD     		pop	{r3, r4, r5, pc}
 427              		.cfi_endproc
 428              	.LFE327:
 429              		.size	ibqGetFullBufferTimeout, .-ibqGetFullBufferTimeout
 430              		.section	.text.ibqReleaseEmptyBufferS,"ax",%progbits
 431              		.align	1
 432              		.global	ibqReleaseEmptyBufferS
 433              		.thumb
 434              		.thumb_func
 435              		.type	ibqReleaseEmptyBufferS, %function
 436              	ibqReleaseEmptyBufferS:
 437              	.LFB330:
 438              		.loc 3 269 0
 439              		.cfi_startproc
 440              		@ args = 0, pretend = 0, frame = 0
 441              		@ frame_needed = 0, uses_anonymous_args = 0
 442              		@ link register save eliminated.
 443              	.LVL33:
 444              		.loc 3 275 0
 445 0000 C368     		ldr	r3, [r0, #12]
 446              		.loc 3 276 0
 447 0002 4269     		ldr	r2, [r0, #20]
 448              		.loc 3 275 0
 449 0004 013B     		subs	r3, r3, #1
 450 0006 C360     		str	r3, [r0, #12]
 451              		.loc 3 276 0
 452 0008 C369     		ldr	r3, [r0, #28]
 453 000a 1344     		add	r3, r3, r2
 454              		.loc 3 277 0
 455 000c 8269     		ldr	r2, [r0, #24]
 456              		.loc 3 276 0
ARM GAS  /tmp/ccTllMdB.s 			page 9


 457 000e 4361     		str	r3, [r0, #20]
 458              		.loc 3 277 0
 459 0010 9342     		cmp	r3, r2
 460              		.loc 3 278 0
 461 0012 24BF     		itt	cs
 462 0014 436A     		ldrcs	r3, [r0, #36]
 463 0016 4361     		strcs	r3, [r0, #20]
 464              		.loc 3 282 0
 465 0018 0023     		movs	r3, #0
 466 001a 8362     		str	r3, [r0, #40]
 467              		.loc 3 285 0
 468 001c 036B     		ldr	r3, [r0, #48]
 469 001e 03B1     		cbz	r3, .L22
 470              		.loc 3 286 0
 471 0020 1847     		bx	r3	@ indirect register sibling call
 472              	.LVL34:
 473              	.L22:
 474 0022 7047     		bx	lr
 475              		.cfi_endproc
 476              	.LFE330:
 477              		.size	ibqReleaseEmptyBufferS, .-ibqReleaseEmptyBufferS
 478              		.section	.text.ibqReleaseEmptyBuffer,"ax",%progbits
 479              		.align	1
 480              		.global	ibqReleaseEmptyBuffer
 481              		.thumb
 482              		.thumb_func
 483              		.type	ibqReleaseEmptyBuffer, %function
 484              	ibqReleaseEmptyBuffer:
 485              	.LFB329:
 486              		.loc 3 254 0
 487              		.cfi_startproc
 488              		@ args = 0, pretend = 0, frame = 0
 489              		@ frame_needed = 0, uses_anonymous_args = 0
 490              	.LVL35:
 491 0000 10B5     		push	{r4, lr}
 492              		.cfi_def_cfa_offset 8
 493              		.cfi_offset 4, -8
 494              		.cfi_offset 14, -4
 495              		.loc 3 254 0
 496 0002 0446     		mov	r4, r0
 497              	.LBB137:
 498              	.LBB138:
 499              		.loc 5 511 0
 500 0004 FFF7FEFF 		bl	chSysLock
 501              	.LVL36:
 502              	.LBE138:
 503              	.LBE137:
 504              		.loc 3 257 0
 505 0008 2046     		mov	r0, r4
 506 000a FFF7FEFF 		bl	ibqReleaseEmptyBufferS
 507              	.LVL37:
 508              		.loc 3 259 0
 509 000e BDE81040 		pop	{r4, lr}
 510              		.cfi_restore 14
 511              		.cfi_restore 4
 512              		.cfi_def_cfa_offset 0
 513              	.LVL38:
ARM GAS  /tmp/ccTllMdB.s 			page 10


 514              	.LBB139:
 515              	.LBB140:
 516              		.loc 5 522 0
 517 0012 FFF7FEBF 		b	chSysUnlock
 518              	.LVL39:
 519              	.LBE140:
 520              	.LBE139:
 521              		.cfi_endproc
 522              	.LFE329:
 523              		.size	ibqReleaseEmptyBuffer, .-ibqReleaseEmptyBuffer
 524              		.section	.text.ibqGetTimeout,"ax",%progbits
 525              		.align	1
 526              		.global	ibqGetTimeout
 527              		.thumb
 528              		.thumb_func
 529              		.type	ibqGetTimeout, %function
 530              	ibqGetTimeout:
 531              	.LFB331:
 532              		.loc 3 309 0
 533              		.cfi_startproc
 534              		@ args = 0, pretend = 0, frame = 0
 535              		@ frame_needed = 0, uses_anonymous_args = 0
 536              	.LVL40:
 537 0000 38B5     		push	{r3, r4, r5, lr}
 538              		.cfi_def_cfa_offset 16
 539              		.cfi_offset 3, -16
 540              		.cfi_offset 4, -12
 541              		.cfi_offset 5, -8
 542              		.cfi_offset 14, -4
 543              		.loc 3 309 0
 544 0002 0546     		mov	r5, r0
 545 0004 0C46     		mov	r4, r1
 546              	.LBB141:
 547              	.LBB142:
 548              		.loc 5 511 0
 549 0006 FFF7FEFF 		bl	chSysLock
 550              	.LVL41:
 551              	.LBE142:
 552              	.LBE141:
 553              		.loc 3 315 0
 554 000a AB6A     		ldr	r3, [r5, #40]
 555 000c 2BB9     		cbnz	r3, .L27
 556              		.loc 3 316 0
 557 000e 2146     		mov	r1, r4
 558 0010 2846     		mov	r0, r5
 559 0012 FFF7FEFF 		bl	ibqGetFullBufferTimeoutS
 560              	.LVL42:
 561              		.loc 3 317 0
 562 0016 0446     		mov	r4, r0
 563              	.LVL43:
 564 0018 48B9     		cbnz	r0, .L29
 565              	.LVL44:
 566              	.L27:
 567              		.loc 3 324 0
 568 001a AB6A     		ldr	r3, [r5, #40]
 569              		.loc 3 329 0
 570 001c EA6A     		ldr	r2, [r5, #44]
ARM GAS  /tmp/ccTllMdB.s 			page 11


 571              		.loc 3 324 0
 572 001e 13F8014B 		ldrb	r4, [r3], #1	@ zero_extendqisi2
 573              	.LVL45:
 574              		.loc 3 325 0
 575 0022 AB62     		str	r3, [r5, #40]
 576              		.loc 3 329 0
 577 0024 9342     		cmp	r3, r2
 578 0026 02D3     		bcc	.L29
 579              		.loc 3 330 0
 580 0028 2846     		mov	r0, r5
 581 002a FFF7FEFF 		bl	ibqReleaseEmptyBufferS
 582              	.LVL46:
 583              	.L29:
 584              	.LBB143:
 585              	.LBB144:
 586              		.loc 5 522 0
 587 002e FFF7FEFF 		bl	chSysUnlock
 588              	.LVL47:
 589              	.LBE144:
 590              	.LBE143:
 591              		.loc 3 334 0
 592 0032 2046     		mov	r0, r4
 593              		.loc 3 335 0
 594 0034 38BD     		pop	{r3, r4, r5, pc}
 595              		.cfi_endproc
 596              	.LFE331:
 597              		.size	ibqGetTimeout, .-ibqGetTimeout
 598              		.section	.text.ibqReadTimeout,"ax",%progbits
 599              		.align	1
 600              		.global	ibqReadTimeout
 601              		.thumb
 602              		.thumb_func
 603              		.type	ibqReadTimeout, %function
 604              	ibqReadTimeout:
 605              	.LFB332:
 606              		.loc 3 359 0
 607              		.cfi_startproc
 608              		@ args = 0, pretend = 0, frame = 0
 609              		@ frame_needed = 0, uses_anonymous_args = 0
 610              	.LVL48:
 611 0000 2DE9F843 		push	{r3, r4, r5, r6, r7, r8, r9, lr}
 612              		.cfi_def_cfa_offset 32
 613              		.cfi_offset 3, -32
 614              		.cfi_offset 4, -28
 615              		.cfi_offset 5, -24
 616              		.cfi_offset 6, -20
 617              		.cfi_offset 7, -16
 618              		.cfi_offset 8, -12
 619              		.cfi_offset 9, -8
 620              		.cfi_offset 14, -4
 621              		.loc 3 359 0
 622 0004 0446     		mov	r4, r0
 623 0006 0F46     		mov	r7, r1
 624 0008 9046     		mov	r8, r2
 625 000a 9946     		mov	r9, r3
 626              	.LBB145:
 627              	.LBB146:
ARM GAS  /tmp/ccTllMdB.s 			page 12


 628              		.loc 5 511 0
 629 000c FFF7FEFF 		bl	chSysLock
 630              	.LVL49:
 631              	.LBE146:
 632              	.LBE145:
 633              		.loc 3 360 0
 634 0010 0025     		movs	r5, #0
 635              	.LVL50:
 636              	.L40:
 637              	.LBB147:
 638              		.loc 3 370 0
 639 0012 A36A     		ldr	r3, [r4, #40]
 640 0014 3BB9     		cbnz	r3, .L34
 641              	.LBB148:
 642              		.loc 3 374 0
 643 0016 4946     		mov	r1, r9
 644 0018 2046     		mov	r0, r4
 645 001a FFF7FEFF 		bl	ibqGetFullBufferTimeoutS
 646              	.LVL51:
 647              		.loc 3 377 0
 648 001e 10B1     		cbz	r0, .L34
 649              	.LBB149:
 650              	.LBB150:
 651              		.loc 5 522 0
 652 0020 FFF7FEFF 		bl	chSysUnlock
 653              	.LVL52:
 654              	.LBE150:
 655              	.LBE149:
 656              		.loc 3 379 0
 657 0024 2FE0     		b	.L35
 658              	.L34:
 659              	.LBE148:
 660              		.loc 3 384 0
 661 0026 A16A     		ldr	r1, [r4, #40]
 662 0028 E66A     		ldr	r6, [r4, #44]
 663              		.loc 3 385 0
 664 002a C5EB0803 		rsb	r3, r5, r8
 665              		.loc 3 384 0
 666 002e 761A     		subs	r6, r6, r1
 667              	.LVL53:
 668 0030 9E42     		cmp	r6, r3
 669 0032 28BF     		it	cs
 670 0034 1E46     		movcs	r6, r3
 671              	.LVL54:
 672              		.loc 3 391 0
 673 0036 402E     		cmp	r6, #64
 674 0038 0ED9     		bls	.L36
 675              		.loc 3 393 0
 676 003a 3B46     		mov	r3, r7
 677 003c 01F14002 		add	r2, r1, #64
 678              	.L37:
 679 0040 51F8040B 		ldr	r0, [r1], #4	@ unaligned
 680 0044 43F8040B 		str	r0, [r3], #4	@ unaligned
 681 0048 9142     		cmp	r1, r2
 682 004a F9D1     		bne	.L37
 683              		.loc 3 395 0
 684 004c A36A     		ldr	r3, [r4, #40]
ARM GAS  /tmp/ccTllMdB.s 			page 13


 685 004e 4033     		adds	r3, r3, #64
 686              		.loc 3 394 0
 687 0050 4037     		adds	r7, r7, #64
 688              	.LVL55:
 689              		.loc 3 395 0
 690 0052 A362     		str	r3, [r4, #40]
 691              		.loc 3 396 0
 692 0054 4035     		adds	r5, r5, #64
 693              	.LVL56:
 694 0056 08E0     		b	.L38
 695              	.L36:
 696              		.loc 3 399 0
 697 0058 3846     		mov	r0, r7
 698 005a 3246     		mov	r2, r6
 699 005c FFF7FEFF 		bl	memcpy
 700              	.LVL57:
 701              		.loc 3 401 0
 702 0060 A36A     		ldr	r3, [r4, #40]
 703 0062 3344     		add	r3, r3, r6
 704              		.loc 3 400 0
 705 0064 3744     		add	r7, r7, r6
 706              	.LVL58:
 707              		.loc 3 401 0
 708 0066 A362     		str	r3, [r4, #40]
 709              		.loc 3 402 0
 710 0068 3544     		add	r5, r5, r6
 711              	.LVL59:
 712              	.L38:
 713              		.loc 3 406 0
 714 006a A26A     		ldr	r2, [r4, #40]
 715 006c E36A     		ldr	r3, [r4, #44]
 716 006e 9A42     		cmp	r2, r3
 717 0070 02D3     		bcc	.L39
 718              		.loc 3 407 0
 719 0072 2046     		mov	r0, r4
 720 0074 FFF7FEFF 		bl	ibqReleaseEmptyBufferS
 721              	.LVL60:
 722              	.L39:
 723              	.LBB151:
 724              	.LBB152:
 725              		.loc 5 522 0
 726 0078 FFF7FEFF 		bl	chSysUnlock
 727              	.LVL61:
 728              	.LBE152:
 729              	.LBE151:
 730              		.loc 3 412 0
 731 007c 4545     		cmp	r5, r8
 732 007e 02D2     		bcs	.L35
 733              	.LBB153:
 734              	.LBB154:
 735              		.loc 5 511 0
 736 0080 FFF7FEFF 		bl	chSysLock
 737              	.LVL62:
 738 0084 C5E7     		b	.L40
 739              	.LVL63:
 740              	.L35:
 741              	.LBE154:
ARM GAS  /tmp/ccTllMdB.s 			page 14


 742              	.LBE153:
 743              	.LBE147:
 744              		.loc 3 417 0
 745 0086 2846     		mov	r0, r5
 746 0088 BDE8F883 		pop	{r3, r4, r5, r6, r7, r8, r9, pc}
 747              		.cfi_endproc
 748              	.LFE332:
 749              		.size	ibqReadTimeout, .-ibqReadTimeout
 750              		.section	.text.obqObjectInit,"ax",%progbits
 751              		.align	1
 752              		.global	obqObjectInit
 753              		.thumb
 754              		.thumb_func
 755              		.type	obqObjectInit, %function
 756              	obqObjectInit:
 757              	.LFB333:
 758              		.loc 3 433 0
 759              		.cfi_startproc
 760              		@ args = 12, pretend = 0, frame = 0
 761              		@ frame_needed = 0, uses_anonymous_args = 0
 762              	.LVL64:
 763 0000 10B5     		push	{r4, lr}
 764              		.cfi_def_cfa_offset 8
 765              		.cfi_offset 4, -8
 766              		.cfi_offset 14, -4
 767              		.loc 3 433 0
 768 0002 029C     		ldr	r4, [sp, #8]
 769              		.loc 3 438 0
 770 0004 0172     		strb	r1, [r0, #8]
 771              		.loc 3 442 0
 772 0006 0433     		adds	r3, r3, #4
 773              	.LVL65:
 774 0008 03FB0421 		mla	r1, r3, r4, r2
 775              	.LVL66:
 776              		.loc 3 443 0
 777 000c C361     		str	r3, [r0, #28]
 778              		.loc 3 446 0
 779 000e 0023     		movs	r3, #0
 780              	.LVL67:
 781 0010 8362     		str	r3, [r0, #40]
 782              		.loc 3 447 0
 783 0012 C362     		str	r3, [r0, #44]
 784              		.loc 3 448 0
 785 0014 039B     		ldr	r3, [sp, #12]
 786 0016 0363     		str	r3, [r0, #48]
 787              		.loc 3 449 0
 788 0018 049B     		ldr	r3, [sp, #16]
 789              	.LBB155:
 790              	.LBB156:
 791              	.LBB157:
 792              	.LBB158:
 793              		.loc 4 539 0
 794 001a 0060     		str	r0, [r0]
 795              		.loc 4 540 0
 796 001c 4060     		str	r0, [r0, #4]
 797              	.LVL68:
 798              	.LBE158:
ARM GAS  /tmp/ccTllMdB.s 			page 15


 799              	.LBE157:
 800              	.LBE156:
 801              	.LBE155:
 802              		.loc 3 439 0
 803 001e C460     		str	r4, [r0, #12]
 804              		.loc 3 440 0
 805 0020 4261     		str	r2, [r0, #20]
 806              		.loc 3 441 0
 807 0022 0261     		str	r2, [r0, #16]
 808              		.loc 3 442 0
 809 0024 8161     		str	r1, [r0, #24]
 810              		.loc 3 444 0
 811 0026 0462     		str	r4, [r0, #32]
 812              		.loc 3 445 0
 813 0028 4262     		str	r2, [r0, #36]
 814              		.loc 3 449 0
 815 002a 4363     		str	r3, [r0, #52]
 816 002c 10BD     		pop	{r4, pc}
 817              		.cfi_endproc
 818              	.LFE333:
 819              		.size	obqObjectInit, .-obqObjectInit
 820              		.section	.text.obqResetI,"ax",%progbits
 821              		.align	1
 822              		.global	obqResetI
 823              		.thumb
 824              		.thumb_func
 825              		.type	obqResetI, %function
 826              	obqResetI:
 827              	.LFB334:
 828              		.loc 3 463 0
 829              		.cfi_startproc
 830              		@ args = 0, pretend = 0, frame = 0
 831              		@ frame_needed = 0, uses_anonymous_args = 0
 832              		@ link register save eliminated.
 833              	.LVL69:
 834              		.loc 3 467 0
 835 0000 026A     		ldr	r2, [r0, #32]
 836 0002 C260     		str	r2, [r0, #12]
 837              		.loc 3 468 0
 838 0004 426A     		ldr	r2, [r0, #36]
 839 0006 4261     		str	r2, [r0, #20]
 840              		.loc 3 469 0
 841 0008 0261     		str	r2, [r0, #16]
 842              		.loc 3 470 0
 843 000a 0022     		movs	r2, #0
 844 000c 8262     		str	r2, [r0, #40]
 845              		.loc 3 471 0
 846 000e C262     		str	r2, [r0, #44]
 847              	.LVL70:
 848              	.LBB159:
 849              	.LBB160:
 850              		.loc 5 857 0
 851 0010 6FF00101 		mvn	r1, #1
 852 0014 FFF7FEBF 		b	chThdDequeueAllI
 853              	.LVL71:
 854              	.LBE160:
 855              	.LBE159:
ARM GAS  /tmp/ccTllMdB.s 			page 16


 856              		.cfi_endproc
 857              	.LFE334:
 858              		.size	obqResetI, .-obqResetI
 859              		.section	.text.obqGetFullBufferI,"ax",%progbits
 860              		.align	1
 861              		.global	obqGetFullBufferI
 862              		.thumb
 863              		.thumb_func
 864              		.type	obqGetFullBufferI, %function
 865              	obqGetFullBufferI:
 866              	.LFB335:
 867              		.loc 3 487 0
 868              		.cfi_startproc
 869              		@ args = 0, pretend = 0, frame = 0
 870              		@ frame_needed = 0, uses_anonymous_args = 0
 871              		@ link register save eliminated.
 872              	.LVL72:
 873              		.loc 3 491 0
 874 0000 4369     		ldr	r3, [r0, #20]
 875 0002 0269     		ldr	r2, [r0, #16]
 876 0004 9A42     		cmp	r2, r3
 877 0006 03D1     		bne	.L48
 878              		.loc 3 491 0 is_stmt 0 discriminator 1
 879 0008 C268     		ldr	r2, [r0, #12]
 880 000a 0AB1     		cbz	r2, .L48
 881              		.loc 3 492 0 is_stmt 1
 882 000c 0020     		movs	r0, #0
 883              	.LVL73:
 884 000e 7047     		bx	lr
 885              	.LVL74:
 886              	.L48:
 887              		.loc 3 496 0
 888 0010 1846     		mov	r0, r3
 889              	.LVL75:
 890 0012 50F8043B 		ldr	r3, [r0], #4
 891 0016 0B60     		str	r3, [r1]
 892              		.loc 3 499 0
 893 0018 7047     		bx	lr
 894              		.cfi_endproc
 895              	.LFE335:
 896              		.size	obqGetFullBufferI, .-obqGetFullBufferI
 897              		.section	.text.obqReleaseEmptyBufferI,"ax",%progbits
 898              		.align	1
 899              		.global	obqReleaseEmptyBufferI
 900              		.thumb
 901              		.thumb_func
 902              		.type	obqReleaseEmptyBufferI, %function
 903              	obqReleaseEmptyBufferI:
 904              	.LFB336:
 905              		.loc 3 508 0
 906              		.cfi_startproc
 907              		@ args = 0, pretend = 0, frame = 0
 908              		@ frame_needed = 0, uses_anonymous_args = 0
 909              		@ link register save eliminated.
 910              	.LVL76:
 911              		.loc 3 514 0
 912 0000 C368     		ldr	r3, [r0, #12]
ARM GAS  /tmp/ccTllMdB.s 			page 17


 913              		.loc 3 515 0
 914 0002 4269     		ldr	r2, [r0, #20]
 915              		.loc 3 514 0
 916 0004 0133     		adds	r3, r3, #1
 917 0006 C360     		str	r3, [r0, #12]
 918              		.loc 3 515 0
 919 0008 C369     		ldr	r3, [r0, #28]
 920 000a 1344     		add	r3, r3, r2
 921              		.loc 3 516 0
 922 000c 8269     		ldr	r2, [r0, #24]
 923              		.loc 3 515 0
 924 000e 4361     		str	r3, [r0, #20]
 925              		.loc 3 516 0
 926 0010 9342     		cmp	r3, r2
 927              		.loc 3 517 0
 928 0012 24BF     		itt	cs
 929 0014 436A     		ldrcs	r3, [r0, #36]
 930 0016 4361     		strcs	r3, [r0, #20]
 931              	.LVL77:
 932              	.LBB161:
 933              	.LBB162:
 934              		.loc 5 844 0
 935 0018 0021     		movs	r1, #0
 936 001a FFF7FEBF 		b	chThdDequeueNextI
 937              	.LVL78:
 938              	.LBE162:
 939              	.LBE161:
 940              		.cfi_endproc
 941              	.LFE336:
 942              		.size	obqReleaseEmptyBufferI, .-obqReleaseEmptyBufferI
 943              		.section	.text.obqGetEmptyBufferTimeoutS,"ax",%progbits
 944              		.align	1
 945              		.global	obqGetEmptyBufferTimeoutS
 946              		.thumb
 947              		.thumb_func
 948              		.type	obqGetEmptyBufferTimeoutS, %function
 949              	obqGetEmptyBufferTimeoutS:
 950              	.LFB338:
 951              		.loc 3 578 0
 952              		.cfi_startproc
 953              		@ args = 0, pretend = 0, frame = 0
 954              		@ frame_needed = 0, uses_anonymous_args = 0
 955              	.LVL79:
 956 0000 38B5     		push	{r3, r4, r5, lr}
 957              		.cfi_def_cfa_offset 16
 958              		.cfi_offset 3, -16
 959              		.cfi_offset 4, -12
 960              		.cfi_offset 5, -8
 961              		.cfi_offset 14, -4
 962 0002 0446     		mov	r4, r0
 963 0004 0D46     		mov	r5, r1
 964              	.LVL80:
 965              	.L57:
 966              		.loc 3 582 0
 967 0006 E368     		ldr	r3, [r4, #12]
 968 0008 43B9     		cbnz	r3, .L61
 969              	.LBB171:
ARM GAS  /tmp/ccTllMdB.s 			page 18


 970              		.loc 3 583 0
 971 000a 237A     		ldrb	r3, [r4, #8]	@ zero_extendqisi2
 972 000c 73B9     		cbnz	r3, .L60
 973              	.LVL81:
 974              	.LBB172:
 975              	.LBB173:
 976              		.loc 5 831 0
 977 000e 2946     		mov	r1, r5
 978 0010 2046     		mov	r0, r4
 979 0012 FFF7FEFF 		bl	chThdEnqueueTimeoutS
 980              	.LVL82:
 981              	.LBE173:
 982              	.LBE172:
 983              		.loc 3 587 0
 984 0016 0028     		cmp	r0, #0
 985 0018 F5DA     		bge	.L57
 986 001a 09E0     		b	.L58
 987              	.L61:
 988              	.LVL83:
 989              	.LBE171:
 990              	.LBB174:
 991              	.LBB175:
 992              		.loc 3 595 0
 993 001c 2269     		ldr	r2, [r4, #16]
 994 001e 131D     		adds	r3, r2, #4
 995 0020 A362     		str	r3, [r4, #40]
 996              		.loc 3 596 0
 997 0022 E369     		ldr	r3, [r4, #28]
 998 0024 1344     		add	r3, r3, r2
 999 0026 E362     		str	r3, [r4, #44]
 1000              	.LVL84:
 1001 0028 0020     		movs	r0, #0
 1002 002a 38BD     		pop	{r3, r4, r5, pc}
 1003              	.LVL85:
 1004              	.L60:
 1005              	.LBE175:
 1006              	.LBE174:
 1007              	.LBB176:
 1008              		.loc 3 584 0
 1009 002c 6FF00100 		mvn	r0, #1
 1010              	.L58:
 1011              	.LBE176:
 1012              		.loc 3 599 0
 1013 0030 38BD     		pop	{r3, r4, r5, pc}
 1014              		.cfi_endproc
 1015              	.LFE338:
 1016              		.size	obqGetEmptyBufferTimeoutS, .-obqGetEmptyBufferTimeoutS
 1017              		.section	.text.obqGetEmptyBufferTimeout,"ax",%progbits
 1018              		.align	1
 1019              		.global	obqGetEmptyBufferTimeout
 1020              		.thumb
 1021              		.thumb_func
 1022              		.type	obqGetEmptyBufferTimeout, %function
 1023              	obqGetEmptyBufferTimeout:
 1024              	.LFB337:
 1025              		.loc 3 546 0
 1026              		.cfi_startproc
ARM GAS  /tmp/ccTllMdB.s 			page 19


 1027              		@ args = 0, pretend = 0, frame = 0
 1028              		@ frame_needed = 0, uses_anonymous_args = 0
 1029              	.LVL86:
 1030 0000 38B5     		push	{r3, r4, r5, lr}
 1031              		.cfi_def_cfa_offset 16
 1032              		.cfi_offset 3, -16
 1033              		.cfi_offset 4, -12
 1034              		.cfi_offset 5, -8
 1035              		.cfi_offset 14, -4
 1036              		.loc 3 546 0
 1037 0002 0446     		mov	r4, r0
 1038 0004 0D46     		mov	r5, r1
 1039              	.LBB177:
 1040              	.LBB178:
 1041              		.loc 5 511 0
 1042 0006 FFF7FEFF 		bl	chSysLock
 1043              	.LVL87:
 1044              	.LBE178:
 1045              	.LBE177:
 1046              		.loc 3 550 0
 1047 000a 2946     		mov	r1, r5
 1048 000c 2046     		mov	r0, r4
 1049 000e FFF7FEFF 		bl	obqGetEmptyBufferTimeoutS
 1050              	.LVL88:
 1051 0012 0446     		mov	r4, r0
 1052              	.LVL89:
 1053              	.LBB179:
 1054              	.LBB180:
 1055              		.loc 5 522 0
 1056 0014 FFF7FEFF 		bl	chSysUnlock
 1057              	.LVL90:
 1058              	.LBE180:
 1059              	.LBE179:
 1060              		.loc 3 554 0
 1061 0018 2046     		mov	r0, r4
 1062 001a 38BD     		pop	{r3, r4, r5, pc}
 1063              		.cfi_endproc
 1064              	.LFE337:
 1065              		.size	obqGetEmptyBufferTimeout, .-obqGetEmptyBufferTimeout
 1066              		.section	.text.obqPostFullBufferS,"ax",%progbits
 1067              		.align	1
 1068              		.global	obqPostFullBufferS
 1069              		.thumb
 1070              		.thumb_func
 1071              		.type	obqPostFullBufferS, %function
 1072              	obqPostFullBufferS:
 1073              	.LFB340:
 1074              		.loc 3 626 0
 1075              		.cfi_startproc
 1076              		@ args = 0, pretend = 0, frame = 0
 1077              		@ frame_needed = 0, uses_anonymous_args = 0
 1078              		@ link register save eliminated.
 1079              	.LVL91:
 1080 0000 10B4     		push	{r4}
 1081              		.cfi_def_cfa_offset 4
 1082              		.cfi_offset 4, -4
 1083              		.loc 3 633 0
ARM GAS  /tmp/ccTllMdB.s 			page 20


 1084 0002 0469     		ldr	r4, [r0, #16]
 1085 0004 2160     		str	r1, [r4]
 1086              		.loc 3 636 0
 1087 0006 C268     		ldr	r2, [r0, #12]
 1088              		.loc 3 637 0
 1089 0008 C369     		ldr	r3, [r0, #28]
 1090              		.loc 3 636 0
 1091 000a 013A     		subs	r2, r2, #1
 1092 000c C260     		str	r2, [r0, #12]
 1093              		.loc 3 638 0
 1094 000e 8269     		ldr	r2, [r0, #24]
 1095              		.loc 3 637 0
 1096 0010 2344     		add	r3, r3, r4
 1097              		.loc 3 638 0
 1098 0012 9342     		cmp	r3, r2
 1099              		.loc 3 637 0
 1100 0014 0361     		str	r3, [r0, #16]
 1101              		.loc 3 639 0
 1102 0016 24BF     		itt	cs
 1103 0018 436A     		ldrcs	r3, [r0, #36]
 1104 001a 0361     		strcs	r3, [r0, #16]
 1105              		.loc 3 643 0
 1106 001c 0023     		movs	r3, #0
 1107 001e 8362     		str	r3, [r0, #40]
 1108              		.loc 3 646 0
 1109 0020 036B     		ldr	r3, [r0, #48]
 1110 0022 13B1     		cbz	r3, .L63
 1111              		.loc 3 649 0
 1112 0024 5DF8044B 		ldr	r4, [sp], #4
 1113              		.cfi_remember_state
 1114              		.cfi_restore 4
 1115              		.cfi_def_cfa_offset 0
 1116              		.loc 3 647 0
 1117 0028 1847     		bx	r3	@ indirect register sibling call
 1118              	.LVL92:
 1119              	.L63:
 1120              		.cfi_restore_state
 1121              		.loc 3 649 0
 1122 002a 5DF8044B 		ldr	r4, [sp], #4
 1123              		.cfi_restore 4
 1124              		.cfi_def_cfa_offset 0
 1125 002e 7047     		bx	lr
 1126              		.cfi_endproc
 1127              	.LFE340:
 1128              		.size	obqPostFullBufferS, .-obqPostFullBufferS
 1129              		.section	.text.obqPostFullBuffer,"ax",%progbits
 1130              		.align	1
 1131              		.global	obqPostFullBuffer
 1132              		.thumb
 1133              		.thumb_func
 1134              		.type	obqPostFullBuffer, %function
 1135              	obqPostFullBuffer:
 1136              	.LFB339:
 1137              		.loc 3 610 0
 1138              		.cfi_startproc
 1139              		@ args = 0, pretend = 0, frame = 0
 1140              		@ frame_needed = 0, uses_anonymous_args = 0
ARM GAS  /tmp/ccTllMdB.s 			page 21


 1141              	.LVL93:
 1142 0000 38B5     		push	{r3, r4, r5, lr}
 1143              		.cfi_def_cfa_offset 16
 1144              		.cfi_offset 3, -16
 1145              		.cfi_offset 4, -12
 1146              		.cfi_offset 5, -8
 1147              		.cfi_offset 14, -4
 1148              		.loc 3 610 0
 1149 0002 0446     		mov	r4, r0
 1150 0004 0D46     		mov	r5, r1
 1151              	.LBB181:
 1152              	.LBB182:
 1153              		.loc 5 511 0
 1154 0006 FFF7FEFF 		bl	chSysLock
 1155              	.LVL94:
 1156              	.LBE182:
 1157              	.LBE181:
 1158              		.loc 3 613 0
 1159 000a 2946     		mov	r1, r5
 1160 000c 2046     		mov	r0, r4
 1161 000e FFF7FEFF 		bl	obqPostFullBufferS
 1162              	.LVL95:
 1163              		.loc 3 615 0
 1164 0012 BDE83840 		pop	{r3, r4, r5, lr}
 1165              		.cfi_restore 14
 1166              		.cfi_restore 5
 1167              		.cfi_restore 4
 1168              		.cfi_restore 3
 1169              		.cfi_def_cfa_offset 0
 1170              	.LVL96:
 1171              	.LBB183:
 1172              	.LBB184:
 1173              		.loc 5 522 0
 1174 0016 FFF7FEBF 		b	chSysUnlock
 1175              	.LVL97:
 1176              	.LBE184:
 1177              	.LBE183:
 1178              		.cfi_endproc
 1179              	.LFE339:
 1180              		.size	obqPostFullBuffer, .-obqPostFullBuffer
 1181              		.section	.text.obqPutTimeout,"ax",%progbits
 1182              		.align	1
 1183              		.global	obqPutTimeout
 1184              		.thumb
 1185              		.thumb_func
 1186              		.type	obqPutTimeout, %function
 1187              	obqPutTimeout:
 1188              	.LFB341:
 1189              		.loc 3 672 0
 1190              		.cfi_startproc
 1191              		@ args = 0, pretend = 0, frame = 0
 1192              		@ frame_needed = 0, uses_anonymous_args = 0
 1193              	.LVL98:
 1194 0000 70B5     		push	{r4, r5, r6, lr}
 1195              		.cfi_def_cfa_offset 16
 1196              		.cfi_offset 4, -16
 1197              		.cfi_offset 5, -12
ARM GAS  /tmp/ccTllMdB.s 			page 22


 1198              		.cfi_offset 6, -8
 1199              		.cfi_offset 14, -4
 1200              		.loc 3 672 0
 1201 0002 0446     		mov	r4, r0
 1202 0004 0E46     		mov	r6, r1
 1203 0006 1546     		mov	r5, r2
 1204              	.LBB185:
 1205              	.LBB186:
 1206              		.loc 5 511 0
 1207 0008 FFF7FEFF 		bl	chSysLock
 1208              	.LVL99:
 1209              	.LBE186:
 1210              	.LBE185:
 1211              		.loc 3 678 0
 1212 000c A36A     		ldr	r3, [r4, #40]
 1213 000e 4BB9     		cbnz	r3, .L68
 1214              		.loc 3 679 0
 1215 0010 2946     		mov	r1, r5
 1216 0012 2046     		mov	r0, r4
 1217 0014 FFF7FEFF 		bl	obqGetEmptyBufferTimeoutS
 1218              	.LVL100:
 1219              		.loc 3 680 0
 1220 0018 0546     		mov	r5, r0
 1221              	.LVL101:
 1222 001a 18B1     		cbz	r0, .L68
 1223              	.LBB187:
 1224              	.LBB188:
 1225              		.loc 5 522 0
 1226 001c FFF7FEFF 		bl	chSysUnlock
 1227              	.LVL102:
 1228              	.LBE188:
 1229              	.LBE187:
 1230              		.loc 3 682 0
 1231 0020 2846     		mov	r0, r5
 1232 0022 70BD     		pop	{r4, r5, r6, pc}
 1233              	.LVL103:
 1234              	.L68:
 1235              		.loc 3 687 0
 1236 0024 A36A     		ldr	r3, [r4, #40]
 1237 0026 1E70     		strb	r6, [r3]
 1238              		.loc 3 688 0
 1239 0028 A36A     		ldr	r3, [r4, #40]
 1240              		.loc 3 692 0
 1241 002a E26A     		ldr	r2, [r4, #44]
 1242              		.loc 3 688 0
 1243 002c 0133     		adds	r3, r3, #1
 1244              		.loc 3 692 0
 1245 002e 9342     		cmp	r3, r2
 1246              		.loc 3 688 0
 1247 0030 A362     		str	r3, [r4, #40]
 1248              		.loc 3 692 0
 1249 0032 04D3     		bcc	.L70
 1250              		.loc 3 693 0
 1251 0034 E169     		ldr	r1, [r4, #28]
 1252 0036 2046     		mov	r0, r4
 1253 0038 0439     		subs	r1, r1, #4
 1254 003a FFF7FEFF 		bl	obqPostFullBufferS
ARM GAS  /tmp/ccTllMdB.s 			page 23


 1255              	.LVL104:
 1256              	.L70:
 1257              	.LBB189:
 1258              	.LBB190:
 1259              		.loc 5 522 0
 1260 003e FFF7FEFF 		bl	chSysUnlock
 1261              	.LVL105:
 1262              	.LBE190:
 1263              	.LBE189:
 1264              		.loc 3 697 0
 1265 0042 0020     		movs	r0, #0
 1266              		.loc 3 698 0
 1267 0044 70BD     		pop	{r4, r5, r6, pc}
 1268              		.cfi_endproc
 1269              	.LFE341:
 1270              		.size	obqPutTimeout, .-obqPutTimeout
 1271              		.section	.text.obqWriteTimeout,"ax",%progbits
 1272              		.align	1
 1273              		.global	obqWriteTimeout
 1274              		.thumb
 1275              		.thumb_func
 1276              		.type	obqWriteTimeout, %function
 1277              	obqWriteTimeout:
 1278              	.LFB342:
 1279              		.loc 3 722 0
 1280              		.cfi_startproc
 1281              		@ args = 0, pretend = 0, frame = 0
 1282              		@ frame_needed = 0, uses_anonymous_args = 0
 1283              	.LVL106:
 1284 0000 2DE9F843 		push	{r3, r4, r5, r6, r7, r8, r9, lr}
 1285              		.cfi_def_cfa_offset 32
 1286              		.cfi_offset 3, -32
 1287              		.cfi_offset 4, -28
 1288              		.cfi_offset 5, -24
 1289              		.cfi_offset 6, -20
 1290              		.cfi_offset 7, -16
 1291              		.cfi_offset 8, -12
 1292              		.cfi_offset 9, -8
 1293              		.cfi_offset 14, -4
 1294              		.loc 3 722 0
 1295 0004 0446     		mov	r4, r0
 1296              	.LVL107:
 1297 0006 0D46     		mov	r5, r1
 1298 0008 9046     		mov	r8, r2
 1299 000a 9946     		mov	r9, r3
 1300              	.LBB191:
 1301              	.LBB192:
 1302              		.loc 5 511 0
 1303 000c FFF7FEFF 		bl	chSysLock
 1304              	.LVL108:
 1305              	.LBE192:
 1306              	.LBE191:
 1307              		.loc 3 723 0
 1308 0010 0026     		movs	r6, #0
 1309              	.LVL109:
 1310              	.L81:
 1311              	.LBB193:
ARM GAS  /tmp/ccTllMdB.s 			page 24


 1312              		.loc 3 733 0
 1313 0012 A36A     		ldr	r3, [r4, #40]
 1314 0014 3BB9     		cbnz	r3, .L75
 1315              	.LBB194:
 1316              		.loc 3 737 0
 1317 0016 4946     		mov	r1, r9
 1318 0018 2046     		mov	r0, r4
 1319 001a FFF7FEFF 		bl	obqGetEmptyBufferTimeoutS
 1320              	.LVL110:
 1321              		.loc 3 740 0
 1322 001e 10B1     		cbz	r0, .L75
 1323              	.LBB195:
 1324              	.LBB196:
 1325              		.loc 5 522 0
 1326 0020 FFF7FEFF 		bl	chSysUnlock
 1327              	.LVL111:
 1328              	.LBE196:
 1329              	.LBE195:
 1330              		.loc 3 742 0
 1331 0024 2FE0     		b	.L76
 1332              	.L75:
 1333              	.LBE194:
 1334              		.loc 3 747 0
 1335 0026 A06A     		ldr	r0, [r4, #40]
 1336 0028 E76A     		ldr	r7, [r4, #44]
 1337              		.loc 3 748 0
 1338 002a C6EB0803 		rsb	r3, r6, r8
 1339              		.loc 3 747 0
 1340 002e 3F1A     		subs	r7, r7, r0
 1341              	.LVL112:
 1342 0030 9F42     		cmp	r7, r3
 1343 0032 28BF     		it	cs
 1344 0034 1F46     		movcs	r7, r3
 1345              	.LVL113:
 1346              		.loc 3 754 0
 1347 0036 402F     		cmp	r7, #64
 1348 0038 0CD9     		bls	.L77
 1349              		.loc 3 756 0
 1350 003a 05F14003 		add	r3, r5, #64
 1351              	.LVL114:
 1352              	.L78:
 1353 003e 55F8042B 		ldr	r2, [r5], #4	@ unaligned
 1354 0042 40F8042B 		str	r2, [r0], #4	@ unaligned
 1355 0046 9D42     		cmp	r5, r3
 1356 0048 F9D1     		bne	.L78
 1357              	.LVL115:
 1358              		.loc 3 758 0
 1359 004a A36A     		ldr	r3, [r4, #40]
 1360 004c 4033     		adds	r3, r3, #64
 1361 004e A362     		str	r3, [r4, #40]
 1362              		.loc 3 759 0
 1363 0050 4036     		adds	r6, r6, #64
 1364              	.LVL116:
 1365 0052 08E0     		b	.L79
 1366              	.LVL117:
 1367              	.L77:
 1368              		.loc 3 762 0
ARM GAS  /tmp/ccTllMdB.s 			page 25


 1369 0054 2946     		mov	r1, r5
 1370 0056 3A46     		mov	r2, r7
 1371 0058 FFF7FEFF 		bl	memcpy
 1372              	.LVL118:
 1373              		.loc 3 764 0
 1374 005c A36A     		ldr	r3, [r4, #40]
 1375 005e 3B44     		add	r3, r3, r7
 1376              		.loc 3 763 0
 1377 0060 3D44     		add	r5, r5, r7
 1378              	.LVL119:
 1379              		.loc 3 764 0
 1380 0062 A362     		str	r3, [r4, #40]
 1381              		.loc 3 765 0
 1382 0064 3E44     		add	r6, r6, r7
 1383              	.LVL120:
 1384              	.L79:
 1385              		.loc 3 769 0
 1386 0066 A26A     		ldr	r2, [r4, #40]
 1387 0068 E36A     		ldr	r3, [r4, #44]
 1388 006a 9A42     		cmp	r2, r3
 1389 006c 04D3     		bcc	.L80
 1390              		.loc 3 770 0
 1391 006e E169     		ldr	r1, [r4, #28]
 1392 0070 2046     		mov	r0, r4
 1393 0072 0439     		subs	r1, r1, #4
 1394 0074 FFF7FEFF 		bl	obqPostFullBufferS
 1395              	.LVL121:
 1396              	.L80:
 1397              	.LBB197:
 1398              	.LBB198:
 1399              		.loc 5 522 0
 1400 0078 FFF7FEFF 		bl	chSysUnlock
 1401              	.LVL122:
 1402              	.LBE198:
 1403              	.LBE197:
 1404              		.loc 3 775 0
 1405 007c 4645     		cmp	r6, r8
 1406 007e 02D2     		bcs	.L76
 1407              	.LBB199:
 1408              	.LBB200:
 1409              		.loc 5 511 0
 1410 0080 FFF7FEFF 		bl	chSysLock
 1411              	.LVL123:
 1412 0084 C5E7     		b	.L81
 1413              	.LVL124:
 1414              	.L76:
 1415              	.LBE200:
 1416              	.LBE199:
 1417              	.LBE193:
 1418              		.loc 3 780 0
 1419 0086 3046     		mov	r0, r6
 1420 0088 BDE8F883 		pop	{r3, r4, r5, r6, r7, r8, r9, pc}
 1421              		.cfi_endproc
 1422              	.LFE342:
 1423              		.size	obqWriteTimeout, .-obqWriteTimeout
 1424              		.section	.text.obqTryFlushI,"ax",%progbits
 1425              		.align	1
ARM GAS  /tmp/ccTllMdB.s 			page 26


 1426              		.global	obqTryFlushI
 1427              		.thumb
 1428              		.thumb_func
 1429              		.type	obqTryFlushI, %function
 1430              	obqTryFlushI:
 1431              	.LFB343:
 1432              		.loc 3 795 0
 1433              		.cfi_startproc
 1434              		@ args = 0, pretend = 0, frame = 0
 1435              		@ frame_needed = 0, uses_anonymous_args = 0
 1436              		@ link register save eliminated.
 1437              	.LVL125:
 1438              		.loc 3 801 0
 1439 0000 0269     		ldr	r2, [r0, #16]
 1440 0002 4369     		ldr	r3, [r0, #20]
 1441 0004 9A42     		cmp	r2, r3
 1442 0006 02D1     		bne	.L91
 1443              		.loc 3 801 0 is_stmt 0 discriminator 1
 1444 0008 C368     		ldr	r3, [r0, #12]
 1445 000a 13B9     		cbnz	r3, .L88
 1446 000c 16E0     		b	.L94
 1447              	.L91:
 1448              		.loc 3 822 0 is_stmt 1
 1449 000e 0020     		movs	r0, #0
 1450              	.LVL126:
 1451 0010 7047     		bx	lr
 1452              	.LVL127:
 1453              	.L88:
 1454              		.loc 3 801 0
 1455 0012 836A     		ldr	r3, [r0, #40]
 1456 0014 93B1     		cbz	r3, .L94
 1457              	.LBB201:
 1458              		.loc 3 802 0
 1459 0016 043B     		subs	r3, r3, #4
 1460              	.LVL128:
 1461              		.loc 3 804 0
 1462 0018 9B1A     		subs	r3, r3, r2
 1463              	.LVL129:
 1464 001a 0FD0     		beq	.L94
 1465              		.loc 3 807 0
 1466 001c 1360     		str	r3, [r2]
 1467              		.loc 3 810 0
 1468 001e C368     		ldr	r3, [r0, #12]
 1469              	.LVL130:
 1470 0020 013B     		subs	r3, r3, #1
 1471 0022 C360     		str	r3, [r0, #12]
 1472              	.LVL131:
 1473              		.loc 3 811 0
 1474 0024 C369     		ldr	r3, [r0, #28]
 1475 0026 1A44     		add	r2, r2, r3
 1476              	.LVL132:
 1477              		.loc 3 812 0
 1478 0028 8369     		ldr	r3, [r0, #24]
 1479              		.loc 3 811 0
 1480 002a 0261     		str	r2, [r0, #16]
 1481              	.LVL133:
 1482              		.loc 3 812 0
ARM GAS  /tmp/ccTllMdB.s 			page 27


 1483 002c 9A42     		cmp	r2, r3
 1484              		.loc 3 813 0
 1485 002e 24BF     		itt	cs
 1486 0030 436A     		ldrcs	r3, [r0, #36]
 1487 0032 0361     		strcs	r3, [r0, #16]
 1488              		.loc 3 817 0
 1489 0034 0023     		movs	r3, #0
 1490 0036 8362     		str	r3, [r0, #40]
 1491              		.loc 3 819 0
 1492 0038 0120     		movs	r0, #1
 1493              	.LVL134:
 1494 003a 7047     		bx	lr
 1495              	.LVL135:
 1496              	.L94:
 1497              	.LBE201:
 1498              		.loc 3 822 0
 1499 003c 1846     		mov	r0, r3
 1500              	.LVL136:
 1501              		.loc 3 823 0
 1502 003e 7047     		bx	lr
 1503              		.cfi_endproc
 1504              	.LFE343:
 1505              		.size	obqTryFlushI, .-obqTryFlushI
 1506              		.section	.text.obqFlush,"ax",%progbits
 1507              		.align	1
 1508              		.global	obqFlush
 1509              		.thumb
 1510              		.thumb_func
 1511              		.type	obqFlush, %function
 1512              	obqFlush:
 1513              	.LFB344:
 1514              		.loc 3 832 0
 1515              		.cfi_startproc
 1516              		@ args = 0, pretend = 0, frame = 0
 1517              		@ frame_needed = 0, uses_anonymous_args = 0
 1518              	.LVL137:
 1519 0000 10B5     		push	{r4, lr}
 1520              		.cfi_def_cfa_offset 8
 1521              		.cfi_offset 4, -8
 1522              		.cfi_offset 14, -4
 1523              		.loc 3 832 0
 1524 0002 0446     		mov	r4, r0
 1525              	.LBB202:
 1526              	.LBB203:
 1527              		.loc 5 511 0
 1528 0004 FFF7FEFF 		bl	chSysLock
 1529              	.LVL138:
 1530              	.LBE203:
 1531              	.LBE202:
 1532              		.loc 3 837 0
 1533 0008 A36A     		ldr	r3, [r4, #40]
 1534 000a 33B1     		cbz	r3, .L96
 1535              	.LBB204:
 1536              		.loc 3 838 0
 1537 000c 2169     		ldr	r1, [r4, #16]
 1538 000e 043B     		subs	r3, r3, #4
 1539              	.LVL139:
ARM GAS  /tmp/ccTllMdB.s 			page 28


 1540              		.loc 3 840 0
 1541 0010 591A     		subs	r1, r3, r1
 1542              	.LVL140:
 1543 0012 02D0     		beq	.L96
 1544              		.loc 3 841 0
 1545 0014 2046     		mov	r0, r4
 1546 0016 FFF7FEFF 		bl	obqPostFullBufferS
 1547              	.LVL141:
 1548              	.L96:
 1549              	.LBE204:
 1550              		.loc 3 846 0
 1551 001a BDE81040 		pop	{r4, lr}
 1552              		.cfi_restore 14
 1553              		.cfi_restore 4
 1554              		.cfi_def_cfa_offset 0
 1555              	.LVL142:
 1556              	.LBB205:
 1557              	.LBB206:
 1558              		.loc 5 522 0
 1559 001e FFF7FEBF 		b	chSysUnlock
 1560              	.LVL143:
 1561              	.LBE206:
 1562              	.LBE205:
 1563              		.cfi_endproc
 1564              	.LFE344:
 1565              		.size	obqFlush, .-obqFlush
 1566              		.text
 1567              	.Letext0:
 1568              		.file 6 "/usr/lib/gcc/arm-none-eabi/5.4.1/include/stddef.h"
 1569              		.file 7 "/usr/include/newlib/machine/_default_types.h"
 1570              		.file 8 "/usr/include/newlib/sys/_stdint.h"
 1571              		.file 9 "../../modules/ChibiOS/os/common/ports/ARMCMx/compilers/GCC/chtypes.h"
 1572              		.file 10 "../../modules/ChibiOS/os/rt/include/chsystypes.h"
 1573              		.file 11 "../../modules/ChibiOS/os/rt/include/chtime.h"
 1574              		.file 12 "../../modules/ChibiOS/os/common/ports/ARMCMx/chcore.h"
 1575              		.file 13 "../../modules/ChibiOS/os/common/ports/ARMCMx/chcore_v7m.h"
 1576              		.file 14 "../../modules/ChibiOS/os/rt/include/chtm.h"
 1577              		.file 15 "../../modules/ChibiOS/os/rt/include/chstats.h"
 1578              		.file 16 "../../modules/ChibiOS/os/rt/include/chsem.h"
 1579              		.file 17 "../../modules/ChibiOS/os/rt/include/chmtx.h"
 1580              		.file 18 "../../modules/ChibiOS/os/hal/include/hal_buffers.h"
 1581              		.file 19 "../../modules/ChibiOS/os/rt/include/chthreads.h"
 1582              		.file 20 "../../modules/ChibiOS/os/common/ext/ARM/CMSIS/Core/Include/core_cm4.h"