ARM GAS  /tmp/ccA9TTb5.s 			page 1


   1              		.syntax unified
   2              		.cpu cortex-m4
   3              		.eabi_attribute 27, 1
   4              		.eabi_attribute 28, 1
   5              		.fpu fpv4-sp-d16
   6              		.eabi_attribute 20, 1
   7              		.eabi_attribute 21, 1
   8              		.eabi_attribute 23, 3
   9              		.eabi_attribute 24, 1
  10              		.eabi_attribute 25, 1
  11              		.eabi_attribute 26, 1
  12              		.eabi_attribute 30, 4
  13              		.eabi_attribute 34, 1
  14              		.eabi_attribute 18, 4
  15              		.thumb
  16              		.syntax unified
  17              		.file	"hal_lld.c"
  18              		.text
  19              	.Ltext0:
  20              		.cfi_sections	.debug_frame
  21              		.section	.text.hal_lld_init,"ax",%progbits
  22              		.align	1
  23              		.global	hal_lld_init
  24              		.thumb
  25              		.thumb_func
  26              		.type	hal_lld_init, %function
  27              	hal_lld_init:
  28              	.LFB324:
  29              		.file 1 "../../modules/ChibiOS/os/hal/ports/STM32/STM32F4xx/hal_lld.c"
  30              		.loc 1 114 0
  31              		.cfi_startproc
  32              		@ args = 0, pretend = 0, frame = 0
  33              		@ frame_needed = 0, uses_anonymous_args = 0
  34 0000 08B5     		push	{r3, lr}
  35              		.cfi_def_cfa_offset 8
  36              		.cfi_offset 3, -8
  37              		.cfi_offset 14, -4
  38              		.loc 1 120 0
  39 0002 224B     		ldr	r3, .L6
  40 0004 1A69     		ldr	r2, [r3, #16]
  41 0006 6FEAC252 		mvn	r2, r2, lsl #23
  42 000a 6FEAD252 		mvn	r2, r2, lsr #23
  43 000e 1A61     		str	r2, [r3, #16]
  44 0010 1A69     		ldr	r2, [r3, #16]
  45 0012 C2F30802 		ubfx	r2, r2, #0, #9
  46 0016 1A61     		str	r2, [r3, #16]
  47              		.loc 1 122 0
  48 0018 4FF0FF30 		mov	r0, #-1
  49              		.loc 1 120 0
  50 001c 1A69     		ldr	r2, [r3, #16]
  51              		.loc 1 122 0
  52 001e 5A69     		ldr	r2, [r3, #20]
  53 0020 5861     		str	r0, [r3, #20]
  54 0022 0021     		movs	r1, #0
  55 0024 5A69     		ldr	r2, [r3, #20]
  56 0026 5961     		str	r1, [r3, #20]
  57 0028 5A69     		ldr	r2, [r3, #20]
ARM GAS  /tmp/ccA9TTb5.s 			page 2


  58              		.loc 1 124 0
  59 002a 1A6A     		ldr	r2, [r3, #32]
  60 002c 62F08052 		orn	r2, r2, #268435456
  61 0030 1A62     		str	r2, [r3, #32]
  62 0032 1A6A     		ldr	r2, [r3, #32]
  63 0034 02F08052 		and	r2, r2, #268435456
  64 0038 1A62     		str	r2, [r3, #32]
  65 003a 1A6A     		ldr	r2, [r3, #32]
  66              		.loc 1 125 0
  67 003c 5A6A     		ldr	r2, [r3, #36]
  68 003e 5862     		str	r0, [r3, #36]
  69 0040 5A6A     		ldr	r2, [r3, #36]
  70 0042 5962     		str	r1, [r3, #36]
  71 0044 5A6A     		ldr	r2, [r3, #36]
  72              		.loc 1 128 0
  73 0046 1A6C     		ldr	r2, [r3, #64]
  74 0048 42F08052 		orr	r2, r2, #268435456
  75 004c 1A64     		str	r2, [r3, #64]
  76 004e 1A6E     		ldr	r2, [r3, #96]
  77 0050 42F08052 		orr	r2, r2, #268435456
  78 0054 1A66     		str	r2, [r3, #96]
  79 0056 1A6E     		ldr	r2, [r3, #96]
  80              	.LBB4:
  81              	.LBB5:
  82              		.loc 1 57 0
  83 0058 0D4A     		ldr	r2, .L6+4
  84 005a 1068     		ldr	r0, [r2]
  85 005c 40F48070 		orr	r0, r0, #256
  86 0060 1060     		str	r0, [r2]
  87              		.loc 1 60 0
  88 0062 186F     		ldr	r0, [r3, #112]
  89 0064 00F44070 		and	r0, r0, #768
  90 0068 B0F5007F 		cmp	r0, #512
  91              		.loc 1 62 0
  92 006c 1EBF     		ittt	ne
  93 006e 4FF48030 		movne	r0, #65536
  94 0072 1867     		strne	r0, [r3, #112]
  95              		.loc 1 63 0
  96 0074 1967     		strne	r1, [r3, #112]
  97              		.loc 1 97 0
  98 0076 5368     		ldr	r3, [r2, #4]
  99 0078 23F40073 		bic	r3, r3, #512
 100 007c 5360     		str	r3, [r2, #4]
 101              	.LBE5:
 102              	.LBE4:
 103              		.loc 1 135 0
 104 007e FFF7FEFF 		bl	dmaInit
 105              	.LVL0:
 106              		.loc 1 145 0
 107 0082 BDE80840 		pop	{r3, lr}
 108              		.cfi_restore 14
 109              		.cfi_restore 3
 110              		.cfi_def_cfa_offset 0
 111              		.loc 1 139 0
 112 0086 FFF7FEBF 		b	irqInit
 113              	.LVL1:
 114              	.L7:
ARM GAS  /tmp/ccA9TTb5.s 			page 3


 115 008a 00BF     		.align	2
 116              	.L6:
 117 008c 00380240 		.word	1073887232
 118 0090 00700040 		.word	1073770496
 119              		.cfi_endproc
 120              	.LFE324:
 121              		.size	hal_lld_init, .-hal_lld_init
 122              		.section	.text.stm32_clock_init,"ax",%progbits
 123              		.align	1
 124              		.global	stm32_clock_init
 125              		.thumb
 126              		.thumb_func
 127              		.type	stm32_clock_init, %function
 128              	stm32_clock_init:
 129              	.LFB325:
 130              		.loc 1 154 0
 131              		.cfi_startproc
 132              		@ args = 0, pretend = 0, frame = 0
 133              		@ frame_needed = 0, uses_anonymous_args = 0
 134              		@ link register save eliminated.
 135              		.loc 1 161 0
 136 0000 344B     		ldr	r3, .L33
 137 0002 4FF08052 		mov	r2, #268435456
 138 0006 1A64     		str	r2, [r3, #64]
 139              		.loc 1 166 0
 140 0008 334A     		ldr	r2, .L33+4
 141 000a 4FF44041 		mov	r1, #49152
 142 000e 1160     		str	r1, [r2]
 143              		.loc 1 173 0
 144 0010 1A68     		ldr	r2, [r3]
 145 0012 42F00102 		orr	r2, r2, #1
 146 0016 1A60     		str	r2, [r3]
 147              	.L9:
 148              		.loc 1 174 0 discriminator 1
 149 0018 1968     		ldr	r1, [r3]
 150 001a 2E4A     		ldr	r2, .L33
 151 001c 8807     		lsls	r0, r1, #30
 152 001e FBD5     		bpl	.L9
 153              		.loc 1 180 0
 154 0020 9368     		ldr	r3, [r2, #8]
 155 0022 23F00303 		bic	r3, r3, #3
 156 0026 9360     		str	r3, [r2, #8]
 157              	.L10:
 158              		.loc 1 181 0 discriminator 1
 159 0028 9368     		ldr	r3, [r2, #8]
 160 002a 13F00C01 		ands	r1, r3, #12
 161 002e 294B     		ldr	r3, .L33
 162 0030 FAD1     		bne	.L10
 163              		.loc 1 185 0
 164 0032 1A68     		ldr	r2, [r3]
 165 0034 02F0F902 		and	r2, r2, #249
 166 0038 1A60     		str	r2, [r3]
 167              		.loc 1 186 0
 168 003a 9960     		str	r1, [r3, #8]
 169              		.loc 1 195 0
 170 003c 1A68     		ldr	r2, [r3]
 171 003e 42F48032 		orr	r2, r2, #65536
ARM GAS  /tmp/ccA9TTb5.s 			page 4


 172 0042 1A60     		str	r2, [r3]
 173              	.L11:
 174              		.loc 1 197 0 discriminator 1
 175 0044 1968     		ldr	r1, [r3]
 176 0046 234A     		ldr	r2, .L33
 177 0048 8903     		lsls	r1, r1, #14
 178 004a FBD5     		bpl	.L11
 179              		.loc 1 203 0
 180 004c 536F     		ldr	r3, [r2, #116]
 181 004e 43F00103 		orr	r3, r3, #1
 182 0052 5367     		str	r3, [r2, #116]
 183              	.L12:
 184              		.loc 1 204 0 discriminator 1
 185 0054 516F     		ldr	r1, [r2, #116]
 186 0056 1F4B     		ldr	r3, .L33
 187 0058 8807     		lsls	r0, r1, #30
 188 005a FBD5     		bpl	.L12
 189              		.loc 1 210 0
 190 005c 1F4A     		ldr	r2, .L33+8
 191 005e 5A60     		str	r2, [r3, #4]
 192              		.loc 1 212 0
 193 0060 1A68     		ldr	r2, [r3]
 194 0062 42F08072 		orr	r2, r2, #16777216
 195 0066 1A60     		str	r2, [r3]
 196              		.loc 1 216 0
 197 0068 1B4A     		ldr	r2, .L33+4
 198              	.L13:
 199              		.loc 1 216 0 is_stmt 0 discriminator 1
 200 006a 5368     		ldr	r3, [r2, #4]
 201 006c 5904     		lsls	r1, r3, #17
 202 006e FCD5     		bpl	.L13
 203              		.loc 1 232 0 is_stmt 1 discriminator 1
 204 0070 1849     		ldr	r1, .L33
 205              	.L25:
 206 0072 0A68     		ldr	r2, [r1]
 207 0074 174B     		ldr	r3, .L33
 208 0076 9201     		lsls	r2, r2, #6
 209 0078 FBD5     		bpl	.L25
 210              		.loc 1 260 0
 211 007a 194A     		ldr	r2, .L33+12
 212 007c 9A60     		str	r2, [r3, #8]
 213              	.LVL2:
 214              	.LBB6:
 215              		.loc 1 290 0
 216 007e 0322     		movs	r2, #3
 217 0080 C3F88C20 		str	r2, [r3, #140]
 218              	.LBE6:
 219              		.loc 1 308 0
 220 0084 174B     		ldr	r3, .L33+16
 221 0086 1A68     		ldr	r2, [r3]
 222 0088 174B     		ldr	r3, .L33+20
 223 008a 9A42     		cmp	r2, r3
 224 008c 174B     		ldr	r3, .L33+24
 225 008e 07D1     		bne	.L15
 226              		.loc 1 308 0 is_stmt 0 discriminator 1
 227 0090 174A     		ldr	r2, .L33+28
 228 0092 1168     		ldr	r1, [r2]
ARM GAS  /tmp/ccA9TTb5.s 			page 5


 229 0094 174A     		ldr	r2, .L33+32
 230 0096 9142     		cmp	r1, r2
 231 0098 02D1     		bne	.L15
 232              		.loc 1 309 0 is_stmt 1
 233 009a 40F20512 		movw	r2, #261
 234 009e 01E0     		b	.L31
 235              	.L15:
 236              		.loc 1 311 0
 237 00a0 40F20572 		movw	r2, #1797
 238              	.L31:
 239 00a4 1A60     		str	r2, [r3]
 240              		.loc 1 320 0
 241 00a6 0B4B     		ldr	r3, .L33
 242 00a8 9A68     		ldr	r2, [r3, #8]
 243 00aa 42F00202 		orr	r2, r2, #2
 244 00ae 9A60     		str	r2, [r3, #8]
 245 00b0 1A46     		mov	r2, r3
 246              	.L17:
 247              		.loc 1 321 0 discriminator 1
 248 00b2 9168     		ldr	r1, [r2, #8]
 249 00b4 074B     		ldr	r3, .L33
 250 00b6 01F00C01 		and	r1, r1, #12
 251 00ba 0829     		cmp	r1, #8
 252 00bc F9D1     		bne	.L17
 253              		.loc 1 328 0
 254 00be 5A6C     		ldr	r2, [r3, #68]
 255 00c0 42F48042 		orr	r2, r2, #16384
 256 00c4 5A64     		str	r2, [r3, #68]
 257 00c6 5A6E     		ldr	r2, [r3, #100]
 258 00c8 42F48042 		orr	r2, r2, #16384
 259 00cc 5A66     		str	r2, [r3, #100]
 260 00ce 5B6E     		ldr	r3, [r3, #100]
 261 00d0 7047     		bx	lr
 262              	.L34:
 263 00d2 00BF     		.align	2
 264              	.L33:
 265 00d4 00380240 		.word	1073887232
 266 00d8 00700040 		.word	1073770496
 267 00dc 18544007 		.word	121656344
 268 00e0 00948838 		.word	948474880
 269 00e4 002004E0 		.word	-536600576
 270 00e8 11640020 		.word	536896529
 271 00ec 003C0240 		.word	1073888256
 272 00f0 00ED00E0 		.word	-536810240
 273 00f4 41C20F41 		.word	1091551809
 274              		.cfi_endproc
 275              	.LFE325:
 276              		.size	stm32_clock_init, .-stm32_clock_init
 277              		.global	SystemCoreClock
 278              		.section	.data.SystemCoreClock,"aw",%progbits
 279              		.align	2
 280              		.type	SystemCoreClock, %object
 281              		.size	SystemCoreClock, 4
 282              	SystemCoreClock:
 283 0000 007A030A 		.word	168000000
 284              		.text
 285              	.Letext0:
ARM GAS  /tmp/ccA9TTb5.s 			page 6


 286              		.file 2 "/usr/lib/gcc/arm-none-eabi/5.4.1/include/stddef.h"
 287              		.file 3 "/usr/include/newlib/machine/_default_types.h"
 288              		.file 4 "/usr/include/newlib/sys/_stdint.h"
 289              		.file 5 "../../modules/ChibiOS/os/common/ports/ARMCMx/compilers/GCC/chtypes.h"
 290              		.file 6 "../../modules/ChibiOS/os/rt/include/chsystypes.h"
 291              		.file 7 "../../modules/ChibiOS/os/rt/include/chschd.h"
 292              		.file 8 "../../modules/ChibiOS/os/rt/include/chtime.h"
 293              		.file 9 "../../modules/ChibiOS/os/common/ext/ARM/CMSIS/Core/Include/core_cm4.h"
 294              		.file 10 "../../modules/ChibiOS/os/common/ext/ST/STM32F4xx/stm32f427xx.h"
 295              		.file 11 "../../modules/ChibiOS/os/common/ports/ARMCMx/chcore.h"
 296              		.file 12 "../../modules/ChibiOS/os/common/ports/ARMCMx/chcore_v7m.h"
 297              		.file 13 "../../modules/ChibiOS/os/rt/include/chtm.h"
 298              		.file 14 "../../modules/ChibiOS/os/rt/include/chstats.h"
 299              		.file 15 "../../modules/ChibiOS/os/rt/include/chsem.h"
 300              		.file 16 "../../modules/ChibiOS/os/rt/include/chmtx.h"
 301              		.file 17 "../../modules/ChibiOS/os/hal/ports/STM32/LLD/DMAv2/stm32_dma.h"
 302              		.file 18 "../../modules/ChibiOS/os/hal/ports/STM32/STM32F4xx/stm32_isr.h"