ARM GAS  /tmp/ccxER8tB.s 			page 1


   1              		.syntax unified
   2              		.cpu cortex-m4
   3              		.eabi_attribute 27, 1
   4              		.eabi_attribute 28, 1
   5              		.fpu fpv4-sp-d16
   6              		.eabi_attribute 20, 1
   7              		.eabi_attribute 21, 1
   8              		.eabi_attribute 23, 3
   9              		.eabi_attribute 24, 1
  10              		.eabi_attribute 25, 1
  11              		.eabi_attribute 26, 1
  12              		.eabi_attribute 30, 4
  13              		.eabi_attribute 34, 1
  14              		.eabi_attribute 18, 4
  15              		.thumb
  16              		.syntax unified
  17              		.file	"hal_adc.c"
  18              		.text
  19              	.Ltext0:
  20              		.cfi_sections	.debug_frame
  21              		.section	.text.adcInit,"ax",%progbits
  22              		.align	1
  23              		.global	adcInit
  24              		.thumb
  25              		.thumb_func
  26              		.type	adcInit, %function
  27              	adcInit:
  28              	.LFB323:
  29              		.file 1 "../../modules/ChibiOS/os/hal/src/hal_adc.c"
  30              		.loc 1 56 0
  31              		.cfi_startproc
  32              		@ args = 0, pretend = 0, frame = 0
  33              		@ frame_needed = 0, uses_anonymous_args = 0
  34              		@ link register save eliminated.
  35              		.loc 1 58 0
  36 0000 FFF7FEBF 		b	adc_lld_init
  37              	.LVL0:
  38              		.cfi_endproc
  39              	.LFE323:
  40              		.size	adcInit, .-adcInit
  41              		.section	.text.adcObjectInit,"ax",%progbits
  42              		.align	1
  43              		.global	adcObjectInit
  44              		.thumb
  45              		.thumb_func
  46              		.type	adcObjectInit, %function
  47              	adcObjectInit:
  48              	.LFB324:
  49              		.loc 1 68 0
  50              		.cfi_startproc
  51              		@ args = 0, pretend = 0, frame = 0
  52              		@ frame_needed = 0, uses_anonymous_args = 0
  53              		@ link register save eliminated.
  54              	.LVL1:
  55              		.loc 1 70 0
  56 0000 0123     		movs	r3, #1
  57 0002 0370     		strb	r3, [r0]
ARM GAS  /tmp/ccxER8tB.s 			page 2


  58              		.loc 1 71 0
  59 0004 0023     		movs	r3, #0
  60 0006 4360     		str	r3, [r0, #4]
  61              		.loc 1 72 0
  62 0008 8360     		str	r3, [r0, #8]
  63              		.loc 1 73 0
  64 000a C360     		str	r3, [r0, #12]
  65              		.loc 1 74 0
  66 000c 0361     		str	r3, [r0, #16]
  67              		.loc 1 76 0
  68 000e 4361     		str	r3, [r0, #20]
  69 0010 7047     		bx	lr
  70              		.cfi_endproc
  71              	.LFE324:
  72              		.size	adcObjectInit, .-adcObjectInit
  73              		.section	.text.adcStart,"ax",%progbits
  74              		.align	1
  75              		.global	adcStart
  76              		.thumb
  77              		.thumb_func
  78              		.type	adcStart, %function
  79              	adcStart:
  80              	.LFB325:
  81              		.loc 1 95 0
  82              		.cfi_startproc
  83              		@ args = 0, pretend = 0, frame = 0
  84              		@ frame_needed = 0, uses_anonymous_args = 0
  85              	.LVL2:
  86 0000 38B5     		push	{r3, r4, r5, lr}
  87              		.cfi_def_cfa_offset 16
  88              		.cfi_offset 3, -16
  89              		.cfi_offset 4, -12
  90              		.cfi_offset 5, -8
  91              		.cfi_offset 14, -4
  92              		.loc 1 95 0
  93 0002 0446     		mov	r4, r0
  94 0004 0D46     		mov	r5, r1
  95              	.LBB56:
  96              	.LBB57:
  97              	.LBB58:
  98              	.LBB59:
  99              	.LBB60:
 100              	.LBB61:
 101              		.file 2 "../../modules/ChibiOS/os/common/ext/ARM/CMSIS/Core/Include/cmsis_gcc.h"
 102              		.loc 2 493 0
 103 0006 2023     		movs	r3, #32
 104              		.syntax unified
 105              	@ 493 "../../modules/ChibiOS/os/common/ext/ARM/CMSIS/Core/Include/cmsis_gcc.h" 1
 106 0008 83F31188 		MSR basepri, r3
 107              	@ 0 "" 2
 108              	.LVL3:
 109              		.thumb
 110              		.syntax unified
 111              	.LBE61:
 112              	.LBE60:
 113              	.LBE59:
 114              		.file 3 "../../modules/ChibiOS/os/rt/include/chsys.h"
ARM GAS  /tmp/ccxER8tB.s 			page 3


 115              		.loc 3 356 0
 116 000c FFF7FEFF 		bl	_stats_start_measure_crit_thd
 117              	.LVL4:
 118              	.LBE58:
 119              	.LBE57:
 120              	.LBE56:
 121              		.loc 1 103 0
 122 0010 2046     		mov	r0, r4
 123              		.loc 1 102 0
 124 0012 6560     		str	r5, [r4, #4]
 125              		.loc 1 103 0
 126 0014 FFF7FEFF 		bl	adc_lld_start
 127              	.LVL5:
 128              		.loc 1 104 0
 129 0018 0223     		movs	r3, #2
 130 001a 2370     		strb	r3, [r4]
 131              	.LBB62:
 132              	.LBB63:
 133              	.LBB64:
 134              		.loc 3 368 0
 135 001c FFF7FEFF 		bl	_stats_stop_measure_crit_thd
 136              	.LVL6:
 137              	.LBB65:
 138              	.LBB66:
 139              	.LBB67:
 140              		.loc 2 493 0
 141 0020 0023     		movs	r3, #0
 142              		.syntax unified
 143              	@ 493 "../../modules/ChibiOS/os/common/ext/ARM/CMSIS/Core/Include/cmsis_gcc.h" 1
 144 0022 83F31188 		MSR basepri, r3
 145              	@ 0 "" 2
 146              	.LVL7:
 147              		.thumb
 148              		.syntax unified
 149 0026 38BD     		pop	{r3, r4, r5, pc}
 150              	.LBE67:
 151              	.LBE66:
 152              	.LBE65:
 153              	.LBE64:
 154              	.LBE63:
 155              	.LBE62:
 156              		.cfi_endproc
 157              	.LFE325:
 158              		.size	adcStart, .-adcStart
 159              		.section	.text.adcStop,"ax",%progbits
 160              		.align	1
 161              		.global	adcStop
 162              		.thumb
 163              		.thumb_func
 164              		.type	adcStop, %function
 165              	adcStop:
 166              	.LFB326:
 167              		.loc 1 115 0
 168              		.cfi_startproc
 169              		@ args = 0, pretend = 0, frame = 0
 170              		@ frame_needed = 0, uses_anonymous_args = 0
 171              	.LVL8:
ARM GAS  /tmp/ccxER8tB.s 			page 4


 172 0000 38B5     		push	{r3, r4, r5, lr}
 173              		.cfi_def_cfa_offset 16
 174              		.cfi_offset 3, -16
 175              		.cfi_offset 4, -12
 176              		.cfi_offset 5, -8
 177              		.cfi_offset 14, -4
 178              		.loc 1 115 0
 179 0002 0446     		mov	r4, r0
 180              	.LBB82:
 181              	.LBB83:
 182              	.LBB84:
 183              	.LBB85:
 184              	.LBB86:
 185              	.LBB87:
 186              		.loc 2 493 0
 187 0004 2023     		movs	r3, #32
 188              		.syntax unified
 189              	@ 493 "../../modules/ChibiOS/os/common/ext/ARM/CMSIS/Core/Include/cmsis_gcc.h" 1
 190 0006 83F31188 		MSR basepri, r3
 191              	@ 0 "" 2
 192              	.LVL9:
 193              		.thumb
 194              		.syntax unified
 195              	.LBE87:
 196              	.LBE86:
 197              	.LBE85:
 198              		.loc 3 356 0
 199 000a FFF7FEFF 		bl	_stats_start_measure_crit_thd
 200              	.LVL10:
 201              	.LBE84:
 202              	.LBE83:
 203              	.LBE82:
 204              		.loc 1 124 0
 205 000e 2046     		mov	r0, r4
 206 0010 FFF7FEFF 		bl	adc_lld_stop
 207              	.LVL11:
 208              		.loc 1 125 0
 209 0014 0025     		movs	r5, #0
 210              		.loc 1 126 0
 211 0016 0123     		movs	r3, #1
 212              		.loc 1 125 0
 213 0018 6560     		str	r5, [r4, #4]
 214              		.loc 1 126 0
 215 001a 2370     		strb	r3, [r4]
 216              	.LBB88:
 217              	.LBB89:
 218              	.LBB90:
 219              		.loc 3 368 0
 220 001c FFF7FEFF 		bl	_stats_stop_measure_crit_thd
 221              	.LVL12:
 222              	.LBB91:
 223              	.LBB92:
 224              	.LBB93:
 225              		.loc 2 493 0
 226              		.syntax unified
 227              	@ 493 "../../modules/ChibiOS/os/common/ext/ARM/CMSIS/Core/Include/cmsis_gcc.h" 1
 228 0020 85F31188 		MSR basepri, r5
ARM GAS  /tmp/ccxER8tB.s 			page 5


 229              	@ 0 "" 2
 230              	.LVL13:
 231              		.thumb
 232              		.syntax unified
 233 0024 38BD     		pop	{r3, r4, r5, pc}
 234              	.LBE93:
 235              	.LBE92:
 236              	.LBE91:
 237              	.LBE90:
 238              	.LBE89:
 239              	.LBE88:
 240              		.cfi_endproc
 241              	.LFE326:
 242              		.size	adcStop, .-adcStop
 243              		.section	.text.adcStartConversion,"ax",%progbits
 244              		.align	1
 245              		.global	adcStartConversion
 246              		.thumb
 247              		.thumb_func
 248              		.type	adcStartConversion, %function
 249              	adcStartConversion:
 250              	.LFB327:
 251              		.loc 1 150 0
 252              		.cfi_startproc
 253              		@ args = 0, pretend = 0, frame = 0
 254              		@ frame_needed = 0, uses_anonymous_args = 0
 255              	.LVL14:
 256 0000 F8B5     		push	{r3, r4, r5, r6, r7, lr}
 257              		.cfi_def_cfa_offset 24
 258              		.cfi_offset 3, -24
 259              		.cfi_offset 4, -20
 260              		.cfi_offset 5, -16
 261              		.cfi_offset 6, -12
 262              		.cfi_offset 7, -8
 263              		.cfi_offset 14, -4
 264              		.loc 1 150 0
 265 0002 1E46     		mov	r6, r3
 266 0004 0446     		mov	r4, r0
 267 0006 0D46     		mov	r5, r1
 268 0008 1746     		mov	r7, r2
 269              	.LBB110:
 270              	.LBB111:
 271              	.LBB112:
 272              	.LBB113:
 273              	.LBB114:
 274              	.LBB115:
 275              		.loc 2 493 0
 276 000a 2023     		movs	r3, #32
 277              	.LVL15:
 278              		.syntax unified
 279              	@ 493 "../../modules/ChibiOS/os/common/ext/ARM/CMSIS/Core/Include/cmsis_gcc.h" 1
 280 000c 83F31188 		MSR basepri, r3
 281              	@ 0 "" 2
 282              	.LVL16:
 283              		.thumb
 284              		.syntax unified
 285              	.LBE115:
ARM GAS  /tmp/ccxER8tB.s 			page 6


 286              	.LBE114:
 287              	.LBE113:
 288              		.loc 3 356 0
 289 0010 FFF7FEFF 		bl	_stats_start_measure_crit_thd
 290              	.LVL17:
 291              	.LBE112:
 292              	.LBE111:
 293              	.LBE110:
 294              	.LBB116:
 295              	.LBB117:
 296              		.loc 1 190 0
 297 0014 0323     		movs	r3, #3
 298 0016 2370     		strb	r3, [r4]
 299              		.loc 1 191 0
 300 0018 2046     		mov	r0, r4
 301              		.loc 1 187 0
 302 001a A760     		str	r7, [r4, #8]
 303              		.loc 1 188 0
 304 001c E660     		str	r6, [r4, #12]
 305              		.loc 1 189 0
 306 001e 2561     		str	r5, [r4, #16]
 307              		.loc 1 191 0
 308 0020 FFF7FEFF 		bl	adc_lld_start_conversion
 309              	.LVL18:
 310              	.LBE117:
 311              	.LBE116:
 312              	.LBB118:
 313              	.LBB119:
 314              	.LBB120:
 315              		.loc 3 368 0
 316 0024 FFF7FEFF 		bl	_stats_stop_measure_crit_thd
 317              	.LVL19:
 318              	.LBB121:
 319              	.LBB122:
 320              	.LBB123:
 321              		.loc 2 493 0
 322 0028 0023     		movs	r3, #0
 323              		.syntax unified
 324              	@ 493 "../../modules/ChibiOS/os/common/ext/ARM/CMSIS/Core/Include/cmsis_gcc.h" 1
 325 002a 83F31188 		MSR basepri, r3
 326              	@ 0 "" 2
 327              	.LVL20:
 328              		.thumb
 329              		.syntax unified
 330 002e F8BD     		pop	{r3, r4, r5, r6, r7, pc}
 331              	.LBE123:
 332              	.LBE122:
 333              	.LBE121:
 334              	.LBE120:
 335              	.LBE119:
 336              	.LBE118:
 337              		.cfi_endproc
 338              	.LFE327:
 339              		.size	adcStartConversion, .-adcStartConversion
 340              		.section	.text.adcStartConversionI,"ax",%progbits
 341              		.align	1
 342              		.global	adcStartConversionI
ARM GAS  /tmp/ccxER8tB.s 			page 7


 343              		.thumb
 344              		.thumb_func
 345              		.type	adcStartConversionI, %function
 346              	adcStartConversionI:
 347              	.LFB328:
 348              		.loc 1 178 0
 349              		.cfi_startproc
 350              		@ args = 0, pretend = 0, frame = 0
 351              		@ frame_needed = 0, uses_anonymous_args = 0
 352              		@ link register save eliminated.
 353              	.LVL21:
 354 0000 10B4     		push	{r4}
 355              		.cfi_def_cfa_offset 4
 356              		.cfi_offset 4, -4
 357              		.loc 1 188 0
 358 0002 C360     		str	r3, [r0, #12]
 359              		.loc 1 190 0
 360 0004 0323     		movs	r3, #3
 361              	.LVL22:
 362              		.loc 1 187 0
 363 0006 8260     		str	r2, [r0, #8]
 364              		.loc 1 189 0
 365 0008 0161     		str	r1, [r0, #16]
 366              		.loc 1 190 0
 367 000a 0370     		strb	r3, [r0]
 368              		.loc 1 192 0
 369 000c 5DF8044B 		ldr	r4, [sp], #4
 370              		.cfi_restore 4
 371              		.cfi_def_cfa_offset 0
 372              		.loc 1 191 0
 373 0010 FFF7FEBF 		b	adc_lld_start_conversion
 374              	.LVL23:
 375              		.cfi_endproc
 376              	.LFE328:
 377              		.size	adcStartConversionI, .-adcStartConversionI
 378              		.section	.text.adcStopConversion,"ax",%progbits
 379              		.align	1
 380              		.global	adcStopConversion
 381              		.thumb
 382              		.thumb_func
 383              		.type	adcStopConversion, %function
 384              	adcStopConversion:
 385              	.LFB329:
 386              		.loc 1 204 0
 387              		.cfi_startproc
 388              		@ args = 0, pretend = 0, frame = 0
 389              		@ frame_needed = 0, uses_anonymous_args = 0
 390              	.LVL24:
 391 0000 10B5     		push	{r4, lr}
 392              		.cfi_def_cfa_offset 8
 393              		.cfi_offset 4, -8
 394              		.cfi_offset 14, -4
 395              	.LBB140:
 396              	.LBB141:
 397              	.LBB142:
 398              	.LBB143:
 399              	.LBB144:
ARM GAS  /tmp/ccxER8tB.s 			page 8


 400              	.LBB145:
 401              		.loc 2 493 0
 402 0002 2023     		movs	r3, #32
 403              	.LBE145:
 404              	.LBE144:
 405              	.LBE143:
 406              	.LBE142:
 407              	.LBE141:
 408              	.LBE140:
 409              		.loc 1 204 0
 410 0004 0446     		mov	r4, r0
 411              	.LBB151:
 412              	.LBB150:
 413              	.LBB149:
 414              	.LBB148:
 415              	.LBB147:
 416              	.LBB146:
 417              		.loc 2 493 0
 418              		.syntax unified
 419              	@ 493 "../../modules/ChibiOS/os/common/ext/ARM/CMSIS/Core/Include/cmsis_gcc.h" 1
 420 0006 83F31188 		MSR basepri, r3
 421              	@ 0 "" 2
 422              	.LVL25:
 423              		.thumb
 424              		.syntax unified
 425              	.LBE146:
 426              	.LBE147:
 427              	.LBE148:
 428              		.loc 3 356 0
 429 000a FFF7FEFF 		bl	_stats_start_measure_crit_thd
 430              	.LVL26:
 431              	.LBE149:
 432              	.LBE150:
 433              	.LBE151:
 434              		.loc 1 211 0
 435 000e 2378     		ldrb	r3, [r4]	@ zero_extendqisi2
 436 0010 022B     		cmp	r3, #2
 437 0012 0CD0     		beq	.L8
 438              		.loc 1 212 0
 439 0014 2046     		mov	r0, r4
 440 0016 FFF7FEFF 		bl	adc_lld_stop_conversion
 441              	.LVL27:
 442              		.loc 1 213 0
 443 001a 0023     		movs	r3, #0
 444              		.loc 1 214 0
 445 001c 2046     		mov	r0, r4
 446              		.loc 1 213 0
 447 001e 2361     		str	r3, [r4, #16]
 448              		.loc 1 214 0
 449 0020 0223     		movs	r3, #2
 450 0022 00F8143B 		strb	r3, [r0], #20
 451              	.LVL28:
 452              	.LBB152:
 453              	.LBB153:
 454              		.file 4 "../../modules/ChibiOS/os/hal/osal/rt/osal.h"
 455              		.loc 4 790 0
 456 0026 6FF00101 		mvn	r1, #1
ARM GAS  /tmp/ccxER8tB.s 			page 9


 457 002a FFF7FEFF 		bl	chThdResumeS
 458              	.LVL29:
 459              	.L8:
 460              	.LBE153:
 461              	.LBE152:
 462              	.LBB154:
 463              	.LBB155:
 464              	.LBB156:
 465              		.loc 3 368 0
 466 002e FFF7FEFF 		bl	_stats_stop_measure_crit_thd
 467              	.LVL30:
 468              	.LBB157:
 469              	.LBB158:
 470              	.LBB159:
 471              		.loc 2 493 0
 472 0032 0023     		movs	r3, #0
 473              		.syntax unified
 474              	@ 493 "../../modules/ChibiOS/os/common/ext/ARM/CMSIS/Core/Include/cmsis_gcc.h" 1
 475 0034 83F31188 		MSR basepri, r3
 476              	@ 0 "" 2
 477              	.LVL31:
 478              		.thumb
 479              		.syntax unified
 480 0038 10BD     		pop	{r4, pc}
 481              	.LBE159:
 482              	.LBE158:
 483              	.LBE157:
 484              	.LBE156:
 485              	.LBE155:
 486              	.LBE154:
 487              		.cfi_endproc
 488              	.LFE329:
 489              		.size	adcStopConversion, .-adcStopConversion
 490              		.section	.text.adcStopConversionI,"ax",%progbits
 491              		.align	1
 492              		.global	adcStopConversionI
 493              		.thumb
 494              		.thumb_func
 495              		.type	adcStopConversionI, %function
 496              	adcStopConversionI:
 497              	.LFB330:
 498              		.loc 1 230 0
 499              		.cfi_startproc
 500              		@ args = 0, pretend = 0, frame = 0
 501              		@ frame_needed = 0, uses_anonymous_args = 0
 502              	.LVL32:
 503              		.loc 1 239 0
 504 0000 0378     		ldrb	r3, [r0]	@ zero_extendqisi2
 505 0002 022B     		cmp	r3, #2
 506              		.loc 1 230 0
 507 0004 10B5     		push	{r4, lr}
 508              		.cfi_def_cfa_offset 8
 509              		.cfi_offset 4, -8
 510              		.cfi_offset 14, -4
 511              		.loc 1 230 0
 512 0006 0446     		mov	r4, r0
 513              		.loc 1 239 0
ARM GAS  /tmp/ccxER8tB.s 			page 10


 514 0008 0DD0     		beq	.L13
 515              		.loc 1 240 0
 516 000a FFF7FEFF 		bl	adc_lld_stop_conversion
 517              	.LVL33:
 518              		.loc 1 241 0
 519 000e 0023     		movs	r3, #0
 520              		.loc 1 242 0
 521 0010 2046     		mov	r0, r4
 522              		.loc 1 241 0
 523 0012 2361     		str	r3, [r4, #16]
 524              		.loc 1 242 0
 525 0014 0223     		movs	r3, #2
 526 0016 00F8143B 		strb	r3, [r0], #20
 527              	.LVL34:
 528              	.LBB160:
 529              	.LBB161:
 530              		.loc 4 775 0
 531 001a 6FF00101 		mvn	r1, #1
 532              	.LBE161:
 533              	.LBE160:
 534              		.loc 1 245 0
 535 001e BDE81040 		pop	{r4, lr}
 536              		.cfi_remember_state
 537              		.cfi_restore 14
 538              		.cfi_restore 4
 539              		.cfi_def_cfa_offset 0
 540              	.LVL35:
 541              	.LBB163:
 542              	.LBB162:
 543              		.loc 4 775 0
 544 0022 FFF7FEBF 		b	chThdResumeI
 545              	.LVL36:
 546              	.L13:
 547              		.cfi_restore_state
 548 0026 10BD     		pop	{r4, pc}
 549              	.LBE162:
 550              	.LBE163:
 551              		.cfi_endproc
 552              	.LFE330:
 553              		.size	adcStopConversionI, .-adcStopConversionI
 554              		.section	.text.adcConvert,"ax",%progbits
 555              		.align	1
 556              		.global	adcConvert
 557              		.thumb
 558              		.thumb_func
 559              		.type	adcConvert, %function
 560              	adcConvert:
 561              	.LFB331:
 562              		.loc 1 274 0
 563              		.cfi_startproc
 564              		@ args = 0, pretend = 0, frame = 0
 565              		@ frame_needed = 0, uses_anonymous_args = 0
 566              	.LVL37:
 567 0000 F8B5     		push	{r3, r4, r5, r6, r7, lr}
 568              		.cfi_def_cfa_offset 24
 569              		.cfi_offset 3, -24
 570              		.cfi_offset 4, -20
ARM GAS  /tmp/ccxER8tB.s 			page 11


 571              		.cfi_offset 5, -16
 572              		.cfi_offset 6, -12
 573              		.cfi_offset 7, -8
 574              		.cfi_offset 14, -4
 575              		.loc 1 274 0
 576 0002 1E46     		mov	r6, r3
 577 0004 0446     		mov	r4, r0
 578 0006 0D46     		mov	r5, r1
 579 0008 1746     		mov	r7, r2
 580              	.LBB182:
 581              	.LBB183:
 582              	.LBB184:
 583              	.LBB185:
 584              	.LBB186:
 585              	.LBB187:
 586              		.loc 2 493 0
 587 000a 2023     		movs	r3, #32
 588              	.LVL38:
 589              		.syntax unified
 590              	@ 493 "../../modules/ChibiOS/os/common/ext/ARM/CMSIS/Core/Include/cmsis_gcc.h" 1
 591 000c 83F31188 		MSR basepri, r3
 592              	@ 0 "" 2
 593              	.LVL39:
 594              		.thumb
 595              		.syntax unified
 596              	.LBE187:
 597              	.LBE186:
 598              	.LBE185:
 599              		.loc 3 356 0
 600 0010 FFF7FEFF 		bl	_stats_start_measure_crit_thd
 601              	.LVL40:
 602              	.LBE184:
 603              	.LBE183:
 604              	.LBE182:
 605              	.LBB188:
 606              	.LBB189:
 607              		.loc 1 190 0
 608 0014 0323     		movs	r3, #3
 609 0016 2370     		strb	r3, [r4]
 610              		.loc 1 187 0
 611 0018 A760     		str	r7, [r4, #8]
 612              		.loc 1 188 0
 613 001a E660     		str	r6, [r4, #12]
 614              		.loc 1 189 0
 615 001c 2561     		str	r5, [r4, #16]
 616              		.loc 1 191 0
 617 001e 2046     		mov	r0, r4
 618 0020 FFF7FEFF 		bl	adc_lld_start_conversion
 619              	.LVL41:
 620              	.LBE189:
 621              	.LBE188:
 622              	.LBB190:
 623              	.LBB191:
 624              		.loc 4 735 0
 625 0024 4FF0FF31 		mov	r1, #-1
 626 0028 04F11400 		add	r0, r4, #20
 627              	.LVL42:
ARM GAS  /tmp/ccxER8tB.s 			page 12


 628 002c FFF7FEFF 		bl	chThdSuspendTimeoutS
 629              	.LVL43:
 630 0030 0446     		mov	r4, r0
 631              	.LVL44:
 632              	.LBE191:
 633              	.LBE190:
 634              	.LBB192:
 635              	.LBB193:
 636              	.LBB194:
 637              		.loc 3 368 0
 638 0032 FFF7FEFF 		bl	_stats_stop_measure_crit_thd
 639              	.LVL45:
 640              	.LBB195:
 641              	.LBB196:
 642              	.LBB197:
 643              		.loc 2 493 0
 644 0036 0023     		movs	r3, #0
 645              		.syntax unified
 646              	@ 493 "../../modules/ChibiOS/os/common/ext/ARM/CMSIS/Core/Include/cmsis_gcc.h" 1
 647 0038 83F31188 		MSR basepri, r3
 648              	@ 0 "" 2
 649              	.LVL46:
 650              		.thumb
 651              		.syntax unified
 652              	.LBE197:
 653              	.LBE196:
 654              	.LBE195:
 655              	.LBE194:
 656              	.LBE193:
 657              	.LBE192:
 658              		.loc 1 283 0
 659 003c 2046     		mov	r0, r4
 660 003e F8BD     		pop	{r3, r4, r5, r6, r7, pc}
 661              		.cfi_endproc
 662              	.LFE331:
 663              		.size	adcConvert, .-adcConvert
 664              		.text
 665              	.Letext0:
 666              		.file 5 "/usr/lib/gcc/arm-none-eabi/5.4.1/include/stddef.h"
 667              		.file 6 "/usr/include/newlib/machine/_default_types.h"
 668              		.file 7 "/usr/include/newlib/sys/_stdint.h"
 669              		.file 8 "../../modules/ChibiOS/os/common/ports/ARMCMx/compilers/GCC/chtypes.h"
 670              		.file 9 "../../modules/ChibiOS/os/rt/include/chsystypes.h"
 671              		.file 10 "../../modules/ChibiOS/os/rt/include/chschd.h"
 672              		.file 11 "../../modules/ChibiOS/os/rt/include/chtime.h"
 673              		.file 12 "../../modules/ChibiOS/os/common/ext/ST/STM32F4xx/stm32f427xx.h"
 674              		.file 13 "../../modules/ChibiOS/os/common/ports/ARMCMx/chcore.h"
 675              		.file 14 "../../modules/ChibiOS/os/common/ports/ARMCMx/chcore_v7m.h"
 676              		.file 15 "../../modules/ChibiOS/os/rt/include/chtm.h"
 677              		.file 16 "../../modules/ChibiOS/os/rt/include/chstats.h"
 678              		.file 17 "../../modules/ChibiOS/os/rt/include/chsem.h"
 679              		.file 18 "../../modules/ChibiOS/os/rt/include/chmtx.h"
 680              		.file 19 "../../modules/ChibiOS/os/hal/ports/STM32/LLD/DMAv2/stm32_dma.h"
 681              		.file 20 "../../modules/ChibiOS/os/hal/include/hal_adc.h"
 682              		.file 21 "../../modules/ChibiOS/os/hal/ports/STM32/LLD/ADCv2/hal_adc_lld.h"
 683              		.file 22 "../../modules/ChibiOS/os/rt/include/chthreads.h"
 684              		.file 23 "../../modules/ChibiOS/os/common/ext/ARM/CMSIS/Core/Include/core_cm4.h"
ARM GAS  /tmp/ccxER8tB.s 			page 13

