ARM GAS  /tmp/ccQRI9r6.s 			page 1


   1              		.syntax unified
   2              		.cpu cortex-m4
   3              		.eabi_attribute 27, 1
   4              		.eabi_attribute 28, 1
   5              		.fpu fpv4-sp-d16
   6              		.eabi_attribute 20, 1
   7              		.eabi_attribute 21, 1
   8              		.eabi_attribute 23, 3
   9              		.eabi_attribute 24, 1
  10              		.eabi_attribute 25, 1
  11              		.eabi_attribute 26, 1
  12              		.eabi_attribute 30, 4
  13              		.eabi_attribute 34, 1
  14              		.eabi_attribute 18, 4
  15              		.thumb
  16              		.syntax unified
  17              		.file	"hal_pal_lld.c"
  18              		.text
  19              	.Ltext0:
  20              		.cfi_sections	.debug_frame
  21              		.section	.text._pal_lld_init,"ax",%progbits
  22              		.align	1
  23              		.global	_pal_lld_init
  24              		.thumb
  25              		.thumb_func
  26              		.type	_pal_lld_init, %function
  27              	_pal_lld_init:
  28              	.LFB323:
  29              		.file 1 "../../modules/ChibiOS/os/hal/ports/STM32/LLD/GPIOv2/hal_pal_lld.c"
  30              		.loc 1 65 0
  31              		.cfi_startproc
  32              		@ args = 0, pretend = 0, frame = 0
  33              		@ frame_needed = 0, uses_anonymous_args = 0
  34              		@ link register save eliminated.
  35              	.LVL0:
  36              		.loc 1 65 0
  37 0000 0023     		movs	r3, #0
  38              		.loc 1 71 0
  39 0002 0449     		ldr	r1, .L5
  40 0004 1A46     		mov	r2, r3
  41              	.LVL1:
  42              	.L2:
  43              		.loc 1 71 0 is_stmt 0 discriminator 3
  44 0006 5A50     		str	r2, [r3, r1]
  45 0008 C818     		adds	r0, r1, r3
  46 000a 0833     		adds	r3, r3, #8
  47              		.loc 1 70 0 is_stmt 1 discriminator 3
  48 000c 802B     		cmp	r3, #128
  49              		.loc 1 71 0 discriminator 3
  50 000e 4260     		str	r2, [r0, #4]
  51              		.loc 1 70 0 discriminator 3
  52 0010 F9D1     		bne	.L2
  53              		.loc 1 74 0
  54 0012 7047     		bx	lr
  55              	.L6:
  56              		.align	2
  57              	.L5:
ARM GAS  /tmp/ccQRI9r6.s 			page 2


  58 0014 00000000 		.word	.LANCHOR0
  59              		.cfi_endproc
  60              	.LFE323:
  61              		.size	_pal_lld_init, .-_pal_lld_init
  62              		.section	.text._pal_lld_setgroupmode,"ax",%progbits
  63              		.align	1
  64              		.global	_pal_lld_setgroupmode
  65              		.thumb
  66              		.thumb_func
  67              		.type	_pal_lld_setgroupmode, %function
  68              	_pal_lld_setgroupmode:
  69              	.LFB324:
  70              		.loc 1 91 0
  71              		.cfi_startproc
  72              		@ args = 0, pretend = 0, frame = 8
  73              		@ frame_needed = 0, uses_anonymous_args = 0
  74              	.LVL2:
  75 0000 2DE9F74F 		push	{r0, r1, r2, r4, r5, r6, r7, r8, r9, r10, fp, lr}
  76              		.cfi_def_cfa_offset 48
  77              		.cfi_offset 4, -36
  78              		.cfi_offset 5, -32
  79              		.cfi_offset 6, -28
  80              		.cfi_offset 7, -24
  81              		.cfi_offset 8, -20
  82              		.cfi_offset 9, -16
  83              		.cfi_offset 10, -12
  84              		.cfi_offset 11, -8
  85              		.cfi_offset 14, -4
  86              		.loc 1 97 0
  87 0004 C2F3C313 		ubfx	r3, r2, #7, #4
  88              		.loc 1 93 0
  89 0008 02F00308 		and	r8, r2, #3
  90              	.LVL3:
  91              		.loc 1 94 0
  92 000c C2F3800C 		ubfx	ip, r2, #2, #1
  93              	.LVL4:
  94              		.loc 1 95 0
  95 0010 C2F3C10E 		ubfx	lr, r2, #3, #2
  96              	.LVL5:
  97              		.loc 1 96 0
  98 0014 C2F34117 		ubfx	r7, r2, #5, #2
  99              	.LVL6:
 100              		.loc 1 97 0
 101 0018 0193     		str	r3, [sp, #4]
 102              	.LVL7:
 103              		.loc 1 93 0
 104 001a 4646     		mov	r6, r8
 105              		.loc 1 98 0
 106 001c 0024     		movs	r4, #0
 107              	.LBB2:
 108              		.loc 1 107 0
 109 001e 4FF00109 		mov	r9, #1
 110              		.loc 1 108 0
 111 0022 4FF0030A 		mov	r10, #3
 112              	.LVL8:
 113              	.L14:
 114              	.LBE2:
ARM GAS  /tmp/ccQRI9r6.s 			page 3


 115              		.loc 1 100 0
 116 0026 CB07     		lsls	r3, r1, #31
 117 0028 4ED5     		bpl	.L8
 118              	.LBB3:
 119              		.loc 1 103 0
 120 002a 019A     		ldr	r2, [sp, #4]
 121 002c 04F00703 		and	r3, r4, #7
 122 0030 9B00     		lsls	r3, r3, #2
 123 0032 02FA03F5 		lsl	r5, r2, r3
 124              	.LVL9:
 125              		.loc 1 106 0
 126 0036 0F22     		movs	r2, #15
 127 0038 02FA03F3 		lsl	r3, r2, r3
 128              	.LVL10:
 129              		.loc 1 107 0
 130 003c 4268     		ldr	r2, [r0, #4]
 131 003e 09FA04FB 		lsl	fp, r9, r4
 132 0042 22EA0B02 		bic	r2, r2, fp
 133 0046 42EA0C02 		orr	r2, r2, ip
 134 004a 4260     		str	r2, [r0, #4]
 135              		.loc 1 108 0
 136 004c 6200     		lsls	r2, r4, #1
 137 004e D0F808B0 		ldr	fp, [r0, #8]
 138 0052 0AFA02F2 		lsl	r2, r10, r2
 139 0056 D243     		mvns	r2, r2
 140 0058 0BEA020B 		and	fp, fp, r2
 141 005c 4BEA0E0B 		orr	fp, fp, lr
 142 0060 C0F808B0 		str	fp, [r0, #8]
 143              		.loc 1 109 0
 144 0064 D0F80CB0 		ldr	fp, [r0, #12]
 145 0068 02EA0B0B 		and	fp, r2, fp
 146 006c 4BEA070B 		orr	fp, fp, r7
 147              		.loc 1 110 0
 148 0070 B8F1020F 		cmp	r8, #2
 149              		.loc 1 109 0
 150 0074 C0F80CB0 		str	fp, [r0, #12]
 151 0078 6FEA0303 		mvn	r3, r3
 152              	.LVL11:
 153              		.loc 1 110 0
 154 007c 13D1     		bne	.L9
 155              		.loc 1 113 0
 156 007e 072C     		cmp	r4, #7
 157              		.loc 1 114 0
 158 0080 95BF     		itete	ls
 159 0082 D0F820B0 		ldrls	fp, [r0, #32]
 160              		.loc 1 116 0
 161 0086 D0F824B0 		ldrhi	fp, [r0, #36]
 162              		.loc 1 114 0
 163 008a 03EA0B03 		andls	r3, r3, fp
 164              	.LVL12:
 165              		.loc 1 116 0
 166 008e 03EA0B03 		andhi	r3, r3, fp
 167              		.loc 1 114 0
 168 0092 95BF     		itete	ls
 169 0094 2B43     		orrls	r3, r3, r5
 170              		.loc 1 116 0
 171 0096 2B43     		orrhi	r3, r3, r5
ARM GAS  /tmp/ccQRI9r6.s 			page 4


 172              		.loc 1 114 0
 173 0098 0362     		strls	r3, [r0, #32]
 174              		.loc 1 116 0
 175 009a 4362     		strhi	r3, [r0, #36]
 176              		.loc 1 117 0
 177 009c 0368     		ldr	r3, [r0]
 178 009e 1A40     		ands	r2, r2, r3
 179 00a0 3243     		orrs	r2, r2, r6
 180 00a2 0260     		str	r2, [r0]
 181 00a4 10E0     		b	.L8
 182              	.L9:
 183              		.loc 1 122 0
 184 00a6 D0F800B0 		ldr	fp, [r0]
 185 00aa 02EA0B02 		and	r2, r2, fp
 186 00ae 3243     		orrs	r2, r2, r6
 187              		.loc 1 123 0
 188 00b0 072C     		cmp	r4, #7
 189              		.loc 1 122 0
 190 00b2 0260     		str	r2, [r0]
 191              		.loc 1 124 0
 192 00b4 95BF     		itete	ls
 193 00b6 026A     		ldrls	r2, [r0, #32]
 194              		.loc 1 126 0
 195 00b8 426A     		ldrhi	r2, [r0, #36]
 196              		.loc 1 124 0
 197 00ba 1340     		andls	r3, r3, r2
 198              		.loc 1 126 0
 199 00bc 1340     		andhi	r3, r3, r2
 200              		.loc 1 124 0
 201 00be 95BF     		itete	ls
 202 00c0 1D43     		orrls	r5, r5, r3
 203              	.LVL13:
 204              		.loc 1 126 0
 205 00c2 1D43     		orrhi	r5, r5, r3
 206              		.loc 1 124 0
 207 00c4 0562     		strls	r5, [r0, #32]
 208              		.loc 1 126 0
 209 00c6 4562     		strhi	r5, [r0, #36]
 210              	.LVL14:
 211              	.L8:
 212              	.LBE3:
 213              		.loc 1 130 0
 214 00c8 4908     		lsrs	r1, r1, #1
 215              	.LVL15:
 216 00ca 07D0     		beq	.L7
 217              		.loc 1 132 0
 218 00cc 4FEA4C0C 		lsl	ip, ip, #1
 219              	.LVL16:
 220              		.loc 1 133 0
 221 00d0 4FEA8E0E 		lsl	lr, lr, #2
 222              	.LVL17:
 223              		.loc 1 134 0
 224 00d4 BF00     		lsls	r7, r7, #2
 225              	.LVL18:
 226              		.loc 1 135 0
 227 00d6 B600     		lsls	r6, r6, #2
 228              	.LVL19:
ARM GAS  /tmp/ccQRI9r6.s 			page 5


 229              		.loc 1 136 0
 230 00d8 0134     		adds	r4, r4, #1
 231              	.LVL20:
 232              		.loc 1 137 0
 233 00da A4E7     		b	.L14
 234              	.L7:
 235              		.loc 1 138 0
 236 00dc 03B0     		add	sp, sp, #12
 237              		.cfi_def_cfa_offset 36
 238              		@ sp needed
 239 00de BDE8F08F 		pop	{r4, r5, r6, r7, r8, r9, r10, fp, pc}
 240              		.cfi_endproc
 241              	.LFE324:
 242              		.size	_pal_lld_setgroupmode, .-_pal_lld_setgroupmode
 243              		.section	.text._pal_lld_enablepadevent,"ax",%progbits
 244              		.align	1
 245              		.global	_pal_lld_enablepadevent
 246              		.thumb
 247              		.thumb_func
 248              		.type	_pal_lld_enablepadevent, %function
 249              	_pal_lld_enablepadevent:
 250              	.LFB325:
 251              		.loc 1 153 0
 252              		.cfi_startproc
 253              		@ args = 0, pretend = 0, frame = 0
 254              		@ frame_needed = 0, uses_anonymous_args = 0
 255              	.LVL21:
 256 0000 70B5     		push	{r4, r5, r6, lr}
 257              		.cfi_def_cfa_offset 16
 258              		.cfi_offset 4, -16
 259              		.cfi_offset 5, -12
 260              		.cfi_offset 6, -8
 261              		.cfi_offset 14, -4
 262              		.loc 1 158 0
 263 0002 0124     		movs	r4, #1
 264 0004 8C40     		lsls	r4, r4, r1
 265              	.LVL22:
 266              		.loc 1 173 0
 267 0006 01F00305 		and	r5, r1, #3
 268 000a 21F00301 		bic	r1, r1, #3
 269              	.LVL23:
 270 000e 01F18041 		add	r1, r1, #1073741824
 271 0012 01F59C31 		add	r1, r1, #79872
 272 0016 AD00     		lsls	r5, r5, #2
 273              	.LVL24:
 274              		.loc 1 181 0
 275 0018 8B68     		ldr	r3, [r1, #8]
 276 001a C0F38320 		ubfx	r0, r0, #10, #4
 277              	.LVL25:
 278 001e 0F26     		movs	r6, #15
 279 0020 A840     		lsls	r0, r0, r5
 280 0022 06FA05F5 		lsl	r5, r6, r5
 281              	.LVL26:
 282 0026 23EA0503 		bic	r3, r3, r5
 283 002a 0343     		orrs	r3, r3, r0
 284 002c 8B60     		str	r3, [r1, #8]
 285 002e 0C4B     		ldr	r3, .L25
ARM GAS  /tmp/ccQRI9r6.s 			page 6


 286              		.loc 1 199 0
 287 0030 9868     		ldr	r0, [r3, #8]
 288              		.loc 1 198 0
 289 0032 12F0010F 		tst	r2, #1
 290 0036 6FEA0401 		mvn	r1, r4
 291              		.loc 1 199 0
 292 003a 14BF     		ite	ne
 293 003c 2043     		orrne	r0, r0, r4
 294              		.loc 1 201 0
 295 003e 0840     		andeq	r0, r0, r1
 296 0040 9860     		str	r0, [r3, #8]
 297 0042 074B     		ldr	r3, .L25
 298              		.loc 1 202 0
 299 0044 12F0020F 		tst	r2, #2
 300              		.loc 1 203 0
 301 0048 DA68     		ldr	r2, [r3, #12]
 302              	.LVL27:
 303 004a 14BF     		ite	ne
 304 004c 2243     		orrne	r2, r2, r4
 305              		.loc 1 205 0
 306 004e 0A40     		andeq	r2, r2, r1
 307 0050 DA60     		str	r2, [r3, #12]
 308              		.loc 1 208 0
 309 0052 1A68     		ldr	r2, [r3]
 310 0054 1443     		orrs	r4, r4, r2
 311              	.LVL28:
 312 0056 1C60     		str	r4, [r3]
 313              		.loc 1 209 0
 314 0058 5A68     		ldr	r2, [r3, #4]
 315 005a 0A40     		ands	r2, r2, r1
 316 005c 5A60     		str	r2, [r3, #4]
 317 005e 70BD     		pop	{r4, r5, r6, pc}
 318              	.L26:
 319              		.align	2
 320              	.L25:
 321 0060 003C0140 		.word	1073822720
 322              		.cfi_endproc
 323              	.LFE325:
 324              		.size	_pal_lld_enablepadevent, .-_pal_lld_enablepadevent
 325              		.section	.text._pal_lld_disablepadevent,"ax",%progbits
 326              		.align	1
 327              		.global	_pal_lld_disablepadevent
 328              		.thumb
 329              		.thumb_func
 330              		.type	_pal_lld_disablepadevent, %function
 331              	_pal_lld_disablepadevent:
 332              	.LFB326:
 333              		.loc 1 222 0
 334              		.cfi_startproc
 335              		@ args = 0, pretend = 0, frame = 0
 336              		@ frame_needed = 0, uses_anonymous_args = 0
 337              	.LVL29:
 338              		.loc 1 229 0
 339 0000 114B     		ldr	r3, .L32
 340              		.loc 1 222 0
 341 0002 70B5     		push	{r4, r5, r6, lr}
 342              		.cfi_def_cfa_offset 16
ARM GAS  /tmp/ccQRI9r6.s 			page 7


 343              		.cfi_offset 4, -16
 344              		.cfi_offset 5, -12
 345              		.cfi_offset 6, -8
 346              		.cfi_offset 14, -4
 347              		.loc 1 229 0
 348 0004 9C68     		ldr	r4, [r3, #8]
 349              	.LVL30:
 350              		.loc 1 230 0
 351 0006 DE68     		ldr	r6, [r3, #12]
 352              	.LVL31:
 353              		.loc 1 234 0
 354 0008 0120     		movs	r0, #1
 355              	.LVL32:
 356 000a 8840     		lsls	r0, r0, r1
 357              	.LVL33:
 358              		.loc 1 237 0
 359 000c 44EA0602 		orr	r2, r4, r6
 360 0010 0242     		tst	r2, r0
 361 0012 17D0     		beq	.L27
 362              	.LBB4:
 363              		.loc 1 241 0
 364 0014 8D08     		lsrs	r5, r1, #2
 365              	.LVL34:
 366              		.loc 1 248 0
 367 0016 0235     		adds	r5, r5, #2
 368              	.LVL35:
 369 0018 0C4A     		ldr	r2, .L32+4
 370 001a 52F82520 		ldr	r2, [r2, r5, lsl #2]
 371              	.LVL36:
 372              		.loc 1 261 0
 373 001e 1D68     		ldr	r5, [r3]
 374              	.LVL37:
 375 0020 C243     		mvns	r2, r0
 376 0022 1540     		ands	r5, r5, r2
 377 0024 1D60     		str	r5, [r3]
 378              		.loc 1 262 0
 379 0026 5D68     		ldr	r5, [r3, #4]
 380              		.loc 1 263 0
 381 0028 1440     		ands	r4, r4, r2
 382              	.LVL38:
 383              		.loc 1 262 0
 384 002a 1540     		ands	r5, r5, r2
 385              		.loc 1 264 0
 386 002c 3240     		ands	r2, r2, r6
 387              		.loc 1 262 0
 388 002e 5D60     		str	r5, [r3, #4]
 389              		.loc 1 263 0
 390 0030 9C60     		str	r4, [r3, #8]
 391              		.loc 1 264 0
 392 0032 DA60     		str	r2, [r3, #12]
 393              		.loc 1 265 0
 394 0034 5861     		str	r0, [r3, #20]
 395              		.loc 1 270 0
 396 0036 064B     		ldr	r3, .L32+8
 397 0038 0022     		movs	r2, #0
 398 003a 43F83120 		str	r2, [r3, r1, lsl #3]
 399 003e 03EBC103 		add	r3, r3, r1, lsl #3
ARM GAS  /tmp/ccQRI9r6.s 			page 8


 400 0042 5A60     		str	r2, [r3, #4]
 401              	.LVL39:
 402              	.L27:
 403 0044 70BD     		pop	{r4, r5, r6, pc}
 404              	.LVL40:
 405              	.L33:
 406 0046 00BF     		.align	2
 407              	.L32:
 408 0048 003C0140 		.word	1073822720
 409 004c 00380140 		.word	1073821696
 410 0050 00000000 		.word	.LANCHOR0
 411              	.LBE4:
 412              		.cfi_endproc
 413              	.LFE326:
 414              		.size	_pal_lld_disablepadevent, .-_pal_lld_disablepadevent
 415              		.global	_pal_events
 416              		.section	.bss._pal_events,"aw",%nobits
 417              		.align	2
 418              		.set	.LANCHOR0,. + 0
 419              		.type	_pal_events, %object
 420              		.size	_pal_events, 128
 421              	_pal_events:
 422 0000 00000000 		.space	128
 422      00000000 
 422      00000000 
 422      00000000 
 422      00000000 
 423              		.text
 424              	.Letext0:
 425              		.file 2 "/usr/lib/gcc/arm-none-eabi/5.4.1/include/stddef.h"
 426              		.file 3 "/usr/include/newlib/machine/_default_types.h"
 427              		.file 4 "/usr/include/newlib/sys/_stdint.h"
 428              		.file 5 "../../modules/ChibiOS/os/common/ports/ARMCMx/compilers/GCC/chtypes.h"
 429              		.file 6 "../../modules/ChibiOS/os/rt/include/chsystypes.h"
 430              		.file 7 "../../modules/ChibiOS/os/rt/include/chschd.h"
 431              		.file 8 "../../modules/ChibiOS/os/rt/include/chtime.h"
 432              		.file 9 "../../modules/ChibiOS/os/common/ext/ST/STM32F4xx/stm32f427xx.h"
 433              		.file 10 "../../modules/ChibiOS/os/common/ports/ARMCMx/chcore.h"
 434              		.file 11 "../../modules/ChibiOS/os/common/ports/ARMCMx/chcore_v7m.h"
 435              		.file 12 "../../modules/ChibiOS/os/rt/include/chtm.h"
 436              		.file 13 "../../modules/ChibiOS/os/rt/include/chstats.h"
 437              		.file 14 "../../modules/ChibiOS/os/rt/include/chsem.h"
 438              		.file 15 "../../modules/ChibiOS/os/rt/include/chmtx.h"
 439              		.file 16 "../../modules/ChibiOS/os/hal/include/hal_pal.h"
 440              		.file 17 "../../modules/ChibiOS/os/hal/ports/STM32/LLD/GPIOv2/stm32_gpio.h"
 441              		.file 18 "../../modules/ChibiOS/os/hal/ports/STM32/LLD/GPIOv2/hal_pal_lld.h"
 442              		.file 19 "../../modules/ChibiOS/os/common/ext/ARM/CMSIS/Core/Include/core_cm4.h"
 443              		.section	.debug_info,"",%progbits
 444              	.Ldebug_info0:
 445 0000 7E0C0000 		.4byte	0xc7e
 446 0004 0400     		.2byte	0x4
 447 0006 00000000 		.4byte	.Ldebug_abbrev0
 448 000a 04       		.byte	0x4
 449 000b 01       		.uleb128 0x1
 450 000c 8B030000 		.4byte	.LASF158
 451 0010 0C       		.byte	0xc
 452 0011 3B050000 		.4byte	.LASF159
ARM GAS  /tmp/ccQRI9r6.s 			page 9


 453 0015 DC050000 		.4byte	.LASF160
 454 0019 18000000 		.4byte	.Ldebug_ranges0+0x18
 455 001d 00000000 		.4byte	0
 456 0021 00000000 		.4byte	.Ldebug_line0
 457 0025 02       		.uleb128 0x2
 458 0026 04       		.byte	0x4
 459 0027 05       		.byte	0x5
 460 0028 696E7400 		.ascii	"int\000"
 461 002c 03       		.uleb128 0x3
 462 002d 12000000 		.4byte	.LASF4
 463 0031 02       		.byte	0x2
 464 0032 D8       		.byte	0xd8
 465 0033 37000000 		.4byte	0x37
 466 0037 04       		.uleb128 0x4
 467 0038 04       		.byte	0x4
 468 0039 07       		.byte	0x7
 469 003a 81010000 		.4byte	.LASF0
 470 003e 04       		.uleb128 0x4
 471 003f 08       		.byte	0x8
 472 0040 05       		.byte	0x5
 473 0041 2F010000 		.4byte	.LASF1
 474 0045 04       		.uleb128 0x4
 475 0046 08       		.byte	0x8
 476 0047 04       		.byte	0x4
 477 0048 79030000 		.4byte	.LASF2
 478 004c 04       		.uleb128 0x4
 479 004d 01       		.byte	0x1
 480 004e 06       		.byte	0x6
 481 004f 3D010000 		.4byte	.LASF3
 482 0053 03       		.uleb128 0x3
 483 0054 2F000000 		.4byte	.LASF5
 484 0058 03       		.byte	0x3
 485 0059 1D       		.byte	0x1d
 486 005a 5E000000 		.4byte	0x5e
 487 005e 04       		.uleb128 0x4
 488 005f 01       		.byte	0x1
 489 0060 08       		.byte	0x8
 490 0061 0B050000 		.4byte	.LASF6
 491 0065 04       		.uleb128 0x4
 492 0066 02       		.byte	0x2
 493 0067 05       		.byte	0x5
 494 0068 28050000 		.4byte	.LASF7
 495 006c 03       		.uleb128 0x3
 496 006d 6A060000 		.4byte	.LASF8
 497 0071 03       		.byte	0x3
 498 0072 2B       		.byte	0x2b
 499 0073 77000000 		.4byte	0x77
 500 0077 04       		.uleb128 0x4
 501 0078 02       		.byte	0x2
 502 0079 07       		.byte	0x7
 503 007a 89020000 		.4byte	.LASF9
 504 007e 03       		.uleb128 0x3
 505 007f 1C030000 		.4byte	.LASF10
 506 0083 03       		.byte	0x3
 507 0084 3F       		.byte	0x3f
 508 0085 89000000 		.4byte	0x89
 509 0089 04       		.uleb128 0x4
ARM GAS  /tmp/ccQRI9r6.s 			page 10


 510 008a 04       		.byte	0x4
 511 008b 05       		.byte	0x5
 512 008c 6F010000 		.4byte	.LASF11
 513 0090 03       		.uleb128 0x3
 514 0091 A5010000 		.4byte	.LASF12
 515 0095 03       		.byte	0x3
 516 0096 41       		.byte	0x41
 517 0097 9B000000 		.4byte	0x9b
 518 009b 04       		.uleb128 0x4
 519 009c 04       		.byte	0x4
 520 009d 07       		.byte	0x7
 521 009e 35060000 		.4byte	.LASF13
 522 00a2 03       		.uleb128 0x3
 523 00a3 8D040000 		.4byte	.LASF14
 524 00a7 03       		.byte	0x3
 525 00a8 5B       		.byte	0x5b
 526 00a9 AD000000 		.4byte	0xad
 527 00ad 04       		.uleb128 0x4
 528 00ae 08       		.byte	0x8
 529 00af 07       		.byte	0x7
 530 00b0 AC000000 		.4byte	.LASF15
 531 00b4 03       		.uleb128 0x3
 532 00b5 06070000 		.4byte	.LASF16
 533 00b9 04       		.byte	0x4
 534 00ba 18       		.byte	0x18
 535 00bb 53000000 		.4byte	0x53
 536 00bf 03       		.uleb128 0x3
 537 00c0 19020000 		.4byte	.LASF17
 538 00c4 04       		.byte	0x4
 539 00c5 24       		.byte	0x24
 540 00c6 6C000000 		.4byte	0x6c
 541 00ca 03       		.uleb128 0x3
 542 00cb 03050000 		.4byte	.LASF18
 543 00cf 04       		.byte	0x4
 544 00d0 2C       		.byte	0x2c
 545 00d1 7E000000 		.4byte	0x7e
 546 00d5 03       		.uleb128 0x3
 547 00d6 D0060000 		.4byte	.LASF19
 548 00da 04       		.byte	0x4
 549 00db 30       		.byte	0x30
 550 00dc 90000000 		.4byte	0x90
 551 00e0 03       		.uleb128 0x3
 552 00e1 26000000 		.4byte	.LASF20
 553 00e5 04       		.byte	0x4
 554 00e6 3C       		.byte	0x3c
 555 00e7 A2000000 		.4byte	0xa2
 556 00eb 03       		.uleb128 0x3
 557 00ec C8060000 		.4byte	.LASF21
 558 00f0 05       		.byte	0x5
 559 00f1 27       		.byte	0x27
 560 00f2 D5000000 		.4byte	0xd5
 561 00f6 03       		.uleb128 0x3
 562 00f7 1E010000 		.4byte	.LASF22
 563 00fb 05       		.byte	0x5
 564 00fc 28       		.byte	0x28
 565 00fd E0000000 		.4byte	0xe0
 566 0101 03       		.uleb128 0x3
ARM GAS  /tmp/ccQRI9r6.s 			page 11


 567 0102 E4020000 		.4byte	.LASF23
 568 0106 05       		.byte	0x5
 569 0107 2A       		.byte	0x2a
 570 0108 B4000000 		.4byte	0xb4
 571 010c 03       		.uleb128 0x3
 572 010d 78010000 		.4byte	.LASF24
 573 0111 05       		.byte	0x5
 574 0112 2B       		.byte	0x2b
 575 0113 B4000000 		.4byte	0xb4
 576 0117 03       		.uleb128 0x3
 577 0118 C9040000 		.4byte	.LASF25
 578 011c 05       		.byte	0x5
 579 011d 2C       		.byte	0x2c
 580 011e B4000000 		.4byte	0xb4
 581 0122 03       		.uleb128 0x3
 582 0123 EC040000 		.4byte	.LASF26
 583 0127 05       		.byte	0x5
 584 0128 2E       		.byte	0x2e
 585 0129 D5000000 		.4byte	0xd5
 586 012d 03       		.uleb128 0x3
 587 012e E6040000 		.4byte	.LASF27
 588 0132 05       		.byte	0x5
 589 0133 2F       		.byte	0x2f
 590 0134 CA000000 		.4byte	0xca
 591 0138 03       		.uleb128 0x3
 592 0139 10030000 		.4byte	.LASF28
 593 013d 05       		.byte	0x5
 594 013e 31       		.byte	0x31
 595 013f D5000000 		.4byte	0xd5
 596 0143 03       		.uleb128 0x3
 597 0144 05020000 		.4byte	.LASF29
 598 0148 05       		.byte	0x5
 599 0149 33       		.byte	0x33
 600 014a CA000000 		.4byte	0xca
 601 014e 03       		.uleb128 0x3
 602 014f C2020000 		.4byte	.LASF30
 603 0153 05       		.byte	0x5
 604 0154 34       		.byte	0x34
 605 0155 D5000000 		.4byte	0xd5
 606 0159 03       		.uleb128 0x3
 607 015a 75060000 		.4byte	.LASF31
 608 015e 06       		.byte	0x6
 609 015f 34       		.byte	0x34
 610 0160 64010000 		.4byte	0x164
 611 0164 05       		.uleb128 0x5
 612 0165 A2020000 		.4byte	.LASF50
 613 0169 60       		.byte	0x60
 614 016a 07       		.byte	0x7
 615 016b 8E       		.byte	0x8e
 616 016c 4F020000 		.4byte	0x24f
 617 0170 06       		.uleb128 0x6
 618 0171 76020000 		.4byte	.LASF32
 619 0175 07       		.byte	0x7
 620 0176 8F       		.byte	0x8f
 621 0177 84020000 		.4byte	0x284
 622 017b 00       		.byte	0
 623 017c 06       		.uleb128 0x6
ARM GAS  /tmp/ccQRI9r6.s 			page 12


 624 017d 80040000 		.4byte	.LASF33
 625 0181 07       		.byte	0x7
 626 0182 90       		.byte	0x90
 627 0183 22010000 		.4byte	0x122
 628 0187 08       		.byte	0x8
 629 0188 07       		.uleb128 0x7
 630 0189 63747800 		.ascii	"ctx\000"
 631 018d 07       		.byte	0x7
 632 018e 91       		.byte	0x91
 633 018f 83050000 		.4byte	0x583
 634 0193 0C       		.byte	0xc
 635 0194 06       		.uleb128 0x6
 636 0195 31030000 		.4byte	.LASF34
 637 0199 07       		.byte	0x7
 638 019a 93       		.byte	0x93
 639 019b 5A020000 		.4byte	0x25a
 640 019f 10       		.byte	0x10
 641 01a0 06       		.uleb128 0x6
 642 01a1 58060000 		.4byte	.LASF35
 643 01a5 07       		.byte	0x7
 644 01a6 94       		.byte	0x94
 645 01a7 5A020000 		.4byte	0x25a
 646 01ab 14       		.byte	0x14
 647 01ac 06       		.uleb128 0x6
 648 01ad AC020000 		.4byte	.LASF36
 649 01b1 07       		.byte	0x7
 650 01b2 9B       		.byte	0x9b
 651 01b3 69080000 		.4byte	0x869
 652 01b7 18       		.byte	0x18
 653 01b8 06       		.uleb128 0x6
 654 01b9 47060000 		.4byte	.LASF37
 655 01bd 07       		.byte	0x7
 656 01be A4       		.byte	0xa4
 657 01bf 7B080000 		.4byte	0x87b
 658 01c3 1C       		.byte	0x1c
 659 01c4 06       		.uleb128 0x6
 660 01c5 69010000 		.4byte	.LASF38
 661 01c9 07       		.byte	0x7
 662 01ca A9       		.byte	0xa9
 663 01cb 0C010000 		.4byte	0x10c
 664 01cf 20       		.byte	0x20
 665 01d0 06       		.uleb128 0x6
 666 01d1 17070000 		.4byte	.LASF39
 667 01d5 07       		.byte	0x7
 668 01d6 AD       		.byte	0xad
 669 01d7 01010000 		.4byte	0x101
 670 01db 21       		.byte	0x21
 671 01dc 06       		.uleb128 0x6
 672 01dd D1040000 		.4byte	.LASF40
 673 01e1 07       		.byte	0x7
 674 01e2 B2       		.byte	0xb2
 675 01e3 17010000 		.4byte	0x117
 676 01e7 22       		.byte	0x22
 677 01e8 08       		.uleb128 0x8
 678 01e9 7500     		.ascii	"u\000"
 679 01eb 07       		.byte	0x7
 680 01ec 0301     		.2byte	0x103
ARM GAS  /tmp/ccQRI9r6.s 			page 13


 681 01ee 9F070000 		.4byte	0x79f
 682 01f2 24       		.byte	0x24
 683 01f3 09       		.uleb128 0x9
 684 01f4 D5010000 		.4byte	.LASF41
 685 01f8 07       		.byte	0x7
 686 01f9 0801     		.2byte	0x108
 687 01fb 60020000 		.4byte	0x260
 688 01ff 28       		.byte	0x28
 689 0200 09       		.uleb128 0x9
 690 0201 5A010000 		.4byte	.LASF42
 691 0205 07       		.byte	0x7
 692 0206 0E01     		.2byte	0x10e
 693 0208 84020000 		.4byte	0x284
 694 020c 2C       		.byte	0x2c
 695 020d 09       		.uleb128 0x9
 696 020e C9020000 		.4byte	.LASF43
 697 0212 07       		.byte	0x7
 698 0213 1401     		.2byte	0x114
 699 0215 38010000 		.4byte	0x138
 700 0219 34       		.byte	0x34
 701 021a 09       		.uleb128 0x9
 702 021b 40070000 		.4byte	.LASF44
 703 021f 07       		.byte	0x7
 704 0220 1B01     		.2byte	0x11b
 705 0222 63080000 		.4byte	0x863
 706 0226 38       		.byte	0x38
 707 0227 09       		.uleb128 0x9
 708 0228 37030000 		.4byte	.LASF45
 709 022c 07       		.byte	0x7
 710 022d 1F01     		.2byte	0x11f
 711 022f 22010000 		.4byte	0x122
 712 0233 3C       		.byte	0x3c
 713 0234 09       		.uleb128 0x9
 714 0235 83020000 		.4byte	.LASF46
 715 0239 07       		.byte	0x7
 716 023a 2601     		.2byte	0x126
 717 023c 37030000 		.4byte	0x337
 718 0240 40       		.byte	0x40
 719 0241 09       		.uleb128 0x9
 720 0242 8E010000 		.4byte	.LASF47
 721 0246 07       		.byte	0x7
 722 0247 2C01     		.2byte	0x12c
 723 0249 50070000 		.4byte	0x750
 724 024d 48       		.byte	0x48
 725 024e 00       		.byte	0
 726 024f 03       		.uleb128 0x3
 727 0250 49030000 		.4byte	.LASF48
 728 0254 06       		.byte	0x6
 729 0255 39       		.byte	0x39
 730 0256 5A020000 		.4byte	0x25a
 731 025a 0A       		.uleb128 0xa
 732 025b 04       		.byte	0x4
 733 025c 59010000 		.4byte	0x159
 734 0260 03       		.uleb128 0x3
 735 0261 24070000 		.4byte	.LASF49
 736 0265 06       		.byte	0x6
 737 0266 3E       		.byte	0x3e
ARM GAS  /tmp/ccQRI9r6.s 			page 14


 738 0267 6B020000 		.4byte	0x26b
 739 026b 05       		.uleb128 0x5
 740 026c 1F060000 		.4byte	.LASF51
 741 0270 04       		.byte	0x4
 742 0271 07       		.byte	0x7
 743 0272 7C       		.byte	0x7c
 744 0273 84020000 		.4byte	0x284
 745 0277 06       		.uleb128 0x6
 746 0278 19010000 		.4byte	.LASF52
 747 027c 07       		.byte	0x7
 748 027d 7D       		.byte	0x7d
 749 027e 5A020000 		.4byte	0x25a
 750 0282 00       		.byte	0
 751 0283 00       		.byte	0
 752 0284 03       		.uleb128 0x3
 753 0285 D9060000 		.4byte	.LASF53
 754 0289 06       		.byte	0x6
 755 028a 45       		.byte	0x45
 756 028b 8F020000 		.4byte	0x28f
 757 028f 05       		.uleb128 0x5
 758 0290 4C000000 		.4byte	.LASF54
 759 0294 08       		.byte	0x8
 760 0295 07       		.byte	0x7
 761 0296 83       		.byte	0x83
 762 0297 B4020000 		.4byte	0x2b4
 763 029b 06       		.uleb128 0x6
 764 029c 19010000 		.4byte	.LASF52
 765 02a0 07       		.byte	0x7
 766 02a1 84       		.byte	0x84
 767 02a2 5A020000 		.4byte	0x25a
 768 02a6 00       		.byte	0
 769 02a7 06       		.uleb128 0x6
 770 02a8 00000000 		.4byte	.LASF55
 771 02ac 07       		.byte	0x7
 772 02ad 85       		.byte	0x85
 773 02ae 5A020000 		.4byte	0x25a
 774 02b2 04       		.byte	0x4
 775 02b3 00       		.byte	0
 776 02b4 03       		.uleb128 0x3
 777 02b5 05000000 		.4byte	.LASF56
 778 02b9 06       		.byte	0x6
 779 02ba 4C       		.byte	0x4c
 780 02bb BF020000 		.4byte	0x2bf
 781 02bf 0B       		.uleb128 0xb
 782 02c0 02030000 		.4byte	.LASF57
 783 02c4 1C       		.byte	0x1c
 784 02c5 07       		.byte	0x7
 785 02c6 5E01     		.2byte	0x15e
 786 02c8 1B030000 		.4byte	0x31b
 787 02cc 09       		.uleb128 0x9
 788 02cd 76020000 		.4byte	.LASF32
 789 02d1 07       		.byte	0x7
 790 02d2 5F01     		.2byte	0x15f
 791 02d4 84020000 		.4byte	0x284
 792 02d8 00       		.byte	0
 793 02d9 09       		.uleb128 0x9
 794 02da 80040000 		.4byte	.LASF33
ARM GAS  /tmp/ccQRI9r6.s 			page 15


 795 02de 07       		.byte	0x7
 796 02df 6001     		.2byte	0x160
 797 02e1 22010000 		.4byte	0x122
 798 02e5 08       		.byte	0x8
 799 02e6 08       		.uleb128 0x8
 800 02e7 63747800 		.ascii	"ctx\000"
 801 02eb 07       		.byte	0x7
 802 02ec 6201     		.2byte	0x162
 803 02ee 83050000 		.4byte	0x583
 804 02f2 0C       		.byte	0xc
 805 02f3 09       		.uleb128 0x9
 806 02f4 31030000 		.4byte	.LASF34
 807 02f8 07       		.byte	0x7
 808 02f9 6501     		.2byte	0x165
 809 02fb 5A020000 		.4byte	0x25a
 810 02ff 10       		.byte	0x10
 811 0300 09       		.uleb128 0x9
 812 0301 58060000 		.4byte	.LASF35
 813 0305 07       		.byte	0x7
 814 0306 6601     		.2byte	0x166
 815 0308 5A020000 		.4byte	0x25a
 816 030c 14       		.byte	0x14
 817 030d 09       		.uleb128 0x9
 818 030e 85040000 		.4byte	.LASF58
 819 0312 07       		.byte	0x7
 820 0313 6901     		.2byte	0x169
 821 0315 5A020000 		.4byte	0x25a
 822 0319 18       		.byte	0x18
 823 031a 00       		.byte	0
 824 031b 03       		.uleb128 0x3
 825 031c 8D060000 		.4byte	.LASF59
 826 0320 06       		.byte	0x6
 827 0321 51       		.byte	0x51
 828 0322 26030000 		.4byte	0x326
 829 0326 0A       		.uleb128 0xa
 830 0327 04       		.byte	0x4
 831 0328 2C030000 		.4byte	0x32c
 832 032c 0C       		.uleb128 0xc
 833 032d 37030000 		.4byte	0x337
 834 0331 0D       		.uleb128 0xd
 835 0332 37030000 		.4byte	0x337
 836 0336 00       		.byte	0
 837 0337 0E       		.uleb128 0xe
 838 0338 04       		.byte	0x4
 839 0339 03       		.uleb128 0x3
 840 033a D6040000 		.4byte	.LASF60
 841 033e 06       		.byte	0x6
 842 033f 56       		.byte	0x56
 843 0340 44030000 		.4byte	0x344
 844 0344 0B       		.uleb128 0xb
 845 0345 BE050000 		.4byte	.LASF61
 846 0349 14       		.byte	0x14
 847 034a 07       		.byte	0x7
 848 034b 3901     		.2byte	0x139
 849 034d 93030000 		.4byte	0x393
 850 0351 09       		.uleb128 0x9
 851 0352 19010000 		.4byte	.LASF52
ARM GAS  /tmp/ccQRI9r6.s 			page 16


 852 0356 07       		.byte	0x7
 853 0357 3A01     		.2byte	0x13a
 854 0359 81080000 		.4byte	0x881
 855 035d 00       		.byte	0
 856 035e 09       		.uleb128 0x9
 857 035f 00000000 		.4byte	.LASF55
 858 0363 07       		.byte	0x7
 859 0364 3B01     		.2byte	0x13b
 860 0366 81080000 		.4byte	0x881
 861 036a 04       		.byte	0x4
 862 036b 09       		.uleb128 0x9
 863 036c 19000000 		.4byte	.LASF62
 864 0370 07       		.byte	0x7
 865 0371 3C01     		.2byte	0x13c
 866 0373 77040000 		.4byte	0x477
 867 0377 08       		.byte	0x8
 868 0378 09       		.uleb128 0x9
 869 0379 0E010000 		.4byte	.LASF63
 870 037d 07       		.byte	0x7
 871 037e 3D01     		.2byte	0x13d
 872 0380 1B030000 		.4byte	0x31b
 873 0384 0C       		.byte	0xc
 874 0385 08       		.uleb128 0x8
 875 0386 70617200 		.ascii	"par\000"
 876 038a 07       		.byte	0x7
 877 038b 3F01     		.2byte	0x13f
 878 038d 37030000 		.4byte	0x337
 879 0391 10       		.byte	0x10
 880 0392 00       		.byte	0
 881 0393 03       		.uleb128 0x3
 882 0394 EB000000 		.4byte	.LASF64
 883 0398 06       		.byte	0x6
 884 0399 5B       		.byte	0x5b
 885 039a 9E030000 		.4byte	0x39e
 886 039e 0B       		.uleb128 0xb
 887 039f 5C030000 		.4byte	.LASF65
 888 03a3 10       		.byte	0x10
 889 03a4 07       		.byte	0x7
 890 03a5 4901     		.2byte	0x149
 891 03a7 E0030000 		.4byte	0x3e0
 892 03ab 09       		.uleb128 0x9
 893 03ac 19010000 		.4byte	.LASF52
 894 03b0 07       		.byte	0x7
 895 03b1 4A01     		.2byte	0x14a
 896 03b3 81080000 		.4byte	0x881
 897 03b7 00       		.byte	0
 898 03b8 09       		.uleb128 0x9
 899 03b9 00000000 		.4byte	.LASF55
 900 03bd 07       		.byte	0x7
 901 03be 4C01     		.2byte	0x14c
 902 03c0 81080000 		.4byte	0x881
 903 03c4 04       		.byte	0x4
 904 03c5 09       		.uleb128 0x9
 905 03c6 19000000 		.4byte	.LASF62
 906 03ca 07       		.byte	0x7
 907 03cb 4E01     		.2byte	0x14e
 908 03cd 77040000 		.4byte	0x477
ARM GAS  /tmp/ccQRI9r6.s 			page 17


 909 03d1 08       		.byte	0x8
 910 03d2 09       		.uleb128 0x9
 911 03d3 32050000 		.4byte	.LASF66
 912 03d7 07       		.byte	0x7
 913 03d8 5601     		.2byte	0x156
 914 03da 6C040000 		.4byte	0x46c
 915 03de 0C       		.byte	0xc
 916 03df 00       		.byte	0
 917 03e0 03       		.uleb128 0x3
 918 03e1 5D000000 		.4byte	.LASF67
 919 03e5 06       		.byte	0x6
 920 03e6 60       		.byte	0x60
 921 03e7 EB030000 		.4byte	0x3eb
 922 03eb 0B       		.uleb128 0xb
 923 03ec C5010000 		.4byte	.LASF68
 924 03f0 04       		.byte	0x4
 925 03f1 07       		.byte	0x7
 926 03f2 7001     		.2byte	0x170
 927 03f4 06040000 		.4byte	0x406
 928 03f8 09       		.uleb128 0x9
 929 03f9 96060000 		.4byte	.LASF69
 930 03fd 07       		.byte	0x7
 931 03fe 7801     		.2byte	0x178
 932 0400 87080000 		.4byte	0x887
 933 0404 00       		.byte	0
 934 0405 00       		.byte	0
 935 0406 03       		.uleb128 0x3
 936 0407 D2020000 		.4byte	.LASF70
 937 040b 06       		.byte	0x6
 938 040c 65       		.byte	0x65
 939 040d 11040000 		.4byte	0x411
 940 0411 0B       		.uleb128 0xb
 941 0412 9C050000 		.4byte	.LASF71
 942 0416 D0       		.byte	0xd0
 943 0417 07       		.byte	0x7
 944 0418 9001     		.2byte	0x190
 945 041a 6C040000 		.4byte	0x46c
 946 041e 09       		.uleb128 0x9
 947 041f 00070000 		.4byte	.LASF72
 948 0423 07       		.byte	0x7
 949 0424 9401     		.2byte	0x194
 950 0426 B4020000 		.4byte	0x2b4
 951 042a 00       		.byte	0
 952 042b 09       		.uleb128 0x9
 953 042c BE010000 		.4byte	.LASF73
 954 0430 07       		.byte	0x7
 955 0431 9801     		.2byte	0x198
 956 0433 93030000 		.4byte	0x393
 957 0437 1C       		.byte	0x1c
 958 0438 08       		.uleb128 0x8
 959 0439 64626700 		.ascii	"dbg\000"
 960 043d 07       		.byte	0x7
 961 043e 9C01     		.2byte	0x19c
 962 0440 E0030000 		.4byte	0x3e0
 963 0444 2C       		.byte	0x2c
 964 0445 09       		.uleb128 0x9
 965 0446 D8000000 		.4byte	.LASF74
ARM GAS  /tmp/ccQRI9r6.s 			page 18


 966 044a 07       		.byte	0x7
 967 044b A001     		.2byte	0x1a0
 968 044d 59010000 		.4byte	0x159
 969 0451 30       		.byte	0x30
 970 0452 08       		.uleb128 0x8
 971 0453 746D00   		.ascii	"tm\000"
 972 0456 07       		.byte	0x7
 973 0457 A501     		.2byte	0x1a5
 974 0459 02070000 		.4byte	0x702
 975 045d 90       		.byte	0x90
 976 045e 09       		.uleb128 0x9
 977 045f BC040000 		.4byte	.LASF75
 978 0463 07       		.byte	0x7
 979 0464 AB01     		.2byte	0x1ab
 980 0466 94070000 		.4byte	0x794
 981 046a 98       		.byte	0x98
 982 046b 00       		.byte	0
 983 046c 03       		.uleb128 0x3
 984 046d 83060000 		.4byte	.LASF76
 985 0471 08       		.byte	0x8
 986 0472 6D       		.byte	0x6d
 987 0473 D5000000 		.4byte	0xd5
 988 0477 03       		.uleb128 0x3
 989 0478 F7010000 		.4byte	.LASF77
 990 047c 08       		.byte	0x8
 991 047d 79       		.byte	0x79
 992 047e D5000000 		.4byte	0xd5
 993 0482 04       		.uleb128 0x4
 994 0483 04       		.byte	0x4
 995 0484 07       		.byte	0x7
 996 0485 40030000 		.4byte	.LASF78
 997 0489 0F       		.uleb128 0xf
 998 048a D5000000 		.4byte	0xd5
 999 048e 10       		.uleb128 0x10
 1000 048f D5000000 		.4byte	0xd5
 1001 0493 9E040000 		.4byte	0x49e
 1002 0497 11       		.uleb128 0x11
 1003 0498 82040000 		.4byte	0x482
 1004 049c 01       		.byte	0x1
 1005 049d 00       		.byte	0
 1006 049e 12       		.uleb128 0x12
 1007 049f 18       		.byte	0x18
 1008 04a0 09       		.byte	0x9
 1009 04a1 F101     		.2byte	0x1f1
 1010 04a3 F5040000 		.4byte	0x4f5
 1011 04a7 08       		.uleb128 0x8
 1012 04a8 494D5200 		.ascii	"IMR\000"
 1013 04ac 09       		.byte	0x9
 1014 04ad F301     		.2byte	0x1f3
 1015 04af 89040000 		.4byte	0x489
 1016 04b3 00       		.byte	0
 1017 04b4 08       		.uleb128 0x8
 1018 04b5 454D5200 		.ascii	"EMR\000"
 1019 04b9 09       		.byte	0x9
 1020 04ba F401     		.2byte	0x1f4
 1021 04bc 89040000 		.4byte	0x489
 1022 04c0 04       		.byte	0x4
ARM GAS  /tmp/ccQRI9r6.s 			page 19


 1023 04c1 09       		.uleb128 0x9
 1024 04c2 98040000 		.4byte	.LASF79
 1025 04c6 09       		.byte	0x9
 1026 04c7 F501     		.2byte	0x1f5
 1027 04c9 89040000 		.4byte	0x489
 1028 04cd 08       		.byte	0x8
 1029 04ce 09       		.uleb128 0x9
 1030 04cf 23050000 		.4byte	.LASF80
 1031 04d3 09       		.byte	0x9
 1032 04d4 F601     		.2byte	0x1f6
 1033 04d6 89040000 		.4byte	0x489
 1034 04da 0C       		.byte	0xc
 1035 04db 09       		.uleb128 0x9
 1036 04dc 4E010000 		.4byte	.LASF81
 1037 04e0 09       		.byte	0x9
 1038 04e1 F701     		.2byte	0x1f7
 1039 04e3 89040000 		.4byte	0x489
 1040 04e7 10       		.byte	0x10
 1041 04e8 08       		.uleb128 0x8
 1042 04e9 505200   		.ascii	"PR\000"
 1043 04ec 09       		.byte	0x9
 1044 04ed F801     		.2byte	0x1f8
 1045 04ef 89040000 		.4byte	0x489
 1046 04f3 14       		.byte	0x14
 1047 04f4 00       		.byte	0
 1048 04f5 13       		.uleb128 0x13
 1049 04f6 33070000 		.4byte	.LASF82
 1050 04fa 09       		.byte	0x9
 1051 04fb F901     		.2byte	0x1f9
 1052 04fd 9E040000 		.4byte	0x49e
 1053 0501 12       		.uleb128 0x12
 1054 0502 24       		.byte	0x24
 1055 0503 09       		.byte	0x9
 1056 0504 6002     		.2byte	0x260
 1057 0506 4C050000 		.4byte	0x54c
 1058 050a 09       		.uleb128 0x9
 1059 050b 8C000000 		.4byte	.LASF83
 1060 050f 09       		.byte	0x9
 1061 0510 6202     		.2byte	0x262
 1062 0512 89040000 		.4byte	0x489
 1063 0516 00       		.byte	0
 1064 0517 08       		.uleb128 0x8
 1065 0518 504D4300 		.ascii	"PMC\000"
 1066 051c 09       		.byte	0x9
 1067 051d 6302     		.2byte	0x263
 1068 051f 89040000 		.4byte	0x489
 1069 0523 04       		.byte	0x4
 1070 0524 09       		.uleb128 0x9
 1071 0525 64070000 		.4byte	.LASF84
 1072 0529 09       		.byte	0x9
 1073 052a 6402     		.2byte	0x264
 1074 052c 5C050000 		.4byte	0x55c
 1075 0530 08       		.byte	0x8
 1076 0531 09       		.uleb128 0x9
 1077 0532 0E070000 		.4byte	.LASF85
 1078 0536 09       		.byte	0x9
 1079 0537 6502     		.2byte	0x265
ARM GAS  /tmp/ccQRI9r6.s 			page 20


 1080 0539 8E040000 		.4byte	0x48e
 1081 053d 18       		.byte	0x18
 1082 053e 09       		.uleb128 0x9
 1083 053f 62020000 		.4byte	.LASF86
 1084 0543 09       		.byte	0x9
 1085 0544 6602     		.2byte	0x266
 1086 0546 89040000 		.4byte	0x489
 1087 054a 20       		.byte	0x20
 1088 054b 00       		.byte	0
 1089 054c 10       		.uleb128 0x10
 1090 054d 89040000 		.4byte	0x489
 1091 0551 5C050000 		.4byte	0x55c
 1092 0555 11       		.uleb128 0x11
 1093 0556 82040000 		.4byte	0x482
 1094 055a 03       		.byte	0x3
 1095 055b 00       		.byte	0
 1096 055c 0F       		.uleb128 0xf
 1097 055d 4C050000 		.4byte	0x54c
 1098 0561 13       		.uleb128 0x13
 1099 0562 AD040000 		.4byte	.LASF87
 1100 0566 09       		.byte	0x9
 1101 0567 6702     		.2byte	0x267
 1102 0569 01050000 		.4byte	0x501
 1103 056d 03       		.uleb128 0x3
 1104 056e B5010000 		.4byte	.LASF88
 1105 0572 0A       		.byte	0xa
 1106 0573 65       		.byte	0x65
 1107 0574 37030000 		.4byte	0x337
 1108 0578 03       		.uleb128 0x3
 1109 0579 26030000 		.4byte	.LASF89
 1110 057d 0A       		.byte	0xa
 1111 057e 6D       		.byte	0x6d
 1112 057f E0000000 		.4byte	0xe0
 1113 0583 05       		.uleb128 0x5
 1114 0584 79000000 		.4byte	.LASF90
 1115 0588 04       		.byte	0x4
 1116 0589 0A       		.byte	0xa
 1117 058a 89       		.byte	0x89
 1118 058b 9B050000 		.4byte	0x59b
 1119 058f 07       		.uleb128 0x7
 1120 0590 737000   		.ascii	"sp\000"
 1121 0593 0A       		.byte	0xa
 1122 0594 8A       		.byte	0x8a
 1123 0595 E7060000 		.4byte	0x6e7
 1124 0599 00       		.byte	0
 1125 059a 00       		.byte	0
 1126 059b 0B       		.uleb128 0xb
 1127 059c 40000000 		.4byte	.LASF91
 1128 05a0 64       		.byte	0x64
 1129 05a1 0B       		.byte	0xb
 1130 05a2 5901     		.2byte	0x159
 1131 05a4 E7060000 		.4byte	0x6e7
 1132 05a8 08       		.uleb128 0x8
 1133 05a9 73313600 		.ascii	"s16\000"
 1134 05ad 0B       		.byte	0xb
 1135 05ae 5B01     		.2byte	0x15b
 1136 05b0 6D050000 		.4byte	0x56d
ARM GAS  /tmp/ccQRI9r6.s 			page 21


 1137 05b4 00       		.byte	0
 1138 05b5 08       		.uleb128 0x8
 1139 05b6 73313700 		.ascii	"s17\000"
 1140 05ba 0B       		.byte	0xb
 1141 05bb 5C01     		.2byte	0x15c
 1142 05bd 6D050000 		.4byte	0x56d
 1143 05c1 04       		.byte	0x4
 1144 05c2 08       		.uleb128 0x8
 1145 05c3 73313800 		.ascii	"s18\000"
 1146 05c7 0B       		.byte	0xb
 1147 05c8 5D01     		.2byte	0x15d
 1148 05ca 6D050000 		.4byte	0x56d
 1149 05ce 08       		.byte	0x8
 1150 05cf 08       		.uleb128 0x8
 1151 05d0 73313900 		.ascii	"s19\000"
 1152 05d4 0B       		.byte	0xb
 1153 05d5 5E01     		.2byte	0x15e
 1154 05d7 6D050000 		.4byte	0x56d
 1155 05db 0C       		.byte	0xc
 1156 05dc 08       		.uleb128 0x8
 1157 05dd 73323000 		.ascii	"s20\000"
 1158 05e1 0B       		.byte	0xb
 1159 05e2 5F01     		.2byte	0x15f
 1160 05e4 6D050000 		.4byte	0x56d
 1161 05e8 10       		.byte	0x10
 1162 05e9 08       		.uleb128 0x8
 1163 05ea 73323100 		.ascii	"s21\000"
 1164 05ee 0B       		.byte	0xb
 1165 05ef 6001     		.2byte	0x160
 1166 05f1 6D050000 		.4byte	0x56d
 1167 05f5 14       		.byte	0x14
 1168 05f6 08       		.uleb128 0x8
 1169 05f7 73323200 		.ascii	"s22\000"
 1170 05fb 0B       		.byte	0xb
 1171 05fc 6101     		.2byte	0x161
 1172 05fe 6D050000 		.4byte	0x56d
 1173 0602 18       		.byte	0x18
 1174 0603 08       		.uleb128 0x8
 1175 0604 73323300 		.ascii	"s23\000"
 1176 0608 0B       		.byte	0xb
 1177 0609 6201     		.2byte	0x162
 1178 060b 6D050000 		.4byte	0x56d
 1179 060f 1C       		.byte	0x1c
 1180 0610 08       		.uleb128 0x8
 1181 0611 73323400 		.ascii	"s24\000"
 1182 0615 0B       		.byte	0xb
 1183 0616 6301     		.2byte	0x163
 1184 0618 6D050000 		.4byte	0x56d
 1185 061c 20       		.byte	0x20
 1186 061d 08       		.uleb128 0x8
 1187 061e 73323500 		.ascii	"s25\000"
 1188 0622 0B       		.byte	0xb
 1189 0623 6401     		.2byte	0x164
 1190 0625 6D050000 		.4byte	0x56d
 1191 0629 24       		.byte	0x24
 1192 062a 08       		.uleb128 0x8
 1193 062b 73323600 		.ascii	"s26\000"
ARM GAS  /tmp/ccQRI9r6.s 			page 22


 1194 062f 0B       		.byte	0xb
 1195 0630 6501     		.2byte	0x165
 1196 0632 6D050000 		.4byte	0x56d
 1197 0636 28       		.byte	0x28
 1198 0637 08       		.uleb128 0x8
 1199 0638 73323700 		.ascii	"s27\000"
 1200 063c 0B       		.byte	0xb
 1201 063d 6601     		.2byte	0x166
 1202 063f 6D050000 		.4byte	0x56d
 1203 0643 2C       		.byte	0x2c
 1204 0644 08       		.uleb128 0x8
 1205 0645 73323800 		.ascii	"s28\000"
 1206 0649 0B       		.byte	0xb
 1207 064a 6701     		.2byte	0x167
 1208 064c 6D050000 		.4byte	0x56d
 1209 0650 30       		.byte	0x30
 1210 0651 08       		.uleb128 0x8
 1211 0652 73323900 		.ascii	"s29\000"
 1212 0656 0B       		.byte	0xb
 1213 0657 6801     		.2byte	0x168
 1214 0659 6D050000 		.4byte	0x56d
 1215 065d 34       		.byte	0x34
 1216 065e 08       		.uleb128 0x8
 1217 065f 73333000 		.ascii	"s30\000"
 1218 0663 0B       		.byte	0xb
 1219 0664 6901     		.2byte	0x169
 1220 0666 6D050000 		.4byte	0x56d
 1221 066a 38       		.byte	0x38
 1222 066b 08       		.uleb128 0x8
 1223 066c 73333100 		.ascii	"s31\000"
 1224 0670 0B       		.byte	0xb
 1225 0671 6A01     		.2byte	0x16a
 1226 0673 6D050000 		.4byte	0x56d
 1227 0677 3C       		.byte	0x3c
 1228 0678 08       		.uleb128 0x8
 1229 0679 723400   		.ascii	"r4\000"
 1230 067c 0B       		.byte	0xb
 1231 067d 6C01     		.2byte	0x16c
 1232 067f 6D050000 		.4byte	0x56d
 1233 0683 40       		.byte	0x40
 1234 0684 08       		.uleb128 0x8
 1235 0685 723500   		.ascii	"r5\000"
 1236 0688 0B       		.byte	0xb
 1237 0689 6D01     		.2byte	0x16d
 1238 068b 6D050000 		.4byte	0x56d
 1239 068f 44       		.byte	0x44
 1240 0690 08       		.uleb128 0x8
 1241 0691 723600   		.ascii	"r6\000"
 1242 0694 0B       		.byte	0xb
 1243 0695 6E01     		.2byte	0x16e
 1244 0697 6D050000 		.4byte	0x56d
 1245 069b 48       		.byte	0x48
 1246 069c 08       		.uleb128 0x8
 1247 069d 723700   		.ascii	"r7\000"
 1248 06a0 0B       		.byte	0xb
 1249 06a1 6F01     		.2byte	0x16f
 1250 06a3 6D050000 		.4byte	0x56d
ARM GAS  /tmp/ccQRI9r6.s 			page 23


 1251 06a7 4C       		.byte	0x4c
 1252 06a8 08       		.uleb128 0x8
 1253 06a9 723800   		.ascii	"r8\000"
 1254 06ac 0B       		.byte	0xb
 1255 06ad 7001     		.2byte	0x170
 1256 06af 6D050000 		.4byte	0x56d
 1257 06b3 50       		.byte	0x50
 1258 06b4 08       		.uleb128 0x8
 1259 06b5 723900   		.ascii	"r9\000"
 1260 06b8 0B       		.byte	0xb
 1261 06b9 7101     		.2byte	0x171
 1262 06bb 6D050000 		.4byte	0x56d
 1263 06bf 54       		.byte	0x54
 1264 06c0 08       		.uleb128 0x8
 1265 06c1 72313000 		.ascii	"r10\000"
 1266 06c5 0B       		.byte	0xb
 1267 06c6 7201     		.2byte	0x172
 1268 06c8 6D050000 		.4byte	0x56d
 1269 06cc 58       		.byte	0x58
 1270 06cd 08       		.uleb128 0x8
 1271 06ce 72313100 		.ascii	"r11\000"
 1272 06d2 0B       		.byte	0xb
 1273 06d3 7301     		.2byte	0x173
 1274 06d5 6D050000 		.4byte	0x56d
 1275 06d9 5C       		.byte	0x5c
 1276 06da 08       		.uleb128 0x8
 1277 06db 6C7200   		.ascii	"lr\000"
 1278 06de 0B       		.byte	0xb
 1279 06df 7401     		.2byte	0x174
 1280 06e1 6D050000 		.4byte	0x56d
 1281 06e5 60       		.byte	0x60
 1282 06e6 00       		.byte	0
 1283 06e7 0A       		.uleb128 0xa
 1284 06e8 04       		.byte	0x4
 1285 06e9 9B050000 		.4byte	0x59b
 1286 06ed 14       		.uleb128 0x14
 1287 06ee 04       		.byte	0x4
 1288 06ef 0C       		.byte	0xc
 1289 06f0 38       		.byte	0x38
 1290 06f1 02070000 		.4byte	0x702
 1291 06f5 06       		.uleb128 0x6
 1292 06f6 A0060000 		.4byte	.LASF92
 1293 06fa 0C       		.byte	0xc
 1294 06fb 3C       		.byte	0x3c
 1295 06fc EB000000 		.4byte	0xeb
 1296 0700 00       		.byte	0
 1297 0701 00       		.byte	0
 1298 0702 03       		.uleb128 0x3
 1299 0703 6F040000 		.4byte	.LASF93
 1300 0707 0C       		.byte	0xc
 1301 0708 3D       		.byte	0x3d
 1302 0709 ED060000 		.4byte	0x6ed
 1303 070d 14       		.uleb128 0x14
 1304 070e 18       		.byte	0x18
 1305 070f 0C       		.byte	0xc
 1306 0710 48       		.byte	0x48
 1307 0711 50070000 		.4byte	0x750
ARM GAS  /tmp/ccQRI9r6.s 			page 24


 1308 0715 06       		.uleb128 0x6
 1309 0716 7E060000 		.4byte	.LASF94
 1310 071a 0C       		.byte	0xc
 1311 071b 49       		.byte	0x49
 1312 071c EB000000 		.4byte	0xeb
 1313 0720 00       		.byte	0
 1314 0721 06       		.uleb128 0x6
 1315 0722 86000000 		.4byte	.LASF95
 1316 0726 0C       		.byte	0xc
 1317 0727 4A       		.byte	0x4a
 1318 0728 EB000000 		.4byte	0xeb
 1319 072c 04       		.byte	0x4
 1320 072d 06       		.uleb128 0x6
 1321 072e BD020000 		.4byte	.LASF96
 1322 0732 0C       		.byte	0xc
 1323 0733 4B       		.byte	0x4b
 1324 0734 EB000000 		.4byte	0xeb
 1325 0738 08       		.byte	0x8
 1326 0739 07       		.uleb128 0x7
 1327 073a 6E00     		.ascii	"n\000"
 1328 073c 0C       		.byte	0xc
 1329 073d 4C       		.byte	0x4c
 1330 073e 4E010000 		.4byte	0x14e
 1331 0742 0C       		.byte	0xc
 1332 0743 06       		.uleb128 0x6
 1333 0744 9D040000 		.4byte	.LASF97
 1334 0748 0C       		.byte	0xc
 1335 0749 4D       		.byte	0x4d
 1336 074a F6000000 		.4byte	0xf6
 1337 074e 10       		.byte	0x10
 1338 074f 00       		.byte	0
 1339 0750 03       		.uleb128 0x3
 1340 0751 93000000 		.4byte	.LASF98
 1341 0755 0C       		.byte	0xc
 1342 0756 4E       		.byte	0x4e
 1343 0757 0D070000 		.4byte	0x70d
 1344 075b 14       		.uleb128 0x14
 1345 075c 38       		.byte	0x38
 1346 075d 0D       		.byte	0xd
 1347 075e 38       		.byte	0x38
 1348 075f 94070000 		.4byte	0x794
 1349 0763 06       		.uleb128 0x6
 1350 0764 70020000 		.4byte	.LASF99
 1351 0768 0D       		.byte	0xd
 1352 0769 39       		.byte	0x39
 1353 076a 4E010000 		.4byte	0x14e
 1354 076e 00       		.byte	0
 1355 076f 06       		.uleb128 0x6
 1356 0770 F4040000 		.4byte	.LASF100
 1357 0774 0D       		.byte	0xd
 1358 0775 3A       		.byte	0x3a
 1359 0776 4E010000 		.4byte	0x14e
 1360 077a 04       		.byte	0x4
 1361 077b 06       		.uleb128 0x6
 1362 077c 51070000 		.4byte	.LASF101
 1363 0780 0D       		.byte	0xd
 1364 0781 3B       		.byte	0x3b
ARM GAS  /tmp/ccQRI9r6.s 			page 25


 1365 0782 50070000 		.4byte	0x750
 1366 0786 08       		.byte	0x8
 1367 0787 06       		.uleb128 0x6
 1368 0788 F7020000 		.4byte	.LASF102
 1369 078c 0D       		.byte	0xd
 1370 078d 3D       		.byte	0x3d
 1371 078e 50070000 		.4byte	0x750
 1372 0792 20       		.byte	0x20
 1373 0793 00       		.byte	0
 1374 0794 03       		.uleb128 0x3
 1375 0795 AF050000 		.4byte	.LASF103
 1376 0799 0D       		.byte	0xd
 1377 079a 3F       		.byte	0x3f
 1378 079b 5B070000 		.4byte	0x75b
 1379 079f 15       		.uleb128 0x15
 1380 07a0 04       		.byte	0x4
 1381 07a1 07       		.byte	0x7
 1382 07a2 C6       		.byte	0xc6
 1383 07a3 01080000 		.4byte	0x801
 1384 07a7 16       		.uleb128 0x16
 1385 07a8 1F000000 		.4byte	.LASF104
 1386 07ac 07       		.byte	0x7
 1387 07ad CD       		.byte	0xcd
 1388 07ae 2D010000 		.4byte	0x12d
 1389 07b2 16       		.uleb128 0x16
 1390 07b3 CF000000 		.4byte	.LASF105
 1391 07b7 07       		.byte	0x7
 1392 07b8 D4       		.byte	0xd4
 1393 07b9 2D010000 		.4byte	0x12d
 1394 07bd 16       		.uleb128 0x16
 1395 07be 1D070000 		.4byte	.LASF106
 1396 07c2 07       		.byte	0x7
 1397 07c3 DB       		.byte	0xdb
 1398 07c4 37030000 		.4byte	0x337
 1399 07c8 16       		.uleb128 0x16
 1400 07c9 49020000 		.4byte	.LASF107
 1401 07cd 07       		.byte	0x7
 1402 07ce E2       		.byte	0xe2
 1403 07cf 01080000 		.4byte	0x801
 1404 07d3 16       		.uleb128 0x16
 1405 07d4 E3000000 		.4byte	.LASF108
 1406 07d8 07       		.byte	0x7
 1407 07d9 E7       		.byte	0xe7
 1408 07da 2D010000 		.4byte	0x12d
 1409 07de 16       		.uleb128 0x16
 1410 07df 29020000 		.4byte	.LASF109
 1411 07e3 07       		.byte	0x7
 1412 07e4 F0       		.byte	0xf0
 1413 07e5 2C080000 		.4byte	0x82c
 1414 07e9 16       		.uleb128 0x16
 1415 07ea 63060000 		.4byte	.LASF110
 1416 07ee 07       		.byte	0x7
 1417 07ef F9       		.byte	0xf9
 1418 07f0 63080000 		.4byte	0x863
 1419 07f4 17       		.uleb128 0x17
 1420 07f5 95050000 		.4byte	.LASF111
 1421 07f9 07       		.byte	0x7
ARM GAS  /tmp/ccQRI9r6.s 			page 26


 1422 07fa 0101     		.2byte	0x101
 1423 07fc 38010000 		.4byte	0x138
 1424 0800 00       		.byte	0
 1425 0801 0A       		.uleb128 0xa
 1426 0802 04       		.byte	0x4
 1427 0803 4F020000 		.4byte	0x24f
 1428 0807 05       		.uleb128 0x5
 1429 0808 CF050000 		.4byte	.LASF112
 1430 080c 0C       		.byte	0xc
 1431 080d 0E       		.byte	0xe
 1432 080e 34       		.byte	0x34
 1433 080f 2C080000 		.4byte	0x82c
 1434 0813 06       		.uleb128 0x6
 1435 0814 76020000 		.4byte	.LASF32
 1436 0818 0E       		.byte	0xe
 1437 0819 35       		.byte	0x35
 1438 081a 84020000 		.4byte	0x284
 1439 081e 00       		.byte	0
 1440 081f 07       		.uleb128 0x7
 1441 0820 636E7400 		.ascii	"cnt\000"
 1442 0824 0E       		.byte	0xe
 1443 0825 37       		.byte	0x37
 1444 0826 43010000 		.4byte	0x143
 1445 082a 08       		.byte	0x8
 1446 082b 00       		.byte	0
 1447 082c 0A       		.uleb128 0xa
 1448 082d 04       		.byte	0x4
 1449 082e 07080000 		.4byte	0x807
 1450 0832 05       		.uleb128 0x5
 1451 0833 E9060000 		.4byte	.LASF113
 1452 0837 10       		.byte	0x10
 1453 0838 0F       		.byte	0xf
 1454 0839 39       		.byte	0x39
 1455 083a 63080000 		.4byte	0x863
 1456 083e 06       		.uleb128 0x6
 1457 083f 76020000 		.4byte	.LASF32
 1458 0843 0F       		.byte	0xf
 1459 0844 3A       		.byte	0x3a
 1460 0845 84020000 		.4byte	0x284
 1461 0849 00       		.byte	0
 1462 084a 06       		.uleb128 0x6
 1463 084b 2F060000 		.4byte	.LASF114
 1464 084f 0F       		.byte	0xf
 1465 0850 3C       		.byte	0x3c
 1466 0851 5A020000 		.4byte	0x25a
 1467 0855 08       		.byte	0x8
 1468 0856 06       		.uleb128 0x6
 1469 0857 19010000 		.4byte	.LASF52
 1470 085b 0F       		.byte	0xf
 1471 085c 3E       		.byte	0x3e
 1472 085d 97080000 		.4byte	0x897
 1473 0861 0C       		.byte	0xc
 1474 0862 00       		.byte	0
 1475 0863 0A       		.uleb128 0xa
 1476 0864 04       		.byte	0x4
 1477 0865 32080000 		.4byte	0x832
 1478 0869 0A       		.uleb128 0xa
ARM GAS  /tmp/ccQRI9r6.s 			page 27


 1479 086a 04       		.byte	0x4
 1480 086b 76080000 		.4byte	0x876
 1481 086f 04       		.uleb128 0x4
 1482 0870 01       		.byte	0x1
 1483 0871 08       		.byte	0x8
 1484 0872 53060000 		.4byte	.LASF115
 1485 0876 18       		.uleb128 0x18
 1486 0877 6F080000 		.4byte	0x86f
 1487 087b 0A       		.uleb128 0xa
 1488 087c 04       		.byte	0x4
 1489 087d 78050000 		.4byte	0x578
 1490 0881 0A       		.uleb128 0xa
 1491 0882 04       		.byte	0x4
 1492 0883 39030000 		.4byte	0x339
 1493 0887 0F       		.uleb128 0xf
 1494 0888 69080000 		.4byte	0x869
 1495 088c 03       		.uleb128 0x3
 1496 088d EF010000 		.4byte	.LASF116
 1497 0891 0F       		.byte	0xf
 1498 0892 34       		.byte	0x34
 1499 0893 32080000 		.4byte	0x832
 1500 0897 0A       		.uleb128 0xa
 1501 0898 04       		.byte	0x4
 1502 0899 8C080000 		.4byte	0x88c
 1503 089d 04       		.uleb128 0x4
 1504 089e 01       		.byte	0x1
 1505 089f 02       		.byte	0x2
 1506 08a0 FD040000 		.4byte	.LASF117
 1507 08a4 03       		.uleb128 0x3
 1508 08a5 0B020000 		.4byte	.LASF118
 1509 08a9 10       		.byte	0x10
 1510 08aa 94       		.byte	0x94
 1511 08ab 26030000 		.4byte	0x326
 1512 08af 14       		.uleb128 0x14
 1513 08b0 08       		.byte	0x8
 1514 08b1 10       		.byte	0x10
 1515 08b2 9A       		.byte	0x9a
 1516 08b3 CF080000 		.4byte	0x8cf
 1517 08b7 07       		.uleb128 0x7
 1518 08b8 636200   		.ascii	"cb\000"
 1519 08bb 10       		.byte	0x10
 1520 08bc A5       		.byte	0xa5
 1521 08bd A4080000 		.4byte	0x8a4
 1522 08c1 00       		.byte	0
 1523 08c2 07       		.uleb128 0x7
 1524 08c3 61726700 		.ascii	"arg\000"
 1525 08c7 10       		.byte	0x10
 1526 08c8 A9       		.byte	0xa9
 1527 08c9 37030000 		.4byte	0x337
 1528 08cd 04       		.byte	0x4
 1529 08ce 00       		.byte	0
 1530 08cf 03       		.uleb128 0x3
 1531 08d0 EC020000 		.4byte	.LASF119
 1532 08d4 10       		.byte	0x10
 1533 08d5 AB       		.byte	0xab
 1534 08d6 AF080000 		.4byte	0x8af
 1535 08da 14       		.uleb128 0x14
ARM GAS  /tmp/ccQRI9r6.s 			page 28


 1536 08db 04       		.byte	0x4
 1537 08dc 11       		.byte	0x11
 1538 08dd 5B       		.byte	0x5b
 1539 08de FB080000 		.4byte	0x8fb
 1540 08e2 07       		.uleb128 0x7
 1541 08e3 73657400 		.ascii	"set\000"
 1542 08e7 11       		.byte	0x11
 1543 08e8 5C       		.byte	0x5c
 1544 08e9 BF000000 		.4byte	0xbf
 1545 08ed 00       		.byte	0
 1546 08ee 06       		.uleb128 0x6
 1547 08ef 73030000 		.4byte	.LASF120
 1548 08f3 11       		.byte	0x11
 1549 08f4 5D       		.byte	0x5d
 1550 08f5 BF000000 		.4byte	0xbf
 1551 08f9 02       		.byte	0x2
 1552 08fa 00       		.byte	0
 1553 08fb 15       		.uleb128 0x15
 1554 08fc 04       		.byte	0x4
 1555 08fd 11       		.byte	0x11
 1556 08fe 59       		.byte	0x59
 1557 08ff 16090000 		.4byte	0x916
 1558 0903 19       		.uleb128 0x19
 1559 0904 5700     		.ascii	"W\000"
 1560 0906 11       		.byte	0x11
 1561 0907 5A       		.byte	0x5a
 1562 0908 D5000000 		.4byte	0xd5
 1563 090c 19       		.uleb128 0x19
 1564 090d 4800     		.ascii	"H\000"
 1565 090f 11       		.byte	0x11
 1566 0910 5E       		.byte	0x5e
 1567 0911 DA080000 		.4byte	0x8da
 1568 0915 00       		.byte	0
 1569 0916 14       		.uleb128 0x14
 1570 0917 28       		.byte	0x28
 1571 0918 11       		.byte	0x11
 1572 0919 51       		.byte	0x51
 1573 091a 97090000 		.4byte	0x997
 1574 091e 06       		.uleb128 0x6
 1575 091f A6000000 		.4byte	.LASF121
 1576 0923 11       		.byte	0x11
 1577 0924 53       		.byte	0x53
 1578 0925 89040000 		.4byte	0x489
 1579 0929 00       		.byte	0
 1580 092a 06       		.uleb128 0x6
 1581 092b 39000000 		.4byte	.LASF122
 1582 092f 11       		.byte	0x11
 1583 0930 54       		.byte	0x54
 1584 0931 89040000 		.4byte	0x489
 1585 0935 04       		.byte	0x4
 1586 0936 06       		.uleb128 0x6
 1587 0937 9D010000 		.4byte	.LASF123
 1588 093b 11       		.byte	0x11
 1589 093c 55       		.byte	0x55
 1590 093d 89040000 		.4byte	0x489
 1591 0941 08       		.byte	0x8
 1592 0942 06       		.uleb128 0x6
ARM GAS  /tmp/ccQRI9r6.s 			page 29


 1593 0943 63010000 		.4byte	.LASF124
 1594 0947 11       		.byte	0x11
 1595 0948 56       		.byte	0x56
 1596 0949 89040000 		.4byte	0x489
 1597 094d 0C       		.byte	0xc
 1598 094e 07       		.uleb128 0x7
 1599 094f 49445200 		.ascii	"IDR\000"
 1600 0953 11       		.byte	0x11
 1601 0954 57       		.byte	0x57
 1602 0955 89040000 		.4byte	0x489
 1603 0959 10       		.byte	0x10
 1604 095a 07       		.uleb128 0x7
 1605 095b 4F445200 		.ascii	"ODR\000"
 1606 095f 11       		.byte	0x11
 1607 0960 58       		.byte	0x58
 1608 0961 89040000 		.4byte	0x489
 1609 0965 14       		.byte	0x14
 1610 0966 06       		.uleb128 0x6
 1611 0967 49010000 		.4byte	.LASF125
 1612 096b 11       		.byte	0x11
 1613 096c 5F       		.byte	0x5f
 1614 096d 97090000 		.4byte	0x997
 1615 0971 18       		.byte	0x18
 1616 0972 06       		.uleb128 0x6
 1617 0973 DE020000 		.4byte	.LASF126
 1618 0977 11       		.byte	0x11
 1619 0978 60       		.byte	0x60
 1620 0979 89040000 		.4byte	0x489
 1621 097d 1C       		.byte	0x1c
 1622 097e 06       		.uleb128 0x6
 1623 097f A8040000 		.4byte	.LASF127
 1624 0983 11       		.byte	0x11
 1625 0984 61       		.byte	0x61
 1626 0985 89040000 		.4byte	0x489
 1627 0989 20       		.byte	0x20
 1628 098a 06       		.uleb128 0x6
 1629 098b 4F020000 		.4byte	.LASF128
 1630 098f 11       		.byte	0x11
 1631 0990 62       		.byte	0x62
 1632 0991 89040000 		.4byte	0x489
 1633 0995 24       		.byte	0x24
 1634 0996 00       		.byte	0
 1635 0997 0F       		.uleb128 0xf
 1636 0998 FB080000 		.4byte	0x8fb
 1637 099c 03       		.uleb128 0x3
 1638 099d DD010000 		.4byte	.LASF129
 1639 09a1 11       		.byte	0x11
 1640 09a2 63       		.byte	0x63
 1641 09a3 16090000 		.4byte	0x916
 1642 09a7 03       		.uleb128 0x3
 1643 09a8 6C000000 		.4byte	.LASF130
 1644 09ac 12       		.byte	0x12
 1645 09ad C2       		.byte	0xc2
 1646 09ae D5000000 		.4byte	0xd5
 1647 09b2 03       		.uleb128 0x3
 1648 09b3 48070000 		.4byte	.LASF131
 1649 09b7 12       		.byte	0x12
ARM GAS  /tmp/ccQRI9r6.s 			page 30


 1650 09b8 C7       		.byte	0xc7
 1651 09b9 D5000000 		.4byte	0xd5
 1652 09bd 03       		.uleb128 0x3
 1653 09be 54020000 		.4byte	.LASF132
 1654 09c2 12       		.byte	0x12
 1655 09c3 D1       		.byte	0xd1
 1656 09c4 D5000000 		.4byte	0xd5
 1657 09c8 03       		.uleb128 0x3
 1658 09c9 A7060000 		.4byte	.LASF133
 1659 09cd 12       		.byte	0x12
 1660 09ce D9       		.byte	0xd9
 1661 09cf D3090000 		.4byte	0x9d3
 1662 09d3 0A       		.uleb128 0xa
 1663 09d4 04       		.byte	0x4
 1664 09d5 9C090000 		.4byte	0x99c
 1665 09d9 03       		.uleb128 0x3
 1666 09da 19050000 		.4byte	.LASF134
 1667 09de 12       		.byte	0x12
 1668 09df DE       		.byte	0xde
 1669 09e0 D5000000 		.4byte	0xd5
 1670 09e4 1A       		.uleb128 0x1a
 1671 09e5 F2060000 		.4byte	.LASF135
 1672 09e9 01       		.byte	0x1
 1673 09ea 41       		.byte	0x41
 1674 09eb 00000000 		.4byte	.LFB323
 1675 09ef 18000000 		.4byte	.LFE323-.LFB323
 1676 09f3 01       		.uleb128 0x1
 1677 09f4 9C       		.byte	0x9c
 1678 09f5 070A0000 		.4byte	0xa07
 1679 09f9 1B       		.uleb128 0x1b
 1680 09fa 6900     		.ascii	"i\000"
 1681 09fc 01       		.byte	0x1
 1682 09fd 44       		.byte	0x44
 1683 09fe 37000000 		.4byte	0x37
 1684 0a02 00000000 		.4byte	.LLST0
 1685 0a06 00       		.byte	0
 1686 0a07 1A       		.uleb128 0x1a
 1687 0a08 B2060000 		.4byte	.LASF136
 1688 0a0c 01       		.byte	0x1
 1689 0a0d 59       		.byte	0x59
 1690 0a0e 00000000 		.4byte	.LFB324
 1691 0a12 E2000000 		.4byte	.LFE324-.LFB324
 1692 0a16 01       		.uleb128 0x1
 1693 0a17 9C       		.byte	0x9c
 1694 0a18 DB0A0000 		.4byte	0xadb
 1695 0a1c 1C       		.uleb128 0x1c
 1696 0a1d EA010000 		.4byte	.LASF137
 1697 0a21 01       		.byte	0x1
 1698 0a22 59       		.byte	0x59
 1699 0a23 C8090000 		.4byte	0x9c8
 1700 0a27 01       		.uleb128 0x1
 1701 0a28 50       		.byte	0x50
 1702 0a29 1D       		.uleb128 0x1d
 1703 0a2a B0010000 		.4byte	.LASF138
 1704 0a2e 01       		.byte	0x1
 1705 0a2f 5A       		.byte	0x5a
 1706 0a30 A7090000 		.4byte	0x9a7
ARM GAS  /tmp/ccQRI9r6.s 			page 31


 1707 0a34 14000000 		.4byte	.LLST1
 1708 0a38 1D       		.uleb128 0x1d
 1709 0a39 5E060000 		.4byte	.LASF139
 1710 0a3d 01       		.byte	0x1
 1711 0a3e 5B       		.byte	0x5b
 1712 0a3f B2090000 		.4byte	0x9b2
 1713 0a43 41000000 		.4byte	.LLST2
 1714 0a47 1E       		.uleb128 0x1e
 1715 0a48 54010000 		.4byte	.LASF140
 1716 0a4c 01       		.byte	0x1
 1717 0a4d 5D       		.byte	0x5d
 1718 0a4e D5000000 		.4byte	0xd5
 1719 0a52 62000000 		.4byte	.LLST3
 1720 0a56 1F       		.uleb128 0x1f
 1721 0a57 7C020000 		.4byte	.LASF141
 1722 0a5b 01       		.byte	0x1
 1723 0a5c 5E       		.byte	0x5e
 1724 0a5d D5000000 		.4byte	0xd5
 1725 0a61 01       		.uleb128 0x1
 1726 0a62 5C       		.byte	0x5c
 1727 0a63 1F       		.uleb128 0x1f
 1728 0a64 68020000 		.4byte	.LASF142
 1729 0a68 01       		.byte	0x1
 1730 0a69 5F       		.byte	0x5f
 1731 0a6a D5000000 		.4byte	0xd5
 1732 0a6e 01       		.uleb128 0x1
 1733 0a6f 5E       		.byte	0x5e
 1734 0a70 1F       		.uleb128 0x1f
 1735 0a71 C9000000 		.4byte	.LASF143
 1736 0a75 01       		.byte	0x1
 1737 0a76 60       		.byte	0x60
 1738 0a77 D5000000 		.4byte	0xd5
 1739 0a7b 01       		.uleb128 0x1
 1740 0a7c 57       		.byte	0x57
 1741 0a7d 1E       		.uleb128 0x1e
 1742 0a7e 4E060000 		.4byte	.LASF144
 1743 0a82 01       		.byte	0x1
 1744 0a83 61       		.byte	0x61
 1745 0a84 D5000000 		.4byte	0xd5
 1746 0a88 80000000 		.4byte	.LLST4
 1747 0a8c 1B       		.uleb128 0x1b
 1748 0a8d 62697400 		.ascii	"bit\000"
 1749 0a91 01       		.byte	0x1
 1750 0a92 62       		.byte	0x62
 1751 0a93 D5000000 		.4byte	0xd5
 1752 0a97 9F000000 		.4byte	.LLST5
 1753 0a9b 20       		.uleb128 0x20
 1754 0a9c 00000000 		.4byte	.Ldebug_ranges0+0
 1755 0aa0 1E       		.uleb128 0x1e
 1756 0aa1 94010000 		.4byte	.LASF145
 1757 0aa5 01       		.byte	0x1
 1758 0aa6 65       		.byte	0x65
 1759 0aa7 D5000000 		.4byte	0xd5
 1760 0aab BE000000 		.4byte	.LLST6
 1761 0aaf 1B       		.uleb128 0x1b
 1762 0ab0 6D3100   		.ascii	"m1\000"
 1763 0ab3 01       		.byte	0x1
ARM GAS  /tmp/ccQRI9r6.s 			page 32


 1764 0ab4 65       		.byte	0x65
 1765 0ab5 D5000000 		.4byte	0xd5
 1766 0ab9 E6000000 		.4byte	.LLST7
 1767 0abd 1B       		.uleb128 0x1b
 1768 0abe 6D3200   		.ascii	"m2\000"
 1769 0ac1 01       		.byte	0x1
 1770 0ac2 65       		.byte	0x65
 1771 0ac3 D5000000 		.4byte	0xd5
 1772 0ac7 FD000000 		.4byte	.LLST8
 1773 0acb 1B       		.uleb128 0x1b
 1774 0acc 6D3400   		.ascii	"m4\000"
 1775 0acf 01       		.byte	0x1
 1776 0ad0 65       		.byte	0x65
 1777 0ad1 D5000000 		.4byte	0xd5
 1778 0ad5 16010000 		.4byte	.LLST9
 1779 0ad9 00       		.byte	0
 1780 0ada 00       		.byte	0
 1781 0adb 1A       		.uleb128 0x1a
 1782 0adc 7D050000 		.4byte	.LASF146
 1783 0ae0 01       		.byte	0x1
 1784 0ae1 97       		.byte	0x97
 1785 0ae2 00000000 		.4byte	.LFB325
 1786 0ae6 64000000 		.4byte	.LFE325-.LFB325
 1787 0aea 01       		.uleb128 0x1
 1788 0aeb 9C       		.byte	0x9c
 1789 0aec 720B0000 		.4byte	0xb72
 1790 0af0 1D       		.uleb128 0x1d
 1791 0af1 EA010000 		.4byte	.LASF137
 1792 0af5 01       		.byte	0x1
 1793 0af6 97       		.byte	0x97
 1794 0af7 C8090000 		.4byte	0x9c8
 1795 0afb 4A010000 		.4byte	.LLST10
 1796 0aff 21       		.uleb128 0x21
 1797 0b00 70616400 		.ascii	"pad\000"
 1798 0b04 01       		.byte	0x1
 1799 0b05 98       		.byte	0x98
 1800 0b06 D9090000 		.4byte	0x9d9
 1801 0b0a 6B010000 		.4byte	.LLST11
 1802 0b0e 1D       		.uleb128 0x1d
 1803 0b0f 5E060000 		.4byte	.LASF139
 1804 0b13 01       		.byte	0x1
 1805 0b14 99       		.byte	0x99
 1806 0b15 BD090000 		.4byte	0x9bd
 1807 0b19 8C010000 		.4byte	.LLST12
 1808 0b1d 1E       		.uleb128 0x1e
 1809 0b1e 27010000 		.4byte	.LASF147
 1810 0b22 01       		.byte	0x1
 1811 0b23 9B       		.byte	0x9b
 1812 0b24 D5000000 		.4byte	0xd5
 1813 0b28 AD010000 		.4byte	.LLST13
 1814 0b2c 1E       		.uleb128 0x1e
 1815 0b2d 85030000 		.4byte	.LASF148
 1816 0b31 01       		.byte	0x1
 1817 0b32 9B       		.byte	0x9b
 1818 0b33 D5000000 		.4byte	0xd5
 1819 0b37 CE010000 		.4byte	.LLST14
 1820 0b3b 1E       		.uleb128 0x1e
ARM GAS  /tmp/ccQRI9r6.s 			page 33


 1821 0b3c 9C020000 		.4byte	.LASF149
 1822 0b40 01       		.byte	0x1
 1823 0b41 9B       		.byte	0x9b
 1824 0b42 D5000000 		.4byte	0xd5
 1825 0b46 F5010000 		.4byte	.LLST15
 1826 0b4a 1E       		.uleb128 0x1e
 1827 0b4b 6B070000 		.4byte	.LASF150
 1828 0b4f 01       		.byte	0x1
 1829 0b50 9B       		.byte	0x9b
 1830 0b51 D5000000 		.4byte	0xd5
 1831 0b55 1A020000 		.4byte	.LLST16
 1832 0b59 1E       		.uleb128 0x1e
 1833 0b5a 5C070000 		.4byte	.LASF151
 1834 0b5e 01       		.byte	0x1
 1835 0b5f 9B       		.byte	0x9b
 1836 0b60 D5000000 		.4byte	0xd5
 1837 0b64 47020000 		.4byte	.LLST17
 1838 0b68 22       		.uleb128 0x22
 1839 0b69 A6050000 		.4byte	.LASF155
 1840 0b6d 820B0000 		.4byte	0xb82
 1841 0b71 00       		.byte	0
 1842 0b72 10       		.uleb128 0x10
 1843 0b73 76080000 		.4byte	0x876
 1844 0b77 820B0000 		.4byte	0xb82
 1845 0b7b 11       		.uleb128 0x11
 1846 0b7c 82040000 		.4byte	0x482
 1847 0b80 17       		.byte	0x17
 1848 0b81 00       		.byte	0
 1849 0b82 18       		.uleb128 0x18
 1850 0b83 720B0000 		.4byte	0xb72
 1851 0b87 1A       		.uleb128 0x1a
 1852 0b88 30020000 		.4byte	.LASF152
 1853 0b8c 01       		.byte	0x1
 1854 0b8d DE       		.byte	0xde
 1855 0b8e 00000000 		.4byte	.LFB326
 1856 0b92 54000000 		.4byte	.LFE326-.LFB326
 1857 0b96 01       		.uleb128 0x1
 1858 0b97 9C       		.byte	0x9c
 1859 0b98 2F0C0000 		.4byte	0xc2f
 1860 0b9c 1D       		.uleb128 0x1d
 1861 0b9d EA010000 		.4byte	.LASF137
 1862 0ba1 01       		.byte	0x1
 1863 0ba2 DE       		.byte	0xde
 1864 0ba3 C8090000 		.4byte	0x9c8
 1865 0ba7 7C020000 		.4byte	.LLST18
 1866 0bab 23       		.uleb128 0x23
 1867 0bac 70616400 		.ascii	"pad\000"
 1868 0bb0 01       		.byte	0x1
 1869 0bb1 DE       		.byte	0xde
 1870 0bb2 D9090000 		.4byte	0x9d9
 1871 0bb6 01       		.uleb128 0x1
 1872 0bb7 51       		.byte	0x51
 1873 0bb8 1F       		.uleb128 0x1f
 1874 0bb9 27010000 		.4byte	.LASF147
 1875 0bbd 01       		.byte	0x1
 1876 0bbe DF       		.byte	0xdf
 1877 0bbf D5000000 		.4byte	0xd5
ARM GAS  /tmp/ccQRI9r6.s 			page 34


 1878 0bc3 01       		.uleb128 0x1
 1879 0bc4 50       		.byte	0x50
 1880 0bc5 1E       		.uleb128 0x1e
 1881 0bc6 13010000 		.4byte	.LASF153
 1882 0bca 01       		.byte	0x1
 1883 0bcb DF       		.byte	0xdf
 1884 0bcc D5000000 		.4byte	0xd5
 1885 0bd0 9D020000 		.4byte	.LLST19
 1886 0bd4 1E       		.uleb128 0x1e
 1887 0bd5 C3000000 		.4byte	.LASF154
 1888 0bd9 01       		.byte	0x1
 1889 0bda DF       		.byte	0xdf
 1890 0bdb D5000000 		.4byte	0xd5
 1891 0bdf B0020000 		.4byte	.LLST20
 1892 0be3 22       		.uleb128 0x22
 1893 0be4 A6050000 		.4byte	.LASF155
 1894 0be8 3F0C0000 		.4byte	0xc3f
 1895 0bec 24       		.uleb128 0x24
 1896 0bed 14000000 		.4byte	.LBB4
 1897 0bf1 40000000 		.4byte	.LBE4-.LBB4
 1898 0bf5 1E       		.uleb128 0x1e
 1899 0bf6 85030000 		.4byte	.LASF148
 1900 0bfa 01       		.byte	0x1
 1901 0bfb EE       		.byte	0xee
 1902 0bfc D5000000 		.4byte	0xd5
 1903 0c00 C3020000 		.4byte	.LLST21
 1904 0c04 1E       		.uleb128 0x1e
 1905 0c05 9C020000 		.4byte	.LASF149
 1906 0c09 01       		.byte	0x1
 1907 0c0a EE       		.byte	0xee
 1908 0c0b D5000000 		.4byte	0xd5
 1909 0c0f F2020000 		.4byte	.LLST22
 1910 0c13 25       		.uleb128 0x25
 1911 0c14 22020000 		.4byte	.LASF161
 1912 0c18 01       		.byte	0x1
 1913 0c19 EE       		.byte	0xee
 1914 0c1a D5000000 		.4byte	0xd5
 1915 0c1e 1E       		.uleb128 0x1e
 1916 0c1f 5C070000 		.4byte	.LASF151
 1917 0c23 01       		.byte	0x1
 1918 0c24 EE       		.byte	0xee
 1919 0c25 D5000000 		.4byte	0xd5
 1920 0c29 0B030000 		.4byte	.LLST23
 1921 0c2d 00       		.byte	0
 1922 0c2e 00       		.byte	0
 1923 0c2f 10       		.uleb128 0x10
 1924 0c30 76080000 		.4byte	0x876
 1925 0c34 3F0C0000 		.4byte	0xc3f
 1926 0c38 11       		.uleb128 0x11
 1927 0c39 82040000 		.4byte	0x482
 1928 0c3d 18       		.byte	0x18
 1929 0c3e 00       		.byte	0
 1930 0c3f 18       		.uleb128 0x18
 1931 0c40 2F0C0000 		.4byte	0xc2f
 1932 0c44 26       		.uleb128 0x26
 1933 0c45 01010000 		.4byte	.LASF156
 1934 0c49 13       		.byte	0x13
ARM GAS  /tmp/ccQRI9r6.s 			page 35


 1935 0c4a 0408     		.2byte	0x804
 1936 0c4c 500C0000 		.4byte	0xc50
 1937 0c50 0F       		.uleb128 0xf
 1938 0c51 CA000000 		.4byte	0xca
 1939 0c55 27       		.uleb128 0x27
 1940 0c56 636800   		.ascii	"ch\000"
 1941 0c59 07       		.byte	0x7
 1942 0c5a C701     		.2byte	0x1c7
 1943 0c5c 06040000 		.4byte	0x406
 1944 0c60 10       		.uleb128 0x10
 1945 0c61 CF080000 		.4byte	0x8cf
 1946 0c65 700C0000 		.4byte	0xc70
 1947 0c69 11       		.uleb128 0x11
 1948 0c6a 82040000 		.4byte	0x482
 1949 0c6e 0F       		.byte	0xf
 1950 0c6f 00       		.byte	0
 1951 0c70 28       		.uleb128 0x28
 1952 0c71 B1020000 		.4byte	.LASF157
 1953 0c75 01       		.byte	0x1
 1954 0c76 29       		.byte	0x29
 1955 0c77 600C0000 		.4byte	0xc60
 1956 0c7b 05       		.uleb128 0x5
 1957 0c7c 03       		.byte	0x3
 1958 0c7d 00000000 		.4byte	_pal_events
 1959 0c81 00       		.byte	0
 1960              		.section	.debug_abbrev,"",%progbits
 1961              	.Ldebug_abbrev0:
 1962 0000 01       		.uleb128 0x1
 1963 0001 11       		.uleb128 0x11
 1964 0002 01       		.byte	0x1
 1965 0003 25       		.uleb128 0x25
 1966 0004 0E       		.uleb128 0xe
 1967 0005 13       		.uleb128 0x13
 1968 0006 0B       		.uleb128 0xb
 1969 0007 03       		.uleb128 0x3
 1970 0008 0E       		.uleb128 0xe
 1971 0009 1B       		.uleb128 0x1b
 1972 000a 0E       		.uleb128 0xe
 1973 000b 55       		.uleb128 0x55
 1974 000c 17       		.uleb128 0x17
 1975 000d 11       		.uleb128 0x11
 1976 000e 01       		.uleb128 0x1
 1977 000f 10       		.uleb128 0x10
 1978 0010 17       		.uleb128 0x17
 1979 0011 00       		.byte	0
 1980 0012 00       		.byte	0
 1981 0013 02       		.uleb128 0x2
 1982 0014 24       		.uleb128 0x24
 1983 0015 00       		.byte	0
 1984 0016 0B       		.uleb128 0xb
 1985 0017 0B       		.uleb128 0xb
 1986 0018 3E       		.uleb128 0x3e
 1987 0019 0B       		.uleb128 0xb
 1988 001a 03       		.uleb128 0x3
 1989 001b 08       		.uleb128 0x8
 1990 001c 00       		.byte	0
 1991 001d 00       		.byte	0
ARM GAS  /tmp/ccQRI9r6.s 			page 36


 1992 001e 03       		.uleb128 0x3
 1993 001f 16       		.uleb128 0x16
 1994 0020 00       		.byte	0
 1995 0021 03       		.uleb128 0x3
 1996 0022 0E       		.uleb128 0xe
 1997 0023 3A       		.uleb128 0x3a
 1998 0024 0B       		.uleb128 0xb
 1999 0025 3B       		.uleb128 0x3b
 2000 0026 0B       		.uleb128 0xb
 2001 0027 49       		.uleb128 0x49
 2002 0028 13       		.uleb128 0x13
 2003 0029 00       		.byte	0
 2004 002a 00       		.byte	0
 2005 002b 04       		.uleb128 0x4
 2006 002c 24       		.uleb128 0x24
 2007 002d 00       		.byte	0
 2008 002e 0B       		.uleb128 0xb
 2009 002f 0B       		.uleb128 0xb
 2010 0030 3E       		.uleb128 0x3e
 2011 0031 0B       		.uleb128 0xb
 2012 0032 03       		.uleb128 0x3
 2013 0033 0E       		.uleb128 0xe
 2014 0034 00       		.byte	0
 2015 0035 00       		.byte	0
 2016 0036 05       		.uleb128 0x5
 2017 0037 13       		.uleb128 0x13
 2018 0038 01       		.byte	0x1
 2019 0039 03       		.uleb128 0x3
 2020 003a 0E       		.uleb128 0xe
 2021 003b 0B       		.uleb128 0xb
 2022 003c 0B       		.uleb128 0xb
 2023 003d 3A       		.uleb128 0x3a
 2024 003e 0B       		.uleb128 0xb
 2025 003f 3B       		.uleb128 0x3b
 2026 0040 0B       		.uleb128 0xb
 2027 0041 01       		.uleb128 0x1
 2028 0042 13       		.uleb128 0x13
 2029 0043 00       		.byte	0
 2030 0044 00       		.byte	0
 2031 0045 06       		.uleb128 0x6
 2032 0046 0D       		.uleb128 0xd
 2033 0047 00       		.byte	0
 2034 0048 03       		.uleb128 0x3
 2035 0049 0E       		.uleb128 0xe
 2036 004a 3A       		.uleb128 0x3a
 2037 004b 0B       		.uleb128 0xb
 2038 004c 3B       		.uleb128 0x3b
 2039 004d 0B       		.uleb128 0xb
 2040 004e 49       		.uleb128 0x49
 2041 004f 13       		.uleb128 0x13
 2042 0050 38       		.uleb128 0x38
 2043 0051 0B       		.uleb128 0xb
 2044 0052 00       		.byte	0
 2045 0053 00       		.byte	0
 2046 0054 07       		.uleb128 0x7
 2047 0055 0D       		.uleb128 0xd
 2048 0056 00       		.byte	0
ARM GAS  /tmp/ccQRI9r6.s 			page 37


 2049 0057 03       		.uleb128 0x3
 2050 0058 08       		.uleb128 0x8
 2051 0059 3A       		.uleb128 0x3a
 2052 005a 0B       		.uleb128 0xb
 2053 005b 3B       		.uleb128 0x3b
 2054 005c 0B       		.uleb128 0xb
 2055 005d 49       		.uleb128 0x49
 2056 005e 13       		.uleb128 0x13
 2057 005f 38       		.uleb128 0x38
 2058 0060 0B       		.uleb128 0xb
 2059 0061 00       		.byte	0
 2060 0062 00       		.byte	0
 2061 0063 08       		.uleb128 0x8
 2062 0064 0D       		.uleb128 0xd
 2063 0065 00       		.byte	0
 2064 0066 03       		.uleb128 0x3
 2065 0067 08       		.uleb128 0x8
 2066 0068 3A       		.uleb128 0x3a
 2067 0069 0B       		.uleb128 0xb
 2068 006a 3B       		.uleb128 0x3b
 2069 006b 05       		.uleb128 0x5
 2070 006c 49       		.uleb128 0x49
 2071 006d 13       		.uleb128 0x13
 2072 006e 38       		.uleb128 0x38
 2073 006f 0B       		.uleb128 0xb
 2074 0070 00       		.byte	0
 2075 0071 00       		.byte	0
 2076 0072 09       		.uleb128 0x9
 2077 0073 0D       		.uleb128 0xd
 2078 0074 00       		.byte	0
 2079 0075 03       		.uleb128 0x3
 2080 0076 0E       		.uleb128 0xe
 2081 0077 3A       		.uleb128 0x3a
 2082 0078 0B       		.uleb128 0xb
 2083 0079 3B       		.uleb128 0x3b
 2084 007a 05       		.uleb128 0x5
 2085 007b 49       		.uleb128 0x49
 2086 007c 13       		.uleb128 0x13
 2087 007d 38       		.uleb128 0x38
 2088 007e 0B       		.uleb128 0xb
 2089 007f 00       		.byte	0
 2090 0080 00       		.byte	0
 2091 0081 0A       		.uleb128 0xa
 2092 0082 0F       		.uleb128 0xf
 2093 0083 00       		.byte	0
 2094 0084 0B       		.uleb128 0xb
 2095 0085 0B       		.uleb128 0xb
 2096 0086 49       		.uleb128 0x49
 2097 0087 13       		.uleb128 0x13
 2098 0088 00       		.byte	0
 2099 0089 00       		.byte	0
 2100 008a 0B       		.uleb128 0xb
 2101 008b 13       		.uleb128 0x13
 2102 008c 01       		.byte	0x1
 2103 008d 03       		.uleb128 0x3
 2104 008e 0E       		.uleb128 0xe
 2105 008f 0B       		.uleb128 0xb
ARM GAS  /tmp/ccQRI9r6.s 			page 38


 2106 0090 0B       		.uleb128 0xb
 2107 0091 3A       		.uleb128 0x3a
 2108 0092 0B       		.uleb128 0xb
 2109 0093 3B       		.uleb128 0x3b
 2110 0094 05       		.uleb128 0x5
 2111 0095 01       		.uleb128 0x1
 2112 0096 13       		.uleb128 0x13
 2113 0097 00       		.byte	0
 2114 0098 00       		.byte	0
 2115 0099 0C       		.uleb128 0xc
 2116 009a 15       		.uleb128 0x15
 2117 009b 01       		.byte	0x1
 2118 009c 27       		.uleb128 0x27
 2119 009d 19       		.uleb128 0x19
 2120 009e 01       		.uleb128 0x1
 2121 009f 13       		.uleb128 0x13
 2122 00a0 00       		.byte	0
 2123 00a1 00       		.byte	0
 2124 00a2 0D       		.uleb128 0xd
 2125 00a3 05       		.uleb128 0x5
 2126 00a4 00       		.byte	0
 2127 00a5 49       		.uleb128 0x49
 2128 00a6 13       		.uleb128 0x13
 2129 00a7 00       		.byte	0
 2130 00a8 00       		.byte	0
 2131 00a9 0E       		.uleb128 0xe
 2132 00aa 0F       		.uleb128 0xf
 2133 00ab 00       		.byte	0
 2134 00ac 0B       		.uleb128 0xb
 2135 00ad 0B       		.uleb128 0xb
 2136 00ae 00       		.byte	0
 2137 00af 00       		.byte	0
 2138 00b0 0F       		.uleb128 0xf
 2139 00b1 35       		.uleb128 0x35
 2140 00b2 00       		.byte	0
 2141 00b3 49       		.uleb128 0x49
 2142 00b4 13       		.uleb128 0x13
 2143 00b5 00       		.byte	0
 2144 00b6 00       		.byte	0
 2145 00b7 10       		.uleb128 0x10
 2146 00b8 01       		.uleb128 0x1
 2147 00b9 01       		.byte	0x1
 2148 00ba 49       		.uleb128 0x49
 2149 00bb 13       		.uleb128 0x13
 2150 00bc 01       		.uleb128 0x1
 2151 00bd 13       		.uleb128 0x13
 2152 00be 00       		.byte	0
 2153 00bf 00       		.byte	0
 2154 00c0 11       		.uleb128 0x11
 2155 00c1 21       		.uleb128 0x21
 2156 00c2 00       		.byte	0
 2157 00c3 49       		.uleb128 0x49
 2158 00c4 13       		.uleb128 0x13
 2159 00c5 2F       		.uleb128 0x2f
 2160 00c6 0B       		.uleb128 0xb
 2161 00c7 00       		.byte	0
 2162 00c8 00       		.byte	0
ARM GAS  /tmp/ccQRI9r6.s 			page 39


 2163 00c9 12       		.uleb128 0x12
 2164 00ca 13       		.uleb128 0x13
 2165 00cb 01       		.byte	0x1
 2166 00cc 0B       		.uleb128 0xb
 2167 00cd 0B       		.uleb128 0xb
 2168 00ce 3A       		.uleb128 0x3a
 2169 00cf 0B       		.uleb128 0xb
 2170 00d0 3B       		.uleb128 0x3b
 2171 00d1 05       		.uleb128 0x5
 2172 00d2 01       		.uleb128 0x1
 2173 00d3 13       		.uleb128 0x13
 2174 00d4 00       		.byte	0
 2175 00d5 00       		.byte	0
 2176 00d6 13       		.uleb128 0x13
 2177 00d7 16       		.uleb128 0x16
 2178 00d8 00       		.byte	0
 2179 00d9 03       		.uleb128 0x3
 2180 00da 0E       		.uleb128 0xe
 2181 00db 3A       		.uleb128 0x3a
 2182 00dc 0B       		.uleb128 0xb
 2183 00dd 3B       		.uleb128 0x3b
 2184 00de 05       		.uleb128 0x5
 2185 00df 49       		.uleb128 0x49
 2186 00e0 13       		.uleb128 0x13
 2187 00e1 00       		.byte	0
 2188 00e2 00       		.byte	0
 2189 00e3 14       		.uleb128 0x14
 2190 00e4 13       		.uleb128 0x13
 2191 00e5 01       		.byte	0x1
 2192 00e6 0B       		.uleb128 0xb
 2193 00e7 0B       		.uleb128 0xb
 2194 00e8 3A       		.uleb128 0x3a
 2195 00e9 0B       		.uleb128 0xb
 2196 00ea 3B       		.uleb128 0x3b
 2197 00eb 0B       		.uleb128 0xb
 2198 00ec 01       		.uleb128 0x1
 2199 00ed 13       		.uleb128 0x13
 2200 00ee 00       		.byte	0
 2201 00ef 00       		.byte	0
 2202 00f0 15       		.uleb128 0x15
 2203 00f1 17       		.uleb128 0x17
 2204 00f2 01       		.byte	0x1
 2205 00f3 0B       		.uleb128 0xb
 2206 00f4 0B       		.uleb128 0xb
 2207 00f5 3A       		.uleb128 0x3a
 2208 00f6 0B       		.uleb128 0xb
 2209 00f7 3B       		.uleb128 0x3b
 2210 00f8 0B       		.uleb128 0xb
 2211 00f9 01       		.uleb128 0x1
 2212 00fa 13       		.uleb128 0x13
 2213 00fb 00       		.byte	0
 2214 00fc 00       		.byte	0
 2215 00fd 16       		.uleb128 0x16
 2216 00fe 0D       		.uleb128 0xd
 2217 00ff 00       		.byte	0
 2218 0100 03       		.uleb128 0x3
 2219 0101 0E       		.uleb128 0xe
ARM GAS  /tmp/ccQRI9r6.s 			page 40


 2220 0102 3A       		.uleb128 0x3a
 2221 0103 0B       		.uleb128 0xb
 2222 0104 3B       		.uleb128 0x3b
 2223 0105 0B       		.uleb128 0xb
 2224 0106 49       		.uleb128 0x49
 2225 0107 13       		.uleb128 0x13
 2226 0108 00       		.byte	0
 2227 0109 00       		.byte	0
 2228 010a 17       		.uleb128 0x17
 2229 010b 0D       		.uleb128 0xd
 2230 010c 00       		.byte	0
 2231 010d 03       		.uleb128 0x3
 2232 010e 0E       		.uleb128 0xe
 2233 010f 3A       		.uleb128 0x3a
 2234 0110 0B       		.uleb128 0xb
 2235 0111 3B       		.uleb128 0x3b
 2236 0112 05       		.uleb128 0x5
 2237 0113 49       		.uleb128 0x49
 2238 0114 13       		.uleb128 0x13
 2239 0115 00       		.byte	0
 2240 0116 00       		.byte	0
 2241 0117 18       		.uleb128 0x18
 2242 0118 26       		.uleb128 0x26
 2243 0119 00       		.byte	0
 2244 011a 49       		.uleb128 0x49
 2245 011b 13       		.uleb128 0x13
 2246 011c 00       		.byte	0
 2247 011d 00       		.byte	0
 2248 011e 19       		.uleb128 0x19
 2249 011f 0D       		.uleb128 0xd
 2250 0120 00       		.byte	0
 2251 0121 03       		.uleb128 0x3
 2252 0122 08       		.uleb128 0x8
 2253 0123 3A       		.uleb128 0x3a
 2254 0124 0B       		.uleb128 0xb
 2255 0125 3B       		.uleb128 0x3b
 2256 0126 0B       		.uleb128 0xb
 2257 0127 49       		.uleb128 0x49
 2258 0128 13       		.uleb128 0x13
 2259 0129 00       		.byte	0
 2260 012a 00       		.byte	0
 2261 012b 1A       		.uleb128 0x1a
 2262 012c 2E       		.uleb128 0x2e
 2263 012d 01       		.byte	0x1
 2264 012e 3F       		.uleb128 0x3f
 2265 012f 19       		.uleb128 0x19
 2266 0130 03       		.uleb128 0x3
 2267 0131 0E       		.uleb128 0xe
 2268 0132 3A       		.uleb128 0x3a
 2269 0133 0B       		.uleb128 0xb
 2270 0134 3B       		.uleb128 0x3b
 2271 0135 0B       		.uleb128 0xb
 2272 0136 27       		.uleb128 0x27
 2273 0137 19       		.uleb128 0x19
 2274 0138 11       		.uleb128 0x11
 2275 0139 01       		.uleb128 0x1
 2276 013a 12       		.uleb128 0x12
ARM GAS  /tmp/ccQRI9r6.s 			page 41


 2277 013b 06       		.uleb128 0x6
 2278 013c 40       		.uleb128 0x40
 2279 013d 18       		.uleb128 0x18
 2280 013e 9742     		.uleb128 0x2117
 2281 0140 19       		.uleb128 0x19
 2282 0141 01       		.uleb128 0x1
 2283 0142 13       		.uleb128 0x13
 2284 0143 00       		.byte	0
 2285 0144 00       		.byte	0
 2286 0145 1B       		.uleb128 0x1b
 2287 0146 34       		.uleb128 0x34
 2288 0147 00       		.byte	0
 2289 0148 03       		.uleb128 0x3
 2290 0149 08       		.uleb128 0x8
 2291 014a 3A       		.uleb128 0x3a
 2292 014b 0B       		.uleb128 0xb
 2293 014c 3B       		.uleb128 0x3b
 2294 014d 0B       		.uleb128 0xb
 2295 014e 49       		.uleb128 0x49
 2296 014f 13       		.uleb128 0x13
 2297 0150 02       		.uleb128 0x2
 2298 0151 17       		.uleb128 0x17
 2299 0152 00       		.byte	0
 2300 0153 00       		.byte	0
 2301 0154 1C       		.uleb128 0x1c
 2302 0155 05       		.uleb128 0x5
 2303 0156 00       		.byte	0
 2304 0157 03       		.uleb128 0x3
 2305 0158 0E       		.uleb128 0xe
 2306 0159 3A       		.uleb128 0x3a
 2307 015a 0B       		.uleb128 0xb
 2308 015b 3B       		.uleb128 0x3b
 2309 015c 0B       		.uleb128 0xb
 2310 015d 49       		.uleb128 0x49
 2311 015e 13       		.uleb128 0x13
 2312 015f 02       		.uleb128 0x2
 2313 0160 18       		.uleb128 0x18
 2314 0161 00       		.byte	0
 2315 0162 00       		.byte	0
 2316 0163 1D       		.uleb128 0x1d
 2317 0164 05       		.uleb128 0x5
 2318 0165 00       		.byte	0
 2319 0166 03       		.uleb128 0x3
 2320 0167 0E       		.uleb128 0xe
 2321 0168 3A       		.uleb128 0x3a
 2322 0169 0B       		.uleb128 0xb
 2323 016a 3B       		.uleb128 0x3b
 2324 016b 0B       		.uleb128 0xb
 2325 016c 49       		.uleb128 0x49
 2326 016d 13       		.uleb128 0x13
 2327 016e 02       		.uleb128 0x2
 2328 016f 17       		.uleb128 0x17
 2329 0170 00       		.byte	0
 2330 0171 00       		.byte	0
 2331 0172 1E       		.uleb128 0x1e
 2332 0173 34       		.uleb128 0x34
 2333 0174 00       		.byte	0
ARM GAS  /tmp/ccQRI9r6.s 			page 42


 2334 0175 03       		.uleb128 0x3
 2335 0176 0E       		.uleb128 0xe
 2336 0177 3A       		.uleb128 0x3a
 2337 0178 0B       		.uleb128 0xb
 2338 0179 3B       		.uleb128 0x3b
 2339 017a 0B       		.uleb128 0xb
 2340 017b 49       		.uleb128 0x49
 2341 017c 13       		.uleb128 0x13
 2342 017d 02       		.uleb128 0x2
 2343 017e 17       		.uleb128 0x17
 2344 017f 00       		.byte	0
 2345 0180 00       		.byte	0
 2346 0181 1F       		.uleb128 0x1f
 2347 0182 34       		.uleb128 0x34
 2348 0183 00       		.byte	0
 2349 0184 03       		.uleb128 0x3
 2350 0185 0E       		.uleb128 0xe
 2351 0186 3A       		.uleb128 0x3a
 2352 0187 0B       		.uleb128 0xb
 2353 0188 3B       		.uleb128 0x3b
 2354 0189 0B       		.uleb128 0xb
 2355 018a 49       		.uleb128 0x49
 2356 018b 13       		.uleb128 0x13
 2357 018c 02       		.uleb128 0x2
 2358 018d 18       		.uleb128 0x18
 2359 018e 00       		.byte	0
 2360 018f 00       		.byte	0
 2361 0190 20       		.uleb128 0x20
 2362 0191 0B       		.uleb128 0xb
 2363 0192 01       		.byte	0x1
 2364 0193 55       		.uleb128 0x55
 2365 0194 17       		.uleb128 0x17
 2366 0195 00       		.byte	0
 2367 0196 00       		.byte	0
 2368 0197 21       		.uleb128 0x21
 2369 0198 05       		.uleb128 0x5
 2370 0199 00       		.byte	0
 2371 019a 03       		.uleb128 0x3
 2372 019b 08       		.uleb128 0x8
 2373 019c 3A       		.uleb128 0x3a
 2374 019d 0B       		.uleb128 0xb
 2375 019e 3B       		.uleb128 0x3b
 2376 019f 0B       		.uleb128 0xb
 2377 01a0 49       		.uleb128 0x49
 2378 01a1 13       		.uleb128 0x13
 2379 01a2 02       		.uleb128 0x2
 2380 01a3 17       		.uleb128 0x17
 2381 01a4 00       		.byte	0
 2382 01a5 00       		.byte	0
 2383 01a6 22       		.uleb128 0x22
 2384 01a7 34       		.uleb128 0x34
 2385 01a8 00       		.byte	0
 2386 01a9 03       		.uleb128 0x3
 2387 01aa 0E       		.uleb128 0xe
 2388 01ab 49       		.uleb128 0x49
 2389 01ac 13       		.uleb128 0x13
 2390 01ad 34       		.uleb128 0x34
ARM GAS  /tmp/ccQRI9r6.s 			page 43


 2391 01ae 19       		.uleb128 0x19
 2392 01af 00       		.byte	0
 2393 01b0 00       		.byte	0
 2394 01b1 23       		.uleb128 0x23
 2395 01b2 05       		.uleb128 0x5
 2396 01b3 00       		.byte	0
 2397 01b4 03       		.uleb128 0x3
 2398 01b5 08       		.uleb128 0x8
 2399 01b6 3A       		.uleb128 0x3a
 2400 01b7 0B       		.uleb128 0xb
 2401 01b8 3B       		.uleb128 0x3b
 2402 01b9 0B       		.uleb128 0xb
 2403 01ba 49       		.uleb128 0x49
 2404 01bb 13       		.uleb128 0x13
 2405 01bc 02       		.uleb128 0x2
 2406 01bd 18       		.uleb128 0x18
 2407 01be 00       		.byte	0
 2408 01bf 00       		.byte	0
 2409 01c0 24       		.uleb128 0x24
 2410 01c1 0B       		.uleb128 0xb
 2411 01c2 01       		.byte	0x1
 2412 01c3 11       		.uleb128 0x11
 2413 01c4 01       		.uleb128 0x1
 2414 01c5 12       		.uleb128 0x12
 2415 01c6 06       		.uleb128 0x6
 2416 01c7 00       		.byte	0
 2417 01c8 00       		.byte	0
 2418 01c9 25       		.uleb128 0x25
 2419 01ca 34       		.uleb128 0x34
 2420 01cb 00       		.byte	0
 2421 01cc 03       		.uleb128 0x3
 2422 01cd 0E       		.uleb128 0xe
 2423 01ce 3A       		.uleb128 0x3a
 2424 01cf 0B       		.uleb128 0xb
 2425 01d0 3B       		.uleb128 0x3b
 2426 01d1 0B       		.uleb128 0xb
 2427 01d2 49       		.uleb128 0x49
 2428 01d3 13       		.uleb128 0x13
 2429 01d4 00       		.byte	0
 2430 01d5 00       		.byte	0
 2431 01d6 26       		.uleb128 0x26
 2432 01d7 34       		.uleb128 0x34
 2433 01d8 00       		.byte	0
 2434 01d9 03       		.uleb128 0x3
 2435 01da 0E       		.uleb128 0xe
 2436 01db 3A       		.uleb128 0x3a
 2437 01dc 0B       		.uleb128 0xb
 2438 01dd 3B       		.uleb128 0x3b
 2439 01de 05       		.uleb128 0x5
 2440 01df 49       		.uleb128 0x49
 2441 01e0 13       		.uleb128 0x13
 2442 01e1 3F       		.uleb128 0x3f
 2443 01e2 19       		.uleb128 0x19
 2444 01e3 3C       		.uleb128 0x3c
 2445 01e4 19       		.uleb128 0x19
 2446 01e5 00       		.byte	0
 2447 01e6 00       		.byte	0
ARM GAS  /tmp/ccQRI9r6.s 			page 44


 2448 01e7 27       		.uleb128 0x27
 2449 01e8 34       		.uleb128 0x34
 2450 01e9 00       		.byte	0
 2451 01ea 03       		.uleb128 0x3
 2452 01eb 08       		.uleb128 0x8
 2453 01ec 3A       		.uleb128 0x3a
 2454 01ed 0B       		.uleb128 0xb
 2455 01ee 3B       		.uleb128 0x3b
 2456 01ef 05       		.uleb128 0x5
 2457 01f0 49       		.uleb128 0x49
 2458 01f1 13       		.uleb128 0x13
 2459 01f2 3F       		.uleb128 0x3f
 2460 01f3 19       		.uleb128 0x19
 2461 01f4 3C       		.uleb128 0x3c
 2462 01f5 19       		.uleb128 0x19
 2463 01f6 00       		.byte	0
 2464 01f7 00       		.byte	0
 2465 01f8 28       		.uleb128 0x28
 2466 01f9 34       		.uleb128 0x34
 2467 01fa 00       		.byte	0
 2468 01fb 03       		.uleb128 0x3
 2469 01fc 0E       		.uleb128 0xe
 2470 01fd 3A       		.uleb128 0x3a
 2471 01fe 0B       		.uleb128 0xb
 2472 01ff 3B       		.uleb128 0x3b
 2473 0200 0B       		.uleb128 0xb
 2474 0201 49       		.uleb128 0x49
 2475 0202 13       		.uleb128 0x13
 2476 0203 3F       		.uleb128 0x3f
 2477 0204 19       		.uleb128 0x19
 2478 0205 02       		.uleb128 0x2
 2479 0206 18       		.uleb128 0x18
 2480 0207 00       		.byte	0
 2481 0208 00       		.byte	0
 2482 0209 00       		.byte	0
 2483              		.section	.debug_loc,"",%progbits
 2484              	.Ldebug_loc0:
 2485              	.LLST0:
 2486 0000 00000000 		.4byte	.LVL0
 2487 0004 06000000 		.4byte	.LVL1
 2488 0008 0200     		.2byte	0x2
 2489 000a 30       		.byte	0x30
 2490 000b 9F       		.byte	0x9f
 2491 000c 00000000 		.4byte	0
 2492 0010 00000000 		.4byte	0
 2493              	.LLST1:
 2494 0014 00000000 		.4byte	.LVL2
 2495 0018 C8000000 		.4byte	.LVL14
 2496 001c 0100     		.2byte	0x1
 2497 001e 51       		.byte	0x51
 2498 001f C8000000 		.4byte	.LVL14
 2499 0023 CA000000 		.4byte	.LVL15
 2500 0027 0500     		.2byte	0x5
 2501 0029 71       		.byte	0x71
 2502 002a 00       		.sleb128 0
 2503 002b 31       		.byte	0x31
 2504 002c 25       		.byte	0x25
ARM GAS  /tmp/ccQRI9r6.s 			page 45


 2505 002d 9F       		.byte	0x9f
 2506 002e CA000000 		.4byte	.LVL15
 2507 0032 E2000000 		.4byte	.LFE324
 2508 0036 0100     		.2byte	0x1
 2509 0038 51       		.byte	0x51
 2510 0039 00000000 		.4byte	0
 2511 003d 00000000 		.4byte	0
 2512              	.LLST2:
 2513 0041 00000000 		.4byte	.LVL2
 2514 0045 26000000 		.4byte	.LVL8
 2515 0049 0100     		.2byte	0x1
 2516 004b 52       		.byte	0x52
 2517 004c 26000000 		.4byte	.LVL8
 2518 0050 E2000000 		.4byte	.LFE324
 2519 0054 0400     		.2byte	0x4
 2520 0056 F3       		.byte	0xf3
 2521 0057 01       		.uleb128 0x1
 2522 0058 52       		.byte	0x52
 2523 0059 9F       		.byte	0x9f
 2524 005a 00000000 		.4byte	0
 2525 005e 00000000 		.4byte	0
 2526              	.LLST3:
 2527 0062 0C000000 		.4byte	.LVL3
 2528 0066 26000000 		.4byte	.LVL8
 2529 006a 0100     		.2byte	0x1
 2530 006c 58       		.byte	0x58
 2531 006d 26000000 		.4byte	.LVL8
 2532 0071 E2000000 		.4byte	.LFE324
 2533 0075 0100     		.2byte	0x1
 2534 0077 56       		.byte	0x56
 2535 0078 00000000 		.4byte	0
 2536 007c 00000000 		.4byte	0
 2537              	.LLST4:
 2538 0080 1A000000 		.4byte	.LVL7
 2539 0084 26000000 		.4byte	.LVL8
 2540 0088 0100     		.2byte	0x1
 2541 008a 53       		.byte	0x53
 2542 008b 26000000 		.4byte	.LVL8
 2543 008f E2000000 		.4byte	.LFE324
 2544 0093 0200     		.2byte	0x2
 2545 0095 91       		.byte	0x91
 2546 0096 54       		.sleb128 -44
 2547 0097 00000000 		.4byte	0
 2548 009b 00000000 		.4byte	0
 2549              	.LLST5:
 2550 009f 1A000000 		.4byte	.LVL7
 2551 00a3 26000000 		.4byte	.LVL8
 2552 00a7 0200     		.2byte	0x2
 2553 00a9 30       		.byte	0x30
 2554 00aa 9F       		.byte	0x9f
 2555 00ab 26000000 		.4byte	.LVL8
 2556 00af E2000000 		.4byte	.LFE324
 2557 00b3 0100     		.2byte	0x1
 2558 00b5 54       		.byte	0x54
 2559 00b6 00000000 		.4byte	0
 2560 00ba 00000000 		.4byte	0
 2561              	.LLST6:
ARM GAS  /tmp/ccQRI9r6.s 			page 46


 2562 00be 36000000 		.4byte	.LVL9
 2563 00c2 C2000000 		.4byte	.LVL13
 2564 00c6 0100     		.2byte	0x1
 2565 00c8 55       		.byte	0x55
 2566 00c9 C2000000 		.4byte	.LVL13
 2567 00cd C8000000 		.4byte	.LVL14
 2568 00d1 0B00     		.2byte	0xb
 2569 00d3 91       		.byte	0x91
 2570 00d4 54       		.sleb128 -44
 2571 00d5 06       		.byte	0x6
 2572 00d6 74       		.byte	0x74
 2573 00d7 00       		.sleb128 0
 2574 00d8 37       		.byte	0x37
 2575 00d9 1A       		.byte	0x1a
 2576 00da 32       		.byte	0x32
 2577 00db 24       		.byte	0x24
 2578 00dc 24       		.byte	0x24
 2579 00dd 9F       		.byte	0x9f
 2580 00de 00000000 		.4byte	0
 2581 00e2 00000000 		.4byte	0
 2582              	.LLST7:
 2583 00e6 36000000 		.4byte	.LVL9
 2584 00ea C8000000 		.4byte	.LVL14
 2585 00ee 0500     		.2byte	0x5
 2586 00f0 31       		.byte	0x31
 2587 00f1 74       		.byte	0x74
 2588 00f2 00       		.sleb128 0
 2589 00f3 24       		.byte	0x24
 2590 00f4 9F       		.byte	0x9f
 2591 00f5 00000000 		.4byte	0
 2592 00f9 00000000 		.4byte	0
 2593              	.LLST8:
 2594 00fd 36000000 		.4byte	.LVL9
 2595 0101 C8000000 		.4byte	.LVL14
 2596 0105 0700     		.2byte	0x7
 2597 0107 33       		.byte	0x33
 2598 0108 74       		.byte	0x74
 2599 0109 00       		.sleb128 0
 2600 010a 31       		.byte	0x31
 2601 010b 24       		.byte	0x24
 2602 010c 24       		.byte	0x24
 2603 010d 9F       		.byte	0x9f
 2604 010e 00000000 		.4byte	0
 2605 0112 00000000 		.4byte	0
 2606              	.LLST9:
 2607 0116 3C000000 		.4byte	.LVL10
 2608 011a 7C000000 		.4byte	.LVL11
 2609 011e 0100     		.2byte	0x1
 2610 0120 53       		.byte	0x53
 2611 0121 7C000000 		.4byte	.LVL11
 2612 0125 8E000000 		.4byte	.LVL12
 2613 0129 0400     		.2byte	0x4
 2614 012b 73       		.byte	0x73
 2615 012c 00       		.sleb128 0
 2616 012d 20       		.byte	0x20
 2617 012e 9F       		.byte	0x9f
 2618 012f 8E000000 		.4byte	.LVL12
ARM GAS  /tmp/ccQRI9r6.s 			page 47


 2619 0133 C8000000 		.4byte	.LVL14
 2620 0137 0900     		.2byte	0x9
 2621 0139 3F       		.byte	0x3f
 2622 013a 74       		.byte	0x74
 2623 013b 00       		.sleb128 0
 2624 013c 37       		.byte	0x37
 2625 013d 1A       		.byte	0x1a
 2626 013e 32       		.byte	0x32
 2627 013f 24       		.byte	0x24
 2628 0140 24       		.byte	0x24
 2629 0141 9F       		.byte	0x9f
 2630 0142 00000000 		.4byte	0
 2631 0146 00000000 		.4byte	0
 2632              	.LLST10:
 2633 014a 00000000 		.4byte	.LVL21
 2634 014e 1E000000 		.4byte	.LVL25
 2635 0152 0100     		.2byte	0x1
 2636 0154 50       		.byte	0x50
 2637 0155 1E000000 		.4byte	.LVL25
 2638 0159 64000000 		.4byte	.LFE325
 2639 015d 0400     		.2byte	0x4
 2640 015f F3       		.byte	0xf3
 2641 0160 01       		.uleb128 0x1
 2642 0161 50       		.byte	0x50
 2643 0162 9F       		.byte	0x9f
 2644 0163 00000000 		.4byte	0
 2645 0167 00000000 		.4byte	0
 2646              	.LLST11:
 2647 016b 00000000 		.4byte	.LVL21
 2648 016f 0E000000 		.4byte	.LVL23
 2649 0173 0100     		.2byte	0x1
 2650 0175 51       		.byte	0x51
 2651 0176 0E000000 		.4byte	.LVL23
 2652 017a 64000000 		.4byte	.LFE325
 2653 017e 0400     		.2byte	0x4
 2654 0180 F3       		.byte	0xf3
 2655 0181 01       		.uleb128 0x1
 2656 0182 51       		.byte	0x51
 2657 0183 9F       		.byte	0x9f
 2658 0184 00000000 		.4byte	0
 2659 0188 00000000 		.4byte	0
 2660              	.LLST12:
 2661 018c 00000000 		.4byte	.LVL21
 2662 0190 4A000000 		.4byte	.LVL27
 2663 0194 0100     		.2byte	0x1
 2664 0196 52       		.byte	0x52
 2665 0197 4A000000 		.4byte	.LVL27
 2666 019b 64000000 		.4byte	.LFE325
 2667 019f 0400     		.2byte	0x4
 2668 01a1 F3       		.byte	0xf3
 2669 01a2 01       		.uleb128 0x1
 2670 01a3 52       		.byte	0x52
 2671 01a4 9F       		.byte	0x9f
 2672 01a5 00000000 		.4byte	0
 2673 01a9 00000000 		.4byte	0
 2674              	.LLST13:
 2675 01ad 06000000 		.4byte	.LVL22
ARM GAS  /tmp/ccQRI9r6.s 			page 48


 2676 01b1 56000000 		.4byte	.LVL28
 2677 01b5 0100     		.2byte	0x1
 2678 01b7 54       		.byte	0x54
 2679 01b8 56000000 		.4byte	.LVL28
 2680 01bc 64000000 		.4byte	.LFE325
 2681 01c0 0400     		.2byte	0x4
 2682 01c2 71       		.byte	0x71
 2683 01c3 00       		.sleb128 0
 2684 01c4 20       		.byte	0x20
 2685 01c5 9F       		.byte	0x9f
 2686 01c6 00000000 		.4byte	0
 2687 01ca 00000000 		.4byte	0
 2688              	.LLST14:
 2689 01ce 06000000 		.4byte	.LVL22
 2690 01d2 0E000000 		.4byte	.LVL23
 2691 01d6 0500     		.2byte	0x5
 2692 01d8 71       		.byte	0x71
 2693 01d9 00       		.sleb128 0
 2694 01da 32       		.byte	0x32
 2695 01db 25       		.byte	0x25
 2696 01dc 9F       		.byte	0x9f
 2697 01dd 0E000000 		.4byte	.LVL23
 2698 01e1 64000000 		.4byte	.LFE325
 2699 01e5 0600     		.2byte	0x6
 2700 01e7 F3       		.byte	0xf3
 2701 01e8 01       		.uleb128 0x1
 2702 01e9 51       		.byte	0x51
 2703 01ea 32       		.byte	0x32
 2704 01eb 25       		.byte	0x25
 2705 01ec 9F       		.byte	0x9f
 2706 01ed 00000000 		.4byte	0
 2707 01f1 00000000 		.4byte	0
 2708              	.LLST15:
 2709 01f5 18000000 		.4byte	.LVL24
 2710 01f9 26000000 		.4byte	.LVL26
 2711 01fd 0100     		.2byte	0x1
 2712 01ff 55       		.byte	0x55
 2713 0200 26000000 		.4byte	.LVL26
 2714 0204 64000000 		.4byte	.LFE325
 2715 0208 0800     		.2byte	0x8
 2716 020a F3       		.byte	0xf3
 2717 020b 01       		.uleb128 0x1
 2718 020c 51       		.byte	0x51
 2719 020d 33       		.byte	0x33
 2720 020e 1A       		.byte	0x1a
 2721 020f 32       		.byte	0x32
 2722 0210 24       		.byte	0x24
 2723 0211 9F       		.byte	0x9f
 2724 0212 00000000 		.4byte	0
 2725 0216 00000000 		.4byte	0
 2726              	.LLST16:
 2727 021a 18000000 		.4byte	.LVL24
 2728 021e 26000000 		.4byte	.LVL26
 2729 0222 0600     		.2byte	0x6
 2730 0224 3F       		.byte	0x3f
 2731 0225 75       		.byte	0x75
 2732 0226 00       		.sleb128 0
ARM GAS  /tmp/ccQRI9r6.s 			page 49


 2733 0227 24       		.byte	0x24
 2734 0228 20       		.byte	0x20
 2735 0229 9F       		.byte	0x9f
 2736 022a 26000000 		.4byte	.LVL26
 2737 022e 64000000 		.4byte	.LFE325
 2738 0232 0B00     		.2byte	0xb
 2739 0234 3F       		.byte	0x3f
 2740 0235 F3       		.byte	0xf3
 2741 0236 01       		.uleb128 0x1
 2742 0237 51       		.byte	0x51
 2743 0238 33       		.byte	0x33
 2744 0239 1A       		.byte	0x1a
 2745 023a 32       		.byte	0x32
 2746 023b 24       		.byte	0x24
 2747 023c 24       		.byte	0x24
 2748 023d 20       		.byte	0x20
 2749 023e 9F       		.byte	0x9f
 2750 023f 00000000 		.4byte	0
 2751 0243 00000000 		.4byte	0
 2752              	.LLST17:
 2753 0247 18000000 		.4byte	.LVL24
 2754 024b 1E000000 		.4byte	.LVL25
 2755 024f 0B00     		.2byte	0xb
 2756 0251 70       		.byte	0x70
 2757 0252 8080F8FF 		.sleb128 -1073872896
 2757      7B
 2758 0257 3A       		.byte	0x3a
 2759 0258 25       		.byte	0x25
 2760 0259 3F       		.byte	0x3f
 2761 025a 1A       		.byte	0x1a
 2762 025b 9F       		.byte	0x9f
 2763 025c 1E000000 		.4byte	.LVL25
 2764 0260 64000000 		.4byte	.LFE325
 2765 0264 0E00     		.2byte	0xe
 2766 0266 F3       		.byte	0xf3
 2767 0267 01       		.uleb128 0x1
 2768 0268 50       		.byte	0x50
 2769 0269 0C       		.byte	0xc
 2770 026a 00000240 		.4byte	0x40020000
 2771 026e 1C       		.byte	0x1c
 2772 026f 3A       		.byte	0x3a
 2773 0270 25       		.byte	0x25
 2774 0271 3F       		.byte	0x3f
 2775 0272 1A       		.byte	0x1a
 2776 0273 9F       		.byte	0x9f
 2777 0274 00000000 		.4byte	0
 2778 0278 00000000 		.4byte	0
 2779              	.LLST18:
 2780 027c 00000000 		.4byte	.LVL29
 2781 0280 0A000000 		.4byte	.LVL32
 2782 0284 0100     		.2byte	0x1
 2783 0286 50       		.byte	0x50
 2784 0287 0A000000 		.4byte	.LVL32
 2785 028b 54000000 		.4byte	.LFE326
 2786 028f 0400     		.2byte	0x4
 2787 0291 F3       		.byte	0xf3
 2788 0292 01       		.uleb128 0x1
ARM GAS  /tmp/ccQRI9r6.s 			page 50


 2789 0293 50       		.byte	0x50
 2790 0294 9F       		.byte	0x9f
 2791 0295 00000000 		.4byte	0
 2792 0299 00000000 		.4byte	0
 2793              	.LLST19:
 2794 029d 06000000 		.4byte	.LVL30
 2795 02a1 2A000000 		.4byte	.LVL38
 2796 02a5 0100     		.2byte	0x1
 2797 02a7 54       		.byte	0x54
 2798 02a8 00000000 		.4byte	0
 2799 02ac 00000000 		.4byte	0
 2800              	.LLST20:
 2801 02b0 08000000 		.4byte	.LVL31
 2802 02b4 46000000 		.4byte	.LVL40
 2803 02b8 0100     		.2byte	0x1
 2804 02ba 56       		.byte	0x56
 2805 02bb 00000000 		.4byte	0
 2806 02bf 00000000 		.4byte	0
 2807              	.LLST21:
 2808 02c3 16000000 		.4byte	.LVL34
 2809 02c7 18000000 		.4byte	.LVL35
 2810 02cb 0100     		.2byte	0x1
 2811 02cd 55       		.byte	0x55
 2812 02ce 18000000 		.4byte	.LVL35
 2813 02d2 20000000 		.4byte	.LVL37
 2814 02d6 0300     		.2byte	0x3
 2815 02d8 75       		.byte	0x75
 2816 02d9 7E       		.sleb128 -2
 2817 02da 9F       		.byte	0x9f
 2818 02db 20000000 		.4byte	.LVL37
 2819 02df 44000000 		.4byte	.LVL39
 2820 02e3 0500     		.2byte	0x5
 2821 02e5 71       		.byte	0x71
 2822 02e6 00       		.sleb128 0
 2823 02e7 32       		.byte	0x32
 2824 02e8 25       		.byte	0x25
 2825 02e9 9F       		.byte	0x9f
 2826 02ea 00000000 		.4byte	0
 2827 02ee 00000000 		.4byte	0
 2828              	.LLST22:
 2829 02f2 16000000 		.4byte	.LVL34
 2830 02f6 44000000 		.4byte	.LVL39
 2831 02fa 0700     		.2byte	0x7
 2832 02fc 71       		.byte	0x71
 2833 02fd 00       		.sleb128 0
 2834 02fe 33       		.byte	0x33
 2835 02ff 1A       		.byte	0x1a
 2836 0300 32       		.byte	0x32
 2837 0301 24       		.byte	0x24
 2838 0302 9F       		.byte	0x9f
 2839 0303 00000000 		.4byte	0
 2840 0307 00000000 		.4byte	0
 2841              	.LLST23:
 2842 030b 16000000 		.4byte	.LVL34
 2843 030f 44000000 		.4byte	.LVL39
 2844 0313 0E00     		.2byte	0xe
 2845 0315 F3       		.byte	0xf3
ARM GAS  /tmp/ccQRI9r6.s 			page 51


 2846 0316 01       		.uleb128 0x1
 2847 0317 50       		.byte	0x50
 2848 0318 0C       		.byte	0xc
 2849 0319 00000240 		.4byte	0x40020000
 2850 031d 1C       		.byte	0x1c
 2851 031e 3A       		.byte	0x3a
 2852 031f 25       		.byte	0x25
 2853 0320 3F       		.byte	0x3f
 2854 0321 1A       		.byte	0x1a
 2855 0322 9F       		.byte	0x9f
 2856 0323 00000000 		.4byte	0
 2857 0327 00000000 		.4byte	0
 2858              		.section	.debug_aranges,"",%progbits
 2859 0000 34000000 		.4byte	0x34
 2860 0004 0200     		.2byte	0x2
 2861 0006 00000000 		.4byte	.Ldebug_info0
 2862 000a 04       		.byte	0x4
 2863 000b 00       		.byte	0
 2864 000c 0000     		.2byte	0
 2865 000e 0000     		.2byte	0
 2866 0010 00000000 		.4byte	.LFB323
 2867 0014 18000000 		.4byte	.LFE323-.LFB323
 2868 0018 00000000 		.4byte	.LFB324
 2869 001c E2000000 		.4byte	.LFE324-.LFB324
 2870 0020 00000000 		.4byte	.LFB325
 2871 0024 64000000 		.4byte	.LFE325-.LFB325
 2872 0028 00000000 		.4byte	.LFB326
 2873 002c 54000000 		.4byte	.LFE326-.LFB326
 2874 0030 00000000 		.4byte	0
 2875 0034 00000000 		.4byte	0
 2876              		.section	.debug_ranges,"",%progbits
 2877              	.Ldebug_ranges0:
 2878 0000 1E000000 		.4byte	.LBB2
 2879 0004 26000000 		.4byte	.LBE2
 2880 0008 2A000000 		.4byte	.LBB3
 2881 000c C8000000 		.4byte	.LBE3
 2882 0010 00000000 		.4byte	0
 2883 0014 00000000 		.4byte	0
 2884 0018 00000000 		.4byte	.LFB323
 2885 001c 18000000 		.4byte	.LFE323
 2886 0020 00000000 		.4byte	.LFB324
 2887 0024 E2000000 		.4byte	.LFE324
 2888 0028 00000000 		.4byte	.LFB325
 2889 002c 64000000 		.4byte	.LFE325
 2890 0030 00000000 		.4byte	.LFB326
 2891 0034 54000000 		.4byte	.LFE326
 2892 0038 00000000 		.4byte	0
 2893 003c 00000000 		.4byte	0
 2894              		.section	.debug_line,"",%progbits
 2895              	.Ldebug_line0:
 2896 0000 83030000 		.section	.debug_str,"MS",%progbits,1
 2896      0200CA02 
 2896      00000201 
 2896      FB0E0D00 
 2896      01010101 
 2897              	.LASF55:
 2898 0000 70726576 		.ascii	"prev\000"
ARM GAS  /tmp/ccQRI9r6.s 			page 52


 2898      00
 2899              	.LASF56:
 2900 0005 72656164 		.ascii	"ready_list_t\000"
 2900      795F6C69 
 2900      73745F74 
 2900      00
 2901              	.LASF4:
 2902 0012 73697A65 		.ascii	"size_t\000"
 2902      5F7400
 2903              	.LASF62:
 2904 0019 64656C74 		.ascii	"delta\000"
 2904      6100
 2905              	.LASF104:
 2906 001f 7264796D 		.ascii	"rdymsg\000"
 2906      736700
 2907              	.LASF20:
 2908 0026 75696E74 		.ascii	"uint64_t\000"
 2908      36345F74 
 2908      00
 2909              	.LASF5:
 2910 002f 5F5F7569 		.ascii	"__uint8_t\000"
 2910      6E74385F 
 2910      7400
 2911              	.LASF122:
 2912 0039 4F545950 		.ascii	"OTYPER\000"
 2912      455200
 2913              	.LASF91:
 2914 0040 706F7274 		.ascii	"port_intctx\000"
 2914      5F696E74 
 2914      63747800 
 2915              	.LASF54:
 2916 004c 63685F74 		.ascii	"ch_threads_queue\000"
 2916      68726561 
 2916      64735F71 
 2916      75657565 
 2916      00
 2917              	.LASF67:
 2918 005d 73797374 		.ascii	"system_debug_t\000"
 2918      656D5F64 
 2918      65627567 
 2918      5F7400
 2919              	.LASF130:
 2920 006c 696F706F 		.ascii	"ioportmask_t\000"
 2920      72746D61 
 2920      736B5F74 
 2920      00
 2921              	.LASF90:
 2922 0079 706F7274 		.ascii	"port_context\000"
 2922      5F636F6E 
 2922      74657874 
 2922      00
 2923              	.LASF95:
 2924 0086 776F7273 		.ascii	"worst\000"
 2924      7400
 2925              	.LASF83:
 2926 008c 4D454D52 		.ascii	"MEMRMP\000"
 2926      4D5000
ARM GAS  /tmp/ccQRI9r6.s 			page 53


 2927              	.LASF98:
 2928 0093 74696D65 		.ascii	"time_measurement_t\000"
 2928      5F6D6561 
 2928      73757265 
 2928      6D656E74 
 2928      5F7400
 2929              	.LASF121:
 2930 00a6 4D4F4445 		.ascii	"MODER\000"
 2930      5200
 2931              	.LASF15:
 2932 00ac 6C6F6E67 		.ascii	"long long unsigned int\000"
 2932      206C6F6E 
 2932      6720756E 
 2932      7369676E 
 2932      65642069 
 2933              	.LASF154:
 2934 00c3 66747372 		.ascii	"ftsr1\000"
 2934      3100
 2935              	.LASF143:
 2936 00c9 70757064 		.ascii	"pupdr\000"
 2936      7200
 2937              	.LASF105:
 2938 00cf 65786974 		.ascii	"exitcode\000"
 2938      636F6465 
 2938      00
 2939              	.LASF74:
 2940 00d8 6D61696E 		.ascii	"mainthread\000"
 2940      74687265 
 2940      616400
 2941              	.LASF108:
 2942 00e3 73656E74 		.ascii	"sentmsg\000"
 2942      6D736700 
 2943              	.LASF64:
 2944 00eb 76697274 		.ascii	"virtual_timers_list_t\000"
 2944      75616C5F 
 2944      74696D65 
 2944      72735F6C 
 2944      6973745F 
 2945              	.LASF156:
 2946 0101 49544D5F 		.ascii	"ITM_RxBuffer\000"
 2946      52784275 
 2946      66666572 
 2946      00
 2947              	.LASF63:
 2948 010e 66756E63 		.ascii	"func\000"
 2948      00
 2949              	.LASF153:
 2950 0113 72747372 		.ascii	"rtsr1\000"
 2950      3100
 2951              	.LASF52:
 2952 0119 6E657874 		.ascii	"next\000"
 2952      00
 2953              	.LASF22:
 2954 011e 72747469 		.ascii	"rttime_t\000"
 2954      6D655F74 
 2954      00
 2955              	.LASF147:
ARM GAS  /tmp/ccQRI9r6.s 			page 54


 2956 0127 7061646D 		.ascii	"padmask\000"
 2956      61736B00 
 2957              	.LASF1:
 2958 012f 6C6F6E67 		.ascii	"long long int\000"
 2958      206C6F6E 
 2958      6720696E 
 2958      7400
 2959              	.LASF3:
 2960 013d 7369676E 		.ascii	"signed char\000"
 2960      65642063 
 2960      68617200 
 2961              	.LASF125:
 2962 0149 42535252 		.ascii	"BSRR\000"
 2962      00
 2963              	.LASF81:
 2964 014e 53574945 		.ascii	"SWIER\000"
 2964      5200
 2965              	.LASF140:
 2966 0154 6D6F6465 		.ascii	"moder\000"
 2966      7200
 2967              	.LASF42:
 2968 015a 6D736771 		.ascii	"msgqueue\000"
 2968      75657565 
 2968      00
 2969              	.LASF124:
 2970 0163 50555044 		.ascii	"PUPDR\000"
 2970      5200
 2971              	.LASF38:
 2972 0169 73746174 		.ascii	"state\000"
 2972      6500
 2973              	.LASF11:
 2974 016f 6C6F6E67 		.ascii	"long int\000"
 2974      20696E74 
 2974      00
 2975              	.LASF24:
 2976 0178 74737461 		.ascii	"tstate_t\000"
 2976      74655F74 
 2976      00
 2977              	.LASF0:
 2978 0181 756E7369 		.ascii	"unsigned int\000"
 2978      676E6564 
 2978      20696E74 
 2978      00
 2979              	.LASF47:
 2980 018e 73746174 		.ascii	"stats\000"
 2980      7300
 2981              	.LASF145:
 2982 0194 616C7472 		.ascii	"altrmask\000"
 2982      6D61736B 
 2982      00
 2983              	.LASF123:
 2984 019d 4F535045 		.ascii	"OSPEEDR\000"
 2984      45445200 
 2985              	.LASF12:
 2986 01a5 5F5F7569 		.ascii	"__uint32_t\000"
 2986      6E743332 
 2986      5F7400
ARM GAS  /tmp/ccQRI9r6.s 			page 55


 2987              	.LASF138:
 2988 01b0 6D61736B 		.ascii	"mask\000"
 2988      00
 2989              	.LASF88:
 2990 01b5 72656761 		.ascii	"regarm_t\000"
 2990      726D5F74 
 2990      00
 2991              	.LASF73:
 2992 01be 76746C69 		.ascii	"vtlist\000"
 2992      737400
 2993              	.LASF68:
 2994 01c5 63685F73 		.ascii	"ch_system_debug\000"
 2994      79737465 
 2994      6D5F6465 
 2994      62756700 
 2995              	.LASF41:
 2996 01d5 77616974 		.ascii	"waiting\000"
 2996      696E6700 
 2997              	.LASF129:
 2998 01dd 73746D33 		.ascii	"stm32_gpio_t\000"
 2998      325F6770 
 2998      696F5F74 
 2998      00
 2999              	.LASF137:
 3000 01ea 706F7274 		.ascii	"port\000"
 3000      00
 3001              	.LASF116:
 3002 01ef 6D757465 		.ascii	"mutex_t\000"
 3002      785F7400 
 3003              	.LASF77:
 3004 01f7 73797369 		.ascii	"sysinterval_t\000"
 3004      6E746572 
 3004      76616C5F 
 3004      7400
 3005              	.LASF29:
 3006 0205 636E745F 		.ascii	"cnt_t\000"
 3006      7400
 3007              	.LASF118:
 3008 020b 70616C63 		.ascii	"palcallback_t\000"
 3008      616C6C62 
 3008      61636B5F 
 3008      7400
 3009              	.LASF17:
 3010 0219 75696E74 		.ascii	"uint16_t\000"
 3010      31365F74 
 3010      00
 3011              	.LASF161:
 3012 0222 6372706F 		.ascii	"crport\000"
 3012      727400
 3013              	.LASF109:
 3014 0229 77747365 		.ascii	"wtsemp\000"
 3014      6D7000
 3015              	.LASF152:
 3016 0230 5F70616C 		.ascii	"_pal_lld_disablepadevent\000"
 3016      5F6C6C64 
 3016      5F646973 
 3016      61626C65 
ARM GAS  /tmp/ccQRI9r6.s 			page 56


 3016      70616465 
 3017              	.LASF107:
 3018 0249 77747472 		.ascii	"wttrp\000"
 3018      7000
 3019              	.LASF128:
 3020 024f 41465248 		.ascii	"AFRH\000"
 3020      00
 3021              	.LASF132:
 3022 0254 696F6576 		.ascii	"ioeventmode_t\000"
 3022      656E746D 
 3022      6F64655F 
 3022      7400
 3023              	.LASF86:
 3024 0262 434D5043 		.ascii	"CMPCR\000"
 3024      5200
 3025              	.LASF142:
 3026 0268 6F737065 		.ascii	"ospeedr\000"
 3026      65647200 
 3027              	.LASF99:
 3028 0270 6E5F6972 		.ascii	"n_irq\000"
 3028      7100
 3029              	.LASF32:
 3030 0276 71756575 		.ascii	"queue\000"
 3030      6500
 3031              	.LASF141:
 3032 027c 6F747970 		.ascii	"otyper\000"
 3032      657200
 3033              	.LASF46:
 3034 0283 6D706F6F 		.ascii	"mpool\000"
 3034      6C00
 3035              	.LASF9:
 3036 0289 73686F72 		.ascii	"short unsigned int\000"
 3036      7420756E 
 3036      7369676E 
 3036      65642069 
 3036      6E7400
 3037              	.LASF149:
 3038 029c 63726F66 		.ascii	"croff\000"
 3038      6600
 3039              	.LASF50:
 3040 02a2 63685F74 		.ascii	"ch_thread\000"
 3040      68726561 
 3040      6400
 3041              	.LASF36:
 3042 02ac 6E616D65 		.ascii	"name\000"
 3042      00
 3043              	.LASF157:
 3044 02b1 5F70616C 		.ascii	"_pal_events\000"
 3044      5F657665 
 3044      6E747300 
 3045              	.LASF96:
 3046 02bd 6C617374 		.ascii	"last\000"
 3046      00
 3047              	.LASF30:
 3048 02c2 75636E74 		.ascii	"ucnt_t\000"
 3048      5F7400
 3049              	.LASF43:
ARM GAS  /tmp/ccQRI9r6.s 			page 57


 3050 02c9 6570656E 		.ascii	"epending\000"
 3050      64696E67 
 3050      00
 3051              	.LASF70:
 3052 02d2 63685F73 		.ascii	"ch_system_t\000"
 3052      79737465 
 3052      6D5F7400 
 3053              	.LASF126:
 3054 02de 4C4F434B 		.ascii	"LOCKR\000"
 3054      5200
 3055              	.LASF23:
 3056 02e4 746D6F64 		.ascii	"tmode_t\000"
 3056      655F7400 
 3057              	.LASF119:
 3058 02ec 70616C65 		.ascii	"palevent_t\000"
 3058      76656E74 
 3058      5F7400
 3059              	.LASF102:
 3060 02f7 6D5F6372 		.ascii	"m_crit_isr\000"
 3060      69745F69 
 3060      737200
 3061              	.LASF57:
 3062 0302 63685F72 		.ascii	"ch_ready_list\000"
 3062      65616479 
 3062      5F6C6973 
 3062      7400
 3063              	.LASF28:
 3064 0310 6576656E 		.ascii	"eventmask_t\000"
 3064      746D6173 
 3064      6B5F7400 
 3065              	.LASF10:
 3066 031c 5F5F696E 		.ascii	"__int32_t\000"
 3066      7433325F 
 3066      7400
 3067              	.LASF89:
 3068 0326 73746B61 		.ascii	"stkalign_t\000"
 3068      6C69676E 
 3068      5F7400
 3069              	.LASF34:
 3070 0331 6E657765 		.ascii	"newer\000"
 3070      7200
 3071              	.LASF45:
 3072 0337 7265616C 		.ascii	"realprio\000"
 3072      7072696F 
 3072      00
 3073              	.LASF78:
 3074 0340 73697A65 		.ascii	"sizetype\000"
 3074      74797065 
 3074      00
 3075              	.LASF48:
 3076 0349 74687265 		.ascii	"thread_reference_t\000"
 3076      61645F72 
 3076      65666572 
 3076      656E6365 
 3076      5F7400
 3077              	.LASF65:
 3078 035c 63685F76 		.ascii	"ch_virtual_timers_list\000"
ARM GAS  /tmp/ccQRI9r6.s 			page 58


 3078      69727475 
 3078      616C5F74 
 3078      696D6572 
 3078      735F6C69 
 3079              	.LASF120:
 3080 0373 636C6561 		.ascii	"clear\000"
 3080      7200
 3081              	.LASF2:
 3082 0379 6C6F6E67 		.ascii	"long double\000"
 3082      20646F75 
 3082      626C6500 
 3083              	.LASF148:
 3084 0385 63726964 		.ascii	"cridx\000"
 3084      7800
 3085              	.LASF158:
 3086 038b 474E5520 		.ascii	"GNU C11 5.4.1 20160919 -mcpu=cortex-m4 -mfloat-abi="
 3086      43313120 
 3086      352E342E 
 3086      31203230 
 3086      31363039 
 3087 03be 68617264 		.ascii	"hard -mfpu=fpv4-sp-d16 -mno-thumb-interwork -mthumb"
 3087      202D6D66 
 3087      70753D66 
 3087      7076342D 
 3087      73702D64 
 3088 03f1 202D6720 		.ascii	" -g -Os -fomit-frame-pointer -falign-functions=16 -"
 3088      2D4F7320 
 3088      2D666F6D 
 3088      69742D66 
 3088      72616D65 
 3089 0424 6666756E 		.ascii	"ffunction-sections -fdata-sections -fno-common -fsi"
 3089      6374696F 
 3089      6E2D7365 
 3089      6374696F 
 3089      6E73202D 
 3090 0457 6E676C65 		.ascii	"ngle-precision-constant\000"
 3090      2D707265 
 3090      63697369 
 3090      6F6E2D63 
 3090      6F6E7374 
 3091              	.LASF93:
 3092 046f 746D5F63 		.ascii	"tm_calibration_t\000"
 3092      616C6962 
 3092      72617469 
 3092      6F6E5F74 
 3092      00
 3093              	.LASF33:
 3094 0480 7072696F 		.ascii	"prio\000"
 3094      00
 3095              	.LASF58:
 3096 0485 63757272 		.ascii	"current\000"
 3096      656E7400 
 3097              	.LASF14:
 3098 048d 5F5F7569 		.ascii	"__uint64_t\000"
 3098      6E743634 
 3098      5F7400
 3099              	.LASF79:
ARM GAS  /tmp/ccQRI9r6.s 			page 59


 3100 0498 52545352 		.ascii	"RTSR\000"
 3100      00
 3101              	.LASF97:
 3102 049d 63756D75 		.ascii	"cumulative\000"
 3102      6C617469 
 3102      766500
 3103              	.LASF127:
 3104 04a8 4146524C 		.ascii	"AFRL\000"
 3104      00
 3105              	.LASF87:
 3106 04ad 53595343 		.ascii	"SYSCFG_TypeDef\000"
 3106      46475F54 
 3106      79706544 
 3106      656600
 3107              	.LASF75:
 3108 04bc 6B65726E 		.ascii	"kernel_stats\000"
 3108      656C5F73 
 3108      74617473 
 3108      00
 3109              	.LASF25:
 3110 04c9 74726566 		.ascii	"trefs_t\000"
 3110      735F7400 
 3111              	.LASF40:
 3112 04d1 72656673 		.ascii	"refs\000"
 3112      00
 3113              	.LASF60:
 3114 04d6 76697274 		.ascii	"virtual_timer_t\000"
 3114      75616C5F 
 3114      74696D65 
 3114      725F7400 
 3115              	.LASF27:
 3116 04e6 6D73675F 		.ascii	"msg_t\000"
 3116      7400
 3117              	.LASF26:
 3118 04ec 74707269 		.ascii	"tprio_t\000"
 3118      6F5F7400 
 3119              	.LASF100:
 3120 04f4 6E5F6374 		.ascii	"n_ctxswc\000"
 3120      78737763 
 3120      00
 3121              	.LASF117:
 3122 04fd 5F426F6F 		.ascii	"_Bool\000"
 3122      6C00
 3123              	.LASF18:
 3124 0503 696E7433 		.ascii	"int32_t\000"
 3124      325F7400 
 3125              	.LASF6:
 3126 050b 756E7369 		.ascii	"unsigned char\000"
 3126      676E6564 
 3126      20636861 
 3126      7200
 3127              	.LASF134:
 3128 0519 696F7061 		.ascii	"iopadid_t\000"
 3128      6469645F 
 3128      7400
 3129              	.LASF80:
 3130 0523 46545352 		.ascii	"FTSR\000"
ARM GAS  /tmp/ccQRI9r6.s 			page 60


 3130      00
 3131              	.LASF7:
 3132 0528 73686F72 		.ascii	"short int\000"
 3132      7420696E 
 3132      7400
 3133              	.LASF66:
 3134 0532 6C617374 		.ascii	"lasttime\000"
 3134      74696D65 
 3134      00
 3135              	.LASF159:
 3136 053b 2E2E2F2E 		.ascii	"../../modules/ChibiOS/os/hal/ports/STM32/LLD/GPIOv2"
 3136      2E2F6D6F 
 3136      64756C65 
 3136      732F4368 
 3136      6962694F 
 3137 056e 2F68616C 		.ascii	"/hal_pal_lld.c\000"
 3137      5F70616C 
 3137      5F6C6C64 
 3137      2E6300
 3138              	.LASF146:
 3139 057d 5F70616C 		.ascii	"_pal_lld_enablepadevent\000"
 3139      5F6C6C64 
 3139      5F656E61 
 3139      626C6570 
 3139      61646576 
 3140              	.LASF111:
 3141 0595 65776D61 		.ascii	"ewmask\000"
 3141      736B00
 3142              	.LASF71:
 3143 059c 63685F73 		.ascii	"ch_system\000"
 3143      79737465 
 3143      6D00
 3144              	.LASF155:
 3145 05a6 5F5F6675 		.ascii	"__func__\000"
 3145      6E635F5F 
 3145      00
 3146              	.LASF103:
 3147 05af 6B65726E 		.ascii	"kernel_stats_t\000"
 3147      656C5F73 
 3147      74617473 
 3147      5F7400
 3148              	.LASF61:
 3149 05be 63685F76 		.ascii	"ch_virtual_timer\000"
 3149      69727475 
 3149      616C5F74 
 3149      696D6572 
 3149      00
 3150              	.LASF112:
 3151 05cf 63685F73 		.ascii	"ch_semaphore\000"
 3151      656D6170 
 3151      686F7265 
 3151      00
 3152              	.LASF160:
 3153 05dc 2F686F6D 		.ascii	"/home/user/csse4011/project/4011-surfbee/ardupilot/"
 3153      652F7573 
 3153      65722F63 
 3153      73736534 
ARM GAS  /tmp/ccQRI9r6.s 			page 61


 3153      3031312F 
 3154 060f 6275696C 		.ascii	"build/stm32l475\000"
 3154      642F7374 
 3154      6D33326C 
 3154      34373500 
 3155              	.LASF51:
 3156 061f 63685F74 		.ascii	"ch_threads_list\000"
 3156      68726561 
 3156      64735F6C 
 3156      69737400 
 3157              	.LASF114:
 3158 062f 6F776E65 		.ascii	"owner\000"
 3158      7200
 3159              	.LASF13:
 3160 0635 6C6F6E67 		.ascii	"long unsigned int\000"
 3160      20756E73 
 3160      69676E65 
 3160      6420696E 
 3160      7400
 3161              	.LASF37:
 3162 0647 77616261 		.ascii	"wabase\000"
 3162      736500
 3163              	.LASF144:
 3164 064e 616C7472 		.ascii	"altr\000"
 3164      00
 3165              	.LASF115:
 3166 0653 63686172 		.ascii	"char\000"
 3166      00
 3167              	.LASF35:
 3168 0658 6F6C6465 		.ascii	"older\000"
 3168      7200
 3169              	.LASF139:
 3170 065e 6D6F6465 		.ascii	"mode\000"
 3170      00
 3171              	.LASF110:
 3172 0663 77746D74 		.ascii	"wtmtxp\000"
 3172      787000
 3173              	.LASF8:
 3174 066a 5F5F7569 		.ascii	"__uint16_t\000"
 3174      6E743136 
 3174      5F7400
 3175              	.LASF31:
 3176 0675 74687265 		.ascii	"thread_t\000"
 3176      61645F74 
 3176      00
 3177              	.LASF94:
 3178 067e 62657374 		.ascii	"best\000"
 3178      00
 3179              	.LASF76:
 3180 0683 73797374 		.ascii	"systime_t\000"
 3180      696D655F 
 3180      7400
 3181              	.LASF59:
 3182 068d 76746675 		.ascii	"vtfunc_t\000"
 3182      6E635F74 
 3182      00
 3183              	.LASF69:
ARM GAS  /tmp/ccQRI9r6.s 			page 62


 3184 0696 70616E69 		.ascii	"panic_msg\000"
 3184      635F6D73 
 3184      6700
 3185              	.LASF92:
 3186 06a0 6F666673 		.ascii	"offset\000"
 3186      657400
 3187              	.LASF133:
 3188 06a7 696F706F 		.ascii	"ioportid_t\000"
 3188      72746964 
 3188      5F7400
 3189              	.LASF136:
 3190 06b2 5F70616C 		.ascii	"_pal_lld_setgroupmode\000"
 3190      5F6C6C64 
 3190      5F736574 
 3190      67726F75 
 3190      706D6F64 
 3191              	.LASF21:
 3192 06c8 7274636E 		.ascii	"rtcnt_t\000"
 3192      745F7400 
 3193              	.LASF19:
 3194 06d0 75696E74 		.ascii	"uint32_t\000"
 3194      33325F74 
 3194      00
 3195              	.LASF53:
 3196 06d9 74687265 		.ascii	"threads_queue_t\000"
 3196      6164735F 
 3196      71756575 
 3196      655F7400 
 3197              	.LASF113:
 3198 06e9 63685F6D 		.ascii	"ch_mutex\000"
 3198      75746578 
 3198      00
 3199              	.LASF135:
 3200 06f2 5F70616C 		.ascii	"_pal_lld_init\000"
 3200      5F6C6C64 
 3200      5F696E69 
 3200      7400
 3201              	.LASF72:
 3202 0700 726C6973 		.ascii	"rlist\000"
 3202      7400
 3203              	.LASF16:
 3204 0706 75696E74 		.ascii	"uint8_t\000"
 3204      385F7400 
 3205              	.LASF85:
 3206 070e 52455345 		.ascii	"RESERVED\000"
 3206      52564544 
 3206      00
 3207              	.LASF39:
 3208 0717 666C6167 		.ascii	"flags\000"
 3208      7300
 3209              	.LASF106:
 3210 071d 77746F62 		.ascii	"wtobjp\000"
 3210      6A7000
 3211              	.LASF49:
 3212 0724 74687265 		.ascii	"threads_list_t\000"
 3212      6164735F 
 3212      6C697374 
ARM GAS  /tmp/ccQRI9r6.s 			page 63


 3212      5F7400
 3213              	.LASF82:
 3214 0733 45585449 		.ascii	"EXTI_TypeDef\000"
 3214      5F547970 
 3214      65446566 
 3214      00
 3215              	.LASF44:
 3216 0740 6D74786C 		.ascii	"mtxlist\000"
 3216      69737400 
 3217              	.LASF131:
 3218 0748 696F6D6F 		.ascii	"iomode_t\000"
 3218      64655F74 
 3218      00
 3219              	.LASF101:
 3220 0751 6D5F6372 		.ascii	"m_crit_thd\000"
 3220      69745F74 
 3220      686400
 3221              	.LASF151:
 3222 075c 706F7274 		.ascii	"portidx\000"
 3222      69647800 
 3223              	.LASF84:
 3224 0764 45585449 		.ascii	"EXTICR\000"
 3224      435200
 3225              	.LASF150:
 3226 076b 63726D61 		.ascii	"crmask\000"
 3226      736B00
 3227              		.ident	"GCC: (15:5.4.1+svn241155-1) 5.4.1 20160919"
ARM GAS  /tmp/ccQRI9r6.s 			page 64


DEFINED SYMBOLS
                            *ABS*:0000000000000000 hal_pal_lld.c
     /tmp/ccQRI9r6.s:22     .text._pal_lld_init:0000000000000000 $t
     /tmp/ccQRI9r6.s:27     .text._pal_lld_init:0000000000000000 _pal_lld_init
     /tmp/ccQRI9r6.s:58     .text._pal_lld_init:0000000000000014 $d
     /tmp/ccQRI9r6.s:63     .text._pal_lld_setgroupmode:0000000000000000 $t
     /tmp/ccQRI9r6.s:68     .text._pal_lld_setgroupmode:0000000000000000 _pal_lld_setgroupmode
     /tmp/ccQRI9r6.s:244    .text._pal_lld_enablepadevent:0000000000000000 $t
     /tmp/ccQRI9r6.s:249    .text._pal_lld_enablepadevent:0000000000000000 _pal_lld_enablepadevent
     /tmp/ccQRI9r6.s:321    .text._pal_lld_enablepadevent:0000000000000060 $d
     /tmp/ccQRI9r6.s:326    .text._pal_lld_disablepadevent:0000000000000000 $t
     /tmp/ccQRI9r6.s:331    .text._pal_lld_disablepadevent:0000000000000000 _pal_lld_disablepadevent
     /tmp/ccQRI9r6.s:408    .text._pal_lld_disablepadevent:0000000000000048 $d
     /tmp/ccQRI9r6.s:421    .bss._pal_events:0000000000000000 _pal_events
     /tmp/ccQRI9r6.s:417    .bss._pal_events:0000000000000000 $d
                     .debug_frame:0000000000000010 $d

NO UNDEFINED SYMBOLS
