ARM GAS  /tmp/ccFmpp4g.s 			page 1


   1              		.syntax unified
   2              		.cpu cortex-m4
   3              		.eabi_attribute 27, 1
   4              		.eabi_attribute 28, 1
   5              		.fpu fpv4-sp-d16
   6              		.eabi_attribute 20, 1
   7              		.eabi_attribute 21, 1
   8              		.eabi_attribute 23, 3
   9              		.eabi_attribute 24, 1
  10              		.eabi_attribute 25, 1
  11              		.eabi_attribute 26, 1
  12              		.eabi_attribute 30, 4
  13              		.eabi_attribute 34, 1
  14              		.eabi_attribute 18, 4
  15              		.thumb
  16              		.syntax unified
  17              		.file	"hal_i2c.c"
  18              		.text
  19              	.Ltext0:
  20              		.cfi_sections	.debug_frame
  21              		.section	.text.i2cInit,"ax",%progbits
  22              		.align	1
  23              		.global	i2cInit
  24              		.thumb
  25              		.thumb_func
  26              		.type	i2cInit, %function
  27              	i2cInit:
  28              	.LFB323:
  29              		.file 1 "../../modules/ChibiOS/os/hal/src/hal_i2c.c"
  30              		.loc 1 59 0
  31              		.cfi_startproc
  32              		@ args = 0, pretend = 0, frame = 0
  33              		@ frame_needed = 0, uses_anonymous_args = 0
  34              		@ link register save eliminated.
  35              		.loc 1 61 0
  36 0000 FFF7FEBF 		b	i2c_lld_init
  37              	.LVL0:
  38              		.cfi_endproc
  39              	.LFE323:
  40              		.size	i2cInit, .-i2cInit
  41              		.section	.text.i2cObjectInit,"ax",%progbits
  42              		.align	1
  43              		.global	i2cObjectInit
  44              		.thumb
  45              		.thumb_func
  46              		.type	i2cObjectInit, %function
  47              	i2cObjectInit:
  48              	.LFB324:
  49              		.loc 1 71 0
  50              		.cfi_startproc
  51              		@ args = 0, pretend = 0, frame = 0
  52              		@ frame_needed = 0, uses_anonymous_args = 0
  53              		@ link register save eliminated.
  54              	.LVL1:
  55              		.loc 1 73 0
  56 0000 0123     		movs	r3, #1
  57 0002 0370     		strb	r3, [r0]
ARM GAS  /tmp/ccFmpp4g.s 			page 2


  58              		.loc 1 74 0
  59 0004 0023     		movs	r3, #0
  60 0006 4360     		str	r3, [r0, #4]
  61              	.LVL2:
  62              	.LBB36:
  63              	.LBB37:
  64              		.file 2 "../../modules/ChibiOS/os/hal/osal/rt/osal.h"
  65              		.loc 2 974 0
  66 0008 0C30     		adds	r0, r0, #12
  67              	.LVL3:
  68 000a FFF7FEBF 		b	chMtxObjectInit
  69              	.LVL4:
  70              	.LBE37:
  71              	.LBE36:
  72              		.cfi_endproc
  73              	.LFE324:
  74              		.size	i2cObjectInit, .-i2cObjectInit
  75              		.section	.text.i2cStart,"ax",%progbits
  76              		.align	1
  77              		.global	i2cStart
  78              		.thumb
  79              		.thumb_func
  80              		.type	i2cStart, %function
  81              	i2cStart:
  82              	.LFB325:
  83              		.loc 1 93 0
  84              		.cfi_startproc
  85              		@ args = 0, pretend = 0, frame = 0
  86              		@ frame_needed = 0, uses_anonymous_args = 0
  87              	.LVL5:
  88 0000 38B5     		push	{r3, r4, r5, lr}
  89              		.cfi_def_cfa_offset 16
  90              		.cfi_offset 3, -16
  91              		.cfi_offset 4, -12
  92              		.cfi_offset 5, -8
  93              		.cfi_offset 14, -4
  94              		.loc 1 93 0
  95 0002 0446     		mov	r4, r0
  96 0004 0D46     		mov	r5, r1
  97              	.LBB52:
  98              	.LBB53:
  99              	.LBB54:
 100              	.LBB55:
 101              	.LBB56:
 102              	.LBB57:
 103              		.file 3 "../../modules/ChibiOS/os/common/ext/ARM/CMSIS/Core/Include/cmsis_gcc.h"
 104              		.loc 3 493 0
 105 0006 2023     		movs	r3, #32
 106              		.syntax unified
 107              	@ 493 "../../modules/ChibiOS/os/common/ext/ARM/CMSIS/Core/Include/cmsis_gcc.h" 1
 108 0008 83F31188 		MSR basepri, r3
 109              	@ 0 "" 2
 110              	.LVL6:
 111              		.thumb
 112              		.syntax unified
 113              	.LBE57:
 114              	.LBE56:
ARM GAS  /tmp/ccFmpp4g.s 			page 3


 115              	.LBE55:
 116              		.file 4 "../../modules/ChibiOS/os/rt/include/chsys.h"
 117              		.loc 4 356 0
 118 000c FFF7FEFF 		bl	_stats_start_measure_crit_thd
 119              	.LVL7:
 120              	.LBE54:
 121              	.LBE53:
 122              	.LBE52:
 123              		.loc 1 101 0
 124 0010 2046     		mov	r0, r4
 125              		.loc 1 100 0
 126 0012 6560     		str	r5, [r4, #4]
 127              		.loc 1 101 0
 128 0014 FFF7FEFF 		bl	i2c_lld_start
 129              	.LVL8:
 130              		.loc 1 102 0
 131 0018 0223     		movs	r3, #2
 132 001a 2370     		strb	r3, [r4]
 133              	.LBB58:
 134              	.LBB59:
 135              	.LBB60:
 136              		.loc 4 368 0
 137 001c FFF7FEFF 		bl	_stats_stop_measure_crit_thd
 138              	.LVL9:
 139              	.LBB61:
 140              	.LBB62:
 141              	.LBB63:
 142              		.loc 3 493 0
 143 0020 0023     		movs	r3, #0
 144              		.syntax unified
 145              	@ 493 "../../modules/ChibiOS/os/common/ext/ARM/CMSIS/Core/Include/cmsis_gcc.h" 1
 146 0022 83F31188 		MSR basepri, r3
 147              	@ 0 "" 2
 148              	.LVL10:
 149              		.thumb
 150              		.syntax unified
 151 0026 38BD     		pop	{r3, r4, r5, pc}
 152              	.LBE63:
 153              	.LBE62:
 154              	.LBE61:
 155              	.LBE60:
 156              	.LBE59:
 157              	.LBE58:
 158              		.cfi_endproc
 159              	.LFE325:
 160              		.size	i2cStart, .-i2cStart
 161              		.section	.text.i2cStop,"ax",%progbits
 162              		.align	1
 163              		.global	i2cStop
 164              		.thumb
 165              		.thumb_func
 166              		.type	i2cStop, %function
 167              	i2cStop:
 168              	.LFB326:
 169              		.loc 1 113 0
 170              		.cfi_startproc
 171              		@ args = 0, pretend = 0, frame = 0
ARM GAS  /tmp/ccFmpp4g.s 			page 4


 172              		@ frame_needed = 0, uses_anonymous_args = 0
 173              	.LVL11:
 174 0000 38B5     		push	{r3, r4, r5, lr}
 175              		.cfi_def_cfa_offset 16
 176              		.cfi_offset 3, -16
 177              		.cfi_offset 4, -12
 178              		.cfi_offset 5, -8
 179              		.cfi_offset 14, -4
 180              		.loc 1 113 0
 181 0002 0446     		mov	r4, r0
 182              	.LBB78:
 183              	.LBB79:
 184              	.LBB80:
 185              	.LBB81:
 186              	.LBB82:
 187              	.LBB83:
 188              		.loc 3 493 0
 189 0004 2023     		movs	r3, #32
 190              		.syntax unified
 191              	@ 493 "../../modules/ChibiOS/os/common/ext/ARM/CMSIS/Core/Include/cmsis_gcc.h" 1
 192 0006 83F31188 		MSR basepri, r3
 193              	@ 0 "" 2
 194              	.LVL12:
 195              		.thumb
 196              		.syntax unified
 197              	.LBE83:
 198              	.LBE82:
 199              	.LBE81:
 200              		.loc 4 356 0
 201 000a FFF7FEFF 		bl	_stats_start_measure_crit_thd
 202              	.LVL13:
 203              	.LBE80:
 204              	.LBE79:
 205              	.LBE78:
 206              		.loc 1 122 0
 207 000e 2046     		mov	r0, r4
 208 0010 FFF7FEFF 		bl	i2c_lld_stop
 209              	.LVL14:
 210              		.loc 1 123 0
 211 0014 0025     		movs	r5, #0
 212              		.loc 1 124 0
 213 0016 0123     		movs	r3, #1
 214              		.loc 1 123 0
 215 0018 6560     		str	r5, [r4, #4]
 216              		.loc 1 124 0
 217 001a 2370     		strb	r3, [r4]
 218              	.LBB84:
 219              	.LBB85:
 220              	.LBB86:
 221              		.loc 4 368 0
 222 001c FFF7FEFF 		bl	_stats_stop_measure_crit_thd
 223              	.LVL15:
 224              	.LBB87:
 225              	.LBB88:
 226              	.LBB89:
 227              		.loc 3 493 0
 228              		.syntax unified
ARM GAS  /tmp/ccFmpp4g.s 			page 5


 229              	@ 493 "../../modules/ChibiOS/os/common/ext/ARM/CMSIS/Core/Include/cmsis_gcc.h" 1
 230 0020 85F31188 		MSR basepri, r5
 231              	@ 0 "" 2
 232              	.LVL16:
 233              		.thumb
 234              		.syntax unified
 235 0024 38BD     		pop	{r3, r4, r5, pc}
 236              	.LBE89:
 237              	.LBE88:
 238              	.LBE87:
 239              	.LBE86:
 240              	.LBE85:
 241              	.LBE84:
 242              		.cfi_endproc
 243              	.LFE326:
 244              		.size	i2cStop, .-i2cStop
 245              		.section	.text.i2cGetErrors,"ax",%progbits
 246              		.align	1
 247              		.global	i2cGetErrors
 248              		.thumb
 249              		.thumb_func
 250              		.type	i2cGetErrors, %function
 251              	i2cGetErrors:
 252              	.LFB327:
 253              		.loc 1 137 0
 254              		.cfi_startproc
 255              		@ args = 0, pretend = 0, frame = 0
 256              		@ frame_needed = 0, uses_anonymous_args = 0
 257              		@ link register save eliminated.
 258              	.LVL17:
 259              		.loc 1 142 0
 260 0000 8068     		ldr	r0, [r0, #8]
 261              	.LVL18:
 262 0002 7047     		bx	lr
 263              		.cfi_endproc
 264              	.LFE327:
 265              		.size	i2cGetErrors, .-i2cGetErrors
 266              		.section	.text.i2cMasterTransmitTimeout,"ax",%progbits
 267              		.align	1
 268              		.global	i2cMasterTransmitTimeout
 269              		.thumb
 270              		.thumb_func
 271              		.type	i2cMasterTransmitTimeout, %function
 272              	i2cMasterTransmitTimeout:
 273              	.LFB328:
 274              		.loc 1 176 0
 275              		.cfi_startproc
 276              		@ args = 12, pretend = 0, frame = 0
 277              		@ frame_needed = 0, uses_anonymous_args = 0
 278              	.LVL19:
 279 0000 2DE9FF41 		push	{r0, r1, r2, r3, r4, r5, r6, r7, r8, lr}
 280              		.cfi_def_cfa_offset 40
 281              		.cfi_offset 4, -24
 282              		.cfi_offset 5, -20
 283              		.cfi_offset 6, -16
 284              		.cfi_offset 7, -12
 285              		.cfi_offset 8, -8
ARM GAS  /tmp/ccFmpp4g.s 			page 6


 286              		.cfi_offset 14, -4
 287              		.loc 1 176 0
 288 0004 9846     		mov	r8, r3
 289 0006 0446     		mov	r4, r0
 290 0008 0E46     		mov	r6, r1
 291 000a 1746     		mov	r7, r2
 292              	.LBB104:
 293              	.LBB105:
 294              	.LBB106:
 295              	.LBB107:
 296              	.LBB108:
 297              	.LBB109:
 298              		.loc 3 493 0
 299 000c 2023     		movs	r3, #32
 300              	.LVL20:
 301              		.syntax unified
 302              	@ 493 "../../modules/ChibiOS/os/common/ext/ARM/CMSIS/Core/Include/cmsis_gcc.h" 1
 303 000e 83F31188 		MSR basepri, r3
 304              	@ 0 "" 2
 305              	.LVL21:
 306              		.thumb
 307              		.syntax unified
 308              	.LBE109:
 309              	.LBE108:
 310              	.LBE107:
 311              		.loc 4 356 0
 312 0012 FFF7FEFF 		bl	_stats_start_measure_crit_thd
 313              	.LVL22:
 314              	.LBE106:
 315              	.LBE105:
 316              	.LBE104:
 317              		.loc 1 188 0
 318 0016 0323     		movs	r3, #3
 319 0018 2370     		strb	r3, [r4]
 320              		.loc 1 189 0
 321 001a 0C9B     		ldr	r3, [sp, #48]
 322 001c 0293     		str	r3, [sp, #8]
 323 001e 0B9B     		ldr	r3, [sp, #44]
 324 0020 0193     		str	r3, [sp, #4]
 325              		.loc 1 187 0
 326 0022 0025     		movs	r5, #0
 327              		.loc 1 189 0
 328 0024 0A9B     		ldr	r3, [sp, #40]
 329 0026 0093     		str	r3, [sp]
 330 0028 3146     		mov	r1, r6
 331 002a 4346     		mov	r3, r8
 332 002c 3A46     		mov	r2, r7
 333              		.loc 1 187 0
 334 002e A560     		str	r5, [r4, #8]
 335              		.loc 1 189 0
 336 0030 2046     		mov	r0, r4
 337 0032 FFF7FEFF 		bl	i2c_lld_master_transmit_timeout
 338              	.LVL23:
 339              		.loc 1 191 0
 340 0036 431C     		adds	r3, r0, #1
 341              		.loc 1 192 0
 342 0038 0CBF     		ite	eq
ARM GAS  /tmp/ccFmpp4g.s 			page 7


 343 003a 0523     		moveq	r3, #5
 344              		.loc 1 195 0
 345 003c 0223     		movne	r3, #2
 346 003e 2370     		strb	r3, [r4]
 347              		.loc 1 189 0
 348 0040 0646     		mov	r6, r0
 349              	.LVL24:
 350              	.LBB110:
 351              	.LBB111:
 352              	.LBB112:
 353              		.loc 4 368 0
 354 0042 FFF7FEFF 		bl	_stats_stop_measure_crit_thd
 355              	.LVL25:
 356              	.LBB113:
 357              	.LBB114:
 358              	.LBB115:
 359              		.loc 3 493 0
 360              		.syntax unified
 361              	@ 493 "../../modules/ChibiOS/os/common/ext/ARM/CMSIS/Core/Include/cmsis_gcc.h" 1
 362 0046 85F31188 		MSR basepri, r5
 363              	@ 0 "" 2
 364              	.LVL26:
 365              		.thumb
 366              		.syntax unified
 367              	.LBE115:
 368              	.LBE114:
 369              	.LBE113:
 370              	.LBE112:
 371              	.LBE111:
 372              	.LBE110:
 373              		.loc 1 199 0
 374 004a 3046     		mov	r0, r6
 375 004c 04B0     		add	sp, sp, #16
 376              		.cfi_def_cfa_offset 24
 377              		@ sp needed
 378 004e BDE8F081 		pop	{r4, r5, r6, r7, r8, pc}
 379              		.cfi_endproc
 380              	.LFE328:
 381              		.size	i2cMasterTransmitTimeout, .-i2cMasterTransmitTimeout
 382              		.section	.text.i2cMasterReceiveTimeout,"ax",%progbits
 383              		.align	1
 384              		.global	i2cMasterReceiveTimeout
 385              		.thumb
 386              		.thumb_func
 387              		.type	i2cMasterReceiveTimeout, %function
 388              	i2cMasterReceiveTimeout:
 389              	.LFB329:
 390              		.loc 1 225 0
 391              		.cfi_startproc
 392              		@ args = 4, pretend = 0, frame = 0
 393              		@ frame_needed = 0, uses_anonymous_args = 0
 394              	.LVL27:
 395 0000 2DE9F341 		push	{r0, r1, r4, r5, r6, r7, r8, lr}
 396              		.cfi_def_cfa_offset 32
 397              		.cfi_offset 4, -24
 398              		.cfi_offset 5, -20
 399              		.cfi_offset 6, -16
ARM GAS  /tmp/ccFmpp4g.s 			page 8


 400              		.cfi_offset 7, -12
 401              		.cfi_offset 8, -8
 402              		.cfi_offset 14, -4
 403              		.loc 1 225 0
 404 0004 9846     		mov	r8, r3
 405 0006 0446     		mov	r4, r0
 406 0008 0E46     		mov	r6, r1
 407 000a 1746     		mov	r7, r2
 408              	.LBB130:
 409              	.LBB131:
 410              	.LBB132:
 411              	.LBB133:
 412              	.LBB134:
 413              	.LBB135:
 414              		.loc 3 493 0
 415 000c 2023     		movs	r3, #32
 416              	.LVL28:
 417              		.syntax unified
 418              	@ 493 "../../modules/ChibiOS/os/common/ext/ARM/CMSIS/Core/Include/cmsis_gcc.h" 1
 419 000e 83F31188 		MSR basepri, r3
 420              	@ 0 "" 2
 421              	.LVL29:
 422              		.thumb
 423              		.syntax unified
 424              	.LBE135:
 425              	.LBE134:
 426              	.LBE133:
 427              		.loc 4 356 0
 428 0012 FFF7FEFF 		bl	_stats_start_measure_crit_thd
 429              	.LVL30:
 430              	.LBE132:
 431              	.LBE131:
 432              	.LBE130:
 433              		.loc 1 237 0
 434 0016 0423     		movs	r3, #4
 435 0018 2370     		strb	r3, [r4]
 436              		.loc 1 236 0
 437 001a 0025     		movs	r5, #0
 438              		.loc 1 238 0
 439 001c 089B     		ldr	r3, [sp, #32]
 440 001e 0093     		str	r3, [sp]
 441 0020 3146     		mov	r1, r6
 442 0022 4346     		mov	r3, r8
 443 0024 3A46     		mov	r2, r7
 444              		.loc 1 236 0
 445 0026 A560     		str	r5, [r4, #8]
 446              		.loc 1 238 0
 447 0028 2046     		mov	r0, r4
 448 002a FFF7FEFF 		bl	i2c_lld_master_receive_timeout
 449              	.LVL31:
 450              		.loc 1 239 0
 451 002e 431C     		adds	r3, r0, #1
 452              		.loc 1 240 0
 453 0030 0CBF     		ite	eq
 454 0032 0523     		moveq	r3, #5
 455              		.loc 1 243 0
 456 0034 0223     		movne	r3, #2
ARM GAS  /tmp/ccFmpp4g.s 			page 9


 457 0036 2370     		strb	r3, [r4]
 458              		.loc 1 238 0
 459 0038 0646     		mov	r6, r0
 460              	.LVL32:
 461              	.LBB136:
 462              	.LBB137:
 463              	.LBB138:
 464              		.loc 4 368 0
 465 003a FFF7FEFF 		bl	_stats_stop_measure_crit_thd
 466              	.LVL33:
 467              	.LBB139:
 468              	.LBB140:
 469              	.LBB141:
 470              		.loc 3 493 0
 471              		.syntax unified
 472              	@ 493 "../../modules/ChibiOS/os/common/ext/ARM/CMSIS/Core/Include/cmsis_gcc.h" 1
 473 003e 85F31188 		MSR basepri, r5
 474              	@ 0 "" 2
 475              	.LVL34:
 476              		.thumb
 477              		.syntax unified
 478              	.LBE141:
 479              	.LBE140:
 480              	.LBE139:
 481              	.LBE138:
 482              	.LBE137:
 483              	.LBE136:
 484              		.loc 1 247 0
 485 0042 3046     		mov	r0, r6
 486 0044 02B0     		add	sp, sp, #8
 487              		.cfi_def_cfa_offset 24
 488              		@ sp needed
 489 0046 BDE8F081 		pop	{r4, r5, r6, r7, r8, pc}
 490              		.cfi_endproc
 491              	.LFE329:
 492              		.size	i2cMasterReceiveTimeout, .-i2cMasterReceiveTimeout
 493              		.section	.text.i2cAcquireBus,"ax",%progbits
 494              		.align	1
 495              		.global	i2cAcquireBus
 496              		.thumb
 497              		.thumb_func
 498              		.type	i2cAcquireBus, %function
 499              	i2cAcquireBus:
 500              	.LFB330:
 501              		.loc 1 261 0
 502              		.cfi_startproc
 503              		@ args = 0, pretend = 0, frame = 0
 504              		@ frame_needed = 0, uses_anonymous_args = 0
 505              		@ link register save eliminated.
 506              	.LVL35:
 507              	.LBB142:
 508              	.LBB143:
 509              		.loc 2 994 0
 510 0000 0C30     		adds	r0, r0, #12
 511              	.LVL36:
 512 0002 FFF7FEBF 		b	chMtxLock
 513              	.LVL37:
ARM GAS  /tmp/ccFmpp4g.s 			page 10


 514              	.LBE143:
 515              	.LBE142:
 516              		.cfi_endproc
 517              	.LFE330:
 518              		.size	i2cAcquireBus, .-i2cAcquireBus
 519              		.section	.text.i2cReleaseBus,"ax",%progbits
 520              		.align	1
 521              		.global	i2cReleaseBus
 522              		.thumb
 523              		.thumb_func
 524              		.type	i2cReleaseBus, %function
 525              	i2cReleaseBus:
 526              	.LFB331:
 527              		.loc 1 277 0
 528              		.cfi_startproc
 529              		@ args = 0, pretend = 0, frame = 0
 530              		@ frame_needed = 0, uses_anonymous_args = 0
 531              		@ link register save eliminated.
 532              	.LVL38:
 533              	.LBB144:
 534              	.LBB145:
 535              		.loc 2 1018 0
 536 0000 0C30     		adds	r0, r0, #12
 537              	.LVL39:
 538 0002 FFF7FEBF 		b	chMtxUnlock
 539              	.LVL40:
 540              	.LBE145:
 541              	.LBE144:
 542              		.cfi_endproc
 543              	.LFE331:
 544              		.size	i2cReleaseBus, .-i2cReleaseBus
 545              		.text
 546              	.Letext0:
 547              		.file 5 "/usr/lib/gcc/arm-none-eabi/5.4.1/include/stddef.h"
 548              		.file 6 "/usr/include/newlib/machine/_default_types.h"
 549              		.file 7 "/usr/include/newlib/sys/_stdint.h"
 550              		.file 8 "../../modules/ChibiOS/os/common/ports/ARMCMx/compilers/GCC/chtypes.h"
 551              		.file 9 "../../modules/ChibiOS/os/rt/include/chsystypes.h"
 552              		.file 10 "../../modules/ChibiOS/os/rt/include/chschd.h"
 553              		.file 11 "../../modules/ChibiOS/os/rt/include/chtime.h"
 554              		.file 12 "../../modules/ChibiOS/os/common/ext/ST/STM32F4xx/stm32f427xx.h"
 555              		.file 13 "../../modules/ChibiOS/os/common/ports/ARMCMx/chcore.h"
 556              		.file 14 "../../modules/ChibiOS/os/common/ports/ARMCMx/chcore_v7m.h"
 557              		.file 15 "../../modules/ChibiOS/os/rt/include/chtm.h"
 558              		.file 16 "../../modules/ChibiOS/os/rt/include/chstats.h"
 559              		.file 17 "../../modules/ChibiOS/os/rt/include/chsem.h"
 560              		.file 18 "../../modules/ChibiOS/os/rt/include/chmtx.h"
 561              		.file 19 "../../modules/ChibiOS/os/hal/ports/STM32/LLD/DMAv2/stm32_dma.h"
 562              		.file 20 "../../modules/ChibiOS/os/hal/include/hal_i2c.h"
 563              		.file 21 "../../modules/ChibiOS/os/hal/ports/STM32/LLD/I2Cv1/hal_i2c_lld.h"
 564              		.file 22 "../../modules/ChibiOS/os/common/ext/ARM/CMSIS/Core/Include/core_cm4.h"