ARM GAS  /tmp/ccMGS3NT.s 			page 1


   1              		.syntax unified
   2              		.cpu cortex-m4
   3              		.eabi_attribute 27, 1
   4              		.eabi_attribute 28, 1
   5              		.fpu fpv4-sp-d16
   6              		.eabi_attribute 20, 1
   7              		.eabi_attribute 21, 1
   8              		.eabi_attribute 23, 3
   9              		.eabi_attribute 24, 1
  10              		.eabi_attribute 25, 1
  11              		.eabi_attribute 26, 1
  12              		.eabi_attribute 30, 4
  13              		.eabi_attribute 34, 1
  14              		.eabi_attribute 18, 4
  15              		.thumb
  16              		.syntax unified
  17              		.file	"hal_sdc_lld.c"
  18              		.text
  19              	.Ltext0:
  20              		.cfi_sections	.debug_frame
  21              		.section	.text.sdc_lld_collect_errors.isra.0,"ax",%progbits
  22              		.align	1
  23              		.thumb
  24              		.thumb_func
  25              		.type	sdc_lld_collect_errors.isra.0, %function
  26              	sdc_lld_collect_errors.isra.0:
  27              	.LFB347:
  28              		.file 1 "../../modules/ChibiOS/os/hal/ports/STM32/LLD/SDIOv1/hal_sdc_lld.c"
  29              		.loc 1 263 0
  30              		.cfi_startproc
  31              		@ args = 0, pretend = 0, frame = 0
  32              		@ frame_needed = 0, uses_anonymous_args = 0
  33              		@ link register save eliminated.
  34              	.LVL0:
  35              		.loc 1 266 0
  36 0000 01F00103 		and	r3, r1, #1
  37              	.LVL1:
  38              		.loc 1 268 0
  39 0004 8A07     		lsls	r2, r1, #30
  40              		.loc 1 269 0
  41 0006 48BF     		it	mi
  42 0008 43F00203 		orrmi	r3, r3, #2
  43              	.LVL2:
  44              		.loc 1 270 0
  45 000c 4A07     		lsls	r2, r1, #29
  46              		.loc 1 271 0
  47 000e 48BF     		it	mi
  48 0010 43F00803 		orrmi	r3, r3, #8
  49              	.LVL3:
  50              		.loc 1 272 0
  51 0014 0A07     		lsls	r2, r1, #28
  52              		.loc 1 273 0
  53 0016 48BF     		it	mi
  54 0018 43F00403 		orrmi	r3, r3, #4
  55              	.LVL4:
  56              		.loc 1 274 0
  57 001c CA06     		lsls	r2, r1, #27
ARM GAS  /tmp/ccMGS3NT.s 			page 2


  58              		.loc 1 275 0
  59 001e 48BF     		it	mi
  60 0020 43F01003 		orrmi	r3, r3, #16
  61              	.LVL5:
  62              		.loc 1 276 0
  63 0024 8A06     		lsls	r2, r1, #26
  64              		.loc 1 277 0
  65 0026 48BF     		it	mi
  66 0028 43F02003 		orrmi	r3, r3, #32
  67              	.LVL6:
  68              		.loc 1 278 0
  69 002c 8A05     		lsls	r2, r1, #22
  70              		.loc 1 281 0
  71 002e 0268     		ldr	r2, [r0]
  72              		.loc 1 279 0
  73 0030 48BF     		it	mi
  74 0032 43F04003 		orrmi	r3, r3, #64
  75              	.LVL7:
  76              		.loc 1 281 0
  77 0036 1343     		orrs	r3, r3, r2
  78              	.LVL8:
  79 0038 0360     		str	r3, [r0]
  80 003a 7047     		bx	lr
  81              		.cfi_endproc
  82              	.LFE347:
  83              		.size	sdc_lld_collect_errors.isra.0, .-sdc_lld_collect_errors.isra.0
  84              		.section	.text.Vector104,"ax",%progbits
  85              		.align	1
  86              		.global	Vector104
  87              		.thumb
  88              		.thumb_func
  89              		.type	Vector104, %function
  90              	Vector104:
  91              	.LFB329:
  92              		.loc 1 322 0
  93              		.cfi_startproc
  94              		@ args = 0, pretend = 0, frame = 0
  95              		@ frame_needed = 0, uses_anonymous_args = 0
  96 0000 10B5     		push	{r4, lr}
  97              		.cfi_def_cfa_offset 8
  98              		.cfi_offset 4, -8
  99              		.cfi_offset 14, -4
 100              		.loc 1 324 0
 101 0002 FFF7FEFF 		bl	_stats_increase_irq
 102              	.LVL9:
 103              	.LBB70:
 104              	.LBB71:
 105              	.LBB72:
 106              	.LBB73:
 107              	.LBB74:
 108              	.LBB75:
 109              	.LBB76:
 110              		.file 2 "../../modules/ChibiOS/os/common/ext/ARM/CMSIS/Core/Include/cmsis_gcc.h"
 111              		.loc 2 493 0
 112 0006 2023     		movs	r3, #32
 113              		.syntax unified
 114              	@ 493 "../../modules/ChibiOS/os/common/ext/ARM/CMSIS/Core/Include/cmsis_gcc.h" 1
ARM GAS  /tmp/ccMGS3NT.s 			page 3


 115 0008 83F31188 		MSR basepri, r3
 116              	@ 0 "" 2
 117              	.LVL10:
 118              		.thumb
 119              		.syntax unified
 120              	.LBE76:
 121              	.LBE75:
 122              	.LBE74:
 123              	.LBE73:
 124              		.file 3 "../../modules/ChibiOS/os/rt/include/chsys.h"
 125              		.loc 3 396 0
 126 000c FFF7FEFF 		bl	_stats_start_measure_crit_isr
 127              	.LVL11:
 128              	.LBE72:
 129              	.LBE71:
 130              	.LBE70:
 131              		.loc 1 330 0
 132 0010 074B     		ldr	r3, .L27
 133              	.LBB77:
 134              	.LBB78:
 135              		.file 4 "../../modules/ChibiOS/os/hal/osal/rt/osal.h"
 136              		.loc 4 775 0
 137 0012 0848     		ldr	r0, .L27+4
 138              	.LBE78:
 139              	.LBE77:
 140              		.loc 1 330 0
 141 0014 0024     		movs	r4, #0
 142 0016 DC63     		str	r4, [r3, #60]
 143              	.LVL12:
 144              	.LBB80:
 145              	.LBB79:
 146              		.loc 4 775 0
 147 0018 2146     		mov	r1, r4
 148 001a FFF7FEFF 		bl	chThdResumeI
 149              	.LVL13:
 150              	.LBE79:
 151              	.LBE80:
 152              	.LBB81:
 153              	.LBB82:
 154              	.LBB83:
 155              		.loc 3 416 0
 156 001e FFF7FEFF 		bl	_stats_stop_measure_crit_isr
 157              	.LVL14:
 158              	.LBB84:
 159              	.LBB85:
 160              	.LBB86:
 161              	.LBB87:
 162              		.loc 2 493 0
 163              		.syntax unified
 164              	@ 493 "../../modules/ChibiOS/os/common/ext/ARM/CMSIS/Core/Include/cmsis_gcc.h" 1
 165 0022 84F31188 		MSR basepri, r4
 166              	@ 0 "" 2
 167              	.LVL15:
 168              		.thumb
 169              		.syntax unified
 170              	.LBE87:
 171              	.LBE86:
ARM GAS  /tmp/ccMGS3NT.s 			page 4


 172              	.LBE85:
 173              	.LBE84:
 174              	.LBE83:
 175              	.LBE82:
 176              	.LBE81:
 177              		.loc 1 337 0
 178 0026 BDE81040 		pop	{r4, lr}
 179              		.cfi_restore 14
 180              		.cfi_restore 4
 181              		.cfi_def_cfa_offset 0
 182              		.loc 1 336 0
 183 002a FFF7FEBF 		b	_port_irq_epilogue
 184              	.LVL16:
 185              	.L28:
 186 002e 00BF     		.align	2
 187              	.L27:
 188 0030 002C0140 		.word	1073818624
 189 0034 3C000000 		.word	.LANCHOR0+60
 190              		.cfi_endproc
 191              	.LFE329:
 192              		.size	Vector104, .-Vector104
 193              		.section	.text.sdc_lld_init,"ax",%progbits
 194              		.align	1
 195              		.global	sdc_lld_init
 196              		.thumb
 197              		.thumb_func
 198              		.type	sdc_lld_init, %function
 199              	sdc_lld_init:
 200              	.LFB330:
 201              		.loc 1 348 0
 202              		.cfi_startproc
 203              		@ args = 0, pretend = 0, frame = 0
 204              		@ frame_needed = 0, uses_anonymous_args = 0
 205 0000 10B5     		push	{r4, lr}
 206              		.cfi_def_cfa_offset 8
 207              		.cfi_offset 4, -8
 208              		.cfi_offset 14, -4
 209              		.loc 1 350 0
 210 0002 074C     		ldr	r4, .L30
 211 0004 2046     		mov	r0, r4
 212 0006 FFF7FEFF 		bl	sdcObjectInit
 213              	.LVL17:
 214              		.loc 1 351 0
 215 000a 0023     		movs	r3, #0
 216 000c E363     		str	r3, [r4, #60]
 217              		.loc 1 352 0
 218 000e 6364     		str	r3, [r4, #68]
 219              		.loc 1 353 0
 220 0010 044B     		ldr	r3, .L30+4
 221 0012 A364     		str	r3, [r4, #72]
 222              		.loc 1 354 0
 223 0014 0921     		movs	r1, #9
 224 0016 3120     		movs	r0, #49
 225              		.loc 1 355 0
 226 0018 BDE81040 		pop	{r4, lr}
 227              		.cfi_restore 14
 228              		.cfi_restore 4
ARM GAS  /tmp/ccMGS3NT.s 			page 5


 229              		.cfi_def_cfa_offset 0
 230              		.loc 1 354 0
 231 001c FFF7FEBF 		b	nvicEnableVector
 232              	.LVL18:
 233              	.L31:
 234              		.align	2
 235              	.L30:
 236 0020 00000000 		.word	.LANCHOR0
 237 0024 002C0140 		.word	1073818624
 238              		.cfi_endproc
 239              	.LFE330:
 240              		.size	sdc_lld_init, .-sdc_lld_init
 241              		.section	.text.sdc_lld_start,"ax",%progbits
 242              		.align	1
 243              		.global	sdc_lld_start
 244              		.thumb
 245              		.thumb_func
 246              		.type	sdc_lld_start, %function
 247              	sdc_lld_start:
 248              	.LFB331:
 249              		.loc 1 364 0
 250              		.cfi_startproc
 251              		@ args = 0, pretend = 0, frame = 0
 252              		@ frame_needed = 0, uses_anonymous_args = 0
 253              	.LVL19:
 254              		.loc 1 367 0
 255 0000 C36A     		ldr	r3, [r0, #44]
 256              		.loc 1 364 0
 257 0002 10B5     		push	{r4, lr}
 258              		.cfi_def_cfa_offset 8
 259              		.cfi_offset 4, -8
 260              		.cfi_offset 14, -4
 261              		.loc 1 364 0
 262 0004 0446     		mov	r4, r0
 263              		.loc 1 367 0
 264 0006 0BB9     		cbnz	r3, .L33
 265              		.loc 1 368 0
 266 0008 124B     		ldr	r3, .L36
 267 000a C362     		str	r3, [r0, #44]
 268              	.L33:
 269              		.loc 1 378 0
 270 000c 124B     		ldr	r3, .L36+4
 271 000e 2364     		str	r3, [r4, #64]
 272              		.loc 1 383 0
 273 0010 2379     		ldrb	r3, [r4, #4]	@ zero_extendqisi2
 274 0012 012B     		cmp	r3, #1
 275 0014 16D1     		bne	.L34
 276              		.loc 1 384 0
 277 0016 0023     		movs	r3, #0
 278 0018 1A46     		mov	r2, r3
 279 001a 0921     		movs	r1, #9
 280 001c 0E20     		movs	r0, #14
 281              	.LVL20:
 282 001e FFF7FEFF 		bl	dmaStreamAllocI
 283              	.LVL21:
 284              		.loc 1 390 0
 285 0022 A36C     		ldr	r3, [r4, #72]
ARM GAS  /tmp/ccMGS3NT.s 			page 6


 286 0024 0268     		ldr	r2, [r0]
 287              		.loc 1 384 0
 288 0026 6064     		str	r0, [r4, #68]
 289              		.loc 1 390 0
 290 0028 8033     		adds	r3, r3, #128
 291 002a 9360     		str	r3, [r2, #8]
 292              		.loc 1 392 0
 293 002c 0723     		movs	r3, #7
 294 002e 5361     		str	r3, [r2, #20]
 295              		.loc 1 394 0
 296 0030 0A4B     		ldr	r3, .L36+8
 297 0032 5A6C     		ldr	r2, [r3, #68]
 298 0034 42F40062 		orr	r2, r2, #2048
 299 0038 5A64     		str	r2, [r3, #68]
 300 003a 5A6E     		ldr	r2, [r3, #100]
 301 003c 42F40062 		orr	r2, r2, #2048
 302 0040 5A66     		str	r2, [r3, #100]
 303 0042 5B6E     		ldr	r3, [r3, #100]
 304              	.L34:
 305              		.loc 1 398 0
 306 0044 A36C     		ldr	r3, [r4, #72]
 307 0046 0022     		movs	r2, #0
 308 0048 1A60     		str	r2, [r3]
 309              		.loc 1 399 0
 310 004a 5A60     		str	r2, [r3, #4]
 311              		.loc 1 400 0
 312 004c DA62     		str	r2, [r3, #44]
 313              		.loc 1 401 0
 314 004e 5A62     		str	r2, [r3, #36]
 315 0050 10BD     		pop	{r4, pc}
 316              	.LVL22:
 317              	.L37:
 318 0052 00BF     		.align	2
 319              	.L36:
 320 0054 00000000 		.word	.LANCHOR1
 321 0058 2054A308 		.word	144921632
 322 005c 00380240 		.word	1073887232
 323              		.cfi_endproc
 324              	.LFE331:
 325              		.size	sdc_lld_start, .-sdc_lld_start
 326              		.section	.text.sdc_lld_stop,"ax",%progbits
 327              		.align	1
 328              		.global	sdc_lld_stop
 329              		.thumb
 330              		.thumb_func
 331              		.type	sdc_lld_stop, %function
 332              	sdc_lld_stop:
 333              	.LFB332:
 334              		.loc 1 411 0
 335              		.cfi_startproc
 336              		@ args = 0, pretend = 0, frame = 0
 337              		@ frame_needed = 0, uses_anonymous_args = 0
 338              	.LVL23:
 339 0000 38B5     		push	{r3, r4, r5, lr}
 340              		.cfi_def_cfa_offset 16
 341              		.cfi_offset 3, -16
 342              		.cfi_offset 4, -12
ARM GAS  /tmp/ccMGS3NT.s 			page 7


 343              		.cfi_offset 5, -8
 344              		.cfi_offset 14, -4
 345              		.loc 1 413 0
 346 0002 0379     		ldrb	r3, [r0, #4]	@ zero_extendqisi2
 347 0004 012B     		cmp	r3, #1
 348              		.loc 1 411 0
 349 0006 0546     		mov	r5, r0
 350              		.loc 1 413 0
 351 0008 13D0     		beq	.L38
 352              		.loc 1 416 0
 353 000a 836C     		ldr	r3, [r0, #72]
 354              		.loc 1 422 0
 355 000c 406C     		ldr	r0, [r0, #68]
 356              	.LVL24:
 357              		.loc 1 416 0
 358 000e 0024     		movs	r4, #0
 359 0010 1C60     		str	r4, [r3]
 360              		.loc 1 417 0
 361 0012 5C60     		str	r4, [r3, #4]
 362              		.loc 1 418 0
 363 0014 DC62     		str	r4, [r3, #44]
 364              		.loc 1 419 0
 365 0016 5C62     		str	r4, [r3, #36]
 366              		.loc 1 422 0
 367 0018 FFF7FEFF 		bl	dmaStreamFreeI
 368              	.LVL25:
 369              		.loc 1 426 0
 370 001c 054B     		ldr	r3, .L43
 371              		.loc 1 423 0
 372 001e 6C64     		str	r4, [r5, #68]
 373              		.loc 1 426 0
 374 0020 5A6C     		ldr	r2, [r3, #68]
 375 0022 22F40062 		bic	r2, r2, #2048
 376 0026 5A64     		str	r2, [r3, #68]
 377 0028 5A6E     		ldr	r2, [r3, #100]
 378 002a 22F40062 		bic	r2, r2, #2048
 379 002e 5A66     		str	r2, [r3, #100]
 380 0030 5B6E     		ldr	r3, [r3, #100]
 381              	.L38:
 382 0032 38BD     		pop	{r3, r4, r5, pc}
 383              	.LVL26:
 384              	.L44:
 385              		.align	2
 386              	.L43:
 387 0034 00380240 		.word	1073887232
 388              		.cfi_endproc
 389              	.LFE332:
 390              		.size	sdc_lld_stop, .-sdc_lld_stop
 391              		.section	.text.sdc_lld_start_clk,"ax",%progbits
 392              		.align	1
 393              		.global	sdc_lld_start_clk
 394              		.thumb
 395              		.thumb_func
 396              		.type	sdc_lld_start_clk, %function
 397              	sdc_lld_start_clk:
 398              	.LFB333:
 399              		.loc 1 437 0
ARM GAS  /tmp/ccMGS3NT.s 			page 8


 400              		.cfi_startproc
 401              		@ args = 0, pretend = 0, frame = 0
 402              		@ frame_needed = 0, uses_anonymous_args = 0
 403              		@ link register save eliminated.
 404              	.LVL27:
 405              		.loc 1 440 0
 406 0000 836C     		ldr	r3, [r0, #72]
 407 0002 7822     		movs	r2, #120
 408 0004 5A60     		str	r2, [r3, #4]
 409              		.loc 1 441 0
 410 0006 1A68     		ldr	r2, [r3]
 411 0008 42F00302 		orr	r2, r2, #3
 412 000c 1A60     		str	r2, [r3]
 413              		.loc 1 442 0
 414 000e 5A68     		ldr	r2, [r3, #4]
 415 0010 42F48072 		orr	r2, r2, #256
 416 0014 5A60     		str	r2, [r3, #4]
 417              	.LVL28:
 418              	.LBB88:
 419              	.LBB89:
 420              		.loc 4 720 0
 421 0016 42F21070 		movw	r0, #10000
 422              	.LVL29:
 423 001a FFF7FEBF 		b	chThdSleep
 424              	.LVL30:
 425              	.LBE89:
 426              	.LBE88:
 427              		.cfi_endproc
 428              	.LFE333:
 429              		.size	sdc_lld_start_clk, .-sdc_lld_start_clk
 430              		.section	.text.sdc_lld_set_data_clk,"ax",%progbits
 431              		.align	1
 432              		.global	sdc_lld_set_data_clk
 433              		.thumb
 434              		.thumb_func
 435              		.type	sdc_lld_set_data_clk, %function
 436              	sdc_lld_set_data_clk:
 437              	.LFB334:
 438              		.loc 1 456 0
 439              		.cfi_startproc
 440              		@ args = 0, pretend = 0, frame = 0
 441              		@ frame_needed = 0, uses_anonymous_args = 0
 442              		@ link register save eliminated.
 443              	.LVL31:
 444              		.loc 1 468 0
 445 0000 826C     		ldr	r2, [r0, #72]
 446              		.loc 1 457 0
 447 0002 C16A     		ldr	r1, [r0, #44]
 448              	.LVL32:
 449              		.loc 1 468 0
 450 0004 5368     		ldr	r3, [r2, #4]
 451 0006 4979     		ldrb	r1, [r1, #5]	@ zero_extendqisi2
 452 0008 23F0FF03 		bic	r3, r3, #255
 453 000c 0B43     		orrs	r3, r3, r1
 454 000e 5360     		str	r3, [r2, #4]
 455              	.LVL33:
 456 0010 7047     		bx	lr
ARM GAS  /tmp/ccMGS3NT.s 			page 9


 457              		.cfi_endproc
 458              	.LFE334:
 459              		.size	sdc_lld_set_data_clk, .-sdc_lld_set_data_clk
 460              		.section	.text.sdc_lld_stop_clk,"ax",%progbits
 461              		.align	1
 462              		.global	sdc_lld_stop_clk
 463              		.thumb
 464              		.thumb_func
 465              		.type	sdc_lld_stop_clk, %function
 466              	sdc_lld_stop_clk:
 467              	.LFB335:
 468              		.loc 1 479 0
 469              		.cfi_startproc
 470              		@ args = 0, pretend = 0, frame = 0
 471              		@ frame_needed = 0, uses_anonymous_args = 0
 472              		@ link register save eliminated.
 473              	.LVL34:
 474              		.loc 1 481 0
 475 0000 836C     		ldr	r3, [r0, #72]
 476 0002 0022     		movs	r2, #0
 477 0004 5A60     		str	r2, [r3, #4]
 478              		.loc 1 482 0
 479 0006 1A60     		str	r2, [r3]
 480 0008 7047     		bx	lr
 481              		.cfi_endproc
 482              	.LFE335:
 483              		.size	sdc_lld_stop_clk, .-sdc_lld_stop_clk
 484              		.section	.text.sdc_lld_set_bus_mode,"ax",%progbits
 485              		.align	1
 486              		.global	sdc_lld_set_bus_mode
 487              		.thumb
 488              		.thumb_func
 489              		.type	sdc_lld_set_bus_mode, %function
 490              	sdc_lld_set_bus_mode:
 491              	.LFB336:
 492              		.loc 1 493 0
 493              		.cfi_startproc
 494              		@ args = 0, pretend = 0, frame = 0
 495              		@ frame_needed = 0, uses_anonymous_args = 0
 496              		@ link register save eliminated.
 497              	.LVL35:
 498              		.loc 1 494 0
 499 0000 826C     		ldr	r2, [r0, #72]
 500 0002 5368     		ldr	r3, [r2, #4]
 501              		.loc 1 496 0
 502 0004 0129     		cmp	r1, #1
 503              		.loc 1 494 0
 504 0006 23F4C053 		bic	r3, r3, #6144
 505              	.LVL36:
 506              		.loc 1 496 0
 507 000a 03D0     		beq	.L50
 508 000c 07D3     		bcc	.L53
 509 000e 0229     		cmp	r1, #2
 510 0010 03D0     		beq	.L52
 511 0012 7047     		bx	lr
 512              	.L50:
 513              		.loc 1 501 0
ARM GAS  /tmp/ccMGS3NT.s 			page 10


 514 0014 43F40063 		orr	r3, r3, #2048
 515              	.LVL37:
 516 0018 01E0     		b	.L53
 517              	.LVL38:
 518              	.L52:
 519              		.loc 1 504 0
 520 001a 43F48053 		orr	r3, r3, #4096
 521              	.LVL39:
 522              	.L53:
 523 001e 5360     		str	r3, [r2, #4]
 524 0020 7047     		bx	lr
 525              		.cfi_endproc
 526              	.LFE336:
 527              		.size	sdc_lld_set_bus_mode, .-sdc_lld_set_bus_mode
 528              		.section	.text.sdc_lld_send_cmd_none,"ax",%progbits
 529              		.align	1
 530              		.global	sdc_lld_send_cmd_none
 531              		.thumb
 532              		.thumb_func
 533              		.type	sdc_lld_send_cmd_none, %function
 534              	sdc_lld_send_cmd_none:
 535              	.LFB337:
 536              		.loc 1 518 0
 537              		.cfi_startproc
 538              		@ args = 0, pretend = 0, frame = 0
 539              		@ frame_needed = 0, uses_anonymous_args = 0
 540              		@ link register save eliminated.
 541              	.LVL40:
 542              		.loc 1 520 0
 543 0000 836C     		ldr	r3, [r0, #72]
 544              		.loc 1 521 0
 545 0002 41F48061 		orr	r1, r1, #1024
 546              	.LVL41:
 547              		.loc 1 520 0
 548 0006 9A60     		str	r2, [r3, #8]
 549              		.loc 1 521 0
 550 0008 D960     		str	r1, [r3, #12]
 551              	.LVL42:
 552              	.L55:
 553              		.loc 1 522 0 discriminator 1
 554 000a 5A6B     		ldr	r2, [r3, #52]
 555 000c 1206     		lsls	r2, r2, #24
 556 000e FCD5     		bpl	.L55
 557              		.loc 1 524 0
 558 0010 8022     		movs	r2, #128
 559 0012 9A63     		str	r2, [r3, #56]
 560 0014 7047     		bx	lr
 561              		.cfi_endproc
 562              	.LFE337:
 563              		.size	sdc_lld_send_cmd_none, .-sdc_lld_send_cmd_none
 564              		.section	.text.sdc_lld_send_cmd_short,"ax",%progbits
 565              		.align	1
 566              		.global	sdc_lld_send_cmd_short
 567              		.thumb
 568              		.thumb_func
 569              		.type	sdc_lld_send_cmd_short, %function
 570              	sdc_lld_send_cmd_short:
ARM GAS  /tmp/ccMGS3NT.s 			page 11


 571              	.LFB338:
 572              		.loc 1 543 0
 573              		.cfi_startproc
 574              		@ args = 0, pretend = 0, frame = 0
 575              		@ frame_needed = 0, uses_anonymous_args = 0
 576              	.LVL43:
 577 0000 10B5     		push	{r4, lr}
 578              		.cfi_def_cfa_offset 8
 579              		.cfi_offset 4, -8
 580              		.cfi_offset 14, -4
 581              		.loc 1 546 0
 582 0002 846C     		ldr	r4, [r0, #72]
 583              		.loc 1 547 0
 584 0004 41F48861 		orr	r1, r1, #1088
 585              	.LVL44:
 586              		.loc 1 546 0
 587 0008 A260     		str	r2, [r4, #8]
 588              		.loc 1 547 0
 589 000a E160     		str	r1, [r4, #12]
 590              	.LVL45:
 591              	.L59:
 592              		.loc 1 548 0 discriminator 1
 593 000c 616B     		ldr	r1, [r4, #52]
 594              	.LVL46:
 595 000e 11F04502 		ands	r2, r1, #69
 596 0012 FBD0     		beq	.L59
 597              		.loc 1 551 0
 598 0014 A263     		str	r2, [r4, #56]
 599              		.loc 1 553 0
 600 0016 11F00402 		ands	r2, r1, #4
 601 001a 04D0     		beq	.L60
 602              		.loc 1 554 0
 603 001c 3430     		adds	r0, r0, #52
 604              	.LVL47:
 605 001e FFF7FEFF 		bl	sdc_lld_collect_errors.isra.0
 606              	.LVL48:
 607              		.loc 1 555 0
 608 0022 0120     		movs	r0, #1
 609 0024 10BD     		pop	{r4, pc}
 610              	.LVL49:
 611              	.L60:
 612              		.loc 1 557 0
 613 0026 6169     		ldr	r1, [r4, #20]
 614              	.LVL50:
 615 0028 1960     		str	r1, [r3]
 616              		.loc 1 558 0
 617 002a 1046     		mov	r0, r2
 618              	.LVL51:
 619              		.loc 1 559 0
 620 002c 10BD     		pop	{r4, pc}
 621              		.cfi_endproc
 622              	.LFE338:
 623              		.size	sdc_lld_send_cmd_short, .-sdc_lld_send_cmd_short
 624              		.section	.text.sdc_lld_send_cmd_short_crc,"ax",%progbits
 625              		.align	1
 626              		.global	sdc_lld_send_cmd_short_crc
 627              		.thumb
ARM GAS  /tmp/ccMGS3NT.s 			page 12


 628              		.thumb_func
 629              		.type	sdc_lld_send_cmd_short_crc, %function
 630              	sdc_lld_send_cmd_short_crc:
 631              	.LFB339:
 632              		.loc 1 576 0
 633              		.cfi_startproc
 634              		@ args = 0, pretend = 0, frame = 0
 635              		@ frame_needed = 0, uses_anonymous_args = 0
 636              	.LVL52:
 637 0000 10B5     		push	{r4, lr}
 638              		.cfi_def_cfa_offset 8
 639              		.cfi_offset 4, -8
 640              		.cfi_offset 14, -4
 641              		.loc 1 579 0
 642 0002 846C     		ldr	r4, [r0, #72]
 643              		.loc 1 580 0
 644 0004 41F48861 		orr	r1, r1, #1088
 645              	.LVL53:
 646              		.loc 1 579 0
 647 0008 A260     		str	r2, [r4, #8]
 648              		.loc 1 580 0
 649 000a E160     		str	r1, [r4, #12]
 650              	.LVL54:
 651              	.L65:
 652              		.loc 1 581 0 discriminator 1
 653 000c 616B     		ldr	r1, [r4, #52]
 654              	.LVL55:
 655 000e 11F04502 		ands	r2, r1, #69
 656 0012 FBD0     		beq	.L65
 657              		.loc 1 584 0
 658 0014 A263     		str	r2, [r4, #56]
 659              		.loc 1 585 0
 660 0016 11F00502 		ands	r2, r1, #5
 661 001a 04D0     		beq	.L66
 662              		.loc 1 586 0
 663 001c 3430     		adds	r0, r0, #52
 664              	.LVL56:
 665 001e FFF7FEFF 		bl	sdc_lld_collect_errors.isra.0
 666              	.LVL57:
 667              		.loc 1 587 0
 668 0022 0120     		movs	r0, #1
 669 0024 10BD     		pop	{r4, pc}
 670              	.LVL58:
 671              	.L66:
 672              		.loc 1 589 0
 673 0026 6169     		ldr	r1, [r4, #20]
 674              	.LVL59:
 675 0028 1960     		str	r1, [r3]
 676              		.loc 1 590 0
 677 002a 1046     		mov	r0, r2
 678              	.LVL60:
 679              		.loc 1 591 0
 680 002c 10BD     		pop	{r4, pc}
 681              		.cfi_endproc
 682              	.LFE339:
 683              		.size	sdc_lld_send_cmd_short_crc, .-sdc_lld_send_cmd_short_crc
 684              		.section	.text.sdc_lld_wait_transaction_end,"ax",%progbits
ARM GAS  /tmp/ccMGS3NT.s 			page 13


 685              		.align	1
 686              		.thumb
 687              		.thumb_func
 688              		.type	sdc_lld_wait_transaction_end, %function
 689              	sdc_lld_wait_transaction_end:
 690              	.LFB326:
 691              		.loc 1 211 0
 692              		.cfi_startproc
 693              		@ args = 0, pretend = 0, frame = 0
 694              		@ frame_needed = 0, uses_anonymous_args = 0
 695              	.LVL61:
 696 0000 2DE9F041 		push	{r4, r5, r6, r7, r8, lr}
 697              		.cfi_def_cfa_offset 24
 698              		.cfi_offset 4, -24
 699              		.cfi_offset 5, -20
 700              		.cfi_offset 6, -16
 701              		.cfi_offset 7, -12
 702              		.cfi_offset 8, -8
 703              		.cfi_offset 14, -4
 704              	.LBB121:
 705              	.LBB122:
 706              	.LBB123:
 707              	.LBB124:
 708              	.LBB125:
 709              	.LBB126:
 710              		.loc 2 493 0
 711 0004 2023     		movs	r3, #32
 712              	.LBE126:
 713              	.LBE125:
 714              	.LBE124:
 715              	.LBE123:
 716              	.LBE122:
 717              	.LBE121:
 718              		.loc 1 211 0
 719 0006 0546     		mov	r5, r0
 720              	.LVL62:
 721 0008 0F46     		mov	r7, r1
 722 000a 1646     		mov	r6, r2
 723              	.LBB132:
 724              	.LBB131:
 725              	.LBB130:
 726              	.LBB129:
 727              	.LBB128:
 728              	.LBB127:
 729              		.loc 2 493 0
 730              		.syntax unified
 731              	@ 493 "../../modules/ChibiOS/os/common/ext/ARM/CMSIS/Core/Include/cmsis_gcc.h" 1
 732 000c 83F31188 		MSR basepri, r3
 733              	@ 0 "" 2
 734              	.LVL63:
 735              		.thumb
 736              		.syntax unified
 737              	.LBE127:
 738              	.LBE128:
 739              	.LBE129:
 740              		.loc 3 356 0
 741 0010 FFF7FEFF 		bl	_stats_start_measure_crit_thd
ARM GAS  /tmp/ccMGS3NT.s 			page 14


 742              	.LVL64:
 743              	.LBE130:
 744              	.LBE131:
 745              	.LBE132:
 746              		.loc 1 216 0
 747 0014 AB6C     		ldr	r3, [r5, #72]
 748 0016 DB6B     		ldr	r3, [r3, #60]
 749 0018 2BB1     		cbz	r3, .L71
 750              	.LVL65:
 751              	.LBB133:
 752              	.LBB134:
 753              		.loc 4 735 0
 754 001a 4FF0FF31 		mov	r1, #-1
 755 001e 05F13C00 		add	r0, r5, #60
 756              	.LVL66:
 757 0022 FFF7FEFF 		bl	chThdSuspendTimeoutS
 758              	.LVL67:
 759              	.L71:
 760              	.LBE134:
 761              	.LBE133:
 762              		.loc 1 218 0
 763 0026 AA6C     		ldr	r2, [r5, #72]
 764 0028 536B     		ldr	r3, [r2, #52]
 765 002a 13F48074 		ands	r4, r3, #256
 766 002e 06D1     		bne	.L72
 767              	.LBB135:
 768              	.LBB136:
 769              	.LBB137:
 770              		.loc 3 368 0
 771 0030 FFF7FEFF 		bl	_stats_stop_measure_crit_thd
 772              	.LVL68:
 773              	.LBB138:
 774              	.LBB139:
 775              	.LBB140:
 776              		.loc 2 493 0
 777              		.syntax unified
 778              	@ 493 "../../modules/ChibiOS/os/common/ext/ARM/CMSIS/Core/Include/cmsis_gcc.h" 1
 779 0034 84F31188 		MSR basepri, r4
 780              	@ 0 "" 2
 781              	.LVL69:
 782              		.thumb
 783              		.syntax unified
 784              	.LBE140:
 785              	.LBE139:
 786              	.LBE138:
 787              	.LBE137:
 788              	.LBE136:
 789              	.LBE135:
 790              		.loc 1 220 0
 791 0038 0120     		movs	r0, #1
 792 003a BDE8F081 		pop	{r4, r5, r6, r7, r8, pc}
 793              	.LVL70:
 794              	.L72:
 795              		.loc 1 225 0
 796 003e 6B6C     		ldr	r3, [r5, #68]
 797 0040 1968     		ldr	r1, [r3]
 798              	.L74:
ARM GAS  /tmp/ccMGS3NT.s 			page 15


 799              		.loc 1 225 0 is_stmt 0 discriminator 1
 800 0042 0C68     		ldr	r4, [r1]
 801 0044 14F00104 		ands	r4, r4, #1
 802 0048 FBD1     		bne	.L74
 803              		.loc 1 229 0 is_stmt 1
 804 004a 587A     		ldrb	r0, [r3, #9]	@ zero_extendqisi2
 805 004c 5968     		ldr	r1, [r3, #4]
 806 004e 3D23     		movs	r3, #61
 807 0050 8340     		lsls	r3, r3, r0
 808 0052 0B60     		str	r3, [r1]
 809              		.loc 1 231 0
 810 0054 094B     		ldr	r3, .L80
 811 0056 9363     		str	r3, [r2, #56]
 812              		.loc 1 232 0
 813 0058 D462     		str	r4, [r2, #44]
 814              	.LBB141:
 815              	.LBB142:
 816              	.LBB143:
 817              		.loc 3 368 0
 818 005a FFF7FEFF 		bl	_stats_stop_measure_crit_thd
 819              	.LVL71:
 820              	.LBB144:
 821              	.LBB145:
 822              	.LBB146:
 823              		.loc 2 493 0
 824              		.syntax unified
 825              	@ 493 "../../modules/ChibiOS/os/common/ext/ARM/CMSIS/Core/Include/cmsis_gcc.h" 1
 826 005e 84F31188 		MSR basepri, r4
 827              	@ 0 "" 2
 828              	.LVL72:
 829              		.thumb
 830              		.syntax unified
 831              	.LBE146:
 832              	.LBE145:
 833              	.LBE144:
 834              	.LBE143:
 835              	.LBE142:
 836              	.LBE141:
 837              		.loc 1 249 0
 838 0062 012F     		cmp	r7, #1
 839 0064 07D9     		bls	.L75
 840              	.LVL73:
 841              	.LBB147:
 842              	.LBB148:
 843              		.loc 1 250 0
 844 0066 3346     		mov	r3, r6
 845 0068 2246     		mov	r2, r4
 846 006a 2846     		mov	r0, r5
 847 006c 0C21     		movs	r1, #12
 848              	.LBE148:
 849              	.LBE147:
 850              		.loc 1 253 0
 851 006e BDE8F041 		pop	{r4, r5, r6, r7, r8, lr}
 852              		.cfi_remember_state
 853              		.cfi_restore 14
 854              		.cfi_restore 8
 855              		.cfi_restore 7
ARM GAS  /tmp/ccMGS3NT.s 			page 16


 856              		.cfi_restore 6
 857              		.cfi_restore 5
 858              		.cfi_restore 4
 859              		.cfi_def_cfa_offset 0
 860              	.LVL74:
 861              	.LBB150:
 862              	.LBB149:
 863              		.loc 1 250 0
 864 0072 FFF7FEBF 		b	sdc_lld_send_cmd_short_crc
 865              	.LVL75:
 866              	.L75:
 867              		.cfi_restore_state
 868              	.LBE149:
 869              	.LBE150:
 870              		.loc 1 252 0
 871 0076 2046     		mov	r0, r4
 872              		.loc 1 253 0
 873 0078 BDE8F081 		pop	{r4, r5, r6, r7, r8, pc}
 874              	.LVL76:
 875              	.L81:
 876              		.align	2
 877              	.L80:
 878 007c FF07C000 		.word	12584959
 879              		.cfi_endproc
 880              	.LFE326:
 881              		.size	sdc_lld_wait_transaction_end, .-sdc_lld_wait_transaction_end
 882              		.section	.text.sdc_lld_error_cleanup,"ax",%progbits
 883              		.align	1
 884              		.thumb
 885              		.thumb_func
 886              		.type	sdc_lld_error_cleanup, %function
 887              	sdc_lld_error_cleanup:
 888              	.LFB328:
 889              		.loc 1 295 0
 890              		.cfi_startproc
 891              		@ args = 0, pretend = 0, frame = 0
 892              		@ frame_needed = 0, uses_anonymous_args = 0
 893              	.LVL77:
 894 0000 2DE9F047 		push	{r4, r5, r6, r7, r8, r9, r10, lr}
 895              		.cfi_def_cfa_offset 32
 896              		.cfi_offset 4, -32
 897              		.cfi_offset 5, -28
 898              		.cfi_offset 6, -24
 899              		.cfi_offset 7, -20
 900              		.cfi_offset 8, -16
 901              		.cfi_offset 9, -12
 902              		.cfi_offset 10, -8
 903              		.cfi_offset 14, -4
 904              		.loc 1 295 0
 905 0004 0546     		mov	r5, r0
 906 0006 9146     		mov	r9, r2
 907              		.loc 1 298 0
 908 0008 6E6C     		ldr	r6, [r5, #68]
 909              		.loc 1 296 0
 910 000a 806C     		ldr	r0, [r0, #72]
 911              	.LVL78:
 912              		.loc 1 298 0
ARM GAS  /tmp/ccMGS3NT.s 			page 17


 913 000c 747A     		ldrb	r4, [r6, #9]	@ zero_extendqisi2
 914 000e 7268     		ldr	r2, [r6, #4]
 915              	.LVL79:
 916              		.loc 1 299 0
 917 0010 3768     		ldr	r7, [r6]
 918              		.loc 1 298 0
 919 0012 3D23     		movs	r3, #61
 920 0014 A340     		lsls	r3, r3, r4
 921              		.loc 1 295 0
 922 0016 8846     		mov	r8, r1
 923              		.loc 1 296 0
 924 0018 416B     		ldr	r1, [r0, #52]
 925              	.LVL80:
 926              		.loc 1 298 0
 927 001a 1360     		str	r3, [r2]
 928              		.loc 1 299 0
 929 001c 3C68     		ldr	r4, [r7]
 930 001e 24F01F04 		bic	r4, r4, #31
 931 0022 3C60     		str	r4, [r7]
 932              	.L83:
 933              		.loc 1 299 0 is_stmt 0 discriminator 2
 934 0024 3C68     		ldr	r4, [r7]
 935 0026 14F00104 		ands	r4, r4, #1
 936 002a FBD1     		bne	.L83
 937              		.loc 1 299 0 discriminator 3
 938 002c 737A     		ldrb	r3, [r6, #9]	@ zero_extendqisi2
 939 002e 3D26     		movs	r6, #61
 940 0030 9E40     		lsls	r6, r6, r3
 941              		.loc 1 300 0 is_stmt 1 discriminator 3
 942 0032 0B4B     		ldr	r3, .L86
 943              		.loc 1 299 0 discriminator 3
 944 0034 1660     		str	r6, [r2]
 945              		.loc 1 300 0 discriminator 3
 946 0036 8363     		str	r3, [r0, #56]
 947              		.loc 1 301 0 discriminator 3
 948 0038 C463     		str	r4, [r0, #60]
 949              		.loc 1 302 0 discriminator 3
 950 003a C462     		str	r4, [r0, #44]
 951              		.loc 1 303 0 discriminator 3
 952 003c 05F13400 		add	r0, r5, #52
 953 0040 FFF7FEFF 		bl	sdc_lld_collect_errors.isra.0
 954              	.LVL81:
 955              		.loc 1 304 0 discriminator 3
 956 0044 B8F1010F 		cmp	r8, #1
 957 0048 07D9     		bls	.L82
 958              	.LVL82:
 959              	.LBB153:
 960              	.LBB154:
 961              		.loc 1 305 0
 962 004a 4B46     		mov	r3, r9
 963 004c 2246     		mov	r2, r4
 964 004e 2846     		mov	r0, r5
 965 0050 0C21     		movs	r1, #12
 966              	.LBE154:
 967              	.LBE153:
 968              		.loc 1 306 0
 969 0052 BDE8F047 		pop	{r4, r5, r6, r7, r8, r9, r10, lr}
ARM GAS  /tmp/ccMGS3NT.s 			page 18


 970              		.cfi_remember_state
 971              		.cfi_restore 14
 972              		.cfi_restore 10
 973              		.cfi_restore 9
 974              		.cfi_restore 8
 975              		.cfi_restore 7
 976              		.cfi_restore 6
 977              		.cfi_restore 5
 978              		.cfi_restore 4
 979              		.cfi_def_cfa_offset 0
 980              	.LVL83:
 981              	.LBB156:
 982              	.LBB155:
 983              		.loc 1 305 0
 984 0056 FFF7FEBF 		b	sdc_lld_send_cmd_short_crc
 985              	.LVL84:
 986              	.L82:
 987              		.cfi_restore_state
 988 005a BDE8F087 		pop	{r4, r5, r6, r7, r8, r9, r10, pc}
 989              	.LVL85:
 990              	.L87:
 991 005e 00BF     		.align	2
 992              	.L86:
 993 0060 FF07C000 		.word	12584959
 994              	.LBE155:
 995              	.LBE156:
 996              		.cfi_endproc
 997              	.LFE328:
 998              		.size	sdc_lld_error_cleanup, .-sdc_lld_error_cleanup
 999              		.section	.text.sdc_lld_send_cmd_long_crc,"ax",%progbits
 1000              		.align	1
 1001              		.global	sdc_lld_send_cmd_long_crc
 1002              		.thumb
 1003              		.thumb_func
 1004              		.type	sdc_lld_send_cmd_long_crc, %function
 1005              	sdc_lld_send_cmd_long_crc:
 1006              	.LFB340:
 1007              		.loc 1 608 0
 1008              		.cfi_startproc
 1009              		@ args = 0, pretend = 0, frame = 0
 1010              		@ frame_needed = 0, uses_anonymous_args = 0
 1011              	.LVL86:
 1012 0000 10B5     		push	{r4, lr}
 1013              		.cfi_def_cfa_offset 8
 1014              		.cfi_offset 4, -8
 1015              		.cfi_offset 14, -4
 1016              		.loc 1 613 0
 1017 0002 846C     		ldr	r4, [r0, #72]
 1018              		.loc 1 614 0
 1019 0004 41F49861 		orr	r1, r1, #1216
 1020              	.LVL87:
 1021              		.loc 1 613 0
 1022 0008 A260     		str	r2, [r4, #8]
 1023              		.loc 1 614 0
 1024 000a E160     		str	r1, [r4, #12]
 1025              	.LVL88:
 1026              	.L89:
ARM GAS  /tmp/ccMGS3NT.s 			page 19


 1027              		.loc 1 616 0 discriminator 1
 1028 000c 616B     		ldr	r1, [r4, #52]
 1029              	.LVL89:
 1030 000e 11F04502 		ands	r2, r1, #69
 1031 0012 FBD0     		beq	.L89
 1032              		.loc 1 619 0
 1033 0014 A263     		str	r2, [r4, #56]
 1034              		.loc 1 621 0
 1035 0016 11F03F02 		ands	r2, r1, #63
 1036 001a 04D0     		beq	.L90
 1037              		.loc 1 622 0
 1038 001c 3430     		adds	r0, r0, #52
 1039              	.LVL90:
 1040 001e FFF7FEFF 		bl	sdc_lld_collect_errors.isra.0
 1041              	.LVL91:
 1042              		.loc 1 623 0
 1043 0022 0120     		movs	r0, #1
 1044 0024 10BD     		pop	{r4, pc}
 1045              	.LVL92:
 1046              	.L90:
 1047              		.loc 1 626 0
 1048 0026 216A     		ldr	r1, [r4, #32]
 1049              	.LVL93:
 1050 0028 1960     		str	r1, [r3]
 1051              	.LVL94:
 1052              		.loc 1 627 0
 1053 002a E169     		ldr	r1, [r4, #28]
 1054 002c 5960     		str	r1, [r3, #4]
 1055              	.LVL95:
 1056              		.loc 1 628 0
 1057 002e A169     		ldr	r1, [r4, #24]
 1058 0030 9960     		str	r1, [r3, #8]
 1059              		.loc 1 629 0
 1060 0032 6169     		ldr	r1, [r4, #20]
 1061 0034 D960     		str	r1, [r3, #12]
 1062              		.loc 1 630 0
 1063 0036 1046     		mov	r0, r2
 1064              	.LVL96:
 1065              		.loc 1 631 0
 1066 0038 10BD     		pop	{r4, pc}
 1067              		.cfi_endproc
 1068              	.LFE340:
 1069              		.size	sdc_lld_send_cmd_long_crc, .-sdc_lld_send_cmd_long_crc
 1070              		.section	.text.sdc_lld_read_special,"ax",%progbits
 1071              		.align	1
 1072              		.global	sdc_lld_read_special
 1073              		.thumb
 1074              		.thumb_func
 1075              		.type	sdc_lld_read_special, %function
 1076              	sdc_lld_read_special:
 1077              	.LFB341:
 1078              		.loc 1 650 0
 1079              		.cfi_startproc
 1080              		@ args = 4, pretend = 0, frame = 16
 1081              		@ frame_needed = 0, uses_anonymous_args = 0
 1082              	.LVL97:
 1083 0000 F0B5     		push	{r4, r5, r6, r7, lr}
ARM GAS  /tmp/ccMGS3NT.s 			page 20


 1084              		.cfi_def_cfa_offset 20
 1085              		.cfi_offset 4, -20
 1086              		.cfi_offset 5, -16
 1087              		.cfi_offset 6, -12
 1088              		.cfi_offset 7, -8
 1089              		.cfi_offset 14, -4
 1090 0002 85B0     		sub	sp, sp, #20
 1091              		.cfi_def_cfa_offset 40
 1092              		.loc 1 650 0
 1093 0004 0446     		mov	r4, r0
 1094 0006 04A8     		add	r0, sp, #16
 1095              	.LVL98:
 1096 0008 1646     		mov	r6, r2
 1097 000a 40F80C1D 		str	r1, [r0, #-12]!
 1098              		.loc 1 653 0
 1099 000e 0146     		mov	r1, r0
 1100              	.LVL99:
 1101 0010 E06C     		ldr	r0, [r4, #76]
 1102              	.LVL100:
 1103              		.loc 1 650 0
 1104 0012 1D46     		mov	r5, r3
 1105              		.loc 1 653 0
 1106 0014 FFF7FEFF 		bl	bouncebuffer_setup_read
 1107              	.LVL101:
 1108              	.LBB159:
 1109              	.LBB160:
 1110              		.loc 1 93 0
 1111 0018 A36C     		ldr	r3, [r4, #72]
 1112 001a 214A     		ldr	r2, .L97
 1113 001c 5A62     		str	r2, [r3, #36]
 1114              		.loc 1 96 0
 1115 001e 2046     		mov	r0, r4
 1116              	.LBE160:
 1117              	.LBE159:
 1118              		.loc 1 655 0
 1119 0020 019F     		ldr	r7, [sp, #4]
 1120              	.LVL102:
 1121              	.LBB163:
 1122              	.LBB161:
 1123              		.loc 1 96 0
 1124 0022 FFF7FEFF 		bl	_sdc_wait_for_transfer_state
 1125              	.LVL103:
 1126 0026 0028     		cmp	r0, #0
 1127 0028 2BD1     		bne	.L95
 1128              		.loc 1 100 0
 1129 002a 636C     		ldr	r3, [r4, #68]
 1130 002c 1B68     		ldr	r3, [r3]
 1131              		.loc 1 101 0
 1132 002e B208     		lsrs	r2, r6, #2
 1133              		.loc 1 100 0
 1134 0030 DF60     		str	r7, [r3, #12]
 1135              		.loc 1 101 0
 1136 0032 5A60     		str	r2, [r3, #4]
 1137              		.loc 1 102 0
 1138 0034 226C     		ldr	r2, [r4, #64]
 1139 0036 1A60     		str	r2, [r3]
 1140              		.loc 1 103 0
ARM GAS  /tmp/ccMGS3NT.s 			page 21


 1141 0038 1A68     		ldr	r2, [r3]
 1142 003a 42F00102 		orr	r2, r2, #1
 1143 003e 1A60     		str	r2, [r3]
 1144              		.loc 1 106 0
 1145 0040 A36C     		ldr	r3, [r4, #72]
 1146 0042 184A     		ldr	r2, .L97+4
 1147 0044 9A63     		str	r2, [r3, #56]
 1148              		.loc 1 107 0
 1149 0046 40F22A32 		movw	r2, #810
 1150 004a DA63     		str	r2, [r3, #60]
 1151              		.loc 1 115 0
 1152 004c 0F22     		movs	r2, #15
 1153              		.loc 1 112 0
 1154 004e 9E62     		str	r6, [r3, #40]
 1155              	.LBE161:
 1156              	.LBE163:
 1157              		.loc 1 658 0
 1158 0050 2946     		mov	r1, r5
 1159              	.LBB164:
 1160              	.LBB162:
 1161              		.loc 1 115 0
 1162 0052 DA62     		str	r2, [r3, #44]
 1163              	.LVL104:
 1164              	.LBE162:
 1165              	.LBE164:
 1166              		.loc 1 658 0
 1167 0054 2046     		mov	r0, r4
 1168 0056 03AB     		add	r3, sp, #12
 1169 0058 0A9A     		ldr	r2, [sp, #40]
 1170 005a FFF7FEFF 		bl	sdc_lld_send_cmd_short_crc
 1171              	.LVL105:
 1172 005e 80B9     		cbnz	r0, .L95
 1173              		.loc 1 659 0
 1174 0060 114B     		ldr	r3, .L97+8
 1175 0062 039A     		ldr	r2, [sp, #12]
 1176 0064 1340     		ands	r3, r3, r2
 1177 0066 63B9     		cbnz	r3, .L95
 1178              		.loc 1 662 0
 1179 0068 03AA     		add	r2, sp, #12
 1180 006a 0121     		movs	r1, #1
 1181 006c 2046     		mov	r0, r4
 1182 006e FFF7FEFF 		bl	sdc_lld_wait_transaction_end
 1183              	.LVL106:
 1184 0072 0546     		mov	r5, r0
 1185 0074 28B9     		cbnz	r0, .L95
 1186              		.loc 1 665 0
 1187 0076 3246     		mov	r2, r6
 1188 0078 0199     		ldr	r1, [sp, #4]
 1189 007a E06C     		ldr	r0, [r4, #76]
 1190 007c FFF7FEFF 		bl	bouncebuffer_finish_read
 1191              	.LVL107:
 1192              		.loc 1 667 0
 1193 0080 0AE0     		b	.L96
 1194              	.L95:
 1195              	.LDL1:
 1196              		.loc 1 670 0
 1197 0082 0022     		movs	r2, #0
ARM GAS  /tmp/ccMGS3NT.s 			page 22


 1198 0084 0199     		ldr	r1, [sp, #4]
 1199 0086 E06C     		ldr	r0, [r4, #76]
 1200 0088 FFF7FEFF 		bl	bouncebuffer_finish_read
 1201              	.LVL108:
 1202              		.loc 1 671 0
 1203 008c 03AA     		add	r2, sp, #12
 1204 008e 0121     		movs	r1, #1
 1205 0090 2046     		mov	r0, r4
 1206 0092 FFF7FEFF 		bl	sdc_lld_error_cleanup
 1207              	.LVL109:
 1208              		.loc 1 672 0
 1209 0096 0125     		movs	r5, #1
 1210              	.L96:
 1211              		.loc 1 673 0
 1212 0098 2846     		mov	r0, r5
 1213 009a 05B0     		add	sp, sp, #20
 1214              		.cfi_def_cfa_offset 20
 1215              		@ sp needed
 1216 009c F0BD     		pop	{r4, r5, r6, r7, pc}
 1217              	.LVL110:
 1218              	.L98:
 1219 009e 00BF     		.align	2
 1220              	.L97:
 1221 00a0 00366E01 		.word	24000000
 1222 00a4 FF07C000 		.word	12584959
 1223 00a8 08E0FFFD 		.word	-33562616
 1224              		.cfi_endproc
 1225              	.LFE341:
 1226              		.size	sdc_lld_read_special, .-sdc_lld_read_special
 1227              		.section	.text.sdc_lld_read_aligned,"ax",%progbits
 1228              		.align	1
 1229              		.global	sdc_lld_read_aligned
 1230              		.thumb
 1231              		.thumb_func
 1232              		.type	sdc_lld_read_aligned, %function
 1233              	sdc_lld_read_aligned:
 1234              	.LFB342:
 1235              		.loc 1 690 0
 1236              		.cfi_startproc
 1237              		@ args = 0, pretend = 0, frame = 16
 1238              		@ frame_needed = 0, uses_anonymous_args = 0
 1239              	.LVL111:
 1240 0000 2DE9FF41 		push	{r0, r1, r2, r3, r4, r5, r6, r7, r8, lr}
 1241              		.cfi_def_cfa_offset 40
 1242              		.cfi_offset 4, -24
 1243              		.cfi_offset 5, -20
 1244              		.cfi_offset 6, -16
 1245              		.cfi_offset 7, -12
 1246              		.cfi_offset 8, -8
 1247              		.cfi_offset 14, -4
 1248              		.loc 1 690 0
 1249 0004 1F46     		mov	r7, r3
 1250              		.loc 1 695 0
 1251 0006 836C     		ldr	r3, [r0, #72]
 1252              	.LVL112:
 1253              		.loc 1 690 0
 1254 0008 0192     		str	r2, [sp, #4]
ARM GAS  /tmp/ccMGS3NT.s 			page 23


 1255              		.loc 1 695 0
 1256 000a 2A4A     		ldr	r2, .L111
 1257              	.LVL113:
 1258 000c 5A62     		str	r2, [r3, #36]
 1259              		.loc 1 690 0
 1260 000e 0446     		mov	r4, r0
 1261 0010 8846     		mov	r8, r1
 1262              		.loc 1 698 0
 1263 0012 FFF7FEFF 		bl	_sdc_wait_for_transfer_state
 1264              	.LVL114:
 1265 0016 0546     		mov	r5, r0
 1266 0018 0028     		cmp	r0, #0
 1267 001a 46D1     		bne	.L107
 1268              		.loc 1 701 0
 1269 001c 7E02     		lsls	r6, r7, #9
 1270 001e 01A9     		add	r1, sp, #4
 1271              	.LVL115:
 1272 0020 3246     		mov	r2, r6
 1273 0022 E06C     		ldr	r0, [r4, #76]
 1274 0024 FFF7FEFF 		bl	bouncebuffer_setup_read
 1275              	.LVL116:
 1276              		.loc 1 704 0
 1277 0028 636C     		ldr	r3, [r4, #68]
 1278 002a 019A     		ldr	r2, [sp, #4]
 1279 002c 1B68     		ldr	r3, [r3]
 1280 002e DA60     		str	r2, [r3, #12]
 1281              		.loc 1 705 0
 1282 0030 B208     		lsrs	r2, r6, #2
 1283 0032 5A60     		str	r2, [r3, #4]
 1284              		.loc 1 707 0
 1285 0034 226C     		ldr	r2, [r4, #64]
 1286 0036 1A60     		str	r2, [r3]
 1287              		.loc 1 708 0
 1288 0038 1A68     		ldr	r2, [r3]
 1289 003a 42F00102 		orr	r2, r2, #1
 1290 003e 1A60     		str	r2, [r3]
 1291              		.loc 1 711 0
 1292 0040 A36C     		ldr	r3, [r4, #72]
 1293 0042 1D4A     		ldr	r2, .L111+4
 1294 0044 9A63     		str	r2, [r3, #56]
 1295              		.loc 1 712 0
 1296 0046 40F22A32 		movw	r2, #810
 1297 004a DA63     		str	r2, [r3, #60]
 1298              		.loc 1 720 0
 1299 004c 9B22     		movs	r2, #155
 1300              		.loc 1 717 0
 1301 004e 9E62     		str	r6, [r3, #40]
 1302              		.loc 1 720 0
 1303 0050 DA62     		str	r2, [r3, #44]
 1304              	.LVL117:
 1305              	.LBB167:
 1306              	.LBB168:
 1307              		.loc 1 142 0
 1308 0052 236B     		ldr	r3, [r4, #48]
 1309 0054 DB06     		lsls	r3, r3, #27
 1310              		.loc 1 143 0
 1311 0056 58BF     		it	pl
ARM GAS  /tmp/ccMGS3NT.s 			page 24


 1312 0058 4FEA4828 		lslpl	r8, r8, #9
 1313              	.LVL118:
 1314              		.loc 1 145 0
 1315 005c 012F     		cmp	r7, #1
 1316              		.loc 1 147 0
 1317 005e 8CBF     		ite	hi
 1318 0060 1221     		movhi	r1, #18
 1319              		.loc 1 153 0
 1320 0062 1121     		movls	r1, #17
 1321              		.loc 1 147 0
 1322 0064 03AB     		add	r3, sp, #12
 1323              	.LVL119:
 1324 0066 4246     		mov	r2, r8
 1325              		.loc 1 153 0
 1326 0068 2046     		mov	r0, r4
 1327 006a FFF7FEFF 		bl	sdc_lld_send_cmd_short_crc
 1328              	.LVL120:
 1329 006e 18B9     		cbnz	r0, .L105
 1330              		.loc 1 154 0
 1331 0070 124B     		ldr	r3, .L111+8
 1332 0072 039A     		ldr	r2, [sp, #12]
 1333 0074 1340     		ands	r3, r3, r2
 1334 0076 5BB1     		cbz	r3, .L104
 1335              	.LVL121:
 1336              	.L105:
 1337              	.LDL2:
 1338              	.LBE168:
 1339              	.LBE167:
 1340              		.loc 1 737 0
 1341 0078 0022     		movs	r2, #0
 1342 007a 0199     		ldr	r1, [sp, #4]
 1343 007c E06C     		ldr	r0, [r4, #76]
 1344 007e FFF7FEFF 		bl	bouncebuffer_finish_read
 1345              	.LVL122:
 1346              		.loc 1 738 0
 1347 0082 03AA     		add	r2, sp, #12
 1348 0084 3946     		mov	r1, r7
 1349 0086 2046     		mov	r0, r4
 1350 0088 FFF7FEFF 		bl	sdc_lld_error_cleanup
 1351              	.LVL123:
 1352              		.loc 1 739 0
 1353 008c 0125     		movs	r5, #1
 1354 008e 0CE0     		b	.L107
 1355              	.LVL124:
 1356              	.L104:
 1357              		.loc 1 729 0
 1358 0090 03AA     		add	r2, sp, #12
 1359 0092 3946     		mov	r1, r7
 1360 0094 2046     		mov	r0, r4
 1361 0096 FFF7FEFF 		bl	sdc_lld_wait_transaction_end
 1362              	.LVL125:
 1363 009a 0546     		mov	r5, r0
 1364 009c 0028     		cmp	r0, #0
 1365 009e EBD1     		bne	.L105
 1366              		.loc 1 732 0
 1367 00a0 3246     		mov	r2, r6
 1368 00a2 0199     		ldr	r1, [sp, #4]
ARM GAS  /tmp/ccMGS3NT.s 			page 25


 1369 00a4 E06C     		ldr	r0, [r4, #76]
 1370 00a6 FFF7FEFF 		bl	bouncebuffer_finish_read
 1371              	.LVL126:
 1372              	.L107:
 1373              		.loc 1 740 0
 1374 00aa 2846     		mov	r0, r5
 1375 00ac 04B0     		add	sp, sp, #16
 1376              		.cfi_def_cfa_offset 24
 1377              		@ sp needed
 1378 00ae BDE8F081 		pop	{r4, r5, r6, r7, r8, pc}
 1379              	.LVL127:
 1380              	.L112:
 1381 00b2 00BF     		.align	2
 1382              	.L111:
 1383 00b4 00366E01 		.word	24000000
 1384 00b8 FF07C000 		.word	12584959
 1385 00bc 08E0FFFD 		.word	-33562616
 1386              		.cfi_endproc
 1387              	.LFE342:
 1388              		.size	sdc_lld_read_aligned, .-sdc_lld_read_aligned
 1389              		.section	.text.sdc_lld_write_aligned,"ax",%progbits
 1390              		.align	1
 1391              		.global	sdc_lld_write_aligned
 1392              		.thumb
 1393              		.thumb_func
 1394              		.type	sdc_lld_write_aligned, %function
 1395              	sdc_lld_write_aligned:
 1396              	.LFB343:
 1397              		.loc 1 757 0
 1398              		.cfi_startproc
 1399              		@ args = 0, pretend = 0, frame = 16
 1400              		@ frame_needed = 0, uses_anonymous_args = 0
 1401              	.LVL128:
 1402 0000 F0B5     		push	{r4, r5, r6, r7, lr}
 1403              		.cfi_def_cfa_offset 20
 1404              		.cfi_offset 4, -20
 1405              		.cfi_offset 5, -16
 1406              		.cfi_offset 6, -12
 1407              		.cfi_offset 7, -8
 1408              		.cfi_offset 14, -4
 1409 0002 85B0     		sub	sp, sp, #20
 1410              		.cfi_def_cfa_offset 40
 1411              		.loc 1 757 0
 1412 0004 1E46     		mov	r6, r3
 1413              		.loc 1 762 0
 1414 0006 836C     		ldr	r3, [r0, #72]
 1415              	.LVL129:
 1416              		.loc 1 757 0
 1417 0008 0192     		str	r2, [sp, #4]
 1418              		.loc 1 762 0
 1419 000a 294A     		ldr	r2, .L125
 1420              	.LVL130:
 1421 000c 5A62     		str	r2, [r3, #36]
 1422              		.loc 1 757 0
 1423 000e 0446     		mov	r4, r0
 1424 0010 0F46     		mov	r7, r1
 1425              		.loc 1 765 0
ARM GAS  /tmp/ccMGS3NT.s 			page 26


 1426 0012 FFF7FEFF 		bl	_sdc_wait_for_transfer_state
 1427              	.LVL131:
 1428 0016 0546     		mov	r5, r0
 1429 0018 0028     		cmp	r0, #0
 1430 001a 46D1     		bne	.L121
 1431              		.loc 1 768 0
 1432 001c 7502     		lsls	r5, r6, #9
 1433 001e 01A9     		add	r1, sp, #4
 1434              	.LVL132:
 1435 0020 2A46     		mov	r2, r5
 1436 0022 E06C     		ldr	r0, [r4, #76]
 1437 0024 FFF7FEFF 		bl	bouncebuffer_setup_write
 1438              	.LVL133:
 1439              		.loc 1 771 0
 1440 0028 636C     		ldr	r3, [r4, #68]
 1441 002a 019A     		ldr	r2, [sp, #4]
 1442 002c 1B68     		ldr	r3, [r3]
 1443 002e DA60     		str	r2, [r3, #12]
 1444              		.loc 1 772 0
 1445 0030 AA08     		lsrs	r2, r5, #2
 1446 0032 5A60     		str	r2, [r3, #4]
 1447              		.loc 1 774 0
 1448 0034 226C     		ldr	r2, [r4, #64]
 1449 0036 42F04002 		orr	r2, r2, #64
 1450 003a 1A60     		str	r2, [r3]
 1451              		.loc 1 775 0
 1452 003c 1A68     		ldr	r2, [r3]
 1453 003e 42F00102 		orr	r2, r2, #1
 1454 0042 1A60     		str	r2, [r3]
 1455              		.loc 1 778 0
 1456 0044 A36C     		ldr	r3, [r4, #72]
 1457 0046 1B4A     		ldr	r2, .L125+4
 1458 0048 9A63     		str	r2, [r3, #56]
 1459              		.loc 1 779 0
 1460 004a 40F21A32 		movw	r2, #794
 1461 004e DA63     		str	r2, [r3, #60]
 1462              		.loc 1 784 0
 1463 0050 9D62     		str	r5, [r3, #40]
 1464              	.LVL134:
 1465              	.LBB171:
 1466              	.LBB172:
 1467              		.loc 1 180 0
 1468 0052 236B     		ldr	r3, [r4, #48]
 1469 0054 DB06     		lsls	r3, r3, #27
 1470              		.loc 1 181 0
 1471 0056 58BF     		it	pl
 1472 0058 7F02     		lslpl	r7, r7, #9
 1473              	.LVL135:
 1474              		.loc 1 183 0
 1475 005a 012E     		cmp	r6, #1
 1476              		.loc 1 185 0
 1477 005c 8CBF     		ite	hi
 1478 005e 1921     		movhi	r1, #25
 1479              		.loc 1 191 0
 1480 0060 1821     		movls	r1, #24
 1481              		.loc 1 185 0
 1482 0062 03AB     		add	r3, sp, #12
ARM GAS  /tmp/ccMGS3NT.s 			page 27


 1483              	.LVL136:
 1484 0064 3A46     		mov	r2, r7
 1485              		.loc 1 191 0
 1486 0066 2046     		mov	r0, r4
 1487 0068 FFF7FEFF 		bl	sdc_lld_send_cmd_short_crc
 1488              	.LVL137:
 1489 006c 18B9     		cbnz	r0, .L119
 1490              		.loc 1 192 0
 1491 006e 124B     		ldr	r3, .L125+8
 1492 0070 039A     		ldr	r2, [sp, #12]
 1493 0072 1340     		ands	r3, r3, r2
 1494 0074 53B1     		cbz	r3, .L118
 1495              	.LVL138:
 1496              	.L119:
 1497              	.LDL3:
 1498              	.LBE172:
 1499              	.LBE171:
 1500              		.loc 1 804 0
 1501 0076 0199     		ldr	r1, [sp, #4]
 1502 0078 E06C     		ldr	r0, [r4, #76]
 1503 007a FFF7FEFF 		bl	bouncebuffer_finish_write
 1504              	.LVL139:
 1505              		.loc 1 805 0
 1506 007e 03AA     		add	r2, sp, #12
 1507 0080 3146     		mov	r1, r6
 1508 0082 2046     		mov	r0, r4
 1509 0084 FFF7FEFF 		bl	sdc_lld_error_cleanup
 1510              	.LVL140:
 1511              		.loc 1 806 0
 1512 0088 0125     		movs	r5, #1
 1513 008a 0EE0     		b	.L121
 1514              	.LVL141:
 1515              	.L118:
 1516              		.loc 1 791 0
 1517 008c A36C     		ldr	r3, [r4, #72]
 1518 008e 9922     		movs	r2, #153
 1519 0090 DA62     		str	r2, [r3, #44]
 1520              		.loc 1 796 0
 1521 0092 3146     		mov	r1, r6
 1522 0094 03AA     		add	r2, sp, #12
 1523 0096 2046     		mov	r0, r4
 1524 0098 FFF7FEFF 		bl	sdc_lld_wait_transaction_end
 1525              	.LVL142:
 1526 009c 0546     		mov	r5, r0
 1527 009e 0028     		cmp	r0, #0
 1528 00a0 E9D1     		bne	.L119
 1529              		.loc 1 799 0
 1530 00a2 0199     		ldr	r1, [sp, #4]
 1531 00a4 E06C     		ldr	r0, [r4, #76]
 1532 00a6 FFF7FEFF 		bl	bouncebuffer_finish_write
 1533              	.LVL143:
 1534              	.L121:
 1535              		.loc 1 807 0
 1536 00aa 2846     		mov	r0, r5
 1537 00ac 05B0     		add	sp, sp, #20
 1538              		.cfi_def_cfa_offset 20
 1539              		@ sp needed
ARM GAS  /tmp/ccMGS3NT.s 			page 28


 1540 00ae F0BD     		pop	{r4, r5, r6, r7, pc}
 1541              	.LVL144:
 1542              	.L126:
 1543              		.align	2
 1544              	.L125:
 1545 00b0 00366E01 		.word	24000000
 1546 00b4 FF07C000 		.word	12584959
 1547 00b8 08E0FFFD 		.word	-33562616
 1548              		.cfi_endproc
 1549              	.LFE343:
 1550              		.size	sdc_lld_write_aligned, .-sdc_lld_write_aligned
 1551              		.section	.text.sdc_lld_read,"ax",%progbits
 1552              		.align	1
 1553              		.global	sdc_lld_read
 1554              		.thumb
 1555              		.thumb_func
 1556              		.type	sdc_lld_read, %function
 1557              	sdc_lld_read:
 1558              	.LFB344:
 1559              		.loc 1 824 0
 1560              		.cfi_startproc
 1561              		@ args = 0, pretend = 0, frame = 0
 1562              		@ frame_needed = 0, uses_anonymous_args = 0
 1563              	.LVL145:
 1564              		.loc 1 827 0
 1565 0000 12F0030F 		tst	r2, #3
 1566              		.loc 1 824 0
 1567 0004 2DE9F041 		push	{r4, r5, r6, r7, r8, lr}
 1568              		.cfi_def_cfa_offset 24
 1569              		.cfi_offset 4, -24
 1570              		.cfi_offset 5, -20
 1571              		.cfi_offset 6, -16
 1572              		.cfi_offset 7, -12
 1573              		.cfi_offset 8, -8
 1574              		.cfi_offset 14, -4
 1575              		.loc 1 824 0
 1576 0008 0746     		mov	r7, r0
 1577 000a 0C46     		mov	r4, r1
 1578 000c 1E46     		mov	r6, r3
 1579              		.loc 1 827 0
 1580 000e 17D0     		beq	.L128
 1581 0010 0E44     		add	r6, r6, r1
 1582 0012 A2EB4125 		sub	r5, r2, r1, lsl #9
 1583              	.LVL146:
 1584              	.L129:
 1585              	.LBB173:
 1586              		.loc 1 829 0 discriminator 1
 1587 0016 B442     		cmp	r4, r6
 1588 0018 0FD0     		beq	.L132
 1589              		.loc 1 830 0
 1590 001a 0123     		movs	r3, #1
 1591 001c 0B4A     		ldr	r2, .L133
 1592 001e 2146     		mov	r1, r4
 1593 0020 3846     		mov	r0, r7
 1594 0022 FFF7FEFF 		bl	sdc_lld_read_aligned
 1595              	.LVL147:
 1596 0026 78B9     		cbnz	r0, .L130
ARM GAS  /tmp/ccMGS3NT.s 			page 29


 1597              		.loc 1 832 0 discriminator 2
 1598 0028 05EB4420 		add	r0, r5, r4, lsl #9
 1599 002c 4FF40072 		mov	r2, #512
 1600 0030 0649     		ldr	r1, .L133
 1601 0032 FFF7FEFF 		bl	memcpy
 1602              	.LVL148:
 1603              		.loc 1 834 0 discriminator 2
 1604 0036 0134     		adds	r4, r4, #1
 1605              	.LVL149:
 1606 0038 EDE7     		b	.L129
 1607              	.LVL150:
 1608              	.L132:
 1609              		.loc 1 836 0
 1610 003a 0020     		movs	r0, #0
 1611 003c BDE8F081 		pop	{r4, r5, r6, r7, r8, pc}
 1612              	.LVL151:
 1613              	.L128:
 1614              	.LBE173:
 1615              		.loc 1 842 0
 1616 0040 BDE8F041 		pop	{r4, r5, r6, r7, r8, lr}
 1617              		.cfi_remember_state
 1618              		.cfi_restore 14
 1619              		.cfi_restore 8
 1620              		.cfi_restore 7
 1621              		.cfi_restore 6
 1622              		.cfi_restore 5
 1623              		.cfi_restore 4
 1624              		.cfi_def_cfa_offset 0
 1625              		.loc 1 841 0
 1626 0044 FFF7FEBF 		b	sdc_lld_read_aligned
 1627              	.LVL152:
 1628              	.L130:
 1629              		.cfi_restore_state
 1630              		.loc 1 842 0
 1631 0048 BDE8F081 		pop	{r4, r5, r6, r7, r8, pc}
 1632              	.LVL153:
 1633              	.L134:
 1634              		.align	2
 1635              	.L133:
 1636 004c 00000000 		.word	.LANCHOR2
 1637              		.cfi_endproc
 1638              	.LFE344:
 1639              		.size	sdc_lld_read, .-sdc_lld_read
 1640              		.section	.text.sdc_lld_write,"ax",%progbits
 1641              		.align	1
 1642              		.global	sdc_lld_write
 1643              		.thumb
 1644              		.thumb_func
 1645              		.type	sdc_lld_write, %function
 1646              	sdc_lld_write:
 1647              	.LFB345:
 1648              		.loc 1 859 0
 1649              		.cfi_startproc
 1650              		@ args = 0, pretend = 0, frame = 0
 1651              		@ frame_needed = 0, uses_anonymous_args = 0
 1652              	.LVL154:
 1653              		.loc 1 862 0
ARM GAS  /tmp/ccMGS3NT.s 			page 30


 1654 0000 12F0030F 		tst	r2, #3
 1655              		.loc 1 859 0
 1656 0004 2DE9F041 		push	{r4, r5, r6, r7, r8, lr}
 1657              		.cfi_def_cfa_offset 24
 1658              		.cfi_offset 4, -24
 1659              		.cfi_offset 5, -20
 1660              		.cfi_offset 6, -16
 1661              		.cfi_offset 7, -12
 1662              		.cfi_offset 8, -8
 1663              		.cfi_offset 14, -4
 1664              		.loc 1 859 0
 1665 0008 0746     		mov	r7, r0
 1666 000a 0C46     		mov	r4, r1
 1667 000c 1E46     		mov	r6, r3
 1668              		.loc 1 862 0
 1669 000e 17D0     		beq	.L136
 1670 0010 0E44     		add	r6, r6, r1
 1671 0012 A2EB4125 		sub	r5, r2, r1, lsl #9
 1672              	.LVL155:
 1673              	.L137:
 1674              	.LBB174:
 1675              		.loc 1 864 0 discriminator 1
 1676 0016 B442     		cmp	r4, r6
 1677 0018 0FD0     		beq	.L140
 1678              		.loc 1 865 0
 1679 001a 4FF40072 		mov	r2, #512
 1680 001e 05EB4421 		add	r1, r5, r4, lsl #9
 1681 0022 0A48     		ldr	r0, .L141
 1682 0024 FFF7FEFF 		bl	memcpy
 1683              	.LVL156:
 1684              		.loc 1 867 0
 1685 0028 0123     		movs	r3, #1
 1686 002a 084A     		ldr	r2, .L141
 1687 002c 2146     		mov	r1, r4
 1688 002e 3846     		mov	r0, r7
 1689 0030 FFF7FEFF 		bl	sdc_lld_write_aligned
 1690              	.LVL157:
 1691 0034 40B9     		cbnz	r0, .L138
 1692              		.loc 1 869 0 discriminator 2
 1693 0036 0134     		adds	r4, r4, #1
 1694              	.LVL158:
 1695 0038 EDE7     		b	.L137
 1696              	.LVL159:
 1697              	.L140:
 1698              		.loc 1 871 0
 1699 003a 0020     		movs	r0, #0
 1700 003c BDE8F081 		pop	{r4, r5, r6, r7, r8, pc}
 1701              	.LVL160:
 1702              	.L136:
 1703              	.LBE174:
 1704              		.loc 1 877 0
 1705 0040 BDE8F041 		pop	{r4, r5, r6, r7, r8, lr}
 1706              		.cfi_remember_state
 1707              		.cfi_restore 14
 1708              		.cfi_restore 8
 1709              		.cfi_restore 7
 1710              		.cfi_restore 6
ARM GAS  /tmp/ccMGS3NT.s 			page 31


 1711              		.cfi_restore 5
 1712              		.cfi_restore 4
 1713              		.cfi_def_cfa_offset 0
 1714              		.loc 1 876 0
 1715 0044 FFF7FEBF 		b	sdc_lld_write_aligned
 1716              	.LVL161:
 1717              	.L138:
 1718              		.cfi_restore_state
 1719              		.loc 1 877 0
 1720 0048 BDE8F081 		pop	{r4, r5, r6, r7, r8, pc}
 1721              	.LVL162:
 1722              	.L142:
 1723              		.align	2
 1724              	.L141:
 1725 004c 00000000 		.word	.LANCHOR2
 1726              		.cfi_endproc
 1727              	.LFE345:
 1728              		.size	sdc_lld_write, .-sdc_lld_write
 1729              		.section	.text.sdc_lld_sync,"ax",%progbits
 1730              		.align	1
 1731              		.global	sdc_lld_sync
 1732              		.thumb
 1733              		.thumb_func
 1734              		.type	sdc_lld_sync, %function
 1735              	sdc_lld_sync:
 1736              	.LFB346:
 1737              		.loc 1 890 0
 1738              		.cfi_startproc
 1739              		@ args = 0, pretend = 0, frame = 0
 1740              		@ frame_needed = 0, uses_anonymous_args = 0
 1741              		@ link register save eliminated.
 1742              	.LVL163:
 1743              		.loc 1 895 0
 1744 0000 0020     		movs	r0, #0
 1745              	.LVL164:
 1746 0002 7047     		bx	lr
 1747              		.cfi_endproc
 1748              	.LFE346:
 1749              		.size	sdc_lld_sync, .-sdc_lld_sync
 1750              		.global	SDCD1
 1751              		.section	.bss.SDCD1,"aw",%nobits
 1752              		.align	2
 1753              		.set	.LANCHOR0,. + 0
 1754              		.type	SDCD1, %object
 1755              		.size	SDCD1, 80
 1756              	SDCD1:
 1757 0000 00000000 		.space	80
 1757      00000000 
 1757      00000000 
 1757      00000000 
 1757      00000000 
 1758              		.section	.rodata.sdc_default_cfg,"a",%progbits
 1759              		.align	2
 1760              		.set	.LANCHOR1,. + 0
 1761              		.type	sdc_default_cfg, %object
 1762              		.size	sdc_default_cfg, 8
 1763              	sdc_default_cfg:
ARM GAS  /tmp/ccMGS3NT.s 			page 32


 1764 0000 00000000 		.word	0
 1765 0004 01       		.byte	1
 1766 0005 00       		.byte	0
 1767 0006 0000     		.space	2
 1768              		.section	.bss.u,"aw",%nobits
 1769              		.align	2
 1770              		.set	.LANCHOR2,. + 0
 1771              		.type	u, %object
 1772              		.size	u, 512
 1773              	u:
 1774 0000 00000000 		.space	512
 1774      00000000 
 1774      00000000 
 1774      00000000 
 1774      00000000 
 1775              		.text
 1776              	.Letext0:
 1777              		.file 5 "/usr/lib/gcc/arm-none-eabi/5.4.1/include/stddef.h"
 1778              		.file 6 "/usr/include/newlib/machine/_default_types.h"
 1779              		.file 7 "/usr/include/newlib/sys/_stdint.h"
 1780              		.file 8 "../../modules/ChibiOS/os/common/ports/ARMCMx/compilers/GCC/chtypes.h"
 1781              		.file 9 "../../modules/ChibiOS/os/rt/include/chsystypes.h"
 1782              		.file 10 "../../modules/ChibiOS/os/rt/include/chschd.h"
 1783              		.file 11 "../../modules/ChibiOS/os/rt/include/chtime.h"
 1784              		.file 12 "../../modules/ChibiOS/os/common/ext/ST/STM32F4xx/stm32f427xx.h"
 1785              		.file 13 "../../modules/ChibiOS/os/common/ports/ARMCMx/chcore.h"
 1786              		.file 14 "../../modules/ChibiOS/os/common/ports/ARMCMx/chcore_v7m.h"
 1787              		.file 15 "../../modules/ChibiOS/os/rt/include/chtm.h"
 1788              		.file 16 "../../modules/ChibiOS/os/rt/include/chstats.h"
 1789              		.file 17 "../../modules/ChibiOS/os/rt/include/chsem.h"
 1790              		.file 18 "../../modules/ChibiOS/os/rt/include/chmtx.h"
 1791              		.file 19 "../../modules/ChibiOS/os/hal/ports/STM32/LLD/DMAv2/stm32_dma.h"
 1792              		.file 20 "../../modules/ChibiOS/os/hal/include/hal_ioblock.h"
 1793              		.file 21 "../../modules/ChibiOS/os/hal/include/hal_sdc.h"
 1794              		.file 22 "../../modules/ChibiOS/os/hal/ports/STM32/LLD/SDIOv1/hal_sdc_lld.h"
 1795              		.file 23 "../../libraries/AP_HAL_ChibiOS/hwdef/common/bouncebuffer.h"
 1796              		.file 24 "../../modules/ChibiOS/os/common/ext/ARM/CMSIS/Core/Include/core_cm4.h"
 1797              		.file 25 "../../modules/ChibiOS/os/rt/include/chthreads.h"
 1798              		.file 26 "../../modules/ChibiOS/os/hal/ports/common/ARMCMx/nvic.h"