ARM GAS  /tmp/ccFmpp4g.s 			page 1


   1              		.syntax unified
   2              		.cpu cortex-m4
   3              		.eabi_attribute 27, 1
   4              		.eabi_attribute 28, 1
   5              		.fpu fpv4-sp-d16
   6              		.eabi_attribute 20, 1
   7              		.eabi_attribute 21, 1
   8              		.eabi_attribute 23, 3
   9              		.eabi_attribute 24, 1
  10              		.eabi_attribute 25, 1
  11              		.eabi_attribute 26, 1
  12              		.eabi_attribute 30, 4
  13              		.eabi_attribute 34, 1
  14              		.eabi_attribute 18, 4
  15              		.thumb
  16              		.syntax unified
  17              		.file	"hal_i2c.c"
  18              		.text
  19              	.Ltext0:
  20              		.cfi_sections	.debug_frame
  21              		.section	.text.i2cInit,"ax",%progbits
  22              		.align	1
  23              		.global	i2cInit
  24              		.thumb
  25              		.thumb_func
  26              		.type	i2cInit, %function
  27              	i2cInit:
  28              	.LFB323:
  29              		.file 1 "../../modules/ChibiOS/os/hal/src/hal_i2c.c"
  30              		.loc 1 59 0
  31              		.cfi_startproc
  32              		@ args = 0, pretend = 0, frame = 0
  33              		@ frame_needed = 0, uses_anonymous_args = 0
  34              		@ link register save eliminated.
  35              		.loc 1 61 0
  36 0000 FFF7FEBF 		b	i2c_lld_init
  37              	.LVL0:
  38              		.cfi_endproc
  39              	.LFE323:
  40              		.size	i2cInit, .-i2cInit
  41              		.section	.text.i2cObjectInit,"ax",%progbits
  42              		.align	1
  43              		.global	i2cObjectInit
  44              		.thumb
  45              		.thumb_func
  46              		.type	i2cObjectInit, %function
  47              	i2cObjectInit:
  48              	.LFB324:
  49              		.loc 1 71 0
  50              		.cfi_startproc
  51              		@ args = 0, pretend = 0, frame = 0
  52              		@ frame_needed = 0, uses_anonymous_args = 0
  53              		@ link register save eliminated.
  54              	.LVL1:
  55              		.loc 1 73 0
  56 0000 0123     		movs	r3, #1
  57 0002 0370     		strb	r3, [r0]
ARM GAS  /tmp/ccFmpp4g.s 			page 2


  58              		.loc 1 74 0
  59 0004 0023     		movs	r3, #0
  60 0006 4360     		str	r3, [r0, #4]
  61              	.LVL2:
  62              	.LBB36:
  63              	.LBB37:
  64              		.file 2 "../../modules/ChibiOS/os/hal/osal/rt/osal.h"
  65              		.loc 2 974 0
  66 0008 0C30     		adds	r0, r0, #12
  67              	.LVL3:
  68 000a FFF7FEBF 		b	chMtxObjectInit
  69              	.LVL4:
  70              	.LBE37:
  71              	.LBE36:
  72              		.cfi_endproc
  73              	.LFE324:
  74              		.size	i2cObjectInit, .-i2cObjectInit
  75              		.section	.text.i2cStart,"ax",%progbits
  76              		.align	1
  77              		.global	i2cStart
  78              		.thumb
  79              		.thumb_func
  80              		.type	i2cStart, %function
  81              	i2cStart:
  82              	.LFB325:
  83              		.loc 1 93 0
  84              		.cfi_startproc
  85              		@ args = 0, pretend = 0, frame = 0
  86              		@ frame_needed = 0, uses_anonymous_args = 0
  87              	.LVL5:
  88 0000 38B5     		push	{r3, r4, r5, lr}
  89              		.cfi_def_cfa_offset 16
  90              		.cfi_offset 3, -16
  91              		.cfi_offset 4, -12
  92              		.cfi_offset 5, -8
  93              		.cfi_offset 14, -4
  94              		.loc 1 93 0
  95 0002 0446     		mov	r4, r0
  96 0004 0D46     		mov	r5, r1
  97              	.LBB52:
  98              	.LBB53:
  99              	.LBB54:
 100              	.LBB55:
 101              	.LBB56:
 102              	.LBB57:
 103              		.file 3 "../../modules/ChibiOS/os/common/ext/ARM/CMSIS/Core/Include/cmsis_gcc.h"
 104              		.loc 3 493 0
 105 0006 2023     		movs	r3, #32
 106              		.syntax unified
 107              	@ 493 "../../modules/ChibiOS/os/common/ext/ARM/CMSIS/Core/Include/cmsis_gcc.h" 1
 108 0008 83F31188 		MSR basepri, r3
 109              	@ 0 "" 2
 110              	.LVL6:
 111              		.thumb
 112              		.syntax unified
 113              	.LBE57:
 114              	.LBE56:
ARM GAS  /tmp/ccFmpp4g.s 			page 3


 115              	.LBE55:
 116              		.file 4 "../../modules/ChibiOS/os/rt/include/chsys.h"
 117              		.loc 4 356 0
 118 000c FFF7FEFF 		bl	_stats_start_measure_crit_thd
 119              	.LVL7:
 120              	.LBE54:
 121              	.LBE53:
 122              	.LBE52:
 123              		.loc 1 101 0
 124 0010 2046     		mov	r0, r4
 125              		.loc 1 100 0
 126 0012 6560     		str	r5, [r4, #4]
 127              		.loc 1 101 0
 128 0014 FFF7FEFF 		bl	i2c_lld_start
 129              	.LVL8:
 130              		.loc 1 102 0
 131 0018 0223     		movs	r3, #2
 132 001a 2370     		strb	r3, [r4]
 133              	.LBB58:
 134              	.LBB59:
 135              	.LBB60:
 136              		.loc 4 368 0
 137 001c FFF7FEFF 		bl	_stats_stop_measure_crit_thd
 138              	.LVL9:
 139              	.LBB61:
 140              	.LBB62:
 141              	.LBB63:
 142              		.loc 3 493 0
 143 0020 0023     		movs	r3, #0
 144              		.syntax unified
 145              	@ 493 "../../modules/ChibiOS/os/common/ext/ARM/CMSIS/Core/Include/cmsis_gcc.h" 1
 146 0022 83F31188 		MSR basepri, r3
 147              	@ 0 "" 2
 148              	.LVL10:
 149              		.thumb
 150              		.syntax unified
 151 0026 38BD     		pop	{r3, r4, r5, pc}
 152              	.LBE63:
 153              	.LBE62:
 154              	.LBE61:
 155              	.LBE60:
 156              	.LBE59:
 157              	.LBE58:
 158              		.cfi_endproc
 159              	.LFE325:
 160              		.size	i2cStart, .-i2cStart
 161              		.section	.text.i2cStop,"ax",%progbits
 162              		.align	1
 163              		.global	i2cStop
 164              		.thumb
 165              		.thumb_func
 166              		.type	i2cStop, %function
 167              	i2cStop:
 168              	.LFB326:
 169              		.loc 1 113 0
 170              		.cfi_startproc
 171              		@ args = 0, pretend = 0, frame = 0
ARM GAS  /tmp/ccFmpp4g.s 			page 4


 172              		@ frame_needed = 0, uses_anonymous_args = 0
 173              	.LVL11:
 174 0000 38B5     		push	{r3, r4, r5, lr}
 175              		.cfi_def_cfa_offset 16
 176              		.cfi_offset 3, -16
 177              		.cfi_offset 4, -12
 178              		.cfi_offset 5, -8
 179              		.cfi_offset 14, -4
 180              		.loc 1 113 0
 181 0002 0446     		mov	r4, r0
 182              	.LBB78:
 183              	.LBB79:
 184              	.LBB80:
 185              	.LBB81:
 186              	.LBB82:
 187              	.LBB83:
 188              		.loc 3 493 0
 189 0004 2023     		movs	r3, #32
 190              		.syntax unified
 191              	@ 493 "../../modules/ChibiOS/os/common/ext/ARM/CMSIS/Core/Include/cmsis_gcc.h" 1
 192 0006 83F31188 		MSR basepri, r3
 193              	@ 0 "" 2
 194              	.LVL12:
 195              		.thumb
 196              		.syntax unified
 197              	.LBE83:
 198              	.LBE82:
 199              	.LBE81:
 200              		.loc 4 356 0
 201 000a FFF7FEFF 		bl	_stats_start_measure_crit_thd
 202              	.LVL13:
 203              	.LBE80:
 204              	.LBE79:
 205              	.LBE78:
 206              		.loc 1 122 0
 207 000e 2046     		mov	r0, r4
 208 0010 FFF7FEFF 		bl	i2c_lld_stop
 209              	.LVL14:
 210              		.loc 1 123 0
 211 0014 0025     		movs	r5, #0
 212              		.loc 1 124 0
 213 0016 0123     		movs	r3, #1
 214              		.loc 1 123 0
 215 0018 6560     		str	r5, [r4, #4]
 216              		.loc 1 124 0
 217 001a 2370     		strb	r3, [r4]
 218              	.LBB84:
 219              	.LBB85:
 220              	.LBB86:
 221              		.loc 4 368 0
 222 001c FFF7FEFF 		bl	_stats_stop_measure_crit_thd
 223              	.LVL15:
 224              	.LBB87:
 225              	.LBB88:
 226              	.LBB89:
 227              		.loc 3 493 0
 228              		.syntax unified
ARM GAS  /tmp/ccFmpp4g.s 			page 5


 229              	@ 493 "../../modules/ChibiOS/os/common/ext/ARM/CMSIS/Core/Include/cmsis_gcc.h" 1
 230 0020 85F31188 		MSR basepri, r5
 231              	@ 0 "" 2
 232              	.LVL16:
 233              		.thumb
 234              		.syntax unified
 235 0024 38BD     		pop	{r3, r4, r5, pc}
 236              	.LBE89:
 237              	.LBE88:
 238              	.LBE87:
 239              	.LBE86:
 240              	.LBE85:
 241              	.LBE84:
 242              		.cfi_endproc
 243              	.LFE326:
 244              		.size	i2cStop, .-i2cStop
 245              		.section	.text.i2cGetErrors,"ax",%progbits
 246              		.align	1
 247              		.global	i2cGetErrors
 248              		.thumb
 249              		.thumb_func
 250              		.type	i2cGetErrors, %function
 251              	i2cGetErrors:
 252              	.LFB327:
 253              		.loc 1 137 0
 254              		.cfi_startproc
 255              		@ args = 0, pretend = 0, frame = 0
 256              		@ frame_needed = 0, uses_anonymous_args = 0
 257              		@ link register save eliminated.
 258              	.LVL17:
 259              		.loc 1 142 0
 260 0000 8068     		ldr	r0, [r0, #8]
 261              	.LVL18:
 262 0002 7047     		bx	lr
 263              		.cfi_endproc
 264              	.LFE327:
 265              		.size	i2cGetErrors, .-i2cGetErrors
 266              		.section	.text.i2cMasterTransmitTimeout,"ax",%progbits
 267              		.align	1
 268              		.global	i2cMasterTransmitTimeout
 269              		.thumb
 270              		.thumb_func
 271              		.type	i2cMasterTransmitTimeout, %function
 272              	i2cMasterTransmitTimeout:
 273              	.LFB328:
 274              		.loc 1 176 0
 275              		.cfi_startproc
 276              		@ args = 12, pretend = 0, frame = 0
 277              		@ frame_needed = 0, uses_anonymous_args = 0
 278              	.LVL19:
 279 0000 2DE9FF41 		push	{r0, r1, r2, r3, r4, r5, r6, r7, r8, lr}
 280              		.cfi_def_cfa_offset 40
 281              		.cfi_offset 4, -24
 282              		.cfi_offset 5, -20
 283              		.cfi_offset 6, -16
 284              		.cfi_offset 7, -12
 285              		.cfi_offset 8, -8
ARM GAS  /tmp/ccFmpp4g.s 			page 6


 286              		.cfi_offset 14, -4
 287              		.loc 1 176 0
 288 0004 9846     		mov	r8, r3
 289 0006 0446     		mov	r4, r0
 290 0008 0E46     		mov	r6, r1
 291 000a 1746     		mov	r7, r2
 292              	.LBB104:
 293              	.LBB105:
 294              	.LBB106:
 295              	.LBB107:
 296              	.LBB108:
 297              	.LBB109:
 298              		.loc 3 493 0
 299 000c 2023     		movs	r3, #32
 300              	.LVL20:
 301              		.syntax unified
 302              	@ 493 "../../modules/ChibiOS/os/common/ext/ARM/CMSIS/Core/Include/cmsis_gcc.h" 1
 303 000e 83F31188 		MSR basepri, r3
 304              	@ 0 "" 2
 305              	.LVL21:
 306              		.thumb
 307              		.syntax unified
 308              	.LBE109:
 309              	.LBE108:
 310              	.LBE107:
 311              		.loc 4 356 0
 312 0012 FFF7FEFF 		bl	_stats_start_measure_crit_thd
 313              	.LVL22:
 314              	.LBE106:
 315              	.LBE105:
 316              	.LBE104:
 317              		.loc 1 188 0
 318 0016 0323     		movs	r3, #3
 319 0018 2370     		strb	r3, [r4]
 320              		.loc 1 189 0
 321 001a 0C9B     		ldr	r3, [sp, #48]
 322 001c 0293     		str	r3, [sp, #8]
 323 001e 0B9B     		ldr	r3, [sp, #44]
 324 0020 0193     		str	r3, [sp, #4]
 325              		.loc 1 187 0
 326 0022 0025     		movs	r5, #0
 327              		.loc 1 189 0
 328 0024 0A9B     		ldr	r3, [sp, #40]
 329 0026 0093     		str	r3, [sp]
 330 0028 3146     		mov	r1, r6
 331 002a 4346     		mov	r3, r8
 332 002c 3A46     		mov	r2, r7
 333              		.loc 1 187 0
 334 002e A560     		str	r5, [r4, #8]
 335              		.loc 1 189 0
 336 0030 2046     		mov	r0, r4
 337 0032 FFF7FEFF 		bl	i2c_lld_master_transmit_timeout
 338              	.LVL23:
 339              		.loc 1 191 0
 340 0036 431C     		adds	r3, r0, #1
 341              		.loc 1 192 0
 342 0038 0CBF     		ite	eq
ARM GAS  /tmp/ccFmpp4g.s 			page 7


 343 003a 0523     		moveq	r3, #5
 344              		.loc 1 195 0
 345 003c 0223     		movne	r3, #2
 346 003e 2370     		strb	r3, [r4]
 347              		.loc 1 189 0
 348 0040 0646     		mov	r6, r0
 349              	.LVL24:
 350              	.LBB110:
 351              	.LBB111:
 352              	.LBB112:
 353              		.loc 4 368 0
 354 0042 FFF7FEFF 		bl	_stats_stop_measure_crit_thd
 355              	.LVL25:
 356              	.LBB113:
 357              	.LBB114:
 358              	.LBB115:
 359              		.loc 3 493 0
 360              		.syntax unified
 361              	@ 493 "../../modules/ChibiOS/os/common/ext/ARM/CMSIS/Core/Include/cmsis_gcc.h" 1
 362 0046 85F31188 		MSR basepri, r5
 363              	@ 0 "" 2
 364              	.LVL26:
 365              		.thumb
 366              		.syntax unified
 367              	.LBE115:
 368              	.LBE114:
 369              	.LBE113:
 370              	.LBE112:
 371              	.LBE111:
 372              	.LBE110:
 373              		.loc 1 199 0
 374 004a 3046     		mov	r0, r6
 375 004c 04B0     		add	sp, sp, #16
 376              		.cfi_def_cfa_offset 24
 377              		@ sp needed
 378 004e BDE8F081 		pop	{r4, r5, r6, r7, r8, pc}
 379              		.cfi_endproc
 380              	.LFE328:
 381              		.size	i2cMasterTransmitTimeout, .-i2cMasterTransmitTimeout
 382              		.section	.text.i2cMasterReceiveTimeout,"ax",%progbits
 383              		.align	1
 384              		.global	i2cMasterReceiveTimeout
 385              		.thumb
 386              		.thumb_func
 387              		.type	i2cMasterReceiveTimeout, %function
 388              	i2cMasterReceiveTimeout:
 389              	.LFB329:
 390              		.loc 1 225 0
 391              		.cfi_startproc
 392              		@ args = 4, pretend = 0, frame = 0
 393              		@ frame_needed = 0, uses_anonymous_args = 0
 394              	.LVL27:
 395 0000 2DE9F341 		push	{r0, r1, r4, r5, r6, r7, r8, lr}
 396              		.cfi_def_cfa_offset 32
 397              		.cfi_offset 4, -24
 398              		.cfi_offset 5, -20
 399              		.cfi_offset 6, -16
ARM GAS  /tmp/ccFmpp4g.s 			page 8


 400              		.cfi_offset 7, -12
 401              		.cfi_offset 8, -8
 402              		.cfi_offset 14, -4
 403              		.loc 1 225 0
 404 0004 9846     		mov	r8, r3
 405 0006 0446     		mov	r4, r0
 406 0008 0E46     		mov	r6, r1
 407 000a 1746     		mov	r7, r2
 408              	.LBB130:
 409              	.LBB131:
 410              	.LBB132:
 411              	.LBB133:
 412              	.LBB134:
 413              	.LBB135:
 414              		.loc 3 493 0
 415 000c 2023     		movs	r3, #32
 416              	.LVL28:
 417              		.syntax unified
 418              	@ 493 "../../modules/ChibiOS/os/common/ext/ARM/CMSIS/Core/Include/cmsis_gcc.h" 1
 419 000e 83F31188 		MSR basepri, r3
 420              	@ 0 "" 2
 421              	.LVL29:
 422              		.thumb
 423              		.syntax unified
 424              	.LBE135:
 425              	.LBE134:
 426              	.LBE133:
 427              		.loc 4 356 0
 428 0012 FFF7FEFF 		bl	_stats_start_measure_crit_thd
 429              	.LVL30:
 430              	.LBE132:
 431              	.LBE131:
 432              	.LBE130:
 433              		.loc 1 237 0
 434 0016 0423     		movs	r3, #4
 435 0018 2370     		strb	r3, [r4]
 436              		.loc 1 236 0
 437 001a 0025     		movs	r5, #0
 438              		.loc 1 238 0
 439 001c 089B     		ldr	r3, [sp, #32]
 440 001e 0093     		str	r3, [sp]
 441 0020 3146     		mov	r1, r6
 442 0022 4346     		mov	r3, r8
 443 0024 3A46     		mov	r2, r7
 444              		.loc 1 236 0
 445 0026 A560     		str	r5, [r4, #8]
 446              		.loc 1 238 0
 447 0028 2046     		mov	r0, r4
 448 002a FFF7FEFF 		bl	i2c_lld_master_receive_timeout
 449              	.LVL31:
 450              		.loc 1 239 0
 451 002e 431C     		adds	r3, r0, #1
 452              		.loc 1 240 0
 453 0030 0CBF     		ite	eq
 454 0032 0523     		moveq	r3, #5
 455              		.loc 1 243 0
 456 0034 0223     		movne	r3, #2
ARM GAS  /tmp/ccFmpp4g.s 			page 9


 457 0036 2370     		strb	r3, [r4]
 458              		.loc 1 238 0
 459 0038 0646     		mov	r6, r0
 460              	.LVL32:
 461              	.LBB136:
 462              	.LBB137:
 463              	.LBB138:
 464              		.loc 4 368 0
 465 003a FFF7FEFF 		bl	_stats_stop_measure_crit_thd
 466              	.LVL33:
 467              	.LBB139:
 468              	.LBB140:
 469              	.LBB141:
 470              		.loc 3 493 0
 471              		.syntax unified
 472              	@ 493 "../../modules/ChibiOS/os/common/ext/ARM/CMSIS/Core/Include/cmsis_gcc.h" 1
 473 003e 85F31188 		MSR basepri, r5
 474              	@ 0 "" 2
 475              	.LVL34:
 476              		.thumb
 477              		.syntax unified
 478              	.LBE141:
 479              	.LBE140:
 480              	.LBE139:
 481              	.LBE138:
 482              	.LBE137:
 483              	.LBE136:
 484              		.loc 1 247 0
 485 0042 3046     		mov	r0, r6
 486 0044 02B0     		add	sp, sp, #8
 487              		.cfi_def_cfa_offset 24
 488              		@ sp needed
 489 0046 BDE8F081 		pop	{r4, r5, r6, r7, r8, pc}
 490              		.cfi_endproc
 491              	.LFE329:
 492              		.size	i2cMasterReceiveTimeout, .-i2cMasterReceiveTimeout
 493              		.section	.text.i2cAcquireBus,"ax",%progbits
 494              		.align	1
 495              		.global	i2cAcquireBus
 496              		.thumb
 497              		.thumb_func
 498              		.type	i2cAcquireBus, %function
 499              	i2cAcquireBus:
 500              	.LFB330:
 501              		.loc 1 261 0
 502              		.cfi_startproc
 503              		@ args = 0, pretend = 0, frame = 0
 504              		@ frame_needed = 0, uses_anonymous_args = 0
 505              		@ link register save eliminated.
 506              	.LVL35:
 507              	.LBB142:
 508              	.LBB143:
 509              		.loc 2 994 0
 510 0000 0C30     		adds	r0, r0, #12
 511              	.LVL36:
 512 0002 FFF7FEBF 		b	chMtxLock
 513              	.LVL37:
ARM GAS  /tmp/ccFmpp4g.s 			page 10


 514              	.LBE143:
 515              	.LBE142:
 516              		.cfi_endproc
 517              	.LFE330:
 518              		.size	i2cAcquireBus, .-i2cAcquireBus
 519              		.section	.text.i2cReleaseBus,"ax",%progbits
 520              		.align	1
 521              		.global	i2cReleaseBus
 522              		.thumb
 523              		.thumb_func
 524              		.type	i2cReleaseBus, %function
 525              	i2cReleaseBus:
 526              	.LFB331:
 527              		.loc 1 277 0
 528              		.cfi_startproc
 529              		@ args = 0, pretend = 0, frame = 0
 530              		@ frame_needed = 0, uses_anonymous_args = 0
 531              		@ link register save eliminated.
 532              	.LVL38:
 533              	.LBB144:
 534              	.LBB145:
 535              		.loc 2 1018 0
 536 0000 0C30     		adds	r0, r0, #12
 537              	.LVL39:
 538 0002 FFF7FEBF 		b	chMtxUnlock
 539              	.LVL40:
 540              	.LBE145:
 541              	.LBE144:
 542              		.cfi_endproc
 543              	.LFE331:
 544              		.size	i2cReleaseBus, .-i2cReleaseBus
 545              		.text
 546              	.Letext0:
 547              		.file 5 "/usr/lib/gcc/arm-none-eabi/5.4.1/include/stddef.h"
 548              		.file 6 "/usr/include/newlib/machine/_default_types.h"
 549              		.file 7 "/usr/include/newlib/sys/_stdint.h"
 550              		.file 8 "../../modules/ChibiOS/os/common/ports/ARMCMx/compilers/GCC/chtypes.h"
 551              		.file 9 "../../modules/ChibiOS/os/rt/include/chsystypes.h"
 552              		.file 10 "../../modules/ChibiOS/os/rt/include/chschd.h"
 553              		.file 11 "../../modules/ChibiOS/os/rt/include/chtime.h"
 554              		.file 12 "../../modules/ChibiOS/os/common/ext/ST/STM32F4xx/stm32f427xx.h"
 555              		.file 13 "../../modules/ChibiOS/os/common/ports/ARMCMx/chcore.h"
 556              		.file 14 "../../modules/ChibiOS/os/common/ports/ARMCMx/chcore_v7m.h"
 557              		.file 15 "../../modules/ChibiOS/os/rt/include/chtm.h"
 558              		.file 16 "../../modules/ChibiOS/os/rt/include/chstats.h"
 559              		.file 17 "../../modules/ChibiOS/os/rt/include/chsem.h"
 560              		.file 18 "../../modules/ChibiOS/os/rt/include/chmtx.h"
 561              		.file 19 "../../modules/ChibiOS/os/hal/ports/STM32/LLD/DMAv2/stm32_dma.h"
 562              		.file 20 "../../modules/ChibiOS/os/hal/include/hal_i2c.h"
 563              		.file 21 "../../modules/ChibiOS/os/hal/ports/STM32/LLD/I2Cv1/hal_i2c_lld.h"
 564              		.file 22 "../../modules/ChibiOS/os/common/ext/ARM/CMSIS/Core/Include/core_cm4.h"
 565              		.section	.debug_info,"",%progbits
 566              	.Ldebug_info0:
 567 0000 48130000 		.4byte	0x1348
 568 0004 0400     		.2byte	0x4
 569 0006 00000000 		.4byte	.Ldebug_abbrev0
 570 000a 04       		.byte	0x4
ARM GAS  /tmp/ccFmpp4g.s 			page 11


 571 000b 01       		.uleb128 0x1
 572 000c F3040000 		.4byte	.LASF194
 573 0010 0C       		.byte	0xc
 574 0011 78040000 		.4byte	.LASF195
 575 0015 68070000 		.4byte	.LASF196
 576 0019 00000000 		.4byte	.Ldebug_ranges0+0
 577 001d 00000000 		.4byte	0
 578 0021 00000000 		.4byte	.Ldebug_line0
 579 0025 02       		.uleb128 0x2
 580 0026 04       		.byte	0x4
 581 0027 05       		.byte	0x5
 582 0028 696E7400 		.ascii	"int\000"
 583 002c 03       		.uleb128 0x3
 584 002d 36000000 		.4byte	.LASF4
 585 0031 05       		.byte	0x5
 586 0032 D8       		.byte	0xd8
 587 0033 37000000 		.4byte	0x37
 588 0037 04       		.uleb128 0x4
 589 0038 04       		.byte	0x4
 590 0039 07       		.byte	0x7
 591 003a CF020000 		.4byte	.LASF0
 592 003e 04       		.uleb128 0x4
 593 003f 08       		.byte	0x8
 594 0040 05       		.byte	0x5
 595 0041 AD020000 		.4byte	.LASF1
 596 0045 04       		.uleb128 0x4
 597 0046 08       		.byte	0x8
 598 0047 04       		.byte	0x4
 599 0048 63040000 		.4byte	.LASF2
 600 004c 04       		.uleb128 0x4
 601 004d 01       		.byte	0x1
 602 004e 06       		.byte	0x6
 603 004f AA010000 		.4byte	.LASF3
 604 0053 03       		.uleb128 0x3
 605 0054 60000000 		.4byte	.LASF5
 606 0058 06       		.byte	0x6
 607 0059 1D       		.byte	0x1d
 608 005a 5E000000 		.4byte	0x5e
 609 005e 04       		.uleb128 0x4
 610 005f 01       		.byte	0x1
 611 0060 08       		.byte	0x8
 612 0061 C0060000 		.4byte	.LASF6
 613 0065 04       		.uleb128 0x4
 614 0066 02       		.byte	0x2
 615 0067 05       		.byte	0x5
 616 0068 D0030000 		.4byte	.LASF7
 617 006c 03       		.uleb128 0x3
 618 006d 11080000 		.4byte	.LASF8
 619 0071 06       		.byte	0x6
 620 0072 2B       		.byte	0x2b
 621 0073 77000000 		.4byte	0x77
 622 0077 04       		.uleb128 0x4
 623 0078 02       		.byte	0x2
 624 0079 07       		.byte	0x7
 625 007a 2D030000 		.4byte	.LASF9
 626 007e 03       		.uleb128 0x3
 627 007f DA030000 		.4byte	.LASF10
ARM GAS  /tmp/ccFmpp4g.s 			page 12


 628 0083 06       		.byte	0x6
 629 0084 3F       		.byte	0x3f
 630 0085 89000000 		.4byte	0x89
 631 0089 04       		.uleb128 0x4
 632 008a 04       		.byte	0x4
 633 008b 05       		.byte	0x5
 634 008c 21020000 		.4byte	.LASF11
 635 0090 03       		.uleb128 0x3
 636 0091 6B020000 		.4byte	.LASF12
 637 0095 06       		.byte	0x6
 638 0096 41       		.byte	0x41
 639 0097 9B000000 		.4byte	0x9b
 640 009b 04       		.uleb128 0x4
 641 009c 04       		.byte	0x4
 642 009d 07       		.byte	0x7
 643 009e D6070000 		.4byte	.LASF13
 644 00a2 03       		.uleb128 0x3
 645 00a3 08060000 		.4byte	.LASF14
 646 00a7 06       		.byte	0x6
 647 00a8 5B       		.byte	0x5b
 648 00a9 AD000000 		.4byte	0xad
 649 00ad 04       		.uleb128 0x4
 650 00ae 08       		.byte	0x8
 651 00af 07       		.byte	0x7
 652 00b0 F3000000 		.4byte	.LASF15
 653 00b4 03       		.uleb128 0x3
 654 00b5 E4080000 		.4byte	.LASF16
 655 00b9 07       		.byte	0x7
 656 00ba 18       		.byte	0x18
 657 00bb 53000000 		.4byte	0x53
 658 00bf 03       		.uleb128 0x3
 659 00c0 A2030000 		.4byte	.LASF17
 660 00c4 07       		.byte	0x7
 661 00c5 24       		.byte	0x24
 662 00c6 6C000000 		.4byte	0x6c
 663 00ca 03       		.uleb128 0x3
 664 00cb B8060000 		.4byte	.LASF18
 665 00cf 07       		.byte	0x7
 666 00d0 2C       		.byte	0x2c
 667 00d1 7E000000 		.4byte	0x7e
 668 00d5 03       		.uleb128 0x3
 669 00d6 FE020000 		.4byte	.LASF19
 670 00da 07       		.byte	0x7
 671 00db 30       		.byte	0x30
 672 00dc 90000000 		.4byte	0x90
 673 00e0 03       		.uleb128 0x3
 674 00e1 4A000000 		.4byte	.LASF20
 675 00e5 07       		.byte	0x7
 676 00e6 3C       		.byte	0x3c
 677 00e7 A2000000 		.4byte	0xa2
 678 00eb 03       		.uleb128 0x3
 679 00ec AA080000 		.4byte	.LASF21
 680 00f0 08       		.byte	0x8
 681 00f1 27       		.byte	0x27
 682 00f2 D5000000 		.4byte	0xd5
 683 00f6 03       		.uleb128 0x3
 684 00f7 56010000 		.4byte	.LASF22
ARM GAS  /tmp/ccFmpp4g.s 			page 13


 685 00fb 08       		.byte	0x8
 686 00fc 28       		.byte	0x28
 687 00fd E0000000 		.4byte	0xe0
 688 0101 03       		.uleb128 0x3
 689 0102 9A030000 		.4byte	.LASF23
 690 0106 08       		.byte	0x8
 691 0107 2A       		.byte	0x2a
 692 0108 B4000000 		.4byte	0xb4
 693 010c 03       		.uleb128 0x3
 694 010d 2A020000 		.4byte	.LASF24
 695 0111 08       		.byte	0x8
 696 0112 2B       		.byte	0x2b
 697 0113 B4000000 		.4byte	0xb4
 698 0117 03       		.uleb128 0x3
 699 0118 24060000 		.4byte	.LASF25
 700 011c 08       		.byte	0x8
 701 011d 2C       		.byte	0x2c
 702 011e B4000000 		.4byte	0xb4
 703 0122 03       		.uleb128 0x3
 704 0123 82060000 		.4byte	.LASF26
 705 0127 08       		.byte	0x8
 706 0128 2E       		.byte	0x2e
 707 0129 D5000000 		.4byte	0xd5
 708 012d 03       		.uleb128 0x3
 709 012e 73030000 		.4byte	.LASF27
 710 0132 08       		.byte	0x8
 711 0133 2F       		.byte	0x2f
 712 0134 CA000000 		.4byte	0xca
 713 0138 03       		.uleb128 0x3
 714 0139 C4030000 		.4byte	.LASF28
 715 013d 08       		.byte	0x8
 716 013e 31       		.byte	0x31
 717 013f D5000000 		.4byte	0xd5
 718 0143 03       		.uleb128 0x3
 719 0144 C9020000 		.4byte	.LASF29
 720 0148 08       		.byte	0x8
 721 0149 33       		.byte	0x33
 722 014a CA000000 		.4byte	0xca
 723 014e 03       		.uleb128 0x3
 724 014f 7E030000 		.4byte	.LASF30
 725 0153 08       		.byte	0x8
 726 0154 34       		.byte	0x34
 727 0155 D5000000 		.4byte	0xd5
 728 0159 03       		.uleb128 0x3
 729 015a 1C080000 		.4byte	.LASF31
 730 015e 09       		.byte	0x9
 731 015f 34       		.byte	0x34
 732 0160 64010000 		.4byte	0x164
 733 0164 05       		.uleb128 0x5
 734 0165 59030000 		.4byte	.LASF50
 735 0169 60       		.byte	0x60
 736 016a 0A       		.byte	0xa
 737 016b 8E       		.byte	0x8e
 738 016c 4F020000 		.4byte	0x24f
 739 0170 06       		.uleb128 0x6
 740 0171 0D030000 		.4byte	.LASF32
 741 0175 0A       		.byte	0xa
ARM GAS  /tmp/ccFmpp4g.s 			page 14


 742 0176 8F       		.byte	0x8f
 743 0177 84020000 		.4byte	0x284
 744 017b 00       		.byte	0
 745 017c 06       		.uleb128 0x6
 746 017d F3050000 		.4byte	.LASF33
 747 0181 0A       		.byte	0xa
 748 0182 90       		.byte	0x90
 749 0183 22010000 		.4byte	0x122
 750 0187 08       		.byte	0x8
 751 0188 07       		.uleb128 0x7
 752 0189 63747800 		.ascii	"ctx\000"
 753 018d 0A       		.byte	0xa
 754 018e 91       		.byte	0x91
 755 018f 9E050000 		.4byte	0x59e
 756 0193 0C       		.byte	0xc
 757 0194 06       		.uleb128 0x6
 758 0195 1E060000 		.4byte	.LASF34
 759 0199 0A       		.byte	0xa
 760 019a 93       		.byte	0x93
 761 019b 5A020000 		.4byte	0x25a
 762 019f 10       		.byte	0x10
 763 01a0 06       		.uleb128 0x6
 764 01a1 F4070000 		.4byte	.LASF35
 765 01a5 0A       		.byte	0xa
 766 01a6 94       		.byte	0x94
 767 01a7 5A020000 		.4byte	0x25a
 768 01ab 14       		.byte	0x14
 769 01ac 06       		.uleb128 0x6
 770 01ad 6E030000 		.4byte	.LASF36
 771 01b1 0A       		.byte	0xa
 772 01b2 9B       		.byte	0x9b
 773 01b3 84080000 		.4byte	0x884
 774 01b7 18       		.byte	0x18
 775 01b8 06       		.uleb128 0x6
 776 01b9 E8070000 		.4byte	.LASF37
 777 01bd 0A       		.byte	0xa
 778 01be A4       		.byte	0xa4
 779 01bf 96080000 		.4byte	0x896
 780 01c3 1C       		.byte	0x1c
 781 01c4 06       		.uleb128 0x6
 782 01c5 1B020000 		.4byte	.LASF38
 783 01c9 0A       		.byte	0xa
 784 01ca A9       		.byte	0xa9
 785 01cb 0C010000 		.4byte	0x10c
 786 01cf 20       		.byte	0x20
 787 01d0 06       		.uleb128 0x6
 788 01d1 F6080000 		.4byte	.LASF39
 789 01d5 0A       		.byte	0xa
 790 01d6 AD       		.byte	0xad
 791 01d7 01010000 		.4byte	0x101
 792 01db 21       		.byte	0x21
 793 01dc 06       		.uleb128 0x6
 794 01dd 4C060000 		.4byte	.LASF40
 795 01e1 0A       		.byte	0xa
 796 01e2 B2       		.byte	0xb2
 797 01e3 17010000 		.4byte	0x117
 798 01e7 22       		.byte	0x22
ARM GAS  /tmp/ccFmpp4g.s 			page 15


 799 01e8 08       		.uleb128 0x8
 800 01e9 7500     		.ascii	"u\000"
 801 01eb 0A       		.byte	0xa
 802 01ec 0301     		.2byte	0x103
 803 01ee BA070000 		.4byte	0x7ba
 804 01f2 24       		.byte	0x24
 805 01f3 09       		.uleb128 0x9
 806 01f4 8F020000 		.4byte	.LASF41
 807 01f8 0A       		.byte	0xa
 808 01f9 0801     		.2byte	0x108
 809 01fb 60020000 		.4byte	0x260
 810 01ff 28       		.byte	0x28
 811 0200 09       		.uleb128 0x9
 812 0201 08020000 		.4byte	.LASF42
 813 0205 0A       		.byte	0xa
 814 0206 0E01     		.2byte	0x10e
 815 0208 84020000 		.4byte	0x284
 816 020c 2C       		.byte	0x2c
 817 020d 09       		.uleb128 0x9
 818 020e 85030000 		.4byte	.LASF43
 819 0212 0A       		.byte	0xa
 820 0213 1401     		.2byte	0x114
 821 0215 38010000 		.4byte	0x138
 822 0219 34       		.byte	0x34
 823 021a 09       		.uleb128 0x9
 824 021b 6D090000 		.4byte	.LASF44
 825 021f 0A       		.byte	0xa
 826 0220 1B01     		.2byte	0x11b
 827 0222 7E080000 		.4byte	0x87e
 828 0226 38       		.byte	0x38
 829 0227 09       		.uleb128 0x9
 830 0228 FC030000 		.4byte	.LASF45
 831 022c 0A       		.byte	0xa
 832 022d 1F01     		.2byte	0x11f
 833 022f 22010000 		.4byte	0x122
 834 0233 3C       		.byte	0x3c
 835 0234 09       		.uleb128 0x9
 836 0235 13030000 		.4byte	.LASF46
 837 0239 0A       		.byte	0xa
 838 023a 2601     		.2byte	0x126
 839 023c 37030000 		.4byte	0x337
 840 0240 40       		.byte	0x40
 841 0241 09       		.uleb128 0x9
 842 0242 38020000 		.4byte	.LASF47
 843 0246 0A       		.byte	0xa
 844 0247 2C01     		.2byte	0x12c
 845 0249 6B070000 		.4byte	0x76b
 846 024d 48       		.byte	0x48
 847 024e 00       		.byte	0
 848 024f 03       		.uleb128 0x3
 849 0250 39040000 		.4byte	.LASF48
 850 0254 09       		.byte	0x9
 851 0255 39       		.byte	0x39
 852 0256 5A020000 		.4byte	0x25a
 853 025a 0A       		.uleb128 0xa
 854 025b 04       		.byte	0x4
 855 025c 59010000 		.4byte	0x159
ARM GAS  /tmp/ccFmpp4g.s 			page 16


 856 0260 03       		.uleb128 0x3
 857 0261 1B090000 		.4byte	.LASF49
 858 0265 09       		.byte	0x9
 859 0266 3E       		.byte	0x3e
 860 0267 6B020000 		.4byte	0x26b
 861 026b 05       		.uleb128 0x5
 862 026c B2070000 		.4byte	.LASF51
 863 0270 04       		.byte	0x4
 864 0271 0A       		.byte	0xa
 865 0272 7C       		.byte	0x7c
 866 0273 84020000 		.4byte	0x284
 867 0277 06       		.uleb128 0x6
 868 0278 51010000 		.4byte	.LASF52
 869 027c 0A       		.byte	0xa
 870 027d 7D       		.byte	0x7d
 871 027e 5A020000 		.4byte	0x25a
 872 0282 00       		.byte	0
 873 0283 00       		.byte	0
 874 0284 03       		.uleb128 0x3
 875 0285 C1080000 		.4byte	.LASF53
 876 0289 09       		.byte	0x9
 877 028a 45       		.byte	0x45
 878 028b 8F020000 		.4byte	0x28f
 879 028f 05       		.uleb128 0x5
 880 0290 84000000 		.4byte	.LASF54
 881 0294 08       		.byte	0x8
 882 0295 0A       		.byte	0xa
 883 0296 83       		.byte	0x83
 884 0297 B4020000 		.4byte	0x2b4
 885 029b 06       		.uleb128 0x6
 886 029c 51010000 		.4byte	.LASF52
 887 02a0 0A       		.byte	0xa
 888 02a1 84       		.byte	0x84
 889 02a2 5A020000 		.4byte	0x25a
 890 02a6 00       		.byte	0
 891 02a7 06       		.uleb128 0x6
 892 02a8 73000000 		.4byte	.LASF55
 893 02ac 0A       		.byte	0xa
 894 02ad 85       		.byte	0x85
 895 02ae 5A020000 		.4byte	0x25a
 896 02b2 04       		.byte	0x4
 897 02b3 00       		.byte	0
 898 02b4 03       		.uleb128 0x3
 899 02b5 24000000 		.4byte	.LASF56
 900 02b9 09       		.byte	0x9
 901 02ba 4C       		.byte	0x4c
 902 02bb BF020000 		.4byte	0x2bf
 903 02bf 0B       		.uleb128 0xb
 904 02c0 B6030000 		.4byte	.LASF57
 905 02c4 1C       		.byte	0x1c
 906 02c5 0A       		.byte	0xa
 907 02c6 5E01     		.2byte	0x15e
 908 02c8 1B030000 		.4byte	0x31b
 909 02cc 09       		.uleb128 0x9
 910 02cd 0D030000 		.4byte	.LASF32
 911 02d1 0A       		.byte	0xa
 912 02d2 5F01     		.2byte	0x15f
ARM GAS  /tmp/ccFmpp4g.s 			page 17


 913 02d4 84020000 		.4byte	0x284
 914 02d8 00       		.byte	0
 915 02d9 09       		.uleb128 0x9
 916 02da F3050000 		.4byte	.LASF33
 917 02de 0A       		.byte	0xa
 918 02df 6001     		.2byte	0x160
 919 02e1 22010000 		.4byte	0x122
 920 02e5 08       		.byte	0x8
 921 02e6 08       		.uleb128 0x8
 922 02e7 63747800 		.ascii	"ctx\000"
 923 02eb 0A       		.byte	0xa
 924 02ec 6201     		.2byte	0x162
 925 02ee 9E050000 		.4byte	0x59e
 926 02f2 0C       		.byte	0xc
 927 02f3 09       		.uleb128 0x9
 928 02f4 1E060000 		.4byte	.LASF34
 929 02f8 0A       		.byte	0xa
 930 02f9 6501     		.2byte	0x165
 931 02fb 5A020000 		.4byte	0x25a
 932 02ff 10       		.byte	0x10
 933 0300 09       		.uleb128 0x9
 934 0301 F4070000 		.4byte	.LASF35
 935 0305 0A       		.byte	0xa
 936 0306 6601     		.2byte	0x166
 937 0308 5A020000 		.4byte	0x25a
 938 030c 14       		.byte	0x14
 939 030d 09       		.uleb128 0x9
 940 030e 00060000 		.4byte	.LASF58
 941 0312 0A       		.byte	0xa
 942 0313 6901     		.2byte	0x169
 943 0315 5A020000 		.4byte	0x25a
 944 0319 18       		.byte	0x18
 945 031a 00       		.byte	0
 946 031b 03       		.uleb128 0x3
 947 031c 34080000 		.4byte	.LASF59
 948 0320 09       		.byte	0x9
 949 0321 51       		.byte	0x51
 950 0322 26030000 		.4byte	0x326
 951 0326 0A       		.uleb128 0xa
 952 0327 04       		.byte	0x4
 953 0328 2C030000 		.4byte	0x32c
 954 032c 0C       		.uleb128 0xc
 955 032d 37030000 		.4byte	0x337
 956 0331 0D       		.uleb128 0xd
 957 0332 37030000 		.4byte	0x337
 958 0336 00       		.byte	0
 959 0337 0E       		.uleb128 0xe
 960 0338 04       		.byte	0x4
 961 0339 03       		.uleb128 0x3
 962 033a 51060000 		.4byte	.LASF60
 963 033e 09       		.byte	0x9
 964 033f 56       		.byte	0x56
 965 0340 44030000 		.4byte	0x344
 966 0344 0B       		.uleb128 0xb
 967 0345 99080000 		.4byte	.LASF61
 968 0349 14       		.byte	0x14
 969 034a 0A       		.byte	0xa
ARM GAS  /tmp/ccFmpp4g.s 			page 18


 970 034b 3901     		.2byte	0x139
 971 034d 93030000 		.4byte	0x393
 972 0351 09       		.uleb128 0x9
 973 0352 51010000 		.4byte	.LASF52
 974 0356 0A       		.byte	0xa
 975 0357 3A01     		.2byte	0x13a
 976 0359 9C080000 		.4byte	0x89c
 977 035d 00       		.byte	0
 978 035e 09       		.uleb128 0x9
 979 035f 73000000 		.4byte	.LASF55
 980 0363 0A       		.byte	0xa
 981 0364 3B01     		.2byte	0x13b
 982 0366 9C080000 		.4byte	0x89c
 983 036a 04       		.byte	0x4
 984 036b 09       		.uleb128 0x9
 985 036c 3D000000 		.4byte	.LASF62
 986 0370 0A       		.byte	0xa
 987 0371 3C01     		.2byte	0x13c
 988 0373 77040000 		.4byte	0x477
 989 0377 08       		.byte	0x8
 990 0378 09       		.uleb128 0x9
 991 0379 33020000 		.4byte	.LASF63
 992 037d 0A       		.byte	0xa
 993 037e 3D01     		.2byte	0x13d
 994 0380 1B030000 		.4byte	0x31b
 995 0384 0C       		.byte	0xc
 996 0385 08       		.uleb128 0x8
 997 0386 70617200 		.ascii	"par\000"
 998 038a 0A       		.byte	0xa
 999 038b 3F01     		.2byte	0x13f
 1000 038d 37030000 		.4byte	0x337
 1001 0391 10       		.byte	0x10
 1002 0392 00       		.byte	0
 1003 0393 03       		.uleb128 0x3
 1004 0394 29010000 		.4byte	.LASF64
 1005 0398 09       		.byte	0x9
 1006 0399 5B       		.byte	0x5b
 1007 039a 9E030000 		.4byte	0x39e
 1008 039e 0B       		.uleb128 0xb
 1009 039f 4C040000 		.4byte	.LASF65
 1010 03a3 10       		.byte	0x10
 1011 03a4 0A       		.byte	0xa
 1012 03a5 4901     		.2byte	0x149
 1013 03a7 E0030000 		.4byte	0x3e0
 1014 03ab 09       		.uleb128 0x9
 1015 03ac 51010000 		.4byte	.LASF52
 1016 03b0 0A       		.byte	0xa
 1017 03b1 4A01     		.2byte	0x14a
 1018 03b3 9C080000 		.4byte	0x89c
 1019 03b7 00       		.byte	0
 1020 03b8 09       		.uleb128 0x9
 1021 03b9 73000000 		.4byte	.LASF55
 1022 03bd 0A       		.byte	0xa
 1023 03be 4C01     		.2byte	0x14c
 1024 03c0 9C080000 		.4byte	0x89c
 1025 03c4 04       		.byte	0x4
 1026 03c5 09       		.uleb128 0x9
ARM GAS  /tmp/ccFmpp4g.s 			page 19


 1027 03c6 3D000000 		.4byte	.LASF62
 1028 03ca 0A       		.byte	0xa
 1029 03cb 4E01     		.2byte	0x14e
 1030 03cd 77040000 		.4byte	0x477
 1031 03d1 08       		.byte	0x8
 1032 03d2 09       		.uleb128 0x9
 1033 03d3 E1060000 		.4byte	.LASF66
 1034 03d7 0A       		.byte	0xa
 1035 03d8 5601     		.2byte	0x156
 1036 03da 6C040000 		.4byte	0x46c
 1037 03de 0C       		.byte	0xc
 1038 03df 00       		.byte	0
 1039 03e0 03       		.uleb128 0x3
 1040 03e1 95000000 		.4byte	.LASF67
 1041 03e5 09       		.byte	0x9
 1042 03e6 60       		.byte	0x60
 1043 03e7 EB030000 		.4byte	0x3eb
 1044 03eb 0B       		.uleb128 0xb
 1045 03ec 3E090000 		.4byte	.LASF68
 1046 03f0 04       		.byte	0x4
 1047 03f1 0A       		.byte	0xa
 1048 03f2 7001     		.2byte	0x170
 1049 03f4 06040000 		.4byte	0x406
 1050 03f8 09       		.uleb128 0x9
 1051 03f9 5E080000 		.4byte	.LASF69
 1052 03fd 0A       		.byte	0xa
 1053 03fe 7801     		.2byte	0x178
 1054 0400 A2080000 		.4byte	0x8a2
 1055 0404 00       		.byte	0
 1056 0405 00       		.byte	0
 1057 0406 03       		.uleb128 0x3
 1058 0407 8E030000 		.4byte	.LASF70
 1059 040b 09       		.byte	0x9
 1060 040c 65       		.byte	0x65
 1061 040d 11040000 		.4byte	0x411
 1062 0411 0B       		.uleb128 0xb
 1063 0412 FE060000 		.4byte	.LASF71
 1064 0416 D0       		.byte	0xd0
 1065 0417 0A       		.byte	0xa
 1066 0418 9001     		.2byte	0x190
 1067 041a 6C040000 		.4byte	0x46c
 1068 041e 09       		.uleb128 0x9
 1069 041f DE080000 		.4byte	.LASF72
 1070 0423 0A       		.byte	0xa
 1071 0424 9401     		.2byte	0x194
 1072 0426 B4020000 		.4byte	0x2b4
 1073 042a 00       		.byte	0
 1074 042b 09       		.uleb128 0x9
 1075 042c F5010000 		.4byte	.LASF73
 1076 0430 0A       		.byte	0xa
 1077 0431 9801     		.2byte	0x198
 1078 0433 93030000 		.4byte	0x393
 1079 0437 1C       		.byte	0x1c
 1080 0438 08       		.uleb128 0x8
 1081 0439 64626700 		.ascii	"dbg\000"
 1082 043d 0A       		.byte	0xa
 1083 043e 9C01     		.2byte	0x19c
ARM GAS  /tmp/ccFmpp4g.s 			page 20


 1084 0440 E0030000 		.4byte	0x3e0
 1085 0444 2C       		.byte	0x2c
 1086 0445 09       		.uleb128 0x9
 1087 0446 63030000 		.4byte	.LASF74
 1088 044a 0A       		.byte	0xa
 1089 044b A001     		.2byte	0x1a0
 1090 044d 59010000 		.4byte	0x159
 1091 0451 30       		.byte	0x30
 1092 0452 08       		.uleb128 0x8
 1093 0453 746D00   		.ascii	"tm\000"
 1094 0456 0A       		.byte	0xa
 1095 0457 A501     		.2byte	0x1a5
 1096 0459 1D070000 		.4byte	0x71d
 1097 045d 90       		.byte	0x90
 1098 045e 09       		.uleb128 0x9
 1099 045f 53000000 		.4byte	.LASF75
 1100 0463 0A       		.byte	0xa
 1101 0464 AB01     		.2byte	0x1ab
 1102 0466 AF070000 		.4byte	0x7af
 1103 046a 98       		.byte	0x98
 1104 046b 00       		.byte	0
 1105 046c 03       		.uleb128 0x3
 1106 046d 2A080000 		.4byte	.LASF76
 1107 0471 0B       		.byte	0xb
 1108 0472 6D       		.byte	0x6d
 1109 0473 D5000000 		.4byte	0xd5
 1110 0477 03       		.uleb128 0x3
 1111 0478 BB020000 		.4byte	.LASF77
 1112 047c 0B       		.byte	0xb
 1113 047d 79       		.byte	0x79
 1114 047e D5000000 		.4byte	0xd5
 1115 0482 04       		.uleb128 0x4
 1116 0483 04       		.byte	0x4
 1117 0484 07       		.byte	0x7
 1118 0485 30040000 		.4byte	.LASF78
 1119 0489 0F       		.uleb128 0xf
 1120 048a D5000000 		.4byte	0xd5
 1121 048e 10       		.uleb128 0x10
 1122 048f 18       		.byte	0x18
 1123 0490 0C       		.byte	0xc
 1124 0491 7101     		.2byte	0x171
 1125 0493 E5040000 		.4byte	0x4e5
 1126 0497 08       		.uleb128 0x8
 1127 0498 435200   		.ascii	"CR\000"
 1128 049b 0C       		.byte	0xc
 1129 049c 7301     		.2byte	0x173
 1130 049e 89040000 		.4byte	0x489
 1131 04a2 00       		.byte	0
 1132 04a3 09       		.uleb128 0x9
 1133 04a4 59080000 		.4byte	.LASF79
 1134 04a8 0C       		.byte	0xc
 1135 04a9 7401     		.2byte	0x174
 1136 04ab 89040000 		.4byte	0x489
 1137 04af 04       		.byte	0x4
 1138 04b0 08       		.uleb128 0x8
 1139 04b1 50415200 		.ascii	"PAR\000"
 1140 04b5 0C       		.byte	0xc
ARM GAS  /tmp/ccFmpp4g.s 			page 21


 1141 04b6 7501     		.2byte	0x175
 1142 04b8 89040000 		.4byte	0x489
 1143 04bc 08       		.byte	0x8
 1144 04bd 09       		.uleb128 0x9
 1145 04be 31000000 		.4byte	.LASF80
 1146 04c2 0C       		.byte	0xc
 1147 04c3 7601     		.2byte	0x176
 1148 04c5 89040000 		.4byte	0x489
 1149 04c9 0C       		.byte	0xc
 1150 04ca 09       		.uleb128 0x9
 1151 04cb B2080000 		.4byte	.LASF81
 1152 04cf 0C       		.byte	0xc
 1153 04d0 7701     		.2byte	0x177
 1154 04d2 89040000 		.4byte	0x489
 1155 04d6 10       		.byte	0x10
 1156 04d7 08       		.uleb128 0x8
 1157 04d8 46435200 		.ascii	"FCR\000"
 1158 04dc 0C       		.byte	0xc
 1159 04dd 7801     		.2byte	0x178
 1160 04df 89040000 		.4byte	0x489
 1161 04e3 14       		.byte	0x14
 1162 04e4 00       		.byte	0
 1163 04e5 11       		.uleb128 0x11
 1164 04e6 6F080000 		.4byte	.LASF82
 1165 04ea 0C       		.byte	0xc
 1166 04eb 7901     		.2byte	0x179
 1167 04ed 8E040000 		.4byte	0x48e
 1168 04f1 10       		.uleb128 0x10
 1169 04f2 28       		.byte	0x28
 1170 04f3 0C       		.byte	0xc
 1171 04f4 6D02     		.2byte	0x26d
 1172 04f6 7C050000 		.4byte	0x57c
 1173 04fa 08       		.uleb128 0x8
 1174 04fb 43523100 		.ascii	"CR1\000"
 1175 04ff 0C       		.byte	0xc
 1176 0500 6F02     		.2byte	0x26f
 1177 0502 89040000 		.4byte	0x489
 1178 0506 00       		.byte	0
 1179 0507 08       		.uleb128 0x8
 1180 0508 43523200 		.ascii	"CR2\000"
 1181 050c 0C       		.byte	0xc
 1182 050d 7002     		.2byte	0x270
 1183 050f 89040000 		.4byte	0x489
 1184 0513 04       		.byte	0x4
 1185 0514 09       		.uleb128 0x9
 1186 0515 EC080000 		.4byte	.LASF83
 1187 0519 0C       		.byte	0xc
 1188 051a 7102     		.2byte	0x271
 1189 051c 89040000 		.4byte	0x489
 1190 0520 08       		.byte	0x8
 1191 0521 09       		.uleb128 0x9
 1192 0522 F1080000 		.4byte	.LASF84
 1193 0526 0C       		.byte	0xc
 1194 0527 7202     		.2byte	0x272
 1195 0529 89040000 		.4byte	0x489
 1196 052d 0C       		.byte	0xc
 1197 052e 08       		.uleb128 0x8
ARM GAS  /tmp/ccFmpp4g.s 			page 22


 1198 052f 445200   		.ascii	"DR\000"
 1199 0532 0C       		.byte	0xc
 1200 0533 7302     		.2byte	0x273
 1201 0535 89040000 		.4byte	0x489
 1202 0539 10       		.byte	0x10
 1203 053a 08       		.uleb128 0x8
 1204 053b 53523100 		.ascii	"SR1\000"
 1205 053f 0C       		.byte	0xc
 1206 0540 7402     		.2byte	0x274
 1207 0542 89040000 		.4byte	0x489
 1208 0546 14       		.byte	0x14
 1209 0547 08       		.uleb128 0x8
 1210 0548 53523200 		.ascii	"SR2\000"
 1211 054c 0C       		.byte	0xc
 1212 054d 7502     		.2byte	0x275
 1213 054f 89040000 		.4byte	0x489
 1214 0553 18       		.byte	0x18
 1215 0554 08       		.uleb128 0x8
 1216 0555 43435200 		.ascii	"CCR\000"
 1217 0559 0C       		.byte	0xc
 1218 055a 7602     		.2byte	0x276
 1219 055c 89040000 		.4byte	0x489
 1220 0560 1C       		.byte	0x1c
 1221 0561 09       		.uleb128 0x9
 1222 0562 C3000000 		.4byte	.LASF85
 1223 0566 0C       		.byte	0xc
 1224 0567 7702     		.2byte	0x277
 1225 0569 89040000 		.4byte	0x489
 1226 056d 20       		.byte	0x20
 1227 056e 09       		.uleb128 0x9
 1228 056f 3E020000 		.4byte	.LASF86
 1229 0573 0C       		.byte	0xc
 1230 0574 7802     		.2byte	0x278
 1231 0576 89040000 		.4byte	0x489
 1232 057a 24       		.byte	0x24
 1233 057b 00       		.byte	0
 1234 057c 11       		.uleb128 0x11
 1235 057d 4E090000 		.4byte	.LASF87
 1236 0581 0C       		.byte	0xc
 1237 0582 7902     		.2byte	0x279
 1238 0584 F1040000 		.4byte	0x4f1
 1239 0588 03       		.uleb128 0x3
 1240 0589 76020000 		.4byte	.LASF88
 1241 058d 0D       		.byte	0xd
 1242 058e 65       		.byte	0x65
 1243 058f 37030000 		.4byte	0x337
 1244 0593 03       		.uleb128 0x3
 1245 0594 E4030000 		.4byte	.LASF89
 1246 0598 0D       		.byte	0xd
 1247 0599 6D       		.byte	0x6d
 1248 059a E0000000 		.4byte	0xe0
 1249 059e 05       		.uleb128 0x5
 1250 059f E6040000 		.4byte	.LASF90
 1251 05a3 04       		.byte	0x4
 1252 05a4 0D       		.byte	0xd
 1253 05a5 89       		.byte	0x89
 1254 05a6 B6050000 		.4byte	0x5b6
ARM GAS  /tmp/ccFmpp4g.s 			page 23


 1255 05aa 07       		.uleb128 0x7
 1256 05ab 737000   		.ascii	"sp\000"
 1257 05ae 0D       		.byte	0xd
 1258 05af 8A       		.byte	0x8a
 1259 05b0 02070000 		.4byte	0x702
 1260 05b4 00       		.byte	0
 1261 05b5 00       		.byte	0
 1262 05b6 0B       		.uleb128 0xb
 1263 05b7 78000000 		.4byte	.LASF91
 1264 05bb 64       		.byte	0x64
 1265 05bc 0E       		.byte	0xe
 1266 05bd 5901     		.2byte	0x159
 1267 05bf 02070000 		.4byte	0x702
 1268 05c3 08       		.uleb128 0x8
 1269 05c4 73313600 		.ascii	"s16\000"
 1270 05c8 0E       		.byte	0xe
 1271 05c9 5B01     		.2byte	0x15b
 1272 05cb 88050000 		.4byte	0x588
 1273 05cf 00       		.byte	0
 1274 05d0 08       		.uleb128 0x8
 1275 05d1 73313700 		.ascii	"s17\000"
 1276 05d5 0E       		.byte	0xe
 1277 05d6 5C01     		.2byte	0x15c
 1278 05d8 88050000 		.4byte	0x588
 1279 05dc 04       		.byte	0x4
 1280 05dd 08       		.uleb128 0x8
 1281 05de 73313800 		.ascii	"s18\000"
 1282 05e2 0E       		.byte	0xe
 1283 05e3 5D01     		.2byte	0x15d
 1284 05e5 88050000 		.4byte	0x588
 1285 05e9 08       		.byte	0x8
 1286 05ea 08       		.uleb128 0x8
 1287 05eb 73313900 		.ascii	"s19\000"
 1288 05ef 0E       		.byte	0xe
 1289 05f0 5E01     		.2byte	0x15e
 1290 05f2 88050000 		.4byte	0x588
 1291 05f6 0C       		.byte	0xc
 1292 05f7 08       		.uleb128 0x8
 1293 05f8 73323000 		.ascii	"s20\000"
 1294 05fc 0E       		.byte	0xe
 1295 05fd 5F01     		.2byte	0x15f
 1296 05ff 88050000 		.4byte	0x588
 1297 0603 10       		.byte	0x10
 1298 0604 08       		.uleb128 0x8
 1299 0605 73323100 		.ascii	"s21\000"
 1300 0609 0E       		.byte	0xe
 1301 060a 6001     		.2byte	0x160
 1302 060c 88050000 		.4byte	0x588
 1303 0610 14       		.byte	0x14
 1304 0611 08       		.uleb128 0x8
 1305 0612 73323200 		.ascii	"s22\000"
 1306 0616 0E       		.byte	0xe
 1307 0617 6101     		.2byte	0x161
 1308 0619 88050000 		.4byte	0x588
 1309 061d 18       		.byte	0x18
 1310 061e 08       		.uleb128 0x8
 1311 061f 73323300 		.ascii	"s23\000"
ARM GAS  /tmp/ccFmpp4g.s 			page 24


 1312 0623 0E       		.byte	0xe
 1313 0624 6201     		.2byte	0x162
 1314 0626 88050000 		.4byte	0x588
 1315 062a 1C       		.byte	0x1c
 1316 062b 08       		.uleb128 0x8
 1317 062c 73323400 		.ascii	"s24\000"
 1318 0630 0E       		.byte	0xe
 1319 0631 6301     		.2byte	0x163
 1320 0633 88050000 		.4byte	0x588
 1321 0637 20       		.byte	0x20
 1322 0638 08       		.uleb128 0x8
 1323 0639 73323500 		.ascii	"s25\000"
 1324 063d 0E       		.byte	0xe
 1325 063e 6401     		.2byte	0x164
 1326 0640 88050000 		.4byte	0x588
 1327 0644 24       		.byte	0x24
 1328 0645 08       		.uleb128 0x8
 1329 0646 73323600 		.ascii	"s26\000"
 1330 064a 0E       		.byte	0xe
 1331 064b 6501     		.2byte	0x165
 1332 064d 88050000 		.4byte	0x588
 1333 0651 28       		.byte	0x28
 1334 0652 08       		.uleb128 0x8
 1335 0653 73323700 		.ascii	"s27\000"
 1336 0657 0E       		.byte	0xe
 1337 0658 6601     		.2byte	0x166
 1338 065a 88050000 		.4byte	0x588
 1339 065e 2C       		.byte	0x2c
 1340 065f 08       		.uleb128 0x8
 1341 0660 73323800 		.ascii	"s28\000"
 1342 0664 0E       		.byte	0xe
 1343 0665 6701     		.2byte	0x167
 1344 0667 88050000 		.4byte	0x588
 1345 066b 30       		.byte	0x30
 1346 066c 08       		.uleb128 0x8
 1347 066d 73323900 		.ascii	"s29\000"
 1348 0671 0E       		.byte	0xe
 1349 0672 6801     		.2byte	0x168
 1350 0674 88050000 		.4byte	0x588
 1351 0678 34       		.byte	0x34
 1352 0679 08       		.uleb128 0x8
 1353 067a 73333000 		.ascii	"s30\000"
 1354 067e 0E       		.byte	0xe
 1355 067f 6901     		.2byte	0x169
 1356 0681 88050000 		.4byte	0x588
 1357 0685 38       		.byte	0x38
 1358 0686 08       		.uleb128 0x8
 1359 0687 73333100 		.ascii	"s31\000"
 1360 068b 0E       		.byte	0xe
 1361 068c 6A01     		.2byte	0x16a
 1362 068e 88050000 		.4byte	0x588
 1363 0692 3C       		.byte	0x3c
 1364 0693 08       		.uleb128 0x8
 1365 0694 723400   		.ascii	"r4\000"
 1366 0697 0E       		.byte	0xe
 1367 0698 6C01     		.2byte	0x16c
 1368 069a 88050000 		.4byte	0x588
ARM GAS  /tmp/ccFmpp4g.s 			page 25


 1369 069e 40       		.byte	0x40
 1370 069f 08       		.uleb128 0x8
 1371 06a0 723500   		.ascii	"r5\000"
 1372 06a3 0E       		.byte	0xe
 1373 06a4 6D01     		.2byte	0x16d
 1374 06a6 88050000 		.4byte	0x588
 1375 06aa 44       		.byte	0x44
 1376 06ab 08       		.uleb128 0x8
 1377 06ac 723600   		.ascii	"r6\000"
 1378 06af 0E       		.byte	0xe
 1379 06b0 6E01     		.2byte	0x16e
 1380 06b2 88050000 		.4byte	0x588
 1381 06b6 48       		.byte	0x48
 1382 06b7 08       		.uleb128 0x8
 1383 06b8 723700   		.ascii	"r7\000"
 1384 06bb 0E       		.byte	0xe
 1385 06bc 6F01     		.2byte	0x16f
 1386 06be 88050000 		.4byte	0x588
 1387 06c2 4C       		.byte	0x4c
 1388 06c3 08       		.uleb128 0x8
 1389 06c4 723800   		.ascii	"r8\000"
 1390 06c7 0E       		.byte	0xe
 1391 06c8 7001     		.2byte	0x170
 1392 06ca 88050000 		.4byte	0x588
 1393 06ce 50       		.byte	0x50
 1394 06cf 08       		.uleb128 0x8
 1395 06d0 723900   		.ascii	"r9\000"
 1396 06d3 0E       		.byte	0xe
 1397 06d4 7101     		.2byte	0x171
 1398 06d6 88050000 		.4byte	0x588
 1399 06da 54       		.byte	0x54
 1400 06db 08       		.uleb128 0x8
 1401 06dc 72313000 		.ascii	"r10\000"
 1402 06e0 0E       		.byte	0xe
 1403 06e1 7201     		.2byte	0x172
 1404 06e3 88050000 		.4byte	0x588
 1405 06e7 58       		.byte	0x58
 1406 06e8 08       		.uleb128 0x8
 1407 06e9 72313100 		.ascii	"r11\000"
 1408 06ed 0E       		.byte	0xe
 1409 06ee 7301     		.2byte	0x173
 1410 06f0 88050000 		.4byte	0x588
 1411 06f4 5C       		.byte	0x5c
 1412 06f5 08       		.uleb128 0x8
 1413 06f6 6C7200   		.ascii	"lr\000"
 1414 06f9 0E       		.byte	0xe
 1415 06fa 7401     		.2byte	0x174
 1416 06fc 88050000 		.4byte	0x588
 1417 0700 60       		.byte	0x60
 1418 0701 00       		.byte	0
 1419 0702 0A       		.uleb128 0xa
 1420 0703 04       		.byte	0x4
 1421 0704 B6050000 		.4byte	0x5b6
 1422 0708 12       		.uleb128 0x12
 1423 0709 04       		.byte	0x4
 1424 070a 0F       		.byte	0xf
 1425 070b 38       		.byte	0x38
ARM GAS  /tmp/ccFmpp4g.s 			page 26


 1426 070c 1D070000 		.4byte	0x71d
 1427 0710 06       		.uleb128 0x6
 1428 0711 68080000 		.4byte	.LASF92
 1429 0715 0F       		.byte	0xf
 1430 0716 3C       		.byte	0x3c
 1431 0717 EB000000 		.4byte	0xeb
 1432 071b 00       		.byte	0
 1433 071c 00       		.byte	0
 1434 071d 03       		.uleb128 0x3
 1435 071e D7050000 		.4byte	.LASF93
 1436 0722 0F       		.byte	0xf
 1437 0723 3D       		.byte	0x3d
 1438 0724 08070000 		.4byte	0x708
 1439 0728 12       		.uleb128 0x12
 1440 0729 18       		.byte	0x18
 1441 072a 0F       		.byte	0xf
 1442 072b 48       		.byte	0x48
 1443 072c 6B070000 		.4byte	0x76b
 1444 0730 06       		.uleb128 0x6
 1445 0731 25080000 		.4byte	.LASF94
 1446 0735 0F       		.byte	0xf
 1447 0736 49       		.byte	0x49
 1448 0737 EB000000 		.4byte	0xeb
 1449 073b 00       		.byte	0
 1450 073c 06       		.uleb128 0x6
 1451 073d DA000000 		.4byte	.LASF95
 1452 0741 0F       		.byte	0xf
 1453 0742 4A       		.byte	0x4a
 1454 0743 EB000000 		.4byte	0xeb
 1455 0747 04       		.byte	0x4
 1456 0748 06       		.uleb128 0x6
 1457 0749 79030000 		.4byte	.LASF96
 1458 074d 0F       		.byte	0xf
 1459 074e 4B       		.byte	0x4b
 1460 074f EB000000 		.4byte	0xeb
 1461 0753 08       		.byte	0x8
 1462 0754 07       		.uleb128 0x7
 1463 0755 6E00     		.ascii	"n\000"
 1464 0757 0F       		.byte	0xf
 1465 0758 4C       		.byte	0x4c
 1466 0759 4E010000 		.4byte	0x14e
 1467 075d 0C       		.byte	0xc
 1468 075e 06       		.uleb128 0x6
 1469 075f 13060000 		.4byte	.LASF97
 1470 0763 0F       		.byte	0xf
 1471 0764 4D       		.byte	0x4d
 1472 0765 F6000000 		.4byte	0xf6
 1473 0769 10       		.byte	0x10
 1474 076a 00       		.byte	0
 1475 076b 03       		.uleb128 0x3
 1476 076c E0000000 		.4byte	.LASF98
 1477 0770 0F       		.byte	0xf
 1478 0771 4E       		.byte	0x4e
 1479 0772 28070000 		.4byte	0x728
 1480 0776 12       		.uleb128 0x12
 1481 0777 38       		.byte	0x38
 1482 0778 10       		.byte	0x10
ARM GAS  /tmp/ccFmpp4g.s 			page 27


 1483 0779 38       		.byte	0x38
 1484 077a AF070000 		.4byte	0x7af
 1485 077e 06       		.uleb128 0x6
 1486 077f 07030000 		.4byte	.LASF99
 1487 0783 10       		.byte	0x10
 1488 0784 39       		.byte	0x39
 1489 0785 4E010000 		.4byte	0x14e
 1490 0789 00       		.byte	0
 1491 078a 06       		.uleb128 0x6
 1492 078b A9060000 		.4byte	.LASF100
 1493 078f 10       		.byte	0x10
 1494 0790 3A       		.byte	0x3a
 1495 0791 4E010000 		.4byte	0x14e
 1496 0795 04       		.byte	0x4
 1497 0796 06       		.uleb128 0x6
 1498 0797 75090000 		.4byte	.LASF101
 1499 079b 10       		.byte	0x10
 1500 079c 3B       		.byte	0x3b
 1501 079d 6B070000 		.4byte	0x76b
 1502 07a1 08       		.byte	0x8
 1503 07a2 06       		.uleb128 0x6
 1504 07a3 AB030000 		.4byte	.LASF102
 1505 07a7 10       		.byte	0x10
 1506 07a8 3D       		.byte	0x3d
 1507 07a9 6B070000 		.4byte	0x76b
 1508 07ad 20       		.byte	0x20
 1509 07ae 00       		.byte	0
 1510 07af 03       		.uleb128 0x3
 1511 07b0 40030000 		.4byte	.LASF103
 1512 07b4 10       		.byte	0x10
 1513 07b5 3F       		.byte	0x3f
 1514 07b6 76070000 		.4byte	0x776
 1515 07ba 13       		.uleb128 0x13
 1516 07bb 04       		.byte	0x4
 1517 07bc 0A       		.byte	0xa
 1518 07bd C6       		.byte	0xc6
 1519 07be 1C080000 		.4byte	0x81c
 1520 07c2 14       		.uleb128 0x14
 1521 07c3 43000000 		.4byte	.LASF104
 1522 07c7 0A       		.byte	0xa
 1523 07c8 CD       		.byte	0xcd
 1524 07c9 2D010000 		.4byte	0x12d
 1525 07cd 14       		.uleb128 0x14
 1526 07ce 0A010000 		.4byte	.LASF105
 1527 07d2 0A       		.byte	0xa
 1528 07d3 D4       		.byte	0xd4
 1529 07d4 2D010000 		.4byte	0x12d
 1530 07d8 14       		.uleb128 0x14
 1531 07d9 14090000 		.4byte	.LASF106
 1532 07dd 0A       		.byte	0xa
 1533 07de DB       		.byte	0xdb
 1534 07df 37030000 		.4byte	0x337
 1535 07e3 14       		.uleb128 0x14
 1536 07e4 F0020000 		.4byte	.LASF107
 1537 07e8 0A       		.byte	0xa
 1538 07e9 E2       		.byte	0xe2
 1539 07ea 1C080000 		.4byte	0x81c
ARM GAS  /tmp/ccFmpp4g.s 			page 28


 1540 07ee 14       		.uleb128 0x14
 1541 07ef 21010000 		.4byte	.LASF108
 1542 07f3 0A       		.byte	0xa
 1543 07f4 E7       		.byte	0xe7
 1544 07f5 2D010000 		.4byte	0x12d
 1545 07f9 14       		.uleb128 0x14
 1546 07fa E2020000 		.4byte	.LASF109
 1547 07fe 0A       		.byte	0xa
 1548 07ff F0       		.byte	0xf0
 1549 0800 47080000 		.4byte	0x847
 1550 0804 14       		.uleb128 0x14
 1551 0805 AB070000 		.4byte	.LASF110
 1552 0809 0A       		.byte	0xa
 1553 080a F9       		.byte	0xf9
 1554 080b 7E080000 		.4byte	0x87e
 1555 080f 15       		.uleb128 0x15
 1556 0810 F7060000 		.4byte	.LASF111
 1557 0814 0A       		.byte	0xa
 1558 0815 0101     		.2byte	0x101
 1559 0817 38010000 		.4byte	0x138
 1560 081b 00       		.byte	0
 1561 081c 0A       		.uleb128 0xa
 1562 081d 04       		.byte	0x4
 1563 081e 4F020000 		.4byte	0x24f
 1564 0822 05       		.uleb128 0x5
 1565 0823 56070000 		.4byte	.LASF112
 1566 0827 0C       		.byte	0xc
 1567 0828 11       		.byte	0x11
 1568 0829 34       		.byte	0x34
 1569 082a 47080000 		.4byte	0x847
 1570 082e 06       		.uleb128 0x6
 1571 082f 0D030000 		.4byte	.LASF32
 1572 0833 11       		.byte	0x11
 1573 0834 35       		.byte	0x35
 1574 0835 84020000 		.4byte	0x284
 1575 0839 00       		.byte	0
 1576 083a 07       		.uleb128 0x7
 1577 083b 636E7400 		.ascii	"cnt\000"
 1578 083f 11       		.byte	0x11
 1579 0840 37       		.byte	0x37
 1580 0841 43010000 		.4byte	0x143
 1581 0845 08       		.byte	0x8
 1582 0846 00       		.byte	0
 1583 0847 0A       		.uleb128 0xa
 1584 0848 04       		.byte	0x4
 1585 0849 22080000 		.4byte	0x822
 1586 084d 05       		.uleb128 0x5
 1587 084e 82080000 		.4byte	.LASF113
 1588 0852 10       		.byte	0x10
 1589 0853 12       		.byte	0x12
 1590 0854 39       		.byte	0x39
 1591 0855 7E080000 		.4byte	0x87e
 1592 0859 06       		.uleb128 0x6
 1593 085a 0D030000 		.4byte	.LASF32
 1594 085e 12       		.byte	0x12
 1595 085f 3A       		.byte	0x3a
 1596 0860 84020000 		.4byte	0x284
ARM GAS  /tmp/ccFmpp4g.s 			page 29


 1597 0864 00       		.byte	0
 1598 0865 06       		.uleb128 0x6
 1599 0866 C2070000 		.4byte	.LASF114
 1600 086a 12       		.byte	0x12
 1601 086b 3C       		.byte	0x3c
 1602 086c 5A020000 		.4byte	0x25a
 1603 0870 08       		.byte	0x8
 1604 0871 06       		.uleb128 0x6
 1605 0872 51010000 		.4byte	.LASF52
 1606 0876 12       		.byte	0x12
 1607 0877 3E       		.byte	0x3e
 1608 0878 B2080000 		.4byte	0x8b2
 1609 087c 0C       		.byte	0xc
 1610 087d 00       		.byte	0
 1611 087e 0A       		.uleb128 0xa
 1612 087f 04       		.byte	0x4
 1613 0880 4D080000 		.4byte	0x84d
 1614 0884 0A       		.uleb128 0xa
 1615 0885 04       		.byte	0x4
 1616 0886 91080000 		.4byte	0x891
 1617 088a 04       		.uleb128 0x4
 1618 088b 01       		.byte	0x1
 1619 088c 08       		.byte	0x8
 1620 088d EF070000 		.4byte	.LASF115
 1621 0891 16       		.uleb128 0x16
 1622 0892 8A080000 		.4byte	0x88a
 1623 0896 0A       		.uleb128 0xa
 1624 0897 04       		.byte	0x4
 1625 0898 93050000 		.4byte	0x593
 1626 089c 0A       		.uleb128 0xa
 1627 089d 04       		.byte	0x4
 1628 089e 39030000 		.4byte	0x339
 1629 08a2 0F       		.uleb128 0xf
 1630 08a3 84080000 		.4byte	0x884
 1631 08a7 03       		.uleb128 0x3
 1632 08a8 96010000 		.4byte	.LASF116
 1633 08ac 12       		.byte	0x12
 1634 08ad 34       		.byte	0x34
 1635 08ae 4D080000 		.4byte	0x84d
 1636 08b2 0A       		.uleb128 0xa
 1637 08b3 04       		.byte	0x4
 1638 08b4 A7080000 		.4byte	0x8a7
 1639 08b8 04       		.uleb128 0x4
 1640 08b9 01       		.byte	0x1
 1641 08ba 02       		.byte	0x2
 1642 08bb B2060000 		.4byte	.LASF117
 1643 08bf 0A       		.uleb128 0xa
 1644 08c0 04       		.byte	0x4
 1645 08c1 B4000000 		.4byte	0xb4
 1646 08c5 10       		.uleb128 0x10
 1647 08c6 0C       		.byte	0xc
 1648 08c7 13       		.byte	0x13
 1649 08c8 A201     		.2byte	0x1a2
 1650 08ca 1D090000 		.4byte	0x91d
 1651 08ce 09       		.uleb128 0x9
 1652 08cf C9000000 		.4byte	.LASF118
 1653 08d3 13       		.byte	0x13
ARM GAS  /tmp/ccFmpp4g.s 			page 30


 1654 08d4 A301     		.2byte	0x1a3
 1655 08d6 1D090000 		.4byte	0x91d
 1656 08da 00       		.byte	0
 1657 08db 09       		.uleb128 0x9
 1658 08dc 63070000 		.4byte	.LASF119
 1659 08e0 13       		.byte	0x13
 1660 08e1 A401     		.2byte	0x1a4
 1661 08e3 23090000 		.4byte	0x923
 1662 08e7 04       		.byte	0x4
 1663 08e8 09       		.uleb128 0x9
 1664 08e9 89020000 		.4byte	.LASF120
 1665 08ed 13       		.byte	0x13
 1666 08ee A801     		.2byte	0x1a8
 1667 08f0 B4000000 		.4byte	0xb4
 1668 08f4 08       		.byte	0x8
 1669 08f5 09       		.uleb128 0x9
 1670 08f6 43020000 		.4byte	.LASF121
 1671 08fa 13       		.byte	0x13
 1672 08fb AA01     		.2byte	0x1aa
 1673 08fd B4000000 		.4byte	0xb4
 1674 0901 09       		.byte	0x9
 1675 0902 09       		.uleb128 0x9
 1676 0903 7F020000 		.4byte	.LASF122
 1677 0907 13       		.byte	0x13
 1678 0908 AC01     		.2byte	0x1ac
 1679 090a B4000000 		.4byte	0xb4
 1680 090e 0A       		.byte	0xa
 1681 090f 09       		.uleb128 0x9
 1682 0910 80090000 		.4byte	.LASF123
 1683 0914 13       		.byte	0x13
 1684 0915 AD01     		.2byte	0x1ad
 1685 0917 B4000000 		.4byte	0xb4
 1686 091b 0B       		.byte	0xb
 1687 091c 00       		.byte	0
 1688 091d 0A       		.uleb128 0xa
 1689 091e 04       		.byte	0x4
 1690 091f E5040000 		.4byte	0x4e5
 1691 0923 0A       		.uleb128 0xa
 1692 0924 04       		.byte	0x4
 1693 0925 89040000 		.4byte	0x489
 1694 0929 11       		.uleb128 0x11
 1695 092a 61060000 		.4byte	.LASF124
 1696 092e 13       		.byte	0x13
 1697 092f AE01     		.2byte	0x1ae
 1698 0931 C5080000 		.4byte	0x8c5
 1699 0935 0A       		.uleb128 0xa
 1700 0936 04       		.byte	0x4
 1701 0937 3B090000 		.4byte	0x93b
 1702 093b 16       		.uleb128 0x16
 1703 093c B4000000 		.4byte	0xb4
 1704 0940 0A       		.uleb128 0xa
 1705 0941 04       		.byte	0x4
 1706 0942 46090000 		.4byte	0x946
 1707 0946 16       		.uleb128 0x16
 1708 0947 29090000 		.4byte	0x929
 1709 094b 17       		.uleb128 0x17
 1710 094c 01       		.byte	0x1
ARM GAS  /tmp/ccFmpp4g.s 			page 31


 1711 094d 5E000000 		.4byte	0x5e
 1712 0951 14       		.byte	0x14
 1713 0952 4C       		.byte	0x4c
 1714 0953 7C090000 		.4byte	0x97c
 1715 0957 18       		.uleb128 0x18
 1716 0958 D6060000 		.4byte	.LASF125
 1717 095c 00       		.byte	0
 1718 095d 18       		.uleb128 0x18
 1719 095e 6A000000 		.4byte	.LASF126
 1720 0962 01       		.byte	0x1
 1721 0963 18       		.uleb128 0x18
 1722 0964 5F010000 		.4byte	.LASF127
 1723 0968 02       		.byte	0x2
 1724 0969 18       		.uleb128 0x18
 1725 096a 8A060000 		.4byte	.LASF128
 1726 096e 03       		.byte	0x3
 1727 096f 18       		.uleb128 0x18
 1728 0970 C8070000 		.4byte	.LASF129
 1729 0974 04       		.byte	0x4
 1730 0975 18       		.uleb128 0x18
 1731 0976 4B070000 		.4byte	.LASF130
 1732 097a 05       		.byte	0x5
 1733 097b 00       		.byte	0
 1734 097c 03       		.uleb128 0x3
 1735 097d 2C060000 		.4byte	.LASF131
 1736 0981 14       		.byte	0x14
 1737 0982 53       		.byte	0x53
 1738 0983 4B090000 		.4byte	0x94b
 1739 0987 11       		.uleb128 0x11
 1740 0988 11020000 		.4byte	.LASF132
 1741 098c 15       		.byte	0x15
 1742 098d 6E01     		.2byte	0x16e
 1743 098f BF000000 		.4byte	0xbf
 1744 0993 11       		.uleb128 0x11
 1745 0994 98060000 		.4byte	.LASF133
 1746 0998 15       		.byte	0x15
 1747 0999 7301     		.2byte	0x173
 1748 099b D5000000 		.4byte	0xd5
 1749 099f 19       		.uleb128 0x19
 1750 09a0 01       		.byte	0x1
 1751 09a1 5E000000 		.4byte	0x5e
 1752 09a5 15       		.byte	0x15
 1753 09a6 7801     		.2byte	0x178
 1754 09a8 BF090000 		.4byte	0x9bf
 1755 09ac 18       		.uleb128 0x18
 1756 09ad E8050000 		.4byte	.LASF134
 1757 09b1 01       		.byte	0x1
 1758 09b2 18       		.uleb128 0x18
 1759 09b3 19030000 		.4byte	.LASF135
 1760 09b7 02       		.byte	0x2
 1761 09b8 18       		.uleb128 0x18
 1762 09b9 59020000 		.4byte	.LASF136
 1763 09bd 03       		.byte	0x3
 1764 09be 00       		.byte	0
 1765 09bf 11       		.uleb128 0x11
 1766 09c0 5A090000 		.4byte	.LASF137
 1767 09c4 15       		.byte	0x15
ARM GAS  /tmp/ccFmpp4g.s 			page 32


 1768 09c5 7C01     		.2byte	0x17c
 1769 09c7 9F090000 		.4byte	0x99f
 1770 09cb 19       		.uleb128 0x19
 1771 09cc 01       		.byte	0x1
 1772 09cd 5E000000 		.4byte	0x5e
 1773 09d1 15       		.byte	0x15
 1774 09d2 8101     		.2byte	0x181
 1775 09d4 EB090000 		.4byte	0x9eb
 1776 09d8 18       		.uleb128 0x18
 1777 09d9 00000000 		.4byte	.LASF138
 1778 09dd 01       		.byte	0x1
 1779 09de 18       		.uleb128 0x18
 1780 09df 39070000 		.4byte	.LASF139
 1781 09e3 02       		.byte	0x2
 1782 09e4 18       		.uleb128 0x18
 1783 09e5 37060000 		.4byte	.LASF140
 1784 09e9 03       		.byte	0x3
 1785 09ea 00       		.byte	0
 1786 09eb 11       		.uleb128 0x11
 1787 09ec 15000000 		.4byte	.LASF141
 1788 09f0 15       		.byte	0x15
 1789 09f1 8501     		.2byte	0x185
 1790 09f3 CB090000 		.4byte	0x9cb
 1791 09f7 10       		.uleb128 0x10
 1792 09f8 0C       		.byte	0xc
 1793 09f9 15       		.byte	0x15
 1794 09fa 8A01     		.2byte	0x18a
 1795 09fc 280A0000 		.4byte	0xa28
 1796 0a00 09       		.uleb128 0x9
 1797 0a01 CE060000 		.4byte	.LASF142
 1798 0a05 15       		.byte	0x15
 1799 0a06 8C01     		.2byte	0x18c
 1800 0a08 BF090000 		.4byte	0x9bf
 1801 0a0c 00       		.byte	0
 1802 0a0d 09       		.uleb128 0x9
 1803 0a0e B6010000 		.4byte	.LASF143
 1804 0a12 15       		.byte	0x15
 1805 0a13 8D01     		.2byte	0x18d
 1806 0a15 D5000000 		.4byte	0xd5
 1807 0a19 04       		.byte	0x4
 1808 0a1a 09       		.uleb128 0x9
 1809 0a1b A3040000 		.4byte	.LASF144
 1810 0a1f 15       		.byte	0x15
 1811 0a20 9001     		.2byte	0x190
 1812 0a22 EB090000 		.4byte	0x9eb
 1813 0a26 08       		.byte	0x8
 1814 0a27 00       		.byte	0
 1815 0a28 11       		.uleb128 0x11
 1816 0a29 B7080000 		.4byte	.LASF145
 1817 0a2d 15       		.byte	0x15
 1818 0a2e 9201     		.2byte	0x192
 1819 0a30 F7090000 		.4byte	0x9f7
 1820 0a34 11       		.uleb128 0x11
 1821 0a35 4F030000 		.4byte	.LASF146
 1822 0a39 15       		.byte	0x15
 1823 0a3a 9701     		.2byte	0x197
 1824 0a3c 400A0000 		.4byte	0xa40
ARM GAS  /tmp/ccFmpp4g.s 			page 33


 1825 0a40 0B       		.uleb128 0xb
 1826 0a41 4F030000 		.4byte	.LASF146
 1827 0a45 38       		.byte	0x38
 1828 0a46 15       		.byte	0x15
 1829 0a47 9C01     		.2byte	0x19c
 1830 0a49 DD0A0000 		.4byte	0xadd
 1831 0a4d 09       		.uleb128 0x9
 1832 0a4e 1B020000 		.4byte	.LASF38
 1833 0a52 15       		.byte	0x15
 1834 0a53 A001     		.2byte	0x1a0
 1835 0a55 7C090000 		.4byte	0x97c
 1836 0a59 00       		.byte	0
 1837 0a5a 09       		.uleb128 0x9
 1838 0a5b FA070000 		.4byte	.LASF147
 1839 0a5f 15       		.byte	0x15
 1840 0a60 A401     		.2byte	0x1a4
 1841 0a62 DD0A0000 		.4byte	0xadd
 1842 0a66 04       		.byte	0x4
 1843 0a67 09       		.uleb128 0x9
 1844 0a68 E9020000 		.4byte	.LASF148
 1845 0a6c 15       		.byte	0x15
 1846 0a6d A801     		.2byte	0x1a8
 1847 0a6f 93090000 		.4byte	0x993
 1848 0a73 08       		.byte	0x8
 1849 0a74 09       		.uleb128 0x9
 1850 0a75 A3060000 		.4byte	.LASF149
 1851 0a79 15       		.byte	0x15
 1852 0a7a AD01     		.2byte	0x1ad
 1853 0a7c A7080000 		.4byte	0x8a7
 1854 0a80 0C       		.byte	0xc
 1855 0a81 09       		.uleb128 0x9
 1856 0a82 66090000 		.4byte	.LASF150
 1857 0a86 15       		.byte	0x15
 1858 0a87 B601     		.2byte	0x1b6
 1859 0a89 4F020000 		.4byte	0x24f
 1860 0a8d 1C       		.byte	0x1c
 1861 0a8e 09       		.uleb128 0x9
 1862 0a8f E8010000 		.4byte	.LASF151
 1863 0a93 15       		.byte	0x15
 1864 0a94 BA01     		.2byte	0x1ba
 1865 0a96 87090000 		.4byte	0x987
 1866 0a9a 20       		.byte	0x20
 1867 0a9b 09       		.uleb128 0x9
 1868 0a9c 49020000 		.4byte	.LASF152
 1869 0aa0 15       		.byte	0x15
 1870 0aa1 BE01     		.2byte	0x1be
 1871 0aa3 D5000000 		.4byte	0xd5
 1872 0aa7 24       		.byte	0x24
 1873 0aa8 09       		.uleb128 0x9
 1874 0aa9 A3020000 		.4byte	.LASF153
 1875 0aad 15       		.byte	0x15
 1876 0aae C201     		.2byte	0x1c2
 1877 0ab0 D5000000 		.4byte	0xd5
 1878 0ab4 28       		.byte	0x28
 1879 0ab5 09       		.uleb128 0x9
 1880 0ab6 0F000000 		.4byte	.LASF154
 1881 0aba 15       		.byte	0x15
ARM GAS  /tmp/ccFmpp4g.s 			page 34


 1882 0abb C601     		.2byte	0x1c6
 1883 0abd 40090000 		.4byte	0x940
 1884 0ac1 2C       		.byte	0x2c
 1885 0ac2 09       		.uleb128 0x9
 1886 0ac3 53020000 		.4byte	.LASF155
 1887 0ac7 15       		.byte	0x15
 1888 0ac8 CA01     		.2byte	0x1ca
 1889 0aca 40090000 		.4byte	0x940
 1890 0ace 30       		.byte	0x30
 1891 0acf 08       		.uleb128 0x8
 1892 0ad0 69326300 		.ascii	"i2c\000"
 1893 0ad4 15       		.byte	0x15
 1894 0ad5 CE01     		.2byte	0x1ce
 1895 0ad7 E80A0000 		.4byte	0xae8
 1896 0adb 34       		.byte	0x34
 1897 0adc 00       		.byte	0
 1898 0add 0A       		.uleb128 0xa
 1899 0ade 04       		.byte	0x4
 1900 0adf E30A0000 		.4byte	0xae3
 1901 0ae3 16       		.uleb128 0x16
 1902 0ae4 280A0000 		.4byte	0xa28
 1903 0ae8 0A       		.uleb128 0xa
 1904 0ae9 04       		.byte	0x4
 1905 0aea 7C050000 		.4byte	0x57c
 1906 0aee 1A       		.uleb128 0x1a
 1907 0aef 3D080000 		.4byte	.LASF158
 1908 0af3 03       		.byte	0x3
 1909 0af4 EB01     		.2byte	0x1eb
 1910 0af6 03       		.byte	0x3
 1911 0af7 080B0000 		.4byte	0xb08
 1912 0afb 1B       		.uleb128 0x1b
 1913 0afc ED010000 		.4byte	.LASF160
 1914 0b00 03       		.byte	0x3
 1915 0b01 EB01     		.2byte	0x1eb
 1916 0b03 D5000000 		.4byte	0xd5
 1917 0b07 00       		.byte	0
 1918 0b08 1C       		.uleb128 0x1c
 1919 0b09 D0000000 		.4byte	.LASF156
 1920 0b0d 0E       		.byte	0xe
 1921 0b0e 5A02     		.2byte	0x25a
 1922 0b10 03       		.byte	0x3
 1923 0b11 1C       		.uleb128 0x1c
 1924 0b12 FC010000 		.4byte	.LASF157
 1925 0b16 0E       		.byte	0xe
 1926 0b17 7202     		.2byte	0x272
 1927 0b19 03       		.byte	0x3
 1928 0b1a 1A       		.uleb128 0x1a
 1929 0b1b 82010000 		.4byte	.LASF159
 1930 0b1f 02       		.byte	0x2
 1931 0b20 CB03     		.2byte	0x3cb
 1932 0b22 03       		.byte	0x3
 1933 0b23 330B0000 		.4byte	0xb33
 1934 0b27 1D       		.uleb128 0x1d
 1935 0b28 6D7000   		.ascii	"mp\000"
 1936 0b2b 02       		.byte	0x2
 1937 0b2c CB03     		.2byte	0x3cb
 1938 0b2e B2080000 		.4byte	0x8b2
ARM GAS  /tmp/ccFmpp4g.s 			page 35


 1939 0b32 00       		.byte	0
 1940 0b33 1C       		.uleb128 0x1c
 1941 0b34 1B070000 		.4byte	.LASF161
 1942 0b38 02       		.byte	0x2
 1943 0b39 0802     		.2byte	0x208
 1944 0b3b 03       		.byte	0x3
 1945 0b3c 1C       		.uleb128 0x1c
 1946 0b3d 97020000 		.4byte	.LASF162
 1947 0b41 02       		.byte	0x2
 1948 0b42 FD01     		.2byte	0x1fd
 1949 0b44 03       		.byte	0x3
 1950 0b45 1A       		.uleb128 0x1a
 1951 0b46 4B080000 		.4byte	.LASF163
 1952 0b4a 02       		.byte	0x2
 1953 0b4b DF03     		.2byte	0x3df
 1954 0b4d 03       		.byte	0x3
 1955 0b4e 5E0B0000 		.4byte	0xb5e
 1956 0b52 1D       		.uleb128 0x1d
 1957 0b53 6D7000   		.ascii	"mp\000"
 1958 0b56 02       		.byte	0x2
 1959 0b57 DF03     		.2byte	0x3df
 1960 0b59 B2080000 		.4byte	0x8b2
 1961 0b5d 00       		.byte	0
 1962 0b5e 1A       		.uleb128 0x1a
 1963 0b5f 01080000 		.4byte	.LASF164
 1964 0b63 02       		.byte	0x2
 1965 0b64 F703     		.2byte	0x3f7
 1966 0b66 03       		.byte	0x3
 1967 0b67 770B0000 		.4byte	0xb77
 1968 0b6b 1D       		.uleb128 0x1d
 1969 0b6c 6D7000   		.ascii	"mp\000"
 1970 0b6f 02       		.byte	0x2
 1971 0b70 F703     		.2byte	0x3f7
 1972 0b72 B2080000 		.4byte	0x8b2
 1973 0b76 00       		.byte	0
 1974 0b77 1E       		.uleb128 0x1e
 1975 0b78 2A090000 		.4byte	.LASF165
 1976 0b7c 01       		.byte	0x1
 1977 0b7d 3B       		.byte	0x3b
 1978 0b7e 00000000 		.4byte	.LFB323
 1979 0b82 04000000 		.4byte	.LFE323-.LFB323
 1980 0b86 01       		.uleb128 0x1
 1981 0b87 9C       		.byte	0x9c
 1982 0b88 960B0000 		.4byte	0xb96
 1983 0b8c 1F       		.uleb128 0x1f
 1984 0b8d 04000000 		.4byte	.LVL0
 1985 0b91 D8120000 		.4byte	0x12d8
 1986 0b95 00       		.byte	0
 1987 0b96 1E       		.uleb128 0x1e
 1988 0b97 8B080000 		.4byte	.LASF166
 1989 0b9b 01       		.byte	0x1
 1990 0b9c 47       		.byte	0x47
 1991 0b9d 00000000 		.4byte	.LFB324
 1992 0ba1 0E000000 		.4byte	.LFE324-.LFB324
 1993 0ba5 01       		.uleb128 0x1
 1994 0ba6 9C       		.byte	0x9c
 1995 0ba7 E70B0000 		.4byte	0xbe7
ARM GAS  /tmp/ccFmpp4g.s 			page 36


 1996 0bab 20       		.uleb128 0x20
 1997 0bac 4C010000 		.4byte	.LASF170
 1998 0bb0 01       		.byte	0x1
 1999 0bb1 47       		.byte	0x47
 2000 0bb2 E70B0000 		.4byte	0xbe7
 2001 0bb6 00000000 		.4byte	.LLST0
 2002 0bba 21       		.uleb128 0x21
 2003 0bbb 1A0B0000 		.4byte	0xb1a
 2004 0bbf 08000000 		.4byte	.LBB36
 2005 0bc3 06000000 		.4byte	.LBE36-.LBB36
 2006 0bc7 01       		.byte	0x1
 2007 0bc8 4D       		.byte	0x4d
 2008 0bc9 22       		.uleb128 0x22
 2009 0bca 270B0000 		.4byte	0xb27
 2010 0bce 2E000000 		.4byte	.LLST1
 2011 0bd2 23       		.uleb128 0x23
 2012 0bd3 0E000000 		.4byte	.LVL4
 2013 0bd7 E4120000 		.4byte	0x12e4
 2014 0bdb 24       		.uleb128 0x24
 2015 0bdc 01       		.uleb128 0x1
 2016 0bdd 50       		.byte	0x50
 2017 0bde 05       		.uleb128 0x5
 2018 0bdf F3       		.byte	0xf3
 2019 0be0 01       		.uleb128 0x1
 2020 0be1 50       		.byte	0x50
 2021 0be2 23       		.byte	0x23
 2022 0be3 0C       		.uleb128 0xc
 2023 0be4 00       		.byte	0
 2024 0be5 00       		.byte	0
 2025 0be6 00       		.byte	0
 2026 0be7 0A       		.uleb128 0xa
 2027 0be8 04       		.byte	0x4
 2028 0be9 340A0000 		.4byte	0xa34
 2029 0bed 1A       		.uleb128 0x1a
 2030 0bee 32090000 		.4byte	.LASF167
 2031 0bf2 04       		.byte	0x4
 2032 0bf3 6D01     		.2byte	0x16d
 2033 0bf5 03       		.byte	0x3
 2034 0bf6 080C0000 		.4byte	0xc08
 2035 0bfa 25       		.uleb128 0x25
 2036 0bfb 08070000 		.4byte	.LASF172
 2037 0bff 180C0000 		.4byte	0xc18
 2038 0c03 32090000 		.4byte	.LASF167
 2039 0c07 00       		.byte	0
 2040 0c08 26       		.uleb128 0x26
 2041 0c09 91080000 		.4byte	0x891
 2042 0c0d 180C0000 		.4byte	0xc18
 2043 0c11 27       		.uleb128 0x27
 2044 0c12 82040000 		.4byte	0x482
 2045 0c16 0B       		.byte	0xb
 2046 0c17 00       		.byte	0
 2047 0c18 16       		.uleb128 0x16
 2048 0c19 080C0000 		.4byte	0xc08
 2049 0c1d 1C       		.uleb128 0x1c
 2050 0c1e 11070000 		.4byte	.LASF168
 2051 0c22 04       		.byte	0x4
 2052 0c23 6101     		.2byte	0x161
ARM GAS  /tmp/ccFmpp4g.s 			page 37


 2053 0c25 03       		.byte	0x3
 2054 0c26 1E       		.uleb128 0x1e
 2055 0c27 6F040000 		.4byte	.LASF169
 2056 0c2b 01       		.byte	0x1
 2057 0c2c 5D       		.byte	0x5d
 2058 0c2d 00000000 		.4byte	.LFB325
 2059 0c31 28000000 		.4byte	.LFE325-.LFB325
 2060 0c35 01       		.uleb128 0x1
 2061 0c36 9C       		.byte	0x9c
 2062 0c37 3C0D0000 		.4byte	0xd3c
 2063 0c3b 20       		.uleb128 0x20
 2064 0c3c 4C010000 		.4byte	.LASF170
 2065 0c40 01       		.byte	0x1
 2066 0c41 5D       		.byte	0x5d
 2067 0c42 E70B0000 		.4byte	0xbe7
 2068 0c46 5E000000 		.4byte	.LLST2
 2069 0c4a 20       		.uleb128 0x20
 2070 0c4b FA070000 		.4byte	.LASF147
 2071 0c4f 01       		.byte	0x1
 2072 0c50 5D       		.byte	0x5d
 2073 0c51 DD0A0000 		.4byte	0xadd
 2074 0c55 7C000000 		.4byte	.LLST3
 2075 0c59 28       		.uleb128 0x28
 2076 0c5a 08070000 		.4byte	.LASF172
 2077 0c5e 4C0D0000 		.4byte	0xd4c
 2078 0c62 29       		.uleb128 0x29
 2079 0c63 3C0B0000 		.4byte	0xb3c
 2080 0c67 06000000 		.4byte	.LBB52
 2081 0c6b 0A000000 		.4byte	.LBE52-.LBB52
 2082 0c6f 01       		.byte	0x1
 2083 0c70 63       		.byte	0x63
 2084 0c71 BF0C0000 		.4byte	0xcbf
 2085 0c75 2A       		.uleb128 0x2a
 2086 0c76 1D0C0000 		.4byte	0xc1d
 2087 0c7a 06000000 		.4byte	.LBB53
 2088 0c7e 0A000000 		.4byte	.LBE53-.LBB53
 2089 0c82 02       		.byte	0x2
 2090 0c83 FF01     		.2byte	0x1ff
 2091 0c85 2B       		.uleb128 0x2b
 2092 0c86 080B0000 		.4byte	0xb08
 2093 0c8a 06000000 		.4byte	.LBB55
 2094 0c8e 06000000 		.4byte	.LBE55-.LBB55
 2095 0c92 04       		.byte	0x4
 2096 0c93 6301     		.2byte	0x163
 2097 0c95 B40C0000 		.4byte	0xcb4
 2098 0c99 2A       		.uleb128 0x2a
 2099 0c9a EE0A0000 		.4byte	0xaee
 2100 0c9e 06000000 		.4byte	.LBB56
 2101 0ca2 06000000 		.4byte	.LBE56-.LBB56
 2102 0ca6 0E       		.byte	0xe
 2103 0ca7 6202     		.2byte	0x262
 2104 0ca9 22       		.uleb128 0x22
 2105 0caa FB0A0000 		.4byte	0xafb
 2106 0cae 9A000000 		.4byte	.LLST4
 2107 0cb2 00       		.byte	0
 2108 0cb3 00       		.byte	0
 2109 0cb4 2C       		.uleb128 0x2c
ARM GAS  /tmp/ccFmpp4g.s 			page 38


 2110 0cb5 10000000 		.4byte	.LVL7
 2111 0cb9 EF120000 		.4byte	0x12ef
 2112 0cbd 00       		.byte	0
 2113 0cbe 00       		.byte	0
 2114 0cbf 29       		.uleb128 0x29
 2115 0cc0 330B0000 		.4byte	0xb33
 2116 0cc4 1C000000 		.4byte	.LBB58
 2117 0cc8 0C000000 		.4byte	.LBE58-.LBB58
 2118 0ccc 01       		.byte	0x1
 2119 0ccd 67       		.byte	0x67
 2120 0cce 2B0D0000 		.4byte	0xd2b
 2121 0cd2 2A       		.uleb128 0x2a
 2122 0cd3 ED0B0000 		.4byte	0xbed
 2123 0cd7 1C000000 		.4byte	.LBB59
 2124 0cdb 0C000000 		.4byte	.LBE59-.LBB59
 2125 0cdf 02       		.byte	0x2
 2126 0ce0 0A02     		.2byte	0x20a
 2127 0ce2 2D       		.uleb128 0x2d
 2128 0ce3 1C000000 		.4byte	.LBB60
 2129 0ce7 0C000000 		.4byte	.LBE60-.LBB60
 2130 0ceb 2E       		.uleb128 0x2e
 2131 0cec FA0B0000 		.4byte	0xbfa
 2132 0cf0 2B       		.uleb128 0x2b
 2133 0cf1 110B0000 		.4byte	0xb11
 2134 0cf5 20000000 		.4byte	.LBB61
 2135 0cf9 08000000 		.4byte	.LBE61-.LBB61
 2136 0cfd 04       		.byte	0x4
 2137 0cfe 7A01     		.2byte	0x17a
 2138 0d00 1F0D0000 		.4byte	0xd1f
 2139 0d04 2A       		.uleb128 0x2a
 2140 0d05 EE0A0000 		.4byte	0xaee
 2141 0d09 20000000 		.4byte	.LBB62
 2142 0d0d 08000000 		.4byte	.LBE62-.LBB62
 2143 0d11 0E       		.byte	0xe
 2144 0d12 7502     		.2byte	0x275
 2145 0d14 22       		.uleb128 0x22
 2146 0d15 FB0A0000 		.4byte	0xafb
 2147 0d19 AF000000 		.4byte	.LLST5
 2148 0d1d 00       		.byte	0
 2149 0d1e 00       		.byte	0
 2150 0d1f 2C       		.uleb128 0x2c
 2151 0d20 20000000 		.4byte	.LVL9
 2152 0d24 FA120000 		.4byte	0x12fa
 2153 0d28 00       		.byte	0
 2154 0d29 00       		.byte	0
 2155 0d2a 00       		.byte	0
 2156 0d2b 2F       		.uleb128 0x2f
 2157 0d2c 18000000 		.4byte	.LVL8
 2158 0d30 05130000 		.4byte	0x1305
 2159 0d34 24       		.uleb128 0x24
 2160 0d35 01       		.uleb128 0x1
 2161 0d36 50       		.byte	0x50
 2162 0d37 02       		.uleb128 0x2
 2163 0d38 74       		.byte	0x74
 2164 0d39 00       		.sleb128 0
 2165 0d3a 00       		.byte	0
 2166 0d3b 00       		.byte	0
ARM GAS  /tmp/ccFmpp4g.s 			page 39


 2167 0d3c 26       		.uleb128 0x26
 2168 0d3d 91080000 		.4byte	0x891
 2169 0d41 4C0D0000 		.4byte	0xd4c
 2170 0d45 27       		.uleb128 0x27
 2171 0d46 82040000 		.4byte	0x482
 2172 0d4a 08       		.byte	0x8
 2173 0d4b 00       		.byte	0
 2174 0d4c 16       		.uleb128 0x16
 2175 0d4d 3C0D0000 		.4byte	0xd3c
 2176 0d51 1E       		.uleb128 0x1e
 2177 0d52 DE040000 		.4byte	.LASF171
 2178 0d56 01       		.byte	0x1
 2179 0d57 71       		.byte	0x71
 2180 0d58 00000000 		.4byte	.LFB326
 2181 0d5c 26000000 		.4byte	.LFE326-.LFB326
 2182 0d60 01       		.uleb128 0x1
 2183 0d61 9C       		.byte	0x9c
 2184 0d62 580E0000 		.4byte	0xe58
 2185 0d66 20       		.uleb128 0x20
 2186 0d67 4C010000 		.4byte	.LASF170
 2187 0d6b 01       		.byte	0x1
 2188 0d6c 71       		.byte	0x71
 2189 0d6d E70B0000 		.4byte	0xbe7
 2190 0d71 C3000000 		.4byte	.LLST6
 2191 0d75 28       		.uleb128 0x28
 2192 0d76 08070000 		.4byte	.LASF172
 2193 0d7a 680E0000 		.4byte	0xe68
 2194 0d7e 29       		.uleb128 0x29
 2195 0d7f 3C0B0000 		.4byte	0xb3c
 2196 0d83 04000000 		.4byte	.LBB78
 2197 0d87 0A000000 		.4byte	.LBE78-.LBB78
 2198 0d8b 01       		.byte	0x1
 2199 0d8c 75       		.byte	0x75
 2200 0d8d DB0D0000 		.4byte	0xddb
 2201 0d91 2A       		.uleb128 0x2a
 2202 0d92 1D0C0000 		.4byte	0xc1d
 2203 0d96 04000000 		.4byte	.LBB79
 2204 0d9a 0A000000 		.4byte	.LBE79-.LBB79
 2205 0d9e 02       		.byte	0x2
 2206 0d9f FF01     		.2byte	0x1ff
 2207 0da1 2B       		.uleb128 0x2b
 2208 0da2 080B0000 		.4byte	0xb08
 2209 0da6 04000000 		.4byte	.LBB81
 2210 0daa 06000000 		.4byte	.LBE81-.LBB81
 2211 0dae 04       		.byte	0x4
 2212 0daf 6301     		.2byte	0x163
 2213 0db1 D00D0000 		.4byte	0xdd0
 2214 0db5 2A       		.uleb128 0x2a
 2215 0db6 EE0A0000 		.4byte	0xaee
 2216 0dba 04000000 		.4byte	.LBB82
 2217 0dbe 06000000 		.4byte	.LBE82-.LBB82
 2218 0dc2 0E       		.byte	0xe
 2219 0dc3 6202     		.2byte	0x262
 2220 0dc5 22       		.uleb128 0x22
 2221 0dc6 FB0A0000 		.4byte	0xafb
 2222 0dca E1000000 		.4byte	.LLST7
 2223 0dce 00       		.byte	0
ARM GAS  /tmp/ccFmpp4g.s 			page 40


 2224 0dcf 00       		.byte	0
 2225 0dd0 2C       		.uleb128 0x2c
 2226 0dd1 0E000000 		.4byte	.LVL13
 2227 0dd5 EF120000 		.4byte	0x12ef
 2228 0dd9 00       		.byte	0
 2229 0dda 00       		.byte	0
 2230 0ddb 29       		.uleb128 0x29
 2231 0ddc 330B0000 		.4byte	0xb33
 2232 0de0 1C000000 		.4byte	.LBB84
 2233 0de4 0A000000 		.4byte	.LBE84-.LBB84
 2234 0de8 01       		.byte	0x1
 2235 0de9 7E       		.byte	0x7e
 2236 0dea 470E0000 		.4byte	0xe47
 2237 0dee 2A       		.uleb128 0x2a
 2238 0def ED0B0000 		.4byte	0xbed
 2239 0df3 1C000000 		.4byte	.LBB85
 2240 0df7 0A000000 		.4byte	.LBE85-.LBB85
 2241 0dfb 02       		.byte	0x2
 2242 0dfc 0A02     		.2byte	0x20a
 2243 0dfe 2D       		.uleb128 0x2d
 2244 0dff 1C000000 		.4byte	.LBB86
 2245 0e03 0A000000 		.4byte	.LBE86-.LBB86
 2246 0e07 2E       		.uleb128 0x2e
 2247 0e08 FA0B0000 		.4byte	0xbfa
 2248 0e0c 2B       		.uleb128 0x2b
 2249 0e0d 110B0000 		.4byte	0xb11
 2250 0e11 20000000 		.4byte	.LBB87
 2251 0e15 06000000 		.4byte	.LBE87-.LBB87
 2252 0e19 04       		.byte	0x4
 2253 0e1a 7A01     		.2byte	0x17a
 2254 0e1c 3B0E0000 		.4byte	0xe3b
 2255 0e20 2A       		.uleb128 0x2a
 2256 0e21 EE0A0000 		.4byte	0xaee
 2257 0e25 20000000 		.4byte	.LBB88
 2258 0e29 06000000 		.4byte	.LBE88-.LBB88
 2259 0e2d 0E       		.byte	0xe
 2260 0e2e 7502     		.2byte	0x275
 2261 0e30 22       		.uleb128 0x22
 2262 0e31 FB0A0000 		.4byte	0xafb
 2263 0e35 F6000000 		.4byte	.LLST8
 2264 0e39 00       		.byte	0
 2265 0e3a 00       		.byte	0
 2266 0e3b 2C       		.uleb128 0x2c
 2267 0e3c 20000000 		.4byte	.LVL15
 2268 0e40 FA120000 		.4byte	0x12fa
 2269 0e44 00       		.byte	0
 2270 0e45 00       		.byte	0
 2271 0e46 00       		.byte	0
 2272 0e47 2F       		.uleb128 0x2f
 2273 0e48 14000000 		.4byte	.LVL14
 2274 0e4c 11130000 		.4byte	0x1311
 2275 0e50 24       		.uleb128 0x24
 2276 0e51 01       		.uleb128 0x1
 2277 0e52 50       		.byte	0x50
 2278 0e53 02       		.uleb128 0x2
 2279 0e54 74       		.byte	0x74
 2280 0e55 00       		.sleb128 0
ARM GAS  /tmp/ccFmpp4g.s 			page 41


 2281 0e56 00       		.byte	0
 2282 0e57 00       		.byte	0
 2283 0e58 26       		.uleb128 0x26
 2284 0e59 91080000 		.4byte	0x891
 2285 0e5d 680E0000 		.4byte	0xe68
 2286 0e61 27       		.uleb128 0x27
 2287 0e62 82040000 		.4byte	0x482
 2288 0e66 07       		.byte	0x7
 2289 0e67 00       		.byte	0
 2290 0e68 16       		.uleb128 0x16
 2291 0e69 580E0000 		.4byte	0xe58
 2292 0e6d 30       		.uleb128 0x30
 2293 0e6e EA060000 		.4byte	.LASF173
 2294 0e72 01       		.byte	0x1
 2295 0e73 89       		.byte	0x89
 2296 0e74 93090000 		.4byte	0x993
 2297 0e78 00000000 		.4byte	.LFB327
 2298 0e7c 04000000 		.4byte	.LFE327-.LFB327
 2299 0e80 01       		.uleb128 0x1
 2300 0e81 9C       		.byte	0x9c
 2301 0e82 9F0E0000 		.4byte	0xe9f
 2302 0e86 20       		.uleb128 0x20
 2303 0e87 4C010000 		.4byte	.LASF170
 2304 0e8b 01       		.byte	0x1
 2305 0e8c 89       		.byte	0x89
 2306 0e8d E70B0000 		.4byte	0xbe7
 2307 0e91 0A010000 		.4byte	.LLST9
 2308 0e95 28       		.uleb128 0x28
 2309 0e96 08070000 		.4byte	.LASF172
 2310 0e9a AF0E0000 		.4byte	0xeaf
 2311 0e9e 00       		.byte	0
 2312 0e9f 26       		.uleb128 0x26
 2313 0ea0 91080000 		.4byte	0x891
 2314 0ea4 AF0E0000 		.4byte	0xeaf
 2315 0ea8 27       		.uleb128 0x27
 2316 0ea9 82040000 		.4byte	0x482
 2317 0ead 0C       		.byte	0xc
 2318 0eae 00       		.byte	0
 2319 0eaf 16       		.uleb128 0x16
 2320 0eb0 9F0E0000 		.4byte	0xe9f
 2321 0eb4 30       		.uleb128 0x30
 2322 0eb5 69010000 		.4byte	.LASF174
 2323 0eb9 01       		.byte	0x1
 2324 0eba AA       		.byte	0xaa
 2325 0ebb 2D010000 		.4byte	0x12d
 2326 0ebf 00000000 		.4byte	.LFB328
 2327 0ec3 52000000 		.4byte	.LFE328-.LFB328
 2328 0ec7 01       		.uleb128 0x1
 2329 0ec8 9C       		.byte	0x9c
 2330 0ec9 4F100000 		.4byte	0x104f
 2331 0ecd 20       		.uleb128 0x20
 2332 0ece 4C010000 		.4byte	.LASF170
 2333 0ed2 01       		.byte	0x1
 2334 0ed3 AA       		.byte	0xaa
 2335 0ed4 E70B0000 		.4byte	0xbe7
 2336 0ed8 2B010000 		.4byte	.LLST10
 2337 0edc 20       		.uleb128 0x20
ARM GAS  /tmp/ccFmpp4g.s 			page 42


 2338 0edd E8010000 		.4byte	.LASF151
 2339 0ee1 01       		.byte	0x1
 2340 0ee2 AB       		.byte	0xab
 2341 0ee3 87090000 		.4byte	0x987
 2342 0ee7 49010000 		.4byte	.LLST11
 2343 0eeb 20       		.uleb128 0x20
 2344 0eec DC020000 		.4byte	.LASF175
 2345 0ef0 01       		.byte	0x1
 2346 0ef1 AC       		.byte	0xac
 2347 0ef2 35090000 		.4byte	0x935
 2348 0ef6 6A010000 		.4byte	.LLST12
 2349 0efa 20       		.uleb128 0x20
 2350 0efb F8050000 		.4byte	.LASF176
 2351 0eff 01       		.byte	0x1
 2352 0f00 AD       		.byte	0xad
 2353 0f01 2C000000 		.4byte	0x2c
 2354 0f05 88010000 		.4byte	.LLST13
 2355 0f09 31       		.uleb128 0x31
 2356 0f0a C2010000 		.4byte	.LASF177
 2357 0f0e 01       		.byte	0x1
 2358 0f0f AE       		.byte	0xae
 2359 0f10 BF080000 		.4byte	0x8bf
 2360 0f14 02       		.uleb128 0x2
 2361 0f15 91       		.byte	0x91
 2362 0f16 00       		.sleb128 0
 2363 0f17 31       		.uleb128 0x31
 2364 0f18 D6040000 		.4byte	.LASF178
 2365 0f1c 01       		.byte	0x1
 2366 0f1d AF       		.byte	0xaf
 2367 0f1e 2C000000 		.4byte	0x2c
 2368 0f22 02       		.uleb128 0x2
 2369 0f23 91       		.byte	0x91
 2370 0f24 04       		.sleb128 4
 2371 0f25 31       		.uleb128 0x31
 2372 0f26 F6020000 		.4byte	.LASF179
 2373 0f2a 01       		.byte	0x1
 2374 0f2b B0       		.byte	0xb0
 2375 0f2c 77040000 		.4byte	0x477
 2376 0f30 02       		.uleb128 0x2
 2377 0f31 91       		.byte	0x91
 2378 0f32 08       		.sleb128 8
 2379 0f33 32       		.uleb128 0x32
 2380 0f34 43000000 		.4byte	.LASF104
 2381 0f38 01       		.byte	0x1
 2382 0f39 B1       		.byte	0xb1
 2383 0f3a 2D010000 		.4byte	0x12d
 2384 0f3e A6010000 		.4byte	.LLST14
 2385 0f42 28       		.uleb128 0x28
 2386 0f43 08070000 		.4byte	.LASF172
 2387 0f47 5F100000 		.4byte	0x105f
 2388 0f4b 29       		.uleb128 0x29
 2389 0f4c 3C0B0000 		.4byte	0xb3c
 2390 0f50 0C000000 		.4byte	.LBB104
 2391 0f54 0A000000 		.4byte	.LBE104-.LBB104
 2392 0f58 01       		.byte	0x1
 2393 0f59 BA       		.byte	0xba
 2394 0f5a A80F0000 		.4byte	0xfa8
ARM GAS  /tmp/ccFmpp4g.s 			page 43


 2395 0f5e 2A       		.uleb128 0x2a
 2396 0f5f 1D0C0000 		.4byte	0xc1d
 2397 0f63 0C000000 		.4byte	.LBB105
 2398 0f67 0A000000 		.4byte	.LBE105-.LBB105
 2399 0f6b 02       		.byte	0x2
 2400 0f6c FF01     		.2byte	0x1ff
 2401 0f6e 2B       		.uleb128 0x2b
 2402 0f6f 080B0000 		.4byte	0xb08
 2403 0f73 0C000000 		.4byte	.LBB107
 2404 0f77 06000000 		.4byte	.LBE107-.LBB107
 2405 0f7b 04       		.byte	0x4
 2406 0f7c 6301     		.2byte	0x163
 2407 0f7e 9D0F0000 		.4byte	0xf9d
 2408 0f82 2A       		.uleb128 0x2a
 2409 0f83 EE0A0000 		.4byte	0xaee
 2410 0f87 0C000000 		.4byte	.LBB108
 2411 0f8b 06000000 		.4byte	.LBE108-.LBB108
 2412 0f8f 0E       		.byte	0xe
 2413 0f90 6202     		.2byte	0x262
 2414 0f92 22       		.uleb128 0x22
 2415 0f93 FB0A0000 		.4byte	0xafb
 2416 0f97 C4010000 		.4byte	.LLST15
 2417 0f9b 00       		.byte	0
 2418 0f9c 00       		.byte	0
 2419 0f9d 2C       		.uleb128 0x2c
 2420 0f9e 16000000 		.4byte	.LVL22
 2421 0fa2 EF120000 		.4byte	0x12ef
 2422 0fa6 00       		.byte	0
 2423 0fa7 00       		.byte	0
 2424 0fa8 29       		.uleb128 0x29
 2425 0fa9 330B0000 		.4byte	0xb33
 2426 0fad 42000000 		.4byte	.LBB110
 2427 0fb1 08000000 		.4byte	.LBE110-.LBB110
 2428 0fb5 01       		.byte	0x1
 2429 0fb6 C5       		.byte	0xc5
 2430 0fb7 14100000 		.4byte	0x1014
 2431 0fbb 2A       		.uleb128 0x2a
 2432 0fbc ED0B0000 		.4byte	0xbed
 2433 0fc0 42000000 		.4byte	.LBB111
 2434 0fc4 08000000 		.4byte	.LBE111-.LBB111
 2435 0fc8 02       		.byte	0x2
 2436 0fc9 0A02     		.2byte	0x20a
 2437 0fcb 2D       		.uleb128 0x2d
 2438 0fcc 42000000 		.4byte	.LBB112
 2439 0fd0 08000000 		.4byte	.LBE112-.LBB112
 2440 0fd4 2E       		.uleb128 0x2e
 2441 0fd5 FA0B0000 		.4byte	0xbfa
 2442 0fd9 2B       		.uleb128 0x2b
 2443 0fda 110B0000 		.4byte	0xb11
 2444 0fde 46000000 		.4byte	.LBB113
 2445 0fe2 04000000 		.4byte	.LBE113-.LBB113
 2446 0fe6 04       		.byte	0x4
 2447 0fe7 7A01     		.2byte	0x17a
 2448 0fe9 08100000 		.4byte	0x1008
 2449 0fed 2A       		.uleb128 0x2a
 2450 0fee EE0A0000 		.4byte	0xaee
 2451 0ff2 46000000 		.4byte	.LBB114
ARM GAS  /tmp/ccFmpp4g.s 			page 44


 2452 0ff6 04000000 		.4byte	.LBE114-.LBB114
 2453 0ffa 0E       		.byte	0xe
 2454 0ffb 7502     		.2byte	0x275
 2455 0ffd 22       		.uleb128 0x22
 2456 0ffe FB0A0000 		.4byte	0xafb
 2457 1002 D9010000 		.4byte	.LLST16
 2458 1006 00       		.byte	0
 2459 1007 00       		.byte	0
 2460 1008 2C       		.uleb128 0x2c
 2461 1009 46000000 		.4byte	.LVL25
 2462 100d FA120000 		.4byte	0x12fa
 2463 1011 00       		.byte	0
 2464 1012 00       		.byte	0
 2465 1013 00       		.byte	0
 2466 1014 2F       		.uleb128 0x2f
 2467 1015 36000000 		.4byte	.LVL23
 2468 1019 1D130000 		.4byte	0x131d
 2469 101d 24       		.uleb128 0x24
 2470 101e 01       		.uleb128 0x1
 2471 101f 50       		.byte	0x50
 2472 1020 02       		.uleb128 0x2
 2473 1021 74       		.byte	0x74
 2474 1022 00       		.sleb128 0
 2475 1023 24       		.uleb128 0x24
 2476 1024 01       		.uleb128 0x1
 2477 1025 51       		.byte	0x51
 2478 1026 02       		.uleb128 0x2
 2479 1027 76       		.byte	0x76
 2480 1028 00       		.sleb128 0
 2481 1029 24       		.uleb128 0x24
 2482 102a 01       		.uleb128 0x1
 2483 102b 52       		.byte	0x52
 2484 102c 02       		.uleb128 0x2
 2485 102d 77       		.byte	0x77
 2486 102e 00       		.sleb128 0
 2487 102f 24       		.uleb128 0x24
 2488 1030 01       		.uleb128 0x1
 2489 1031 53       		.byte	0x53
 2490 1032 02       		.uleb128 0x2
 2491 1033 78       		.byte	0x78
 2492 1034 00       		.sleb128 0
 2493 1035 24       		.uleb128 0x24
 2494 1036 02       		.uleb128 0x2
 2495 1037 7D       		.byte	0x7d
 2496 1038 00       		.sleb128 0
 2497 1039 03       		.uleb128 0x3
 2498 103a 91       		.byte	0x91
 2499 103b 00       		.sleb128 0
 2500 103c 06       		.byte	0x6
 2501 103d 24       		.uleb128 0x24
 2502 103e 02       		.uleb128 0x2
 2503 103f 7D       		.byte	0x7d
 2504 1040 04       		.sleb128 4
 2505 1041 03       		.uleb128 0x3
 2506 1042 91       		.byte	0x91
 2507 1043 04       		.sleb128 4
 2508 1044 06       		.byte	0x6
ARM GAS  /tmp/ccFmpp4g.s 			page 45


 2509 1045 24       		.uleb128 0x24
 2510 1046 02       		.uleb128 0x2
 2511 1047 7D       		.byte	0x7d
 2512 1048 08       		.sleb128 8
 2513 1049 03       		.uleb128 0x3
 2514 104a 91       		.byte	0x91
 2515 104b 08       		.sleb128 8
 2516 104c 06       		.byte	0x6
 2517 104d 00       		.byte	0
 2518 104e 00       		.byte	0
 2519 104f 26       		.uleb128 0x26
 2520 1050 91080000 		.4byte	0x891
 2521 1054 5F100000 		.4byte	0x105f
 2522 1058 27       		.uleb128 0x27
 2523 1059 82040000 		.4byte	0x482
 2524 105d 18       		.byte	0x18
 2525 105e 00       		.byte	0
 2526 105f 16       		.uleb128 0x16
 2527 1060 4F100000 		.4byte	0x104f
 2528 1064 30       		.uleb128 0x30
 2529 1065 FC080000 		.4byte	.LASF180
 2530 1069 01       		.byte	0x1
 2531 106a DD       		.byte	0xdd
 2532 106b 2D010000 		.4byte	0x12d
 2533 106f 00000000 		.4byte	.LFB329
 2534 1073 4A000000 		.4byte	.LFE329-.LFB329
 2535 1077 01       		.uleb128 0x1
 2536 1078 9C       		.byte	0x9c
 2537 1079 D3110000 		.4byte	0x11d3
 2538 107d 20       		.uleb128 0x20
 2539 107e 4C010000 		.4byte	.LASF170
 2540 1082 01       		.byte	0x1
 2541 1083 DD       		.byte	0xdd
 2542 1084 E70B0000 		.4byte	0xbe7
 2543 1088 ED010000 		.4byte	.LLST17
 2544 108c 20       		.uleb128 0x20
 2545 108d E8010000 		.4byte	.LASF151
 2546 1091 01       		.byte	0x1
 2547 1092 DE       		.byte	0xde
 2548 1093 87090000 		.4byte	0x987
 2549 1097 0B020000 		.4byte	.LLST18
 2550 109b 20       		.uleb128 0x20
 2551 109c C2010000 		.4byte	.LASF177
 2552 10a0 01       		.byte	0x1
 2553 10a1 DF       		.byte	0xdf
 2554 10a2 BF080000 		.4byte	0x8bf
 2555 10a6 2C020000 		.4byte	.LLST19
 2556 10aa 20       		.uleb128 0x20
 2557 10ab D6040000 		.4byte	.LASF178
 2558 10af 01       		.byte	0x1
 2559 10b0 E0       		.byte	0xe0
 2560 10b1 2C000000 		.4byte	0x2c
 2561 10b5 4A020000 		.4byte	.LLST20
 2562 10b9 31       		.uleb128 0x31
 2563 10ba F6020000 		.4byte	.LASF179
 2564 10be 01       		.byte	0x1
 2565 10bf E1       		.byte	0xe1
ARM GAS  /tmp/ccFmpp4g.s 			page 46


 2566 10c0 77040000 		.4byte	0x477
 2567 10c4 02       		.uleb128 0x2
 2568 10c5 91       		.byte	0x91
 2569 10c6 00       		.sleb128 0
 2570 10c7 32       		.uleb128 0x32
 2571 10c8 43000000 		.4byte	.LASF104
 2572 10cc 01       		.byte	0x1
 2573 10cd E3       		.byte	0xe3
 2574 10ce 2D010000 		.4byte	0x12d
 2575 10d2 68020000 		.4byte	.LLST21
 2576 10d6 28       		.uleb128 0x28
 2577 10d7 08070000 		.4byte	.LASF172
 2578 10db E3110000 		.4byte	0x11e3
 2579 10df 29       		.uleb128 0x29
 2580 10e0 3C0B0000 		.4byte	0xb3c
 2581 10e4 0C000000 		.4byte	.LBB130
 2582 10e8 0A000000 		.4byte	.LBE130-.LBB130
 2583 10ec 01       		.byte	0x1
 2584 10ed EB       		.byte	0xeb
 2585 10ee 3C110000 		.4byte	0x113c
 2586 10f2 2A       		.uleb128 0x2a
 2587 10f3 1D0C0000 		.4byte	0xc1d
 2588 10f7 0C000000 		.4byte	.LBB131
 2589 10fb 0A000000 		.4byte	.LBE131-.LBB131
 2590 10ff 02       		.byte	0x2
 2591 1100 FF01     		.2byte	0x1ff
 2592 1102 2B       		.uleb128 0x2b
 2593 1103 080B0000 		.4byte	0xb08
 2594 1107 0C000000 		.4byte	.LBB133
 2595 110b 06000000 		.4byte	.LBE133-.LBB133
 2596 110f 04       		.byte	0x4
 2597 1110 6301     		.2byte	0x163
 2598 1112 31110000 		.4byte	0x1131
 2599 1116 2A       		.uleb128 0x2a
 2600 1117 EE0A0000 		.4byte	0xaee
 2601 111b 0C000000 		.4byte	.LBB134
 2602 111f 06000000 		.4byte	.LBE134-.LBB134
 2603 1123 0E       		.byte	0xe
 2604 1124 6202     		.2byte	0x262
 2605 1126 22       		.uleb128 0x22
 2606 1127 FB0A0000 		.4byte	0xafb
 2607 112b 86020000 		.4byte	.LLST22
 2608 112f 00       		.byte	0
 2609 1130 00       		.byte	0
 2610 1131 2C       		.uleb128 0x2c
 2611 1132 16000000 		.4byte	.LVL30
 2612 1136 EF120000 		.4byte	0x12ef
 2613 113a 00       		.byte	0
 2614 113b 00       		.byte	0
 2615 113c 29       		.uleb128 0x29
 2616 113d 330B0000 		.4byte	0xb33
 2617 1141 3A000000 		.4byte	.LBB136
 2618 1145 08000000 		.4byte	.LBE136-.LBB136
 2619 1149 01       		.byte	0x1
 2620 114a F5       		.byte	0xf5
 2621 114b A8110000 		.4byte	0x11a8
 2622 114f 2A       		.uleb128 0x2a
ARM GAS  /tmp/ccFmpp4g.s 			page 47


 2623 1150 ED0B0000 		.4byte	0xbed
 2624 1154 3A000000 		.4byte	.LBB137
 2625 1158 08000000 		.4byte	.LBE137-.LBB137
 2626 115c 02       		.byte	0x2
 2627 115d 0A02     		.2byte	0x20a
 2628 115f 2D       		.uleb128 0x2d
 2629 1160 3A000000 		.4byte	.LBB138
 2630 1164 08000000 		.4byte	.LBE138-.LBB138
 2631 1168 2E       		.uleb128 0x2e
 2632 1169 FA0B0000 		.4byte	0xbfa
 2633 116d 2B       		.uleb128 0x2b
 2634 116e 110B0000 		.4byte	0xb11
 2635 1172 3E000000 		.4byte	.LBB139
 2636 1176 04000000 		.4byte	.LBE139-.LBB139
 2637 117a 04       		.byte	0x4
 2638 117b 7A01     		.2byte	0x17a
 2639 117d 9C110000 		.4byte	0x119c
 2640 1181 2A       		.uleb128 0x2a
 2641 1182 EE0A0000 		.4byte	0xaee
 2642 1186 3E000000 		.4byte	.LBB140
 2643 118a 04000000 		.4byte	.LBE140-.LBB140
 2644 118e 0E       		.byte	0xe
 2645 118f 7502     		.2byte	0x275
 2646 1191 22       		.uleb128 0x22
 2647 1192 FB0A0000 		.4byte	0xafb
 2648 1196 9B020000 		.4byte	.LLST23
 2649 119a 00       		.byte	0
 2650 119b 00       		.byte	0
 2651 119c 2C       		.uleb128 0x2c
 2652 119d 3E000000 		.4byte	.LVL33
 2653 11a1 FA120000 		.4byte	0x12fa
 2654 11a5 00       		.byte	0
 2655 11a6 00       		.byte	0
 2656 11a7 00       		.byte	0
 2657 11a8 2F       		.uleb128 0x2f
 2658 11a9 2E000000 		.4byte	.LVL31
 2659 11ad 29130000 		.4byte	0x1329
 2660 11b1 24       		.uleb128 0x24
 2661 11b2 01       		.uleb128 0x1
 2662 11b3 50       		.byte	0x50
 2663 11b4 02       		.uleb128 0x2
 2664 11b5 74       		.byte	0x74
 2665 11b6 00       		.sleb128 0
 2666 11b7 24       		.uleb128 0x24
 2667 11b8 01       		.uleb128 0x1
 2668 11b9 51       		.byte	0x51
 2669 11ba 02       		.uleb128 0x2
 2670 11bb 76       		.byte	0x76
 2671 11bc 00       		.sleb128 0
 2672 11bd 24       		.uleb128 0x24
 2673 11be 01       		.uleb128 0x1
 2674 11bf 52       		.byte	0x52
 2675 11c0 02       		.uleb128 0x2
 2676 11c1 77       		.byte	0x77
 2677 11c2 00       		.sleb128 0
 2678 11c3 24       		.uleb128 0x24
 2679 11c4 01       		.uleb128 0x1
ARM GAS  /tmp/ccFmpp4g.s 			page 48


 2680 11c5 53       		.byte	0x53
 2681 11c6 02       		.uleb128 0x2
 2682 11c7 78       		.byte	0x78
 2683 11c8 00       		.sleb128 0
 2684 11c9 24       		.uleb128 0x24
 2685 11ca 02       		.uleb128 0x2
 2686 11cb 7D       		.byte	0x7d
 2687 11cc 00       		.sleb128 0
 2688 11cd 03       		.uleb128 0x3
 2689 11ce 91       		.byte	0x91
 2690 11cf 00       		.sleb128 0
 2691 11d0 06       		.byte	0x6
 2692 11d1 00       		.byte	0
 2693 11d2 00       		.byte	0
 2694 11d3 26       		.uleb128 0x26
 2695 11d4 91080000 		.4byte	0x891
 2696 11d8 E3110000 		.4byte	0x11e3
 2697 11dc 27       		.uleb128 0x27
 2698 11dd 82040000 		.4byte	0x482
 2699 11e1 17       		.byte	0x17
 2700 11e2 00       		.byte	0
 2701 11e3 16       		.uleb128 0x16
 2702 11e4 D3110000 		.4byte	0x11d3
 2703 11e8 33       		.uleb128 0x33
 2704 11e9 74060000 		.4byte	.LASF181
 2705 11ed 01       		.byte	0x1
 2706 11ee 0501     		.2byte	0x105
 2707 11f0 00000000 		.4byte	.LFB330
 2708 11f4 06000000 		.4byte	.LFE330-.LFB330
 2709 11f8 01       		.uleb128 0x1
 2710 11f9 9C       		.byte	0x9c
 2711 11fa 45120000 		.4byte	0x1245
 2712 11fe 34       		.uleb128 0x34
 2713 11ff 4C010000 		.4byte	.LASF170
 2714 1203 01       		.byte	0x1
 2715 1204 0501     		.2byte	0x105
 2716 1206 E70B0000 		.4byte	0xbe7
 2717 120a AF020000 		.4byte	.LLST24
 2718 120e 28       		.uleb128 0x28
 2719 120f 08070000 		.4byte	.LASF172
 2720 1213 55120000 		.4byte	0x1255
 2721 1217 2A       		.uleb128 0x2a
 2722 1218 450B0000 		.4byte	0xb45
 2723 121c 00000000 		.4byte	.LBB142
 2724 1220 06000000 		.4byte	.LBE142-.LBB142
 2725 1224 01       		.byte	0x1
 2726 1225 0901     		.2byte	0x109
 2727 1227 22       		.uleb128 0x22
 2728 1228 520B0000 		.4byte	0xb52
 2729 122c DD020000 		.4byte	.LLST25
 2730 1230 23       		.uleb128 0x23
 2731 1231 06000000 		.4byte	.LVL37
 2732 1235 35130000 		.4byte	0x1335
 2733 1239 24       		.uleb128 0x24
 2734 123a 01       		.uleb128 0x1
 2735 123b 50       		.byte	0x50
 2736 123c 05       		.uleb128 0x5
ARM GAS  /tmp/ccFmpp4g.s 			page 49


 2737 123d F3       		.byte	0xf3
 2738 123e 01       		.uleb128 0x1
 2739 123f 50       		.byte	0x50
 2740 1240 23       		.byte	0x23
 2741 1241 0C       		.uleb128 0xc
 2742 1242 00       		.byte	0
 2743 1243 00       		.byte	0
 2744 1244 00       		.byte	0
 2745 1245 26       		.uleb128 0x26
 2746 1246 91080000 		.4byte	0x891
 2747 124a 55120000 		.4byte	0x1255
 2748 124e 27       		.uleb128 0x27
 2749 124f 82040000 		.4byte	0x482
 2750 1253 0D       		.byte	0xd
 2751 1254 00       		.byte	0
 2752 1255 16       		.uleb128 0x16
 2753 1256 45120000 		.4byte	0x1245
 2754 125a 33       		.uleb128 0x33
 2755 125b 13010000 		.4byte	.LASF182
 2756 125f 01       		.byte	0x1
 2757 1260 1501     		.2byte	0x115
 2758 1262 00000000 		.4byte	.LFB331
 2759 1266 06000000 		.4byte	.LFE331-.LFB331
 2760 126a 01       		.uleb128 0x1
 2761 126b 9C       		.byte	0x9c
 2762 126c B7120000 		.4byte	0x12b7
 2763 1270 34       		.uleb128 0x34
 2764 1271 4C010000 		.4byte	.LASF170
 2765 1275 01       		.byte	0x1
 2766 1276 1501     		.2byte	0x115
 2767 1278 E70B0000 		.4byte	0xbe7
 2768 127c 0D030000 		.4byte	.LLST26
 2769 1280 28       		.uleb128 0x28
 2770 1281 08070000 		.4byte	.LASF172
 2771 1285 B7120000 		.4byte	0x12b7
 2772 1289 2A       		.uleb128 0x2a
 2773 128a 5E0B0000 		.4byte	0xb5e
 2774 128e 00000000 		.4byte	.LBB144
 2775 1292 06000000 		.4byte	.LBE144-.LBB144
 2776 1296 01       		.byte	0x1
 2777 1297 1901     		.2byte	0x119
 2778 1299 22       		.uleb128 0x22
 2779 129a 6B0B0000 		.4byte	0xb6b
 2780 129e 3B030000 		.4byte	.LLST27
 2781 12a2 23       		.uleb128 0x23
 2782 12a3 06000000 		.4byte	.LVL40
 2783 12a7 40130000 		.4byte	0x1340
 2784 12ab 24       		.uleb128 0x24
 2785 12ac 01       		.uleb128 0x1
 2786 12ad 50       		.byte	0x50
 2787 12ae 05       		.uleb128 0x5
 2788 12af F3       		.byte	0xf3
 2789 12b0 01       		.uleb128 0x1
 2790 12b1 50       		.byte	0x50
 2791 12b2 23       		.byte	0x23
 2792 12b3 0C       		.uleb128 0xc
 2793 12b4 00       		.byte	0
ARM GAS  /tmp/ccFmpp4g.s 			page 50


 2794 12b5 00       		.byte	0
 2795 12b6 00       		.byte	0
 2796 12b7 16       		.uleb128 0x16
 2797 12b8 45120000 		.4byte	0x1245
 2798 12bc 35       		.uleb128 0x35
 2799 12bd 3F010000 		.4byte	.LASF183
 2800 12c1 16       		.byte	0x16
 2801 12c2 0408     		.2byte	0x804
 2802 12c4 C8120000 		.4byte	0x12c8
 2803 12c8 0F       		.uleb128 0xf
 2804 12c9 CA000000 		.4byte	0xca
 2805 12cd 36       		.uleb128 0x36
 2806 12ce 636800   		.ascii	"ch\000"
 2807 12d1 0A       		.byte	0xa
 2808 12d2 C701     		.2byte	0x1c7
 2809 12d4 06040000 		.4byte	0x406
 2810 12d8 37       		.uleb128 0x37
 2811 12d9 D1080000 		.4byte	.LASF184
 2812 12dd D1080000 		.4byte	.LASF184
 2813 12e1 15       		.byte	0x15
 2814 12e2 F301     		.2byte	0x1f3
 2815 12e4 38       		.uleb128 0x38
 2816 12e5 29070000 		.4byte	.LASF185
 2817 12e9 29070000 		.4byte	.LASF185
 2818 12ed 12       		.byte	0x12
 2819 12ee 66       		.byte	0x66
 2820 12ef 38       		.uleb128 0x38
 2821 12f0 AE040000 		.4byte	.LASF186
 2822 12f4 AE040000 		.4byte	.LASF186
 2823 12f8 10       		.byte	0x10
 2824 12f9 4F       		.byte	0x4f
 2825 12fa 38       		.uleb128 0x38
 2826 12fb 13040000 		.4byte	.LASF187
 2827 12ff 13040000 		.4byte	.LASF187
 2828 1303 10       		.byte	0x10
 2829 1304 50       		.byte	0x50
 2830 1305 37       		.uleb128 0x37
 2831 1306 05040000 		.4byte	.LASF188
 2832 130a 05040000 		.4byte	.LASF188
 2833 130e 15       		.byte	0x15
 2834 130f F401     		.2byte	0x1f4
 2835 1311 37       		.uleb128 0x37
 2836 1312 EF030000 		.4byte	.LASF189
 2837 1316 EF030000 		.4byte	.LASF189
 2838 131a 15       		.byte	0x15
 2839 131b F501     		.2byte	0x1f5
 2840 131d 37       		.uleb128 0x37
 2841 131e C8010000 		.4byte	.LASF190
 2842 1322 C8010000 		.4byte	.LASF190
 2843 1326 15       		.byte	0x15
 2844 1327 F601     		.2byte	0x1f6
 2845 1329 37       		.uleb128 0x37
 2846 132a A4000000 		.4byte	.LASF191
 2847 132e A4000000 		.4byte	.LASF191
 2848 1332 15       		.byte	0x15
 2849 1333 FA01     		.2byte	0x1fa
 2850 1335 38       		.uleb128 0x38
ARM GAS  /tmp/ccFmpp4g.s 			page 51


 2851 1336 CC040000 		.4byte	.LASF192
 2852 133a CC040000 		.4byte	.LASF192
 2853 133e 12       		.byte	0x12
 2854 133f 67       		.byte	0x67
 2855 1340 38       		.uleb128 0x38
 2856 1341 9E010000 		.4byte	.LASF193
 2857 1345 9E010000 		.4byte	.LASF193
 2858 1349 12       		.byte	0x12
 2859 134a 6B       		.byte	0x6b
 2860 134b 00       		.byte	0
 2861              		.section	.debug_abbrev,"",%progbits
 2862              	.Ldebug_abbrev0:
 2863 0000 01       		.uleb128 0x1
 2864 0001 11       		.uleb128 0x11
 2865 0002 01       		.byte	0x1
 2866 0003 25       		.uleb128 0x25
 2867 0004 0E       		.uleb128 0xe
 2868 0005 13       		.uleb128 0x13
 2869 0006 0B       		.uleb128 0xb
 2870 0007 03       		.uleb128 0x3
 2871 0008 0E       		.uleb128 0xe
 2872 0009 1B       		.uleb128 0x1b
 2873 000a 0E       		.uleb128 0xe
 2874 000b 55       		.uleb128 0x55
 2875 000c 17       		.uleb128 0x17
 2876 000d 11       		.uleb128 0x11
 2877 000e 01       		.uleb128 0x1
 2878 000f 10       		.uleb128 0x10
 2879 0010 17       		.uleb128 0x17
 2880 0011 00       		.byte	0
 2881 0012 00       		.byte	0
 2882 0013 02       		.uleb128 0x2
 2883 0014 24       		.uleb128 0x24
 2884 0015 00       		.byte	0
 2885 0016 0B       		.uleb128 0xb
 2886 0017 0B       		.uleb128 0xb
 2887 0018 3E       		.uleb128 0x3e
 2888 0019 0B       		.uleb128 0xb
 2889 001a 03       		.uleb128 0x3
 2890 001b 08       		.uleb128 0x8
 2891 001c 00       		.byte	0
 2892 001d 00       		.byte	0
 2893 001e 03       		.uleb128 0x3
 2894 001f 16       		.uleb128 0x16
 2895 0020 00       		.byte	0
 2896 0021 03       		.uleb128 0x3
 2897 0022 0E       		.uleb128 0xe
 2898 0023 3A       		.uleb128 0x3a
 2899 0024 0B       		.uleb128 0xb
 2900 0025 3B       		.uleb128 0x3b
 2901 0026 0B       		.uleb128 0xb
 2902 0027 49       		.uleb128 0x49
 2903 0028 13       		.uleb128 0x13
 2904 0029 00       		.byte	0
 2905 002a 00       		.byte	0
 2906 002b 04       		.uleb128 0x4
 2907 002c 24       		.uleb128 0x24
ARM GAS  /tmp/ccFmpp4g.s 			page 52


 2908 002d 00       		.byte	0
 2909 002e 0B       		.uleb128 0xb
 2910 002f 0B       		.uleb128 0xb
 2911 0030 3E       		.uleb128 0x3e
 2912 0031 0B       		.uleb128 0xb
 2913 0032 03       		.uleb128 0x3
 2914 0033 0E       		.uleb128 0xe
 2915 0034 00       		.byte	0
 2916 0035 00       		.byte	0
 2917 0036 05       		.uleb128 0x5
 2918 0037 13       		.uleb128 0x13
 2919 0038 01       		.byte	0x1
 2920 0039 03       		.uleb128 0x3
 2921 003a 0E       		.uleb128 0xe
 2922 003b 0B       		.uleb128 0xb
 2923 003c 0B       		.uleb128 0xb
 2924 003d 3A       		.uleb128 0x3a
 2925 003e 0B       		.uleb128 0xb
 2926 003f 3B       		.uleb128 0x3b
 2927 0040 0B       		.uleb128 0xb
 2928 0041 01       		.uleb128 0x1
 2929 0042 13       		.uleb128 0x13
 2930 0043 00       		.byte	0
 2931 0044 00       		.byte	0
 2932 0045 06       		.uleb128 0x6
 2933 0046 0D       		.uleb128 0xd
 2934 0047 00       		.byte	0
 2935 0048 03       		.uleb128 0x3
 2936 0049 0E       		.uleb128 0xe
 2937 004a 3A       		.uleb128 0x3a
 2938 004b 0B       		.uleb128 0xb
 2939 004c 3B       		.uleb128 0x3b
 2940 004d 0B       		.uleb128 0xb
 2941 004e 49       		.uleb128 0x49
 2942 004f 13       		.uleb128 0x13
 2943 0050 38       		.uleb128 0x38
 2944 0051 0B       		.uleb128 0xb
 2945 0052 00       		.byte	0
 2946 0053 00       		.byte	0
 2947 0054 07       		.uleb128 0x7
 2948 0055 0D       		.uleb128 0xd
 2949 0056 00       		.byte	0
 2950 0057 03       		.uleb128 0x3
 2951 0058 08       		.uleb128 0x8
 2952 0059 3A       		.uleb128 0x3a
 2953 005a 0B       		.uleb128 0xb
 2954 005b 3B       		.uleb128 0x3b
 2955 005c 0B       		.uleb128 0xb
 2956 005d 49       		.uleb128 0x49
 2957 005e 13       		.uleb128 0x13
 2958 005f 38       		.uleb128 0x38
 2959 0060 0B       		.uleb128 0xb
 2960 0061 00       		.byte	0
 2961 0062 00       		.byte	0
 2962 0063 08       		.uleb128 0x8
 2963 0064 0D       		.uleb128 0xd
 2964 0065 00       		.byte	0
ARM GAS  /tmp/ccFmpp4g.s 			page 53


 2965 0066 03       		.uleb128 0x3
 2966 0067 08       		.uleb128 0x8
 2967 0068 3A       		.uleb128 0x3a
 2968 0069 0B       		.uleb128 0xb
 2969 006a 3B       		.uleb128 0x3b
 2970 006b 05       		.uleb128 0x5
 2971 006c 49       		.uleb128 0x49
 2972 006d 13       		.uleb128 0x13
 2973 006e 38       		.uleb128 0x38
 2974 006f 0B       		.uleb128 0xb
 2975 0070 00       		.byte	0
 2976 0071 00       		.byte	0
 2977 0072 09       		.uleb128 0x9
 2978 0073 0D       		.uleb128 0xd
 2979 0074 00       		.byte	0
 2980 0075 03       		.uleb128 0x3
 2981 0076 0E       		.uleb128 0xe
 2982 0077 3A       		.uleb128 0x3a
 2983 0078 0B       		.uleb128 0xb
 2984 0079 3B       		.uleb128 0x3b
 2985 007a 05       		.uleb128 0x5
 2986 007b 49       		.uleb128 0x49
 2987 007c 13       		.uleb128 0x13
 2988 007d 38       		.uleb128 0x38
 2989 007e 0B       		.uleb128 0xb
 2990 007f 00       		.byte	0
 2991 0080 00       		.byte	0
 2992 0081 0A       		.uleb128 0xa
 2993 0082 0F       		.uleb128 0xf
 2994 0083 00       		.byte	0
 2995 0084 0B       		.uleb128 0xb
 2996 0085 0B       		.uleb128 0xb
 2997 0086 49       		.uleb128 0x49
 2998 0087 13       		.uleb128 0x13
 2999 0088 00       		.byte	0
 3000 0089 00       		.byte	0
 3001 008a 0B       		.uleb128 0xb
 3002 008b 13       		.uleb128 0x13
 3003 008c 01       		.byte	0x1
 3004 008d 03       		.uleb128 0x3
 3005 008e 0E       		.uleb128 0xe
 3006 008f 0B       		.uleb128 0xb
 3007 0090 0B       		.uleb128 0xb
 3008 0091 3A       		.uleb128 0x3a
 3009 0092 0B       		.uleb128 0xb
 3010 0093 3B       		.uleb128 0x3b
 3011 0094 05       		.uleb128 0x5
 3012 0095 01       		.uleb128 0x1
 3013 0096 13       		.uleb128 0x13
 3014 0097 00       		.byte	0
 3015 0098 00       		.byte	0
 3016 0099 0C       		.uleb128 0xc
 3017 009a 15       		.uleb128 0x15
 3018 009b 01       		.byte	0x1
 3019 009c 27       		.uleb128 0x27
 3020 009d 19       		.uleb128 0x19
 3021 009e 01       		.uleb128 0x1
ARM GAS  /tmp/ccFmpp4g.s 			page 54


 3022 009f 13       		.uleb128 0x13
 3023 00a0 00       		.byte	0
 3024 00a1 00       		.byte	0
 3025 00a2 0D       		.uleb128 0xd
 3026 00a3 05       		.uleb128 0x5
 3027 00a4 00       		.byte	0
 3028 00a5 49       		.uleb128 0x49
 3029 00a6 13       		.uleb128 0x13
 3030 00a7 00       		.byte	0
 3031 00a8 00       		.byte	0
 3032 00a9 0E       		.uleb128 0xe
 3033 00aa 0F       		.uleb128 0xf
 3034 00ab 00       		.byte	0
 3035 00ac 0B       		.uleb128 0xb
 3036 00ad 0B       		.uleb128 0xb
 3037 00ae 00       		.byte	0
 3038 00af 00       		.byte	0
 3039 00b0 0F       		.uleb128 0xf
 3040 00b1 35       		.uleb128 0x35
 3041 00b2 00       		.byte	0
 3042 00b3 49       		.uleb128 0x49
 3043 00b4 13       		.uleb128 0x13
 3044 00b5 00       		.byte	0
 3045 00b6 00       		.byte	0
 3046 00b7 10       		.uleb128 0x10
 3047 00b8 13       		.uleb128 0x13
 3048 00b9 01       		.byte	0x1
 3049 00ba 0B       		.uleb128 0xb
 3050 00bb 0B       		.uleb128 0xb
 3051 00bc 3A       		.uleb128 0x3a
 3052 00bd 0B       		.uleb128 0xb
 3053 00be 3B       		.uleb128 0x3b
 3054 00bf 05       		.uleb128 0x5
 3055 00c0 01       		.uleb128 0x1
 3056 00c1 13       		.uleb128 0x13
 3057 00c2 00       		.byte	0
 3058 00c3 00       		.byte	0
 3059 00c4 11       		.uleb128 0x11
 3060 00c5 16       		.uleb128 0x16
 3061 00c6 00       		.byte	0
 3062 00c7 03       		.uleb128 0x3
 3063 00c8 0E       		.uleb128 0xe
 3064 00c9 3A       		.uleb128 0x3a
 3065 00ca 0B       		.uleb128 0xb
 3066 00cb 3B       		.uleb128 0x3b
 3067 00cc 05       		.uleb128 0x5
 3068 00cd 49       		.uleb128 0x49
 3069 00ce 13       		.uleb128 0x13
 3070 00cf 00       		.byte	0
 3071 00d0 00       		.byte	0
 3072 00d1 12       		.uleb128 0x12
 3073 00d2 13       		.uleb128 0x13
 3074 00d3 01       		.byte	0x1
 3075 00d4 0B       		.uleb128 0xb
 3076 00d5 0B       		.uleb128 0xb
 3077 00d6 3A       		.uleb128 0x3a
 3078 00d7 0B       		.uleb128 0xb
ARM GAS  /tmp/ccFmpp4g.s 			page 55


 3079 00d8 3B       		.uleb128 0x3b
 3080 00d9 0B       		.uleb128 0xb
 3081 00da 01       		.uleb128 0x1
 3082 00db 13       		.uleb128 0x13
 3083 00dc 00       		.byte	0
 3084 00dd 00       		.byte	0
 3085 00de 13       		.uleb128 0x13
 3086 00df 17       		.uleb128 0x17
 3087 00e0 01       		.byte	0x1
 3088 00e1 0B       		.uleb128 0xb
 3089 00e2 0B       		.uleb128 0xb
 3090 00e3 3A       		.uleb128 0x3a
 3091 00e4 0B       		.uleb128 0xb
 3092 00e5 3B       		.uleb128 0x3b
 3093 00e6 0B       		.uleb128 0xb
 3094 00e7 01       		.uleb128 0x1
 3095 00e8 13       		.uleb128 0x13
 3096 00e9 00       		.byte	0
 3097 00ea 00       		.byte	0
 3098 00eb 14       		.uleb128 0x14
 3099 00ec 0D       		.uleb128 0xd
 3100 00ed 00       		.byte	0
 3101 00ee 03       		.uleb128 0x3
 3102 00ef 0E       		.uleb128 0xe
 3103 00f0 3A       		.uleb128 0x3a
 3104 00f1 0B       		.uleb128 0xb
 3105 00f2 3B       		.uleb128 0x3b
 3106 00f3 0B       		.uleb128 0xb
 3107 00f4 49       		.uleb128 0x49
 3108 00f5 13       		.uleb128 0x13
 3109 00f6 00       		.byte	0
 3110 00f7 00       		.byte	0
 3111 00f8 15       		.uleb128 0x15
 3112 00f9 0D       		.uleb128 0xd
 3113 00fa 00       		.byte	0
 3114 00fb 03       		.uleb128 0x3
 3115 00fc 0E       		.uleb128 0xe
 3116 00fd 3A       		.uleb128 0x3a
 3117 00fe 0B       		.uleb128 0xb
 3118 00ff 3B       		.uleb128 0x3b
 3119 0100 05       		.uleb128 0x5
 3120 0101 49       		.uleb128 0x49
 3121 0102 13       		.uleb128 0x13
 3122 0103 00       		.byte	0
 3123 0104 00       		.byte	0
 3124 0105 16       		.uleb128 0x16
 3125 0106 26       		.uleb128 0x26
 3126 0107 00       		.byte	0
 3127 0108 49       		.uleb128 0x49
 3128 0109 13       		.uleb128 0x13
 3129 010a 00       		.byte	0
 3130 010b 00       		.byte	0
 3131 010c 17       		.uleb128 0x17
 3132 010d 04       		.uleb128 0x4
 3133 010e 01       		.byte	0x1
 3134 010f 0B       		.uleb128 0xb
 3135 0110 0B       		.uleb128 0xb
ARM GAS  /tmp/ccFmpp4g.s 			page 56


 3136 0111 49       		.uleb128 0x49
 3137 0112 13       		.uleb128 0x13
 3138 0113 3A       		.uleb128 0x3a
 3139 0114 0B       		.uleb128 0xb
 3140 0115 3B       		.uleb128 0x3b
 3141 0116 0B       		.uleb128 0xb
 3142 0117 01       		.uleb128 0x1
 3143 0118 13       		.uleb128 0x13
 3144 0119 00       		.byte	0
 3145 011a 00       		.byte	0
 3146 011b 18       		.uleb128 0x18
 3147 011c 28       		.uleb128 0x28
 3148 011d 00       		.byte	0
 3149 011e 03       		.uleb128 0x3
 3150 011f 0E       		.uleb128 0xe
 3151 0120 1C       		.uleb128 0x1c
 3152 0121 0B       		.uleb128 0xb
 3153 0122 00       		.byte	0
 3154 0123 00       		.byte	0
 3155 0124 19       		.uleb128 0x19
 3156 0125 04       		.uleb128 0x4
 3157 0126 01       		.byte	0x1
 3158 0127 0B       		.uleb128 0xb
 3159 0128 0B       		.uleb128 0xb
 3160 0129 49       		.uleb128 0x49
 3161 012a 13       		.uleb128 0x13
 3162 012b 3A       		.uleb128 0x3a
 3163 012c 0B       		.uleb128 0xb
 3164 012d 3B       		.uleb128 0x3b
 3165 012e 05       		.uleb128 0x5
 3166 012f 01       		.uleb128 0x1
 3167 0130 13       		.uleb128 0x13
 3168 0131 00       		.byte	0
 3169 0132 00       		.byte	0
 3170 0133 1A       		.uleb128 0x1a
 3171 0134 2E       		.uleb128 0x2e
 3172 0135 01       		.byte	0x1
 3173 0136 03       		.uleb128 0x3
 3174 0137 0E       		.uleb128 0xe
 3175 0138 3A       		.uleb128 0x3a
 3176 0139 0B       		.uleb128 0xb
 3177 013a 3B       		.uleb128 0x3b
 3178 013b 05       		.uleb128 0x5
 3179 013c 27       		.uleb128 0x27
 3180 013d 19       		.uleb128 0x19
 3181 013e 20       		.uleb128 0x20
 3182 013f 0B       		.uleb128 0xb
 3183 0140 01       		.uleb128 0x1
 3184 0141 13       		.uleb128 0x13
 3185 0142 00       		.byte	0
 3186 0143 00       		.byte	0
 3187 0144 1B       		.uleb128 0x1b
 3188 0145 05       		.uleb128 0x5
 3189 0146 00       		.byte	0
 3190 0147 03       		.uleb128 0x3
 3191 0148 0E       		.uleb128 0xe
 3192 0149 3A       		.uleb128 0x3a
ARM GAS  /tmp/ccFmpp4g.s 			page 57


 3193 014a 0B       		.uleb128 0xb
 3194 014b 3B       		.uleb128 0x3b
 3195 014c 05       		.uleb128 0x5
 3196 014d 49       		.uleb128 0x49
 3197 014e 13       		.uleb128 0x13
 3198 014f 00       		.byte	0
 3199 0150 00       		.byte	0
 3200 0151 1C       		.uleb128 0x1c
 3201 0152 2E       		.uleb128 0x2e
 3202 0153 00       		.byte	0
 3203 0154 03       		.uleb128 0x3
 3204 0155 0E       		.uleb128 0xe
 3205 0156 3A       		.uleb128 0x3a
 3206 0157 0B       		.uleb128 0xb
 3207 0158 3B       		.uleb128 0x3b
 3208 0159 05       		.uleb128 0x5
 3209 015a 27       		.uleb128 0x27
 3210 015b 19       		.uleb128 0x19
 3211 015c 20       		.uleb128 0x20
 3212 015d 0B       		.uleb128 0xb
 3213 015e 00       		.byte	0
 3214 015f 00       		.byte	0
 3215 0160 1D       		.uleb128 0x1d
 3216 0161 05       		.uleb128 0x5
 3217 0162 00       		.byte	0
 3218 0163 03       		.uleb128 0x3
 3219 0164 08       		.uleb128 0x8
 3220 0165 3A       		.uleb128 0x3a
 3221 0166 0B       		.uleb128 0xb
 3222 0167 3B       		.uleb128 0x3b
 3223 0168 05       		.uleb128 0x5
 3224 0169 49       		.uleb128 0x49
 3225 016a 13       		.uleb128 0x13
 3226 016b 00       		.byte	0
 3227 016c 00       		.byte	0
 3228 016d 1E       		.uleb128 0x1e
 3229 016e 2E       		.uleb128 0x2e
 3230 016f 01       		.byte	0x1
 3231 0170 3F       		.uleb128 0x3f
 3232 0171 19       		.uleb128 0x19
 3233 0172 03       		.uleb128 0x3
 3234 0173 0E       		.uleb128 0xe
 3235 0174 3A       		.uleb128 0x3a
 3236 0175 0B       		.uleb128 0xb
 3237 0176 3B       		.uleb128 0x3b
 3238 0177 0B       		.uleb128 0xb
 3239 0178 27       		.uleb128 0x27
 3240 0179 19       		.uleb128 0x19
 3241 017a 11       		.uleb128 0x11
 3242 017b 01       		.uleb128 0x1
 3243 017c 12       		.uleb128 0x12
 3244 017d 06       		.uleb128 0x6
 3245 017e 40       		.uleb128 0x40
 3246 017f 18       		.uleb128 0x18
 3247 0180 9742     		.uleb128 0x2117
 3248 0182 19       		.uleb128 0x19
 3249 0183 01       		.uleb128 0x1
ARM GAS  /tmp/ccFmpp4g.s 			page 58


 3250 0184 13       		.uleb128 0x13
 3251 0185 00       		.byte	0
 3252 0186 00       		.byte	0
 3253 0187 1F       		.uleb128 0x1f
 3254 0188 898201   		.uleb128 0x4109
 3255 018b 00       		.byte	0
 3256 018c 11       		.uleb128 0x11
 3257 018d 01       		.uleb128 0x1
 3258 018e 9542     		.uleb128 0x2115
 3259 0190 19       		.uleb128 0x19
 3260 0191 31       		.uleb128 0x31
 3261 0192 13       		.uleb128 0x13
 3262 0193 00       		.byte	0
 3263 0194 00       		.byte	0
 3264 0195 20       		.uleb128 0x20
 3265 0196 05       		.uleb128 0x5
 3266 0197 00       		.byte	0
 3267 0198 03       		.uleb128 0x3
 3268 0199 0E       		.uleb128 0xe
 3269 019a 3A       		.uleb128 0x3a
 3270 019b 0B       		.uleb128 0xb
 3271 019c 3B       		.uleb128 0x3b
 3272 019d 0B       		.uleb128 0xb
 3273 019e 49       		.uleb128 0x49
 3274 019f 13       		.uleb128 0x13
 3275 01a0 02       		.uleb128 0x2
 3276 01a1 17       		.uleb128 0x17
 3277 01a2 00       		.byte	0
 3278 01a3 00       		.byte	0
 3279 01a4 21       		.uleb128 0x21
 3280 01a5 1D       		.uleb128 0x1d
 3281 01a6 01       		.byte	0x1
 3282 01a7 31       		.uleb128 0x31
 3283 01a8 13       		.uleb128 0x13
 3284 01a9 11       		.uleb128 0x11
 3285 01aa 01       		.uleb128 0x1
 3286 01ab 12       		.uleb128 0x12
 3287 01ac 06       		.uleb128 0x6
 3288 01ad 58       		.uleb128 0x58
 3289 01ae 0B       		.uleb128 0xb
 3290 01af 59       		.uleb128 0x59
 3291 01b0 0B       		.uleb128 0xb
 3292 01b1 00       		.byte	0
 3293 01b2 00       		.byte	0
 3294 01b3 22       		.uleb128 0x22
 3295 01b4 05       		.uleb128 0x5
 3296 01b5 00       		.byte	0
 3297 01b6 31       		.uleb128 0x31
 3298 01b7 13       		.uleb128 0x13
 3299 01b8 02       		.uleb128 0x2
 3300 01b9 17       		.uleb128 0x17
 3301 01ba 00       		.byte	0
 3302 01bb 00       		.byte	0
 3303 01bc 23       		.uleb128 0x23
 3304 01bd 898201   		.uleb128 0x4109
 3305 01c0 01       		.byte	0x1
 3306 01c1 11       		.uleb128 0x11
ARM GAS  /tmp/ccFmpp4g.s 			page 59


 3307 01c2 01       		.uleb128 0x1
 3308 01c3 9542     		.uleb128 0x2115
 3309 01c5 19       		.uleb128 0x19
 3310 01c6 31       		.uleb128 0x31
 3311 01c7 13       		.uleb128 0x13
 3312 01c8 00       		.byte	0
 3313 01c9 00       		.byte	0
 3314 01ca 24       		.uleb128 0x24
 3315 01cb 8A8201   		.uleb128 0x410a
 3316 01ce 00       		.byte	0
 3317 01cf 02       		.uleb128 0x2
 3318 01d0 18       		.uleb128 0x18
 3319 01d1 9142     		.uleb128 0x2111
 3320 01d3 18       		.uleb128 0x18
 3321 01d4 00       		.byte	0
 3322 01d5 00       		.byte	0
 3323 01d6 25       		.uleb128 0x25
 3324 01d7 34       		.uleb128 0x34
 3325 01d8 00       		.byte	0
 3326 01d9 03       		.uleb128 0x3
 3327 01da 0E       		.uleb128 0xe
 3328 01db 49       		.uleb128 0x49
 3329 01dc 13       		.uleb128 0x13
 3330 01dd 34       		.uleb128 0x34
 3331 01de 19       		.uleb128 0x19
 3332 01df 1C       		.uleb128 0x1c
 3333 01e0 0E       		.uleb128 0xe
 3334 01e1 00       		.byte	0
 3335 01e2 00       		.byte	0
 3336 01e3 26       		.uleb128 0x26
 3337 01e4 01       		.uleb128 0x1
 3338 01e5 01       		.byte	0x1
 3339 01e6 49       		.uleb128 0x49
 3340 01e7 13       		.uleb128 0x13
 3341 01e8 01       		.uleb128 0x1
 3342 01e9 13       		.uleb128 0x13
 3343 01ea 00       		.byte	0
 3344 01eb 00       		.byte	0
 3345 01ec 27       		.uleb128 0x27
 3346 01ed 21       		.uleb128 0x21
 3347 01ee 00       		.byte	0
 3348 01ef 49       		.uleb128 0x49
 3349 01f0 13       		.uleb128 0x13
 3350 01f1 2F       		.uleb128 0x2f
 3351 01f2 0B       		.uleb128 0xb
 3352 01f3 00       		.byte	0
 3353 01f4 00       		.byte	0
 3354 01f5 28       		.uleb128 0x28
 3355 01f6 34       		.uleb128 0x34
 3356 01f7 00       		.byte	0
 3357 01f8 03       		.uleb128 0x3
 3358 01f9 0E       		.uleb128 0xe
 3359 01fa 49       		.uleb128 0x49
 3360 01fb 13       		.uleb128 0x13
 3361 01fc 34       		.uleb128 0x34
 3362 01fd 19       		.uleb128 0x19
 3363 01fe 00       		.byte	0
ARM GAS  /tmp/ccFmpp4g.s 			page 60


 3364 01ff 00       		.byte	0
 3365 0200 29       		.uleb128 0x29
 3366 0201 1D       		.uleb128 0x1d
 3367 0202 01       		.byte	0x1
 3368 0203 31       		.uleb128 0x31
 3369 0204 13       		.uleb128 0x13
 3370 0205 11       		.uleb128 0x11
 3371 0206 01       		.uleb128 0x1
 3372 0207 12       		.uleb128 0x12
 3373 0208 06       		.uleb128 0x6
 3374 0209 58       		.uleb128 0x58
 3375 020a 0B       		.uleb128 0xb
 3376 020b 59       		.uleb128 0x59
 3377 020c 0B       		.uleb128 0xb
 3378 020d 01       		.uleb128 0x1
 3379 020e 13       		.uleb128 0x13
 3380 020f 00       		.byte	0
 3381 0210 00       		.byte	0
 3382 0211 2A       		.uleb128 0x2a
 3383 0212 1D       		.uleb128 0x1d
 3384 0213 01       		.byte	0x1
 3385 0214 31       		.uleb128 0x31
 3386 0215 13       		.uleb128 0x13
 3387 0216 11       		.uleb128 0x11
 3388 0217 01       		.uleb128 0x1
 3389 0218 12       		.uleb128 0x12
 3390 0219 06       		.uleb128 0x6
 3391 021a 58       		.uleb128 0x58
 3392 021b 0B       		.uleb128 0xb
 3393 021c 59       		.uleb128 0x59
 3394 021d 05       		.uleb128 0x5
 3395 021e 00       		.byte	0
 3396 021f 00       		.byte	0
 3397 0220 2B       		.uleb128 0x2b
 3398 0221 1D       		.uleb128 0x1d
 3399 0222 01       		.byte	0x1
 3400 0223 31       		.uleb128 0x31
 3401 0224 13       		.uleb128 0x13
 3402 0225 11       		.uleb128 0x11
 3403 0226 01       		.uleb128 0x1
 3404 0227 12       		.uleb128 0x12
 3405 0228 06       		.uleb128 0x6
 3406 0229 58       		.uleb128 0x58
 3407 022a 0B       		.uleb128 0xb
 3408 022b 59       		.uleb128 0x59
 3409 022c 05       		.uleb128 0x5
 3410 022d 01       		.uleb128 0x1
 3411 022e 13       		.uleb128 0x13
 3412 022f 00       		.byte	0
 3413 0230 00       		.byte	0
 3414 0231 2C       		.uleb128 0x2c
 3415 0232 898201   		.uleb128 0x4109
 3416 0235 00       		.byte	0
 3417 0236 11       		.uleb128 0x11
 3418 0237 01       		.uleb128 0x1
 3419 0238 31       		.uleb128 0x31
 3420 0239 13       		.uleb128 0x13
ARM GAS  /tmp/ccFmpp4g.s 			page 61


 3421 023a 00       		.byte	0
 3422 023b 00       		.byte	0
 3423 023c 2D       		.uleb128 0x2d
 3424 023d 0B       		.uleb128 0xb
 3425 023e 01       		.byte	0x1
 3426 023f 11       		.uleb128 0x11
 3427 0240 01       		.uleb128 0x1
 3428 0241 12       		.uleb128 0x12
 3429 0242 06       		.uleb128 0x6
 3430 0243 00       		.byte	0
 3431 0244 00       		.byte	0
 3432 0245 2E       		.uleb128 0x2e
 3433 0246 34       		.uleb128 0x34
 3434 0247 00       		.byte	0
 3435 0248 31       		.uleb128 0x31
 3436 0249 13       		.uleb128 0x13
 3437 024a 00       		.byte	0
 3438 024b 00       		.byte	0
 3439 024c 2F       		.uleb128 0x2f
 3440 024d 898201   		.uleb128 0x4109
 3441 0250 01       		.byte	0x1
 3442 0251 11       		.uleb128 0x11
 3443 0252 01       		.uleb128 0x1
 3444 0253 31       		.uleb128 0x31
 3445 0254 13       		.uleb128 0x13
 3446 0255 00       		.byte	0
 3447 0256 00       		.byte	0
 3448 0257 30       		.uleb128 0x30
 3449 0258 2E       		.uleb128 0x2e
 3450 0259 01       		.byte	0x1
 3451 025a 3F       		.uleb128 0x3f
 3452 025b 19       		.uleb128 0x19
 3453 025c 03       		.uleb128 0x3
 3454 025d 0E       		.uleb128 0xe
 3455 025e 3A       		.uleb128 0x3a
 3456 025f 0B       		.uleb128 0xb
 3457 0260 3B       		.uleb128 0x3b
 3458 0261 0B       		.uleb128 0xb
 3459 0262 27       		.uleb128 0x27
 3460 0263 19       		.uleb128 0x19
 3461 0264 49       		.uleb128 0x49
 3462 0265 13       		.uleb128 0x13
 3463 0266 11       		.uleb128 0x11
 3464 0267 01       		.uleb128 0x1
 3465 0268 12       		.uleb128 0x12
 3466 0269 06       		.uleb128 0x6
 3467 026a 40       		.uleb128 0x40
 3468 026b 18       		.uleb128 0x18
 3469 026c 9742     		.uleb128 0x2117
 3470 026e 19       		.uleb128 0x19
 3471 026f 01       		.uleb128 0x1
 3472 0270 13       		.uleb128 0x13
 3473 0271 00       		.byte	0
 3474 0272 00       		.byte	0
 3475 0273 31       		.uleb128 0x31
 3476 0274 05       		.uleb128 0x5
 3477 0275 00       		.byte	0
ARM GAS  /tmp/ccFmpp4g.s 			page 62


 3478 0276 03       		.uleb128 0x3
 3479 0277 0E       		.uleb128 0xe
 3480 0278 3A       		.uleb128 0x3a
 3481 0279 0B       		.uleb128 0xb
 3482 027a 3B       		.uleb128 0x3b
 3483 027b 0B       		.uleb128 0xb
 3484 027c 49       		.uleb128 0x49
 3485 027d 13       		.uleb128 0x13
 3486 027e 02       		.uleb128 0x2
 3487 027f 18       		.uleb128 0x18
 3488 0280 00       		.byte	0
 3489 0281 00       		.byte	0
 3490 0282 32       		.uleb128 0x32
 3491 0283 34       		.uleb128 0x34
 3492 0284 00       		.byte	0
 3493 0285 03       		.uleb128 0x3
 3494 0286 0E       		.uleb128 0xe
 3495 0287 3A       		.uleb128 0x3a
 3496 0288 0B       		.uleb128 0xb
 3497 0289 3B       		.uleb128 0x3b
 3498 028a 0B       		.uleb128 0xb
 3499 028b 49       		.uleb128 0x49
 3500 028c 13       		.uleb128 0x13
 3501 028d 02       		.uleb128 0x2
 3502 028e 17       		.uleb128 0x17
 3503 028f 00       		.byte	0
 3504 0290 00       		.byte	0
 3505 0291 33       		.uleb128 0x33
 3506 0292 2E       		.uleb128 0x2e
 3507 0293 01       		.byte	0x1
 3508 0294 3F       		.uleb128 0x3f
 3509 0295 19       		.uleb128 0x19
 3510 0296 03       		.uleb128 0x3
 3511 0297 0E       		.uleb128 0xe
 3512 0298 3A       		.uleb128 0x3a
 3513 0299 0B       		.uleb128 0xb
 3514 029a 3B       		.uleb128 0x3b
 3515 029b 05       		.uleb128 0x5
 3516 029c 27       		.uleb128 0x27
 3517 029d 19       		.uleb128 0x19
 3518 029e 11       		.uleb128 0x11
 3519 029f 01       		.uleb128 0x1
 3520 02a0 12       		.uleb128 0x12
 3521 02a1 06       		.uleb128 0x6
 3522 02a2 40       		.uleb128 0x40
 3523 02a3 18       		.uleb128 0x18
 3524 02a4 9742     		.uleb128 0x2117
 3525 02a6 19       		.uleb128 0x19
 3526 02a7 01       		.uleb128 0x1
 3527 02a8 13       		.uleb128 0x13
 3528 02a9 00       		.byte	0
 3529 02aa 00       		.byte	0
 3530 02ab 34       		.uleb128 0x34
 3531 02ac 05       		.uleb128 0x5
 3532 02ad 00       		.byte	0
 3533 02ae 03       		.uleb128 0x3
 3534 02af 0E       		.uleb128 0xe
ARM GAS  /tmp/ccFmpp4g.s 			page 63


 3535 02b0 3A       		.uleb128 0x3a
 3536 02b1 0B       		.uleb128 0xb
 3537 02b2 3B       		.uleb128 0x3b
 3538 02b3 05       		.uleb128 0x5
 3539 02b4 49       		.uleb128 0x49
 3540 02b5 13       		.uleb128 0x13
 3541 02b6 02       		.uleb128 0x2
 3542 02b7 17       		.uleb128 0x17
 3543 02b8 00       		.byte	0
 3544 02b9 00       		.byte	0
 3545 02ba 35       		.uleb128 0x35
 3546 02bb 34       		.uleb128 0x34
 3547 02bc 00       		.byte	0
 3548 02bd 03       		.uleb128 0x3
 3549 02be 0E       		.uleb128 0xe
 3550 02bf 3A       		.uleb128 0x3a
 3551 02c0 0B       		.uleb128 0xb
 3552 02c1 3B       		.uleb128 0x3b
 3553 02c2 05       		.uleb128 0x5
 3554 02c3 49       		.uleb128 0x49
 3555 02c4 13       		.uleb128 0x13
 3556 02c5 3F       		.uleb128 0x3f
 3557 02c6 19       		.uleb128 0x19
 3558 02c7 3C       		.uleb128 0x3c
 3559 02c8 19       		.uleb128 0x19
 3560 02c9 00       		.byte	0
 3561 02ca 00       		.byte	0
 3562 02cb 36       		.uleb128 0x36
 3563 02cc 34       		.uleb128 0x34
 3564 02cd 00       		.byte	0
 3565 02ce 03       		.uleb128 0x3
 3566 02cf 08       		.uleb128 0x8
 3567 02d0 3A       		.uleb128 0x3a
 3568 02d1 0B       		.uleb128 0xb
 3569 02d2 3B       		.uleb128 0x3b
 3570 02d3 05       		.uleb128 0x5
 3571 02d4 49       		.uleb128 0x49
 3572 02d5 13       		.uleb128 0x13
 3573 02d6 3F       		.uleb128 0x3f
 3574 02d7 19       		.uleb128 0x19
 3575 02d8 3C       		.uleb128 0x3c
 3576 02d9 19       		.uleb128 0x19
 3577 02da 00       		.byte	0
 3578 02db 00       		.byte	0
 3579 02dc 37       		.uleb128 0x37
 3580 02dd 2E       		.uleb128 0x2e
 3581 02de 00       		.byte	0
 3582 02df 3F       		.uleb128 0x3f
 3583 02e0 19       		.uleb128 0x19
 3584 02e1 3C       		.uleb128 0x3c
 3585 02e2 19       		.uleb128 0x19
 3586 02e3 6E       		.uleb128 0x6e
 3587 02e4 0E       		.uleb128 0xe
 3588 02e5 03       		.uleb128 0x3
 3589 02e6 0E       		.uleb128 0xe
 3590 02e7 3A       		.uleb128 0x3a
 3591 02e8 0B       		.uleb128 0xb
ARM GAS  /tmp/ccFmpp4g.s 			page 64


 3592 02e9 3B       		.uleb128 0x3b
 3593 02ea 05       		.uleb128 0x5
 3594 02eb 00       		.byte	0
 3595 02ec 00       		.byte	0
 3596 02ed 38       		.uleb128 0x38
 3597 02ee 2E       		.uleb128 0x2e
 3598 02ef 00       		.byte	0
 3599 02f0 3F       		.uleb128 0x3f
 3600 02f1 19       		.uleb128 0x19
 3601 02f2 3C       		.uleb128 0x3c
 3602 02f3 19       		.uleb128 0x19
 3603 02f4 6E       		.uleb128 0x6e
 3604 02f5 0E       		.uleb128 0xe
 3605 02f6 03       		.uleb128 0x3
 3606 02f7 0E       		.uleb128 0xe
 3607 02f8 3A       		.uleb128 0x3a
 3608 02f9 0B       		.uleb128 0xb
 3609 02fa 3B       		.uleb128 0x3b
 3610 02fb 0B       		.uleb128 0xb
 3611 02fc 00       		.byte	0
 3612 02fd 00       		.byte	0
 3613 02fe 00       		.byte	0
 3614              		.section	.debug_loc,"",%progbits
 3615              	.Ldebug_loc0:
 3616              	.LLST0:
 3617 0000 00000000 		.4byte	.LVL1
 3618 0004 0A000000 		.4byte	.LVL3
 3619 0008 0100     		.2byte	0x1
 3620 000a 50       		.byte	0x50
 3621 000b 0A000000 		.4byte	.LVL3
 3622 000f 0D000000 		.4byte	.LVL4-1
 3623 0013 0300     		.2byte	0x3
 3624 0015 70       		.byte	0x70
 3625 0016 74       		.sleb128 -12
 3626 0017 9F       		.byte	0x9f
 3627 0018 0D000000 		.4byte	.LVL4-1
 3628 001c 0E000000 		.4byte	.LFE324
 3629 0020 0400     		.2byte	0x4
 3630 0022 F3       		.byte	0xf3
 3631 0023 01       		.uleb128 0x1
 3632 0024 50       		.byte	0x50
 3633 0025 9F       		.byte	0x9f
 3634 0026 00000000 		.4byte	0
 3635 002a 00000000 		.4byte	0
 3636              	.LLST1:
 3637 002e 08000000 		.4byte	.LVL2
 3638 0032 0A000000 		.4byte	.LVL3
 3639 0036 0300     		.2byte	0x3
 3640 0038 70       		.byte	0x70
 3641 0039 0C       		.sleb128 12
 3642 003a 9F       		.byte	0x9f
 3643 003b 0A000000 		.4byte	.LVL3
 3644 003f 0D000000 		.4byte	.LVL4-1
 3645 0043 0100     		.2byte	0x1
 3646 0045 50       		.byte	0x50
 3647 0046 0D000000 		.4byte	.LVL4-1
 3648 004a 0E000000 		.4byte	.LFE324
ARM GAS  /tmp/ccFmpp4g.s 			page 65


 3649 004e 0600     		.2byte	0x6
 3650 0050 F3       		.byte	0xf3
 3651 0051 01       		.uleb128 0x1
 3652 0052 50       		.byte	0x50
 3653 0053 23       		.byte	0x23
 3654 0054 0C       		.uleb128 0xc
 3655 0055 9F       		.byte	0x9f
 3656 0056 00000000 		.4byte	0
 3657 005a 00000000 		.4byte	0
 3658              	.LLST2:
 3659 005e 00000000 		.4byte	.LVL5
 3660 0062 0F000000 		.4byte	.LVL7-1
 3661 0066 0100     		.2byte	0x1
 3662 0068 50       		.byte	0x50
 3663 0069 0F000000 		.4byte	.LVL7-1
 3664 006d 28000000 		.4byte	.LFE325
 3665 0071 0100     		.2byte	0x1
 3666 0073 54       		.byte	0x54
 3667 0074 00000000 		.4byte	0
 3668 0078 00000000 		.4byte	0
 3669              	.LLST3:
 3670 007c 00000000 		.4byte	.LVL5
 3671 0080 0F000000 		.4byte	.LVL7-1
 3672 0084 0100     		.2byte	0x1
 3673 0086 51       		.byte	0x51
 3674 0087 0F000000 		.4byte	.LVL7-1
 3675 008b 28000000 		.4byte	.LFE325
 3676 008f 0100     		.2byte	0x1
 3677 0091 55       		.byte	0x55
 3678 0092 00000000 		.4byte	0
 3679 0096 00000000 		.4byte	0
 3680              	.LLST4:
 3681 009a 00000000 		.4byte	.LVL5
 3682 009e 0C000000 		.4byte	.LVL6
 3683 00a2 0300     		.2byte	0x3
 3684 00a4 08       		.byte	0x8
 3685 00a5 20       		.byte	0x20
 3686 00a6 9F       		.byte	0x9f
 3687 00a7 00000000 		.4byte	0
 3688 00ab 00000000 		.4byte	0
 3689              	.LLST5:
 3690 00af 20000000 		.4byte	.LVL9
 3691 00b3 26000000 		.4byte	.LVL10
 3692 00b7 0200     		.2byte	0x2
 3693 00b9 30       		.byte	0x30
 3694 00ba 9F       		.byte	0x9f
 3695 00bb 00000000 		.4byte	0
 3696 00bf 00000000 		.4byte	0
 3697              	.LLST6:
 3698 00c3 00000000 		.4byte	.LVL11
 3699 00c7 0D000000 		.4byte	.LVL13-1
 3700 00cb 0100     		.2byte	0x1
 3701 00cd 50       		.byte	0x50
 3702 00ce 0D000000 		.4byte	.LVL13-1
 3703 00d2 26000000 		.4byte	.LFE326
 3704 00d6 0100     		.2byte	0x1
 3705 00d8 54       		.byte	0x54
ARM GAS  /tmp/ccFmpp4g.s 			page 66


 3706 00d9 00000000 		.4byte	0
 3707 00dd 00000000 		.4byte	0
 3708              	.LLST7:
 3709 00e1 00000000 		.4byte	.LVL11
 3710 00e5 0A000000 		.4byte	.LVL12
 3711 00e9 0300     		.2byte	0x3
 3712 00eb 08       		.byte	0x8
 3713 00ec 20       		.byte	0x20
 3714 00ed 9F       		.byte	0x9f
 3715 00ee 00000000 		.4byte	0
 3716 00f2 00000000 		.4byte	0
 3717              	.LLST8:
 3718 00f6 20000000 		.4byte	.LVL15
 3719 00fa 24000000 		.4byte	.LVL16
 3720 00fe 0200     		.2byte	0x2
 3721 0100 30       		.byte	0x30
 3722 0101 9F       		.byte	0x9f
 3723 0102 00000000 		.4byte	0
 3724 0106 00000000 		.4byte	0
 3725              	.LLST9:
 3726 010a 00000000 		.4byte	.LVL17
 3727 010e 02000000 		.4byte	.LVL18
 3728 0112 0100     		.2byte	0x1
 3729 0114 50       		.byte	0x50
 3730 0115 02000000 		.4byte	.LVL18
 3731 0119 04000000 		.4byte	.LFE327
 3732 011d 0400     		.2byte	0x4
 3733 011f F3       		.byte	0xf3
 3734 0120 01       		.uleb128 0x1
 3735 0121 50       		.byte	0x50
 3736 0122 9F       		.byte	0x9f
 3737 0123 00000000 		.4byte	0
 3738 0127 00000000 		.4byte	0
 3739              	.LLST10:
 3740 012b 00000000 		.4byte	.LVL19
 3741 012f 15000000 		.4byte	.LVL22-1
 3742 0133 0100     		.2byte	0x1
 3743 0135 50       		.byte	0x50
 3744 0136 15000000 		.4byte	.LVL22-1
 3745 013a 52000000 		.4byte	.LFE328
 3746 013e 0100     		.2byte	0x1
 3747 0140 54       		.byte	0x54
 3748 0141 00000000 		.4byte	0
 3749 0145 00000000 		.4byte	0
 3750              	.LLST11:
 3751 0149 00000000 		.4byte	.LVL19
 3752 014d 15000000 		.4byte	.LVL22-1
 3753 0151 0100     		.2byte	0x1
 3754 0153 51       		.byte	0x51
 3755 0154 15000000 		.4byte	.LVL22-1
 3756 0158 52000000 		.4byte	.LFE328
 3757 015c 0400     		.2byte	0x4
 3758 015e F3       		.byte	0xf3
 3759 015f 01       		.uleb128 0x1
 3760 0160 51       		.byte	0x51
 3761 0161 9F       		.byte	0x9f
 3762 0162 00000000 		.4byte	0
ARM GAS  /tmp/ccFmpp4g.s 			page 67


 3763 0166 00000000 		.4byte	0
 3764              	.LLST12:
 3765 016a 00000000 		.4byte	.LVL19
 3766 016e 15000000 		.4byte	.LVL22-1
 3767 0172 0100     		.2byte	0x1
 3768 0174 52       		.byte	0x52
 3769 0175 15000000 		.4byte	.LVL22-1
 3770 0179 52000000 		.4byte	.LFE328
 3771 017d 0100     		.2byte	0x1
 3772 017f 57       		.byte	0x57
 3773 0180 00000000 		.4byte	0
 3774 0184 00000000 		.4byte	0
 3775              	.LLST13:
 3776 0188 00000000 		.4byte	.LVL19
 3777 018c 0E000000 		.4byte	.LVL20
 3778 0190 0100     		.2byte	0x1
 3779 0192 53       		.byte	0x53
 3780 0193 0E000000 		.4byte	.LVL20
 3781 0197 52000000 		.4byte	.LFE328
 3782 019b 0100     		.2byte	0x1
 3783 019d 58       		.byte	0x58
 3784 019e 00000000 		.4byte	0
 3785 01a2 00000000 		.4byte	0
 3786              	.LLST14:
 3787 01a6 42000000 		.4byte	.LVL24
 3788 01aa 45000000 		.4byte	.LVL25-1
 3789 01ae 0100     		.2byte	0x1
 3790 01b0 50       		.byte	0x50
 3791 01b1 45000000 		.4byte	.LVL25-1
 3792 01b5 52000000 		.4byte	.LFE328
 3793 01b9 0100     		.2byte	0x1
 3794 01bb 56       		.byte	0x56
 3795 01bc 00000000 		.4byte	0
 3796 01c0 00000000 		.4byte	0
 3797              	.LLST15:
 3798 01c4 00000000 		.4byte	.LVL19
 3799 01c8 12000000 		.4byte	.LVL21
 3800 01cc 0300     		.2byte	0x3
 3801 01ce 08       		.byte	0x8
 3802 01cf 20       		.byte	0x20
 3803 01d0 9F       		.byte	0x9f
 3804 01d1 00000000 		.4byte	0
 3805 01d5 00000000 		.4byte	0
 3806              	.LLST16:
 3807 01d9 46000000 		.4byte	.LVL25
 3808 01dd 4A000000 		.4byte	.LVL26
 3809 01e1 0200     		.2byte	0x2
 3810 01e3 30       		.byte	0x30
 3811 01e4 9F       		.byte	0x9f
 3812 01e5 00000000 		.4byte	0
 3813 01e9 00000000 		.4byte	0
 3814              	.LLST17:
 3815 01ed 00000000 		.4byte	.LVL27
 3816 01f1 15000000 		.4byte	.LVL30-1
 3817 01f5 0100     		.2byte	0x1
 3818 01f7 50       		.byte	0x50
 3819 01f8 15000000 		.4byte	.LVL30-1
ARM GAS  /tmp/ccFmpp4g.s 			page 68


 3820 01fc 4A000000 		.4byte	.LFE329
 3821 0200 0100     		.2byte	0x1
 3822 0202 54       		.byte	0x54
 3823 0203 00000000 		.4byte	0
 3824 0207 00000000 		.4byte	0
 3825              	.LLST18:
 3826 020b 00000000 		.4byte	.LVL27
 3827 020f 15000000 		.4byte	.LVL30-1
 3828 0213 0100     		.2byte	0x1
 3829 0215 51       		.byte	0x51
 3830 0216 15000000 		.4byte	.LVL30-1
 3831 021a 4A000000 		.4byte	.LFE329
 3832 021e 0400     		.2byte	0x4
 3833 0220 F3       		.byte	0xf3
 3834 0221 01       		.uleb128 0x1
 3835 0222 51       		.byte	0x51
 3836 0223 9F       		.byte	0x9f
 3837 0224 00000000 		.4byte	0
 3838 0228 00000000 		.4byte	0
 3839              	.LLST19:
 3840 022c 00000000 		.4byte	.LVL27
 3841 0230 15000000 		.4byte	.LVL30-1
 3842 0234 0100     		.2byte	0x1
 3843 0236 52       		.byte	0x52
 3844 0237 15000000 		.4byte	.LVL30-1
 3845 023b 4A000000 		.4byte	.LFE329
 3846 023f 0100     		.2byte	0x1
 3847 0241 57       		.byte	0x57
 3848 0242 00000000 		.4byte	0
 3849 0246 00000000 		.4byte	0
 3850              	.LLST20:
 3851 024a 00000000 		.4byte	.LVL27
 3852 024e 0E000000 		.4byte	.LVL28
 3853 0252 0100     		.2byte	0x1
 3854 0254 53       		.byte	0x53
 3855 0255 0E000000 		.4byte	.LVL28
 3856 0259 4A000000 		.4byte	.LFE329
 3857 025d 0100     		.2byte	0x1
 3858 025f 58       		.byte	0x58
 3859 0260 00000000 		.4byte	0
 3860 0264 00000000 		.4byte	0
 3861              	.LLST21:
 3862 0268 3A000000 		.4byte	.LVL32
 3863 026c 3D000000 		.4byte	.LVL33-1
 3864 0270 0100     		.2byte	0x1
 3865 0272 50       		.byte	0x50
 3866 0273 3D000000 		.4byte	.LVL33-1
 3867 0277 4A000000 		.4byte	.LFE329
 3868 027b 0100     		.2byte	0x1
 3869 027d 56       		.byte	0x56
 3870 027e 00000000 		.4byte	0
 3871 0282 00000000 		.4byte	0
 3872              	.LLST22:
 3873 0286 00000000 		.4byte	.LVL27
 3874 028a 12000000 		.4byte	.LVL29
 3875 028e 0300     		.2byte	0x3
 3876 0290 08       		.byte	0x8
ARM GAS  /tmp/ccFmpp4g.s 			page 69


 3877 0291 20       		.byte	0x20
 3878 0292 9F       		.byte	0x9f
 3879 0293 00000000 		.4byte	0
 3880 0297 00000000 		.4byte	0
 3881              	.LLST23:
 3882 029b 3E000000 		.4byte	.LVL33
 3883 029f 42000000 		.4byte	.LVL34
 3884 02a3 0200     		.2byte	0x2
 3885 02a5 30       		.byte	0x30
 3886 02a6 9F       		.byte	0x9f
 3887 02a7 00000000 		.4byte	0
 3888 02ab 00000000 		.4byte	0
 3889              	.LLST24:
 3890 02af 00000000 		.4byte	.LVL35
 3891 02b3 02000000 		.4byte	.LVL36
 3892 02b7 0100     		.2byte	0x1
 3893 02b9 50       		.byte	0x50
 3894 02ba 02000000 		.4byte	.LVL36
 3895 02be 05000000 		.4byte	.LVL37-1
 3896 02c2 0300     		.2byte	0x3
 3897 02c4 70       		.byte	0x70
 3898 02c5 74       		.sleb128 -12
 3899 02c6 9F       		.byte	0x9f
 3900 02c7 05000000 		.4byte	.LVL37-1
 3901 02cb 06000000 		.4byte	.LFE330
 3902 02cf 0400     		.2byte	0x4
 3903 02d1 F3       		.byte	0xf3
 3904 02d2 01       		.uleb128 0x1
 3905 02d3 50       		.byte	0x50
 3906 02d4 9F       		.byte	0x9f
 3907 02d5 00000000 		.4byte	0
 3908 02d9 00000000 		.4byte	0
 3909              	.LLST25:
 3910 02dd 00000000 		.4byte	.LVL35
 3911 02e1 02000000 		.4byte	.LVL36
 3912 02e5 0300     		.2byte	0x3
 3913 02e7 70       		.byte	0x70
 3914 02e8 0C       		.sleb128 12
 3915 02e9 9F       		.byte	0x9f
 3916 02ea 02000000 		.4byte	.LVL36
 3917 02ee 05000000 		.4byte	.LVL37-1
 3918 02f2 0100     		.2byte	0x1
 3919 02f4 50       		.byte	0x50
 3920 02f5 05000000 		.4byte	.LVL37-1
 3921 02f9 06000000 		.4byte	.LFE330
 3922 02fd 0600     		.2byte	0x6
 3923 02ff F3       		.byte	0xf3
 3924 0300 01       		.uleb128 0x1
 3925 0301 50       		.byte	0x50
 3926 0302 23       		.byte	0x23
 3927 0303 0C       		.uleb128 0xc
 3928 0304 9F       		.byte	0x9f
 3929 0305 00000000 		.4byte	0
 3930 0309 00000000 		.4byte	0
 3931              	.LLST26:
 3932 030d 00000000 		.4byte	.LVL38
 3933 0311 02000000 		.4byte	.LVL39
ARM GAS  /tmp/ccFmpp4g.s 			page 70


 3934 0315 0100     		.2byte	0x1
 3935 0317 50       		.byte	0x50
 3936 0318 02000000 		.4byte	.LVL39
 3937 031c 05000000 		.4byte	.LVL40-1
 3938 0320 0300     		.2byte	0x3
 3939 0322 70       		.byte	0x70
 3940 0323 74       		.sleb128 -12
 3941 0324 9F       		.byte	0x9f
 3942 0325 05000000 		.4byte	.LVL40-1
 3943 0329 06000000 		.4byte	.LFE331
 3944 032d 0400     		.2byte	0x4
 3945 032f F3       		.byte	0xf3
 3946 0330 01       		.uleb128 0x1
 3947 0331 50       		.byte	0x50
 3948 0332 9F       		.byte	0x9f
 3949 0333 00000000 		.4byte	0
 3950 0337 00000000 		.4byte	0
 3951              	.LLST27:
 3952 033b 00000000 		.4byte	.LVL38
 3953 033f 02000000 		.4byte	.LVL39
 3954 0343 0300     		.2byte	0x3
 3955 0345 70       		.byte	0x70
 3956 0346 0C       		.sleb128 12
 3957 0347 9F       		.byte	0x9f
 3958 0348 02000000 		.4byte	.LVL39
 3959 034c 05000000 		.4byte	.LVL40-1
 3960 0350 0100     		.2byte	0x1
 3961 0352 50       		.byte	0x50
 3962 0353 05000000 		.4byte	.LVL40-1
 3963 0357 06000000 		.4byte	.LFE331
 3964 035b 0600     		.2byte	0x6
 3965 035d F3       		.byte	0xf3
 3966 035e 01       		.uleb128 0x1
 3967 035f 50       		.byte	0x50
 3968 0360 23       		.byte	0x23
 3969 0361 0C       		.uleb128 0xc
 3970 0362 9F       		.byte	0x9f
 3971 0363 00000000 		.4byte	0
 3972 0367 00000000 		.4byte	0
 3973              		.section	.debug_aranges,"",%progbits
 3974 0000 5C000000 		.4byte	0x5c
 3975 0004 0200     		.2byte	0x2
 3976 0006 00000000 		.4byte	.Ldebug_info0
 3977 000a 04       		.byte	0x4
 3978 000b 00       		.byte	0
 3979 000c 0000     		.2byte	0
 3980 000e 0000     		.2byte	0
 3981 0010 00000000 		.4byte	.LFB323
 3982 0014 04000000 		.4byte	.LFE323-.LFB323
 3983 0018 00000000 		.4byte	.LFB324
 3984 001c 0E000000 		.4byte	.LFE324-.LFB324
 3985 0020 00000000 		.4byte	.LFB325
 3986 0024 28000000 		.4byte	.LFE325-.LFB325
 3987 0028 00000000 		.4byte	.LFB326
 3988 002c 26000000 		.4byte	.LFE326-.LFB326
 3989 0030 00000000 		.4byte	.LFB327
 3990 0034 04000000 		.4byte	.LFE327-.LFB327
ARM GAS  /tmp/ccFmpp4g.s 			page 71


 3991 0038 00000000 		.4byte	.LFB328
 3992 003c 52000000 		.4byte	.LFE328-.LFB328
 3993 0040 00000000 		.4byte	.LFB329
 3994 0044 4A000000 		.4byte	.LFE329-.LFB329
 3995 0048 00000000 		.4byte	.LFB330
 3996 004c 06000000 		.4byte	.LFE330-.LFB330
 3997 0050 00000000 		.4byte	.LFB331
 3998 0054 06000000 		.4byte	.LFE331-.LFB331
 3999 0058 00000000 		.4byte	0
 4000 005c 00000000 		.4byte	0
 4001              		.section	.debug_ranges,"",%progbits
 4002              	.Ldebug_ranges0:
 4003 0000 00000000 		.4byte	.LFB323
 4004 0004 04000000 		.4byte	.LFE323
 4005 0008 00000000 		.4byte	.LFB324
 4006 000c 0E000000 		.4byte	.LFE324
 4007 0010 00000000 		.4byte	.LFB325
 4008 0014 28000000 		.4byte	.LFE325
 4009 0018 00000000 		.4byte	.LFB326
 4010 001c 26000000 		.4byte	.LFE326
 4011 0020 00000000 		.4byte	.LFB327
 4012 0024 04000000 		.4byte	.LFE327
 4013 0028 00000000 		.4byte	.LFB328
 4014 002c 52000000 		.4byte	.LFE328
 4015 0030 00000000 		.4byte	.LFB329
 4016 0034 4A000000 		.4byte	.LFE329
 4017 0038 00000000 		.4byte	.LFB330
 4018 003c 06000000 		.4byte	.LFE330
 4019 0040 00000000 		.4byte	.LFB331
 4020 0044 06000000 		.4byte	.LFE331
 4021 0048 00000000 		.4byte	0
 4022 004c 00000000 		.4byte	0
 4023              		.section	.debug_line,"",%progbits
 4024              	.Ldebug_line0:
 4025 0000 AE040000 		.section	.debug_str,"MS",%progbits,1
 4025      02006103 
 4025      00000201 
 4025      FB0E0D00 
 4025      01010101 
 4026              	.LASF138:
 4027 0000 5354445F 		.ascii	"STD_DUTY_CYCLE\000"
 4027      44555459 
 4027      5F435943 
 4027      4C4500
 4028              	.LASF154:
 4029 000f 646D6172 		.ascii	"dmarx\000"
 4029      7800
 4030              	.LASF141:
 4031 0015 69326364 		.ascii	"i2cdutycycle_t\000"
 4031      75747963 
 4031      79636C65 
 4031      5F7400
 4032              	.LASF56:
 4033 0024 72656164 		.ascii	"ready_list_t\000"
 4033      795F6C69 
 4033      73745F74 
 4033      00
ARM GAS  /tmp/ccFmpp4g.s 			page 72


 4034              	.LASF80:
 4035 0031 4D304152 		.ascii	"M0AR\000"
 4035      00
 4036              	.LASF4:
 4037 0036 73697A65 		.ascii	"size_t\000"
 4037      5F7400
 4038              	.LASF62:
 4039 003d 64656C74 		.ascii	"delta\000"
 4039      6100
 4040              	.LASF104:
 4041 0043 7264796D 		.ascii	"rdymsg\000"
 4041      736700
 4042              	.LASF20:
 4043 004a 75696E74 		.ascii	"uint64_t\000"
 4043      36345F74 
 4043      00
 4044              	.LASF75:
 4045 0053 6B65726E 		.ascii	"kernel_stats\000"
 4045      656C5F73 
 4045      74617473 
 4045      00
 4046              	.LASF5:
 4047 0060 5F5F7569 		.ascii	"__uint8_t\000"
 4047      6E74385F 
 4047      7400
 4048              	.LASF126:
 4049 006a 4932435F 		.ascii	"I2C_STOP\000"
 4049      53544F50 
 4049      00
 4050              	.LASF55:
 4051 0073 70726576 		.ascii	"prev\000"
 4051      00
 4052              	.LASF91:
 4053 0078 706F7274 		.ascii	"port_intctx\000"
 4053      5F696E74 
 4053      63747800 
 4054              	.LASF54:
 4055 0084 63685F74 		.ascii	"ch_threads_queue\000"
 4055      68726561 
 4055      64735F71 
 4055      75657565 
 4055      00
 4056              	.LASF67:
 4057 0095 73797374 		.ascii	"system_debug_t\000"
 4057      656D5F64 
 4057      65627567 
 4057      5F7400
 4058              	.LASF191:
 4059 00a4 6932635F 		.ascii	"i2c_lld_master_receive_timeout\000"
 4059      6C6C645F 
 4059      6D617374 
 4059      65725F72 
 4059      65636569 
 4060              	.LASF85:
 4061 00c3 54524953 		.ascii	"TRISE\000"
 4061      4500
 4062              	.LASF118:
ARM GAS  /tmp/ccFmpp4g.s 			page 73


 4063 00c9 73747265 		.ascii	"stream\000"
 4063      616D00
 4064              	.LASF156:
 4065 00d0 706F7274 		.ascii	"port_lock\000"
 4065      5F6C6F63 
 4065      6B00
 4066              	.LASF95:
 4067 00da 776F7273 		.ascii	"worst\000"
 4067      7400
 4068              	.LASF98:
 4069 00e0 74696D65 		.ascii	"time_measurement_t\000"
 4069      5F6D6561 
 4069      73757265 
 4069      6D656E74 
 4069      5F7400
 4070              	.LASF15:
 4071 00f3 6C6F6E67 		.ascii	"long long unsigned int\000"
 4071      206C6F6E 
 4071      6720756E 
 4071      7369676E 
 4071      65642069 
 4072              	.LASF105:
 4073 010a 65786974 		.ascii	"exitcode\000"
 4073      636F6465 
 4073      00
 4074              	.LASF182:
 4075 0113 69326352 		.ascii	"i2cReleaseBus\000"
 4075      656C6561 
 4075      73654275 
 4075      7300
 4076              	.LASF108:
 4077 0121 73656E74 		.ascii	"sentmsg\000"
 4077      6D736700 
 4078              	.LASF64:
 4079 0129 76697274 		.ascii	"virtual_timers_list_t\000"
 4079      75616C5F 
 4079      74696D65 
 4079      72735F6C 
 4079      6973745F 
 4080              	.LASF183:
 4081 013f 49544D5F 		.ascii	"ITM_RxBuffer\000"
 4081      52784275 
 4081      66666572 
 4081      00
 4082              	.LASF170:
 4083 014c 69326370 		.ascii	"i2cp\000"
 4083      00
 4084              	.LASF52:
 4085 0151 6E657874 		.ascii	"next\000"
 4085      00
 4086              	.LASF22:
 4087 0156 72747469 		.ascii	"rttime_t\000"
 4087      6D655F74 
 4087      00
 4088              	.LASF127:
 4089 015f 4932435F 		.ascii	"I2C_READY\000"
 4089      52454144 
ARM GAS  /tmp/ccFmpp4g.s 			page 74


 4089      5900
 4090              	.LASF174:
 4091 0169 6932634D 		.ascii	"i2cMasterTransmitTimeout\000"
 4091      61737465 
 4091      72547261 
 4091      6E736D69 
 4091      7454696D 
 4092              	.LASF159:
 4093 0182 6F73616C 		.ascii	"osalMutexObjectInit\000"
 4093      4D757465 
 4093      784F626A 
 4093      65637449 
 4093      6E697400 
 4094              	.LASF116:
 4095 0196 6D757465 		.ascii	"mutex_t\000"
 4095      785F7400 
 4096              	.LASF193:
 4097 019e 63684D74 		.ascii	"chMtxUnlock\000"
 4097      78556E6C 
 4097      6F636B00 
 4098              	.LASF3:
 4099 01aa 7369676E 		.ascii	"signed char\000"
 4099      65642063 
 4099      68617200 
 4100              	.LASF143:
 4101 01b6 636C6F63 		.ascii	"clock_speed\000"
 4101      6B5F7370 
 4101      65656400 
 4102              	.LASF177:
 4103 01c2 72786275 		.ascii	"rxbuf\000"
 4103      6600
 4104              	.LASF190:
 4105 01c8 6932635F 		.ascii	"i2c_lld_master_transmit_timeout\000"
 4105      6C6C645F 
 4105      6D617374 
 4105      65725F74 
 4105      72616E73 
 4106              	.LASF151:
 4107 01e8 61646472 		.ascii	"addr\000"
 4107      00
 4108              	.LASF160:
 4109 01ed 62617365 		.ascii	"basePri\000"
 4109      50726900 
 4110              	.LASF73:
 4111 01f5 76746C69 		.ascii	"vtlist\000"
 4111      737400
 4112              	.LASF157:
 4113 01fc 706F7274 		.ascii	"port_unlock\000"
 4113      5F756E6C 
 4113      6F636B00 
 4114              	.LASF42:
 4115 0208 6D736771 		.ascii	"msgqueue\000"
 4115      75657565 
 4115      00
 4116              	.LASF132:
 4117 0211 69326361 		.ascii	"i2caddr_t\000"
 4117      6464725F 
ARM GAS  /tmp/ccFmpp4g.s 			page 75


 4117      7400
 4118              	.LASF38:
 4119 021b 73746174 		.ascii	"state\000"
 4119      6500
 4120              	.LASF11:
 4121 0221 6C6F6E67 		.ascii	"long int\000"
 4121      20696E74 
 4121      00
 4122              	.LASF24:
 4123 022a 74737461 		.ascii	"tstate_t\000"
 4123      74655F74 
 4123      00
 4124              	.LASF63:
 4125 0233 66756E63 		.ascii	"func\000"
 4125      00
 4126              	.LASF47:
 4127 0238 73746174 		.ascii	"stats\000"
 4127      7300
 4128              	.LASF86:
 4129 023e 464C5452 		.ascii	"FLTR\000"
 4129      00
 4130              	.LASF121:
 4131 0243 73686966 		.ascii	"shift\000"
 4131      7400
 4132              	.LASF152:
 4133 0249 7278646D 		.ascii	"rxdmamode\000"
 4133      616D6F64 
 4133      6500
 4134              	.LASF155:
 4135 0253 646D6174 		.ascii	"dmatx\000"
 4135      7800
 4136              	.LASF136:
 4137 0259 4F504D4F 		.ascii	"OPMODE_SMBUS_HOST\000"
 4137      44455F53 
 4137      4D425553 
 4137      5F484F53 
 4137      5400
 4138              	.LASF12:
 4139 026b 5F5F7569 		.ascii	"__uint32_t\000"
 4139      6E743332 
 4139      5F7400
 4140              	.LASF88:
 4141 0276 72656761 		.ascii	"regarm_t\000"
 4141      726D5F74 
 4141      00
 4142              	.LASF122:
 4143 027f 73656C66 		.ascii	"selfindex\000"
 4143      696E6465 
 4143      7800
 4144              	.LASF120:
 4145 0289 64756D6D 		.ascii	"dummy\000"
 4145      7900
 4146              	.LASF41:
 4147 028f 77616974 		.ascii	"waiting\000"
 4147      696E6700 
 4148              	.LASF162:
 4149 0297 6F73616C 		.ascii	"osalSysLock\000"
ARM GAS  /tmp/ccFmpp4g.s 			page 76


 4149      5379734C 
 4149      6F636B00 
 4150              	.LASF153:
 4151 02a3 7478646D 		.ascii	"txdmamode\000"
 4151      616D6F64 
 4151      6500
 4152              	.LASF1:
 4153 02ad 6C6F6E67 		.ascii	"long long int\000"
 4153      206C6F6E 
 4153      6720696E 
 4153      7400
 4154              	.LASF77:
 4155 02bb 73797369 		.ascii	"sysinterval_t\000"
 4155      6E746572 
 4155      76616C5F 
 4155      7400
 4156              	.LASF29:
 4157 02c9 636E745F 		.ascii	"cnt_t\000"
 4157      7400
 4158              	.LASF0:
 4159 02cf 756E7369 		.ascii	"unsigned int\000"
 4159      676E6564 
 4159      20696E74 
 4159      00
 4160              	.LASF175:
 4161 02dc 74786275 		.ascii	"txbuf\000"
 4161      6600
 4162              	.LASF109:
 4163 02e2 77747365 		.ascii	"wtsemp\000"
 4163      6D7000
 4164              	.LASF148:
 4165 02e9 6572726F 		.ascii	"errors\000"
 4165      727300
 4166              	.LASF107:
 4167 02f0 77747472 		.ascii	"wttrp\000"
 4167      7000
 4168              	.LASF179:
 4169 02f6 74696D65 		.ascii	"timeout\000"
 4169      6F757400 
 4170              	.LASF19:
 4171 02fe 75696E74 		.ascii	"uint32_t\000"
 4171      33325F74 
 4171      00
 4172              	.LASF99:
 4173 0307 6E5F6972 		.ascii	"n_irq\000"
 4173      7100
 4174              	.LASF32:
 4175 030d 71756575 		.ascii	"queue\000"
 4175      6500
 4176              	.LASF46:
 4177 0313 6D706F6F 		.ascii	"mpool\000"
 4177      6C00
 4178              	.LASF135:
 4179 0319 4F504D4F 		.ascii	"OPMODE_SMBUS_DEVICE\000"
 4179      44455F53 
 4179      4D425553 
 4179      5F444556 
ARM GAS  /tmp/ccFmpp4g.s 			page 77


 4179      49434500 
 4180              	.LASF9:
 4181 032d 73686F72 		.ascii	"short unsigned int\000"
 4181      7420756E 
 4181      7369676E 
 4181      65642069 
 4181      6E7400
 4182              	.LASF103:
 4183 0340 6B65726E 		.ascii	"kernel_stats_t\000"
 4183      656C5F73 
 4183      74617473 
 4183      5F7400
 4184              	.LASF146:
 4185 034f 49324344 		.ascii	"I2CDriver\000"
 4185      72697665 
 4185      7200
 4186              	.LASF50:
 4187 0359 63685F74 		.ascii	"ch_thread\000"
 4187      68726561 
 4187      6400
 4188              	.LASF74:
 4189 0363 6D61696E 		.ascii	"mainthread\000"
 4189      74687265 
 4189      616400
 4190              	.LASF36:
 4191 036e 6E616D65 		.ascii	"name\000"
 4191      00
 4192              	.LASF27:
 4193 0373 6D73675F 		.ascii	"msg_t\000"
 4193      7400
 4194              	.LASF96:
 4195 0379 6C617374 		.ascii	"last\000"
 4195      00
 4196              	.LASF30:
 4197 037e 75636E74 		.ascii	"ucnt_t\000"
 4197      5F7400
 4198              	.LASF43:
 4199 0385 6570656E 		.ascii	"epending\000"
 4199      64696E67 
 4199      00
 4200              	.LASF70:
 4201 038e 63685F73 		.ascii	"ch_system_t\000"
 4201      79737465 
 4201      6D5F7400 
 4202              	.LASF23:
 4203 039a 746D6F64 		.ascii	"tmode_t\000"
 4203      655F7400 
 4204              	.LASF17:
 4205 03a2 75696E74 		.ascii	"uint16_t\000"
 4205      31365F74 
 4205      00
 4206              	.LASF102:
 4207 03ab 6D5F6372 		.ascii	"m_crit_isr\000"
 4207      69745F69 
 4207      737200
 4208              	.LASF57:
 4209 03b6 63685F72 		.ascii	"ch_ready_list\000"
ARM GAS  /tmp/ccFmpp4g.s 			page 78


 4209      65616479 
 4209      5F6C6973 
 4209      7400
 4210              	.LASF28:
 4211 03c4 6576656E 		.ascii	"eventmask_t\000"
 4211      746D6173 
 4211      6B5F7400 
 4212              	.LASF7:
 4213 03d0 73686F72 		.ascii	"short int\000"
 4213      7420696E 
 4213      7400
 4214              	.LASF10:
 4215 03da 5F5F696E 		.ascii	"__int32_t\000"
 4215      7433325F 
 4215      7400
 4216              	.LASF89:
 4217 03e4 73746B61 		.ascii	"stkalign_t\000"
 4217      6C69676E 
 4217      5F7400
 4218              	.LASF189:
 4219 03ef 6932635F 		.ascii	"i2c_lld_stop\000"
 4219      6C6C645F 
 4219      73746F70 
 4219      00
 4220              	.LASF45:
 4221 03fc 7265616C 		.ascii	"realprio\000"
 4221      7072696F 
 4221      00
 4222              	.LASF188:
 4223 0405 6932635F 		.ascii	"i2c_lld_start\000"
 4223      6C6C645F 
 4223      73746172 
 4223      7400
 4224              	.LASF187:
 4225 0413 5F737461 		.ascii	"_stats_stop_measure_crit_thd\000"
 4225      74735F73 
 4225      746F705F 
 4225      6D656173 
 4225      7572655F 
 4226              	.LASF78:
 4227 0430 73697A65 		.ascii	"sizetype\000"
 4227      74797065 
 4227      00
 4228              	.LASF48:
 4229 0439 74687265 		.ascii	"thread_reference_t\000"
 4229      61645F72 
 4229      65666572 
 4229      656E6365 
 4229      5F7400
 4230              	.LASF65:
 4231 044c 63685F76 		.ascii	"ch_virtual_timers_list\000"
 4231      69727475 
 4231      616C5F74 
 4231      696D6572 
 4231      735F6C69 
 4232              	.LASF2:
 4233 0463 6C6F6E67 		.ascii	"long double\000"
ARM GAS  /tmp/ccFmpp4g.s 			page 79


 4233      20646F75 
 4233      626C6500 
 4234              	.LASF169:
 4235 046f 69326353 		.ascii	"i2cStart\000"
 4235      74617274 
 4235      00
 4236              	.LASF195:
 4237 0478 2E2E2F2E 		.ascii	"../../modules/ChibiOS/os/hal/src/hal_i2c.c\000"
 4237      2E2F6D6F 
 4237      64756C65 
 4237      732F4368 
 4237      6962694F 
 4238              	.LASF144:
 4239 04a3 64757479 		.ascii	"duty_cycle\000"
 4239      5F637963 
 4239      6C6500
 4240              	.LASF186:
 4241 04ae 5F737461 		.ascii	"_stats_start_measure_crit_thd\000"
 4241      74735F73 
 4241      74617274 
 4241      5F6D6561 
 4241      73757265 
 4242              	.LASF192:
 4243 04cc 63684D74 		.ascii	"chMtxLock\000"
 4243      784C6F63 
 4243      6B00
 4244              	.LASF178:
 4245 04d6 72786279 		.ascii	"rxbytes\000"
 4245      74657300 
 4246              	.LASF171:
 4247 04de 69326353 		.ascii	"i2cStop\000"
 4247      746F7000 
 4248              	.LASF90:
 4249 04e6 706F7274 		.ascii	"port_context\000"
 4249      5F636F6E 
 4249      74657874 
 4249      00
 4250              	.LASF194:
 4251 04f3 474E5520 		.ascii	"GNU C11 5.4.1 20160919 -mcpu=cortex-m4 -mfloat-abi="
 4251      43313120 
 4251      352E342E 
 4251      31203230 
 4251      31363039 
 4252 0526 68617264 		.ascii	"hard -mfpu=fpv4-sp-d16 -mno-thumb-interwork -mthumb"
 4252      202D6D66 
 4252      70753D66 
 4252      7076342D 
 4252      73702D64 
 4253 0559 202D6720 		.ascii	" -g -Os -fomit-frame-pointer -falign-functions=16 -"
 4253      2D4F7320 
 4253      2D666F6D 
 4253      69742D66 
 4253      72616D65 
 4254 058c 6666756E 		.ascii	"ffunction-sections -fdata-sections -fno-common -fsi"
 4254      6374696F 
 4254      6E2D7365 
 4254      6374696F 
ARM GAS  /tmp/ccFmpp4g.s 			page 80


 4254      6E73202D 
 4255 05bf 6E676C65 		.ascii	"ngle-precision-constant\000"
 4255      2D707265 
 4255      63697369 
 4255      6F6E2D63 
 4255      6F6E7374 
 4256              	.LASF93:
 4257 05d7 746D5F63 		.ascii	"tm_calibration_t\000"
 4257      616C6962 
 4257      72617469 
 4257      6F6E5F74 
 4257      00
 4258              	.LASF134:
 4259 05e8 4F504D4F 		.ascii	"OPMODE_I2C\000"
 4259      44455F49 
 4259      324300
 4260              	.LASF33:
 4261 05f3 7072696F 		.ascii	"prio\000"
 4261      00
 4262              	.LASF176:
 4263 05f8 74786279 		.ascii	"txbytes\000"
 4263      74657300 
 4264              	.LASF58:
 4265 0600 63757272 		.ascii	"current\000"
 4265      656E7400 
 4266              	.LASF14:
 4267 0608 5F5F7569 		.ascii	"__uint64_t\000"
 4267      6E743634 
 4267      5F7400
 4268              	.LASF97:
 4269 0613 63756D75 		.ascii	"cumulative\000"
 4269      6C617469 
 4269      766500
 4270              	.LASF34:
 4271 061e 6E657765 		.ascii	"newer\000"
 4271      7200
 4272              	.LASF25:
 4273 0624 74726566 		.ascii	"trefs_t\000"
 4273      735F7400 
 4274              	.LASF131:
 4275 062c 69326373 		.ascii	"i2cstate_t\000"
 4275      74617465 
 4275      5F7400
 4276              	.LASF140:
 4277 0637 46415354 		.ascii	"FAST_DUTY_CYCLE_16_9\000"
 4277      5F445554 
 4277      595F4359 
 4277      434C455F 
 4277      31365F39 
 4278              	.LASF40:
 4279 064c 72656673 		.ascii	"refs\000"
 4279      00
 4280              	.LASF60:
 4281 0651 76697274 		.ascii	"virtual_timer_t\000"
 4281      75616C5F 
 4281      74696D65 
 4281      725F7400 
ARM GAS  /tmp/ccFmpp4g.s 			page 81


 4282              	.LASF124:
 4283 0661 73746D33 		.ascii	"stm32_dma_stream_t\000"
 4283      325F646D 
 4283      615F7374 
 4283      7265616D 
 4283      5F7400
 4284              	.LASF181:
 4285 0674 69326341 		.ascii	"i2cAcquireBus\000"
 4285      63717569 
 4285      72654275 
 4285      7300
 4286              	.LASF26:
 4287 0682 74707269 		.ascii	"tprio_t\000"
 4287      6F5F7400 
 4288              	.LASF128:
 4289 068a 4932435F 		.ascii	"I2C_ACTIVE_TX\000"
 4289      41435449 
 4289      56455F54 
 4289      5800
 4290              	.LASF133:
 4291 0698 69326366 		.ascii	"i2cflags_t\000"
 4291      6C616773 
 4291      5F7400
 4292              	.LASF149:
 4293 06a3 6D757465 		.ascii	"mutex\000"
 4293      7800
 4294              	.LASF100:
 4295 06a9 6E5F6374 		.ascii	"n_ctxswc\000"
 4295      78737763 
 4295      00
 4296              	.LASF117:
 4297 06b2 5F426F6F 		.ascii	"_Bool\000"
 4297      6C00
 4298              	.LASF18:
 4299 06b8 696E7433 		.ascii	"int32_t\000"
 4299      325F7400 
 4300              	.LASF6:
 4301 06c0 756E7369 		.ascii	"unsigned char\000"
 4301      676E6564 
 4301      20636861 
 4301      7200
 4302              	.LASF142:
 4303 06ce 6F705F6D 		.ascii	"op_mode\000"
 4303      6F646500 
 4304              	.LASF125:
 4305 06d6 4932435F 		.ascii	"I2C_UNINIT\000"
 4305      554E494E 
 4305      495400
 4306              	.LASF66:
 4307 06e1 6C617374 		.ascii	"lasttime\000"
 4307      74696D65 
 4307      00
 4308              	.LASF173:
 4309 06ea 69326347 		.ascii	"i2cGetErrors\000"
 4309      65744572 
 4309      726F7273 
 4309      00
ARM GAS  /tmp/ccFmpp4g.s 			page 82


 4310              	.LASF111:
 4311 06f7 65776D61 		.ascii	"ewmask\000"
 4311      736B00
 4312              	.LASF71:
 4313 06fe 63685F73 		.ascii	"ch_system\000"
 4313      79737465 
 4313      6D00
 4314              	.LASF172:
 4315 0708 5F5F6675 		.ascii	"__func__\000"
 4315      6E635F5F 
 4315      00
 4316              	.LASF168:
 4317 0711 63685379 		.ascii	"chSysLock\000"
 4317      734C6F63 
 4317      6B00
 4318              	.LASF161:
 4319 071b 6F73616C 		.ascii	"osalSysUnlock\000"
 4319      53797355 
 4319      6E6C6F63 
 4319      6B00
 4320              	.LASF185:
 4321 0729 63684D74 		.ascii	"chMtxObjectInit\000"
 4321      784F626A 
 4321      65637449 
 4321      6E697400 
 4322              	.LASF139:
 4323 0739 46415354 		.ascii	"FAST_DUTY_CYCLE_2\000"
 4323      5F445554 
 4323      595F4359 
 4323      434C455F 
 4323      3200
 4324              	.LASF130:
 4325 074b 4932435F 		.ascii	"I2C_LOCKED\000"
 4325      4C4F434B 
 4325      454400
 4326              	.LASF112:
 4327 0756 63685F73 		.ascii	"ch_semaphore\000"
 4327      656D6170 
 4327      686F7265 
 4327      00
 4328              	.LASF119:
 4329 0763 69666372 		.ascii	"ifcr\000"
 4329      00
 4330              	.LASF196:
 4331 0768 2F686F6D 		.ascii	"/home/user/csse4011/project/4011-surfbee/ardupilot/"
 4331      652F7573 
 4331      65722F63 
 4331      73736534 
 4331      3031312F 
 4332 079b 6275696C 		.ascii	"build/stm32l475\000"
 4332      642F7374 
 4332      6D33326C 
 4332      34373500 
 4333              	.LASF110:
 4334 07ab 77746D74 		.ascii	"wtmtxp\000"
 4334      787000
 4335              	.LASF51:
ARM GAS  /tmp/ccFmpp4g.s 			page 83


 4336 07b2 63685F74 		.ascii	"ch_threads_list\000"
 4336      68726561 
 4336      64735F6C 
 4336      69737400 
 4337              	.LASF114:
 4338 07c2 6F776E65 		.ascii	"owner\000"
 4338      7200
 4339              	.LASF129:
 4340 07c8 4932435F 		.ascii	"I2C_ACTIVE_RX\000"
 4340      41435449 
 4340      56455F52 
 4340      5800
 4341              	.LASF13:
 4342 07d6 6C6F6E67 		.ascii	"long unsigned int\000"
 4342      20756E73 
 4342      69676E65 
 4342      6420696E 
 4342      7400
 4343              	.LASF37:
 4344 07e8 77616261 		.ascii	"wabase\000"
 4344      736500
 4345              	.LASF115:
 4346 07ef 63686172 		.ascii	"char\000"
 4346      00
 4347              	.LASF35:
 4348 07f4 6F6C6465 		.ascii	"older\000"
 4348      7200
 4349              	.LASF147:
 4350 07fa 636F6E66 		.ascii	"config\000"
 4350      696700
 4351              	.LASF164:
 4352 0801 6F73616C 		.ascii	"osalMutexUnlock\000"
 4352      4D757465 
 4352      78556E6C 
 4352      6F636B00 
 4353              	.LASF8:
 4354 0811 5F5F7569 		.ascii	"__uint16_t\000"
 4354      6E743136 
 4354      5F7400
 4355              	.LASF31:
 4356 081c 74687265 		.ascii	"thread_t\000"
 4356      61645F74 
 4356      00
 4357              	.LASF94:
 4358 0825 62657374 		.ascii	"best\000"
 4358      00
 4359              	.LASF76:
 4360 082a 73797374 		.ascii	"systime_t\000"
 4360      696D655F 
 4360      7400
 4361              	.LASF59:
 4362 0834 76746675 		.ascii	"vtfunc_t\000"
 4362      6E635F74 
 4362      00
 4363              	.LASF158:
 4364 083d 5F5F7365 		.ascii	"__set_BASEPRI\000"
 4364      745F4241 
ARM GAS  /tmp/ccFmpp4g.s 			page 84


 4364      53455052 
 4364      4900
 4365              	.LASF163:
 4366 084b 6F73616C 		.ascii	"osalMutexLock\000"
 4366      4D757465 
 4366      784C6F63 
 4366      6B00
 4367              	.LASF79:
 4368 0859 4E445452 		.ascii	"NDTR\000"
 4368      00
 4369              	.LASF69:
 4370 085e 70616E69 		.ascii	"panic_msg\000"
 4370      635F6D73 
 4370      6700
 4371              	.LASF92:
 4372 0868 6F666673 		.ascii	"offset\000"
 4372      657400
 4373              	.LASF82:
 4374 086f 444D415F 		.ascii	"DMA_Stream_TypeDef\000"
 4374      53747265 
 4374      616D5F54 
 4374      79706544 
 4374      656600
 4375              	.LASF113:
 4376 0882 63685F6D 		.ascii	"ch_mutex\000"
 4376      75746578 
 4376      00
 4377              	.LASF166:
 4378 088b 6932634F 		.ascii	"i2cObjectInit\000"
 4378      626A6563 
 4378      74496E69 
 4378      7400
 4379              	.LASF61:
 4380 0899 63685F76 		.ascii	"ch_virtual_timer\000"
 4380      69727475 
 4380      616C5F74 
 4380      696D6572 
 4380      00
 4381              	.LASF21:
 4382 08aa 7274636E 		.ascii	"rtcnt_t\000"
 4382      745F7400 
 4383              	.LASF81:
 4384 08b2 4D314152 		.ascii	"M1AR\000"
 4384      00
 4385              	.LASF145:
 4386 08b7 49324343 		.ascii	"I2CConfig\000"
 4386      6F6E6669 
 4386      6700
 4387              	.LASF53:
 4388 08c1 74687265 		.ascii	"threads_queue_t\000"
 4388      6164735F 
 4388      71756575 
 4388      655F7400 
 4389              	.LASF184:
 4390 08d1 6932635F 		.ascii	"i2c_lld_init\000"
 4390      6C6C645F 
 4390      696E6974 
ARM GAS  /tmp/ccFmpp4g.s 			page 85


 4390      00
 4391              	.LASF72:
 4392 08de 726C6973 		.ascii	"rlist\000"
 4392      7400
 4393              	.LASF16:
 4394 08e4 75696E74 		.ascii	"uint8_t\000"
 4394      385F7400 
 4395              	.LASF83:
 4396 08ec 4F415231 		.ascii	"OAR1\000"
 4396      00
 4397              	.LASF84:
 4398 08f1 4F415232 		.ascii	"OAR2\000"
 4398      00
 4399              	.LASF39:
 4400 08f6 666C6167 		.ascii	"flags\000"
 4400      7300
 4401              	.LASF180:
 4402 08fc 6932634D 		.ascii	"i2cMasterReceiveTimeout\000"
 4402      61737465 
 4402      72526563 
 4402      65697665 
 4402      54696D65 
 4403              	.LASF106:
 4404 0914 77746F62 		.ascii	"wtobjp\000"
 4404      6A7000
 4405              	.LASF49:
 4406 091b 74687265 		.ascii	"threads_list_t\000"
 4406      6164735F 
 4406      6C697374 
 4406      5F7400
 4407              	.LASF165:
 4408 092a 69326349 		.ascii	"i2cInit\000"
 4408      6E697400 
 4409              	.LASF167:
 4410 0932 63685379 		.ascii	"chSysUnlock\000"
 4410      73556E6C 
 4410      6F636B00 
 4411              	.LASF68:
 4412 093e 63685F73 		.ascii	"ch_system_debug\000"
 4412      79737465 
 4412      6D5F6465 
 4412      62756700 
 4413              	.LASF87:
 4414 094e 4932435F 		.ascii	"I2C_TypeDef\000"
 4414      54797065 
 4414      44656600 
 4415              	.LASF137:
 4416 095a 6932636F 		.ascii	"i2copmode_t\000"
 4416      706D6F64 
 4416      655F7400 
 4417              	.LASF150:
 4418 0966 74687265 		.ascii	"thread\000"
 4418      616400
 4419              	.LASF44:
 4420 096d 6D74786C 		.ascii	"mtxlist\000"
 4420      69737400 
 4421              	.LASF101:
ARM GAS  /tmp/ccFmpp4g.s 			page 86


 4422 0975 6D5F6372 		.ascii	"m_crit_thd\000"
 4422      69745F74 
 4422      686400
 4423              	.LASF123:
 4424 0980 76656374 		.ascii	"vector\000"
 4424      6F7200
 4425              		.ident	"GCC: (15:5.4.1+svn241155-1) 5.4.1 20160919"
ARM GAS  /tmp/ccFmpp4g.s 			page 87


DEFINED SYMBOLS
                            *ABS*:0000000000000000 hal_i2c.c
     /tmp/ccFmpp4g.s:22     .text.i2cInit:0000000000000000 $t
     /tmp/ccFmpp4g.s:27     .text.i2cInit:0000000000000000 i2cInit
     /tmp/ccFmpp4g.s:42     .text.i2cObjectInit:0000000000000000 $t
     /tmp/ccFmpp4g.s:47     .text.i2cObjectInit:0000000000000000 i2cObjectInit
     /tmp/ccFmpp4g.s:76     .text.i2cStart:0000000000000000 $t
     /tmp/ccFmpp4g.s:81     .text.i2cStart:0000000000000000 i2cStart
     /tmp/ccFmpp4g.s:162    .text.i2cStop:0000000000000000 $t
     /tmp/ccFmpp4g.s:167    .text.i2cStop:0000000000000000 i2cStop
     /tmp/ccFmpp4g.s:246    .text.i2cGetErrors:0000000000000000 $t
     /tmp/ccFmpp4g.s:251    .text.i2cGetErrors:0000000000000000 i2cGetErrors
     /tmp/ccFmpp4g.s:267    .text.i2cMasterTransmitTimeout:0000000000000000 $t
     /tmp/ccFmpp4g.s:272    .text.i2cMasterTransmitTimeout:0000000000000000 i2cMasterTransmitTimeout
     /tmp/ccFmpp4g.s:383    .text.i2cMasterReceiveTimeout:0000000000000000 $t
     /tmp/ccFmpp4g.s:388    .text.i2cMasterReceiveTimeout:0000000000000000 i2cMasterReceiveTimeout
     /tmp/ccFmpp4g.s:494    .text.i2cAcquireBus:0000000000000000 $t
     /tmp/ccFmpp4g.s:499    .text.i2cAcquireBus:0000000000000000 i2cAcquireBus
     /tmp/ccFmpp4g.s:520    .text.i2cReleaseBus:0000000000000000 $t
     /tmp/ccFmpp4g.s:525    .text.i2cReleaseBus:0000000000000000 i2cReleaseBus
                     .debug_frame:0000000000000010 $d

UNDEFINED SYMBOLS
i2c_lld_init
chMtxObjectInit
_stats_start_measure_crit_thd
i2c_lld_start
_stats_stop_measure_crit_thd
i2c_lld_stop
i2c_lld_master_transmit_timeout
i2c_lld_master_receive_timeout
chMtxLock
chMtxUnlock
