ARM GAS  /tmp/ccnd1HRZ.s 			page 1


   1              		.syntax unified
   2              		.cpu cortex-m4
   3              		.eabi_attribute 27, 1
   4              		.eabi_attribute 28, 1
   5              		.fpu fpv4-sp-d16
   6              		.eabi_attribute 20, 1
   7              		.eabi_attribute 21, 1
   8              		.eabi_attribute 23, 3
   9              		.eabi_attribute 24, 1
  10              		.eabi_attribute 25, 1
  11              		.eabi_attribute 26, 1
  12              		.eabi_attribute 30, 4
  13              		.eabi_attribute 34, 1
  14              		.eabi_attribute 18, 4
  15              		.thumb
  16              		.syntax unified
  17              		.file	"hal_queues.c"
  18              		.text
  19              	.Ltext0:
  20              		.cfi_sections	.debug_frame
  21              		.section	.text.chSysLock,"ax",%progbits
  22              		.align	1
  23              		.thumb
  24              		.thumb_func
  25              		.type	chSysLock, %function
  26              	chSysLock:
  27              	.LFB184:
  28              		.file 1 "../../modules/ChibiOS/os/rt/include/chsys.h"
  29              		.loc 1 353 0
  30              		.cfi_startproc
  31              		@ args = 0, pretend = 0, frame = 0
  32              		@ frame_needed = 0, uses_anonymous_args = 0
  33              		@ link register save eliminated.
  34              	.LVL0:
  35              	.LBB81:
  36              	.LBB82:
  37              	.LBB83:
  38              		.file 2 "../../modules/ChibiOS/os/common/ext/ARM/CMSIS/Core/Include/cmsis_gcc.h"
  39              		.loc 2 493 0
  40 0000 2023     		movs	r3, #32
  41              		.syntax unified
  42              	@ 493 "../../modules/ChibiOS/os/common/ext/ARM/CMSIS/Core/Include/cmsis_gcc.h" 1
  43 0002 83F31188 		MSR basepri, r3
  44              	@ 0 "" 2
  45              	.LVL1:
  46              		.thumb
  47              		.syntax unified
  48              	.LBE83:
  49              	.LBE82:
  50              	.LBE81:
  51              		.loc 1 356 0
  52 0006 FFF7FEBF 		b	_stats_start_measure_crit_thd
  53              	.LVL2:
  54              		.cfi_endproc
  55              	.LFE184:
  56              		.size	chSysLock, .-chSysLock
  57              		.section	.text.chSysUnlock,"ax",%progbits
ARM GAS  /tmp/ccnd1HRZ.s 			page 2


  58              		.align	1
  59              		.thumb
  60              		.thumb_func
  61              		.type	chSysUnlock, %function
  62              	chSysUnlock:
  63              	.LFB185:
  64              		.loc 1 365 0
  65              		.cfi_startproc
  66              		@ args = 0, pretend = 0, frame = 0
  67              		@ frame_needed = 0, uses_anonymous_args = 0
  68 0000 08B5     		push	{r3, lr}
  69              		.cfi_def_cfa_offset 8
  70              		.cfi_offset 3, -8
  71              		.cfi_offset 14, -4
  72              		.loc 1 368 0
  73 0002 FFF7FEFF 		bl	_stats_stop_measure_crit_thd
  74              	.LVL3:
  75              	.LBB84:
  76              	.LBB85:
  77              	.LBB86:
  78              		.loc 2 493 0
  79 0006 0023     		movs	r3, #0
  80              		.syntax unified
  81              	@ 493 "../../modules/ChibiOS/os/common/ext/ARM/CMSIS/Core/Include/cmsis_gcc.h" 1
  82 0008 83F31188 		MSR basepri, r3
  83              	@ 0 "" 2
  84              	.LVL4:
  85              		.thumb
  86              		.syntax unified
  87 000c 08BD     		pop	{r3, pc}
  88              	.LBE86:
  89              	.LBE85:
  90              	.LBE84:
  91              		.cfi_endproc
  92              	.LFE185:
  93              		.size	chSysUnlock, .-chSysUnlock
  94              		.section	.text.iq_read,"ax",%progbits
  95              		.align	1
  96              		.thumb
  97              		.thumb_func
  98              		.type	iq_read, %function
  99              	iq_read:
 100              	.LFB323:
 101              		.file 3 "../../modules/ChibiOS/os/hal/src/hal_queues.c"
 102              		.loc 3 60 0
 103              		.cfi_startproc
 104              		@ args = 0, pretend = 0, frame = 0
 105              		@ frame_needed = 0, uses_anonymous_args = 0
 106              	.LVL5:
 107 0000 F8B5     		push	{r3, r4, r5, r6, r7, lr}
 108              		.cfi_def_cfa_offset 24
 109              		.cfi_offset 3, -24
 110              		.cfi_offset 4, -20
 111              		.cfi_offset 5, -16
 112              		.cfi_offset 6, -12
 113              		.cfi_offset 7, -8
 114              		.cfi_offset 14, -4
ARM GAS  /tmp/ccnd1HRZ.s 			page 3


 115              		.loc 3 60 0
 116 0002 1546     		mov	r5, r2
 117              		.loc 3 66 0
 118 0004 8268     		ldr	r2, [r0, #8]
 119              	.LVL6:
 120              		.loc 3 72 0
 121 0006 0669     		ldr	r6, [r0, #16]
 122              		.loc 3 66 0
 123 0008 AA42     		cmp	r2, r5
 124              		.loc 3 60 0
 125 000a 0B46     		mov	r3, r1
 126              		.loc 3 72 0
 127 000c 8169     		ldr	r1, [r0, #24]
 128              	.LVL7:
 129              		.loc 3 67 0
 130 000e 38BF     		it	cc
 131 0010 8568     		ldrcc	r5, [r0, #8]
 132              	.LVL8:
 133              		.loc 3 72 0
 134 0012 761A     		subs	r6, r6, r1
 135              	.LVL9:
 136              		.loc 3 74 0
 137 0014 B542     		cmp	r5, r6
 138              		.loc 3 60 0
 139 0016 0446     		mov	r4, r0
 140              		.loc 3 74 0
 141 0018 06D2     		bcs	.L5
 142              		.loc 3 75 0
 143 001a 1846     		mov	r0, r3
 144              	.LVL10:
 145 001c 2A46     		mov	r2, r5
 146 001e FFF7FEFF 		bl	memcpy
 147              	.LVL11:
 148              		.loc 3 76 0
 149 0022 A369     		ldr	r3, [r4, #24]
 150 0024 2B44     		add	r3, r3, r5
 151 0026 13E0     		b	.L8
 152              	.LVL12:
 153              	.L5:
 154              		.loc 3 78 0
 155 0028 0DD9     		bls	.L7
 156              		.loc 3 79 0
 157 002a 1846     		mov	r0, r3
 158              	.LVL13:
 159 002c 3246     		mov	r2, r6
 160 002e FFF7FEFF 		bl	memcpy
 161              	.LVL14:
 162              		.loc 3 81 0
 163 0032 AF1B     		subs	r7, r5, r6
 164              	.LVL15:
 165              		.loc 3 82 0
 166 0034 3A46     		mov	r2, r7
 167 0036 E168     		ldr	r1, [r4, #12]
 168 0038 3044     		add	r0, r0, r6
 169              	.LVL16:
 170 003a FFF7FEFF 		bl	memcpy
 171              	.LVL17:
ARM GAS  /tmp/ccnd1HRZ.s 			page 4


 172              		.loc 3 83 0
 173 003e E368     		ldr	r3, [r4, #12]
 174 0040 1F44     		add	r7, r7, r3
 175              	.LVL18:
 176 0042 A761     		str	r7, [r4, #24]
 177 0044 05E0     		b	.L6
 178              	.LVL19:
 179              	.L7:
 180              		.loc 3 86 0
 181 0046 1846     		mov	r0, r3
 182              	.LVL20:
 183 0048 2A46     		mov	r2, r5
 184 004a FFF7FEFF 		bl	memcpy
 185              	.LVL21:
 186              		.loc 3 87 0
 187 004e E368     		ldr	r3, [r4, #12]
 188              	.L8:
 189 0050 A361     		str	r3, [r4, #24]
 190              	.LVL22:
 191              	.L6:
 192              		.loc 3 90 0
 193 0052 A368     		ldr	r3, [r4, #8]
 194 0054 5B1B     		subs	r3, r3, r5
 195 0056 A360     		str	r3, [r4, #8]
 196              		.loc 3 92 0
 197 0058 2846     		mov	r0, r5
 198 005a F8BD     		pop	{r3, r4, r5, r6, r7, pc}
 199              		.cfi_endproc
 200              	.LFE323:
 201              		.size	iq_read, .-iq_read
 202              		.section	.text.oq_write,"ax",%progbits
 203              		.align	1
 204              		.thumb
 205              		.thumb_func
 206              		.type	oq_write, %function
 207              	oq_write:
 208              	.LFB324:
 209              		.loc 3 108 0
 210              		.cfi_startproc
 211              		@ args = 0, pretend = 0, frame = 0
 212              		@ frame_needed = 0, uses_anonymous_args = 0
 213              	.LVL23:
 214              		.loc 3 114 0
 215 0000 8368     		ldr	r3, [r0, #8]
 216              		.loc 3 108 0
 217 0002 2DE9F041 		push	{r4, r5, r6, r7, r8, lr}
 218              		.cfi_def_cfa_offset 24
 219              		.cfi_offset 4, -24
 220              		.cfi_offset 5, -20
 221              		.cfi_offset 6, -16
 222              		.cfi_offset 7, -12
 223              		.cfi_offset 8, -8
 224              		.cfi_offset 14, -4
 225              		.loc 3 108 0
 226 0006 0446     		mov	r4, r0
 227              		.loc 3 114 0
 228 0008 9342     		cmp	r3, r2
ARM GAS  /tmp/ccnd1HRZ.s 			page 5


 229              		.loc 3 108 0
 230 000a 1546     		mov	r5, r2
 231              		.loc 3 120 0
 232 000c 2669     		ldr	r6, [r4, #16]
 233              		.loc 3 115 0
 234 000e 38BF     		it	cc
 235 0010 8568     		ldrcc	r5, [r0, #8]
 236              	.LVL24:
 237              		.loc 3 120 0
 238 0012 4069     		ldr	r0, [r0, #20]
 239              	.LVL25:
 240 0014 361A     		subs	r6, r6, r0
 241              	.LVL26:
 242              		.loc 3 122 0
 243 0016 B542     		cmp	r5, r6
 244              		.loc 3 108 0
 245 0018 0F46     		mov	r7, r1
 246              		.loc 3 122 0
 247 001a 05D2     		bcs	.L12
 248              		.loc 3 123 0
 249 001c 2A46     		mov	r2, r5
 250 001e FFF7FEFF 		bl	memcpy
 251              	.LVL27:
 252              		.loc 3 124 0
 253 0022 6369     		ldr	r3, [r4, #20]
 254 0024 2B44     		add	r3, r3, r5
 255 0026 11E0     		b	.L15
 256              	.LVL28:
 257              	.L12:
 258              		.loc 3 126 0
 259 0028 0CD9     		bls	.L14
 260              		.loc 3 127 0
 261 002a 3246     		mov	r2, r6
 262              		.loc 3 129 0
 263 002c C6EB0508 		rsb	r8, r6, r5
 264              		.loc 3 127 0
 265 0030 FFF7FEFF 		bl	memcpy
 266              	.LVL29:
 267              		.loc 3 130 0
 268 0034 4246     		mov	r2, r8
 269 0036 B919     		adds	r1, r7, r6
 270              	.LVL30:
 271 0038 E068     		ldr	r0, [r4, #12]
 272 003a FFF7FEFF 		bl	memcpy
 273              	.LVL31:
 274              		.loc 3 131 0
 275 003e E368     		ldr	r3, [r4, #12]
 276 0040 4344     		add	r3, r3, r8
 277 0042 03E0     		b	.L15
 278              	.LVL32:
 279              	.L14:
 280              		.loc 3 134 0
 281 0044 2A46     		mov	r2, r5
 282 0046 FFF7FEFF 		bl	memcpy
 283              	.LVL33:
 284              		.loc 3 135 0
 285 004a E368     		ldr	r3, [r4, #12]
ARM GAS  /tmp/ccnd1HRZ.s 			page 6


 286              	.LVL34:
 287              	.L15:
 288 004c 6361     		str	r3, [r4, #20]
 289              		.loc 3 138 0
 290 004e A368     		ldr	r3, [r4, #8]
 291 0050 5B1B     		subs	r3, r3, r5
 292 0052 A360     		str	r3, [r4, #8]
 293              		.loc 3 140 0
 294 0054 2846     		mov	r0, r5
 295 0056 BDE8F081 		pop	{r4, r5, r6, r7, r8, pc}
 296              		.cfi_endproc
 297              	.LFE324:
 298              		.size	oq_write, .-oq_write
 299              		.section	.text.iqObjectInit,"ax",%progbits
 300              		.align	1
 301              		.global	iqObjectInit
 302              		.thumb
 303              		.thumb_func
 304              		.type	iqObjectInit, %function
 305              	iqObjectInit:
 306              	.LFB325:
 307              		.loc 3 178 0
 308              		.cfi_startproc
 309              		@ args = 4, pretend = 0, frame = 0
 310              		@ frame_needed = 0, uses_anonymous_args = 0
 311              	.LVL35:
 312 0000 10B5     		push	{r4, lr}
 313              		.cfi_def_cfa_offset 8
 314              		.cfi_offset 4, -8
 315              		.cfi_offset 14, -4
 316              		.loc 3 185 0
 317 0002 0A44     		add	r2, r2, r1
 318              	.LVL36:
 319              		.loc 3 181 0
 320 0004 0024     		movs	r4, #0
 321              		.loc 3 186 0
 322 0006 C361     		str	r3, [r0, #28]
 323              		.loc 3 187 0
 324 0008 029B     		ldr	r3, [sp, #8]
 325              	.LVL37:
 326              	.LBB87:
 327              	.LBB88:
 328              	.LBB89:
 329              	.LBB90:
 330              		.file 4 "../../modules/ChibiOS/os/rt/include/chschd.h"
 331              		.loc 4 539 0
 332 000a 0060     		str	r0, [r0]
 333              		.loc 4 540 0
 334 000c 4060     		str	r0, [r0, #4]
 335              	.LVL38:
 336              	.LBE90:
 337              	.LBE89:
 338              	.LBE88:
 339              	.LBE87:
 340              		.loc 3 181 0
 341 000e 8460     		str	r4, [r0, #8]
 342              		.loc 3 182 0
ARM GAS  /tmp/ccnd1HRZ.s 			page 7


 343 0010 C160     		str	r1, [r0, #12]
 344              		.loc 3 183 0
 345 0012 8161     		str	r1, [r0, #24]
 346              		.loc 3 184 0
 347 0014 4161     		str	r1, [r0, #20]
 348              		.loc 3 185 0
 349 0016 0261     		str	r2, [r0, #16]
 350              		.loc 3 187 0
 351 0018 0362     		str	r3, [r0, #32]
 352 001a 10BD     		pop	{r4, pc}
 353              		.cfi_endproc
 354              	.LFE325:
 355              		.size	iqObjectInit, .-iqObjectInit
 356              		.section	.text.iqResetI,"ax",%progbits
 357              		.align	1
 358              		.global	iqResetI
 359              		.thumb
 360              		.thumb_func
 361              		.type	iqResetI, %function
 362              	iqResetI:
 363              	.LFB326:
 364              		.loc 3 201 0
 365              		.cfi_startproc
 366              		@ args = 0, pretend = 0, frame = 0
 367              		@ frame_needed = 0, uses_anonymous_args = 0
 368              		@ link register save eliminated.
 369              	.LVL39:
 370              		.loc 3 205 0
 371 0000 C268     		ldr	r2, [r0, #12]
 372 0002 8261     		str	r2, [r0, #24]
 373              		.loc 3 206 0
 374 0004 4261     		str	r2, [r0, #20]
 375              		.loc 3 207 0
 376 0006 0022     		movs	r2, #0
 377 0008 8260     		str	r2, [r0, #8]
 378              	.LVL40:
 379              	.LBB91:
 380              	.LBB92:
 381              		.file 5 "../../modules/ChibiOS/os/hal/osal/rt/osal.h"
 382              		.loc 5 857 0
 383 000a 6FF00101 		mvn	r1, #1
 384 000e FFF7FEBF 		b	chThdDequeueAllI
 385              	.LVL41:
 386              	.LBE92:
 387              	.LBE91:
 388              		.cfi_endproc
 389              	.LFE326:
 390              		.size	iqResetI, .-iqResetI
 391              		.section	.text.iqPutI,"ax",%progbits
 392              		.align	1
 393              		.global	iqPutI
 394              		.thumb
 395              		.thumb_func
 396              		.type	iqPutI, %function
 397              	iqPutI:
 398              	.LFB327:
 399              		.loc 3 224 0
ARM GAS  /tmp/ccnd1HRZ.s 			page 8


 400              		.cfi_startproc
 401              		@ args = 0, pretend = 0, frame = 0
 402              		@ frame_needed = 0, uses_anonymous_args = 0
 403              	.LVL42:
 404 0000 08B5     		push	{r3, lr}
 405              		.cfi_def_cfa_offset 8
 406              		.cfi_offset 3, -8
 407              		.cfi_offset 14, -4
 408              		.loc 3 229 0
 409 0002 8269     		ldr	r2, [r0, #24]
 410 0004 4369     		ldr	r3, [r0, #20]
 411 0006 9342     		cmp	r3, r2
 412 0008 04D1     		bne	.L19
 413              		.loc 3 229 0 is_stmt 0 discriminator 1
 414 000a 8268     		ldr	r2, [r0, #8]
 415 000c 12B1     		cbz	r2, .L19
 416              		.loc 3 241 0 is_stmt 1
 417 000e 4FF0FF30 		mov	r0, #-1
 418              	.LVL43:
 419 0012 08BD     		pop	{r3, pc}
 420              	.LVL44:
 421              	.L19:
 422              		.loc 3 230 0
 423 0014 8268     		ldr	r2, [r0, #8]
 424 0016 0132     		adds	r2, r2, #1
 425 0018 8260     		str	r2, [r0, #8]
 426              		.loc 3 231 0
 427 001a 5A1C     		adds	r2, r3, #1
 428 001c 4261     		str	r2, [r0, #20]
 429 001e 1970     		strb	r1, [r3]
 430              		.loc 3 232 0
 431 0020 4269     		ldr	r2, [r0, #20]
 432 0022 0369     		ldr	r3, [r0, #16]
 433 0024 9A42     		cmp	r2, r3
 434 0026 01D3     		bcc	.L22
 435              		.loc 3 233 0
 436 0028 C368     		ldr	r3, [r0, #12]
 437 002a 4361     		str	r3, [r0, #20]
 438              	.L22:
 439              	.LVL45:
 440              	.LBB93:
 441              	.LBB94:
 442              		.loc 5 844 0
 443 002c 0021     		movs	r1, #0
 444              	.LVL46:
 445 002e FFF7FEFF 		bl	chThdDequeueNextI
 446              	.LVL47:
 447              	.LBE94:
 448              	.LBE93:
 449              		.loc 3 238 0
 450 0032 0020     		movs	r0, #0
 451 0034 08BD     		pop	{r3, pc}
 452              		.cfi_endproc
 453              	.LFE327:
 454              		.size	iqPutI, .-iqPutI
 455              		.section	.text.iqGetI,"ax",%progbits
 456              		.align	1
ARM GAS  /tmp/ccnd1HRZ.s 			page 9


 457              		.global	iqGetI
 458              		.thumb
 459              		.thumb_func
 460              		.type	iqGetI, %function
 461              	iqGetI:
 462              	.LFB328:
 463              		.loc 3 258 0
 464              		.cfi_startproc
 465              		@ args = 0, pretend = 0, frame = 0
 466              		@ frame_needed = 0, uses_anonymous_args = 0
 467              	.LVL48:
 468              		.loc 3 263 0
 469 0000 8368     		ldr	r3, [r0, #8]
 470              		.loc 3 258 0
 471 0002 10B5     		push	{r4, lr}
 472              		.cfi_def_cfa_offset 8
 473              		.cfi_offset 4, -8
 474              		.cfi_offset 14, -4
 475              		.loc 3 263 0
 476 0004 83B1     		cbz	r3, .L29
 477              	.LBB95:
 478              		.loc 3 267 0
 479 0006 8368     		ldr	r3, [r0, #8]
 480              		.loc 3 268 0
 481 0008 8269     		ldr	r2, [r0, #24]
 482              		.loc 3 267 0
 483 000a 013B     		subs	r3, r3, #1
 484 000c 8360     		str	r3, [r0, #8]
 485              		.loc 3 268 0
 486 000e 531C     		adds	r3, r2, #1
 487 0010 8361     		str	r3, [r0, #24]
 488 0012 1478     		ldrb	r4, [r2]	@ zero_extendqisi2
 489              	.LVL49:
 490              		.loc 3 269 0
 491 0014 0269     		ldr	r2, [r0, #16]
 492 0016 9342     		cmp	r3, r2
 493              		.loc 3 270 0
 494 0018 24BF     		itt	cs
 495 001a C368     		ldrcs	r3, [r0, #12]
 496 001c 8361     		strcs	r3, [r0, #24]
 497              		.loc 3 274 0
 498 001e C369     		ldr	r3, [r0, #28]
 499 0020 03B1     		cbz	r3, .L28
 500              		.loc 3 275 0
 501 0022 9847     		blx	r3
 502              	.LVL50:
 503              	.L28:
 504              		.loc 3 278 0
 505 0024 2046     		mov	r0, r4
 506 0026 10BD     		pop	{r4, pc}
 507              	.LVL51:
 508              	.L29:
 509              	.LBE95:
 510              		.loc 3 281 0
 511 0028 4FF0FF30 		mov	r0, #-1
 512              	.LVL52:
 513              		.loc 3 282 0
ARM GAS  /tmp/ccnd1HRZ.s 			page 10


 514 002c 10BD     		pop	{r4, pc}
 515              		.cfi_endproc
 516              	.LFE328:
 517              		.size	iqGetI, .-iqGetI
 518              		.section	.text.iqGetTimeout,"ax",%progbits
 519              		.align	1
 520              		.global	iqGetTimeout
 521              		.thumb
 522              		.thumb_func
 523              		.type	iqGetTimeout, %function
 524              	iqGetTimeout:
 525              	.LFB329:
 526              		.loc 3 304 0
 527              		.cfi_startproc
 528              		@ args = 0, pretend = 0, frame = 0
 529              		@ frame_needed = 0, uses_anonymous_args = 0
 530              	.LVL53:
 531 0000 70B5     		push	{r4, r5, r6, lr}
 532              		.cfi_def_cfa_offset 16
 533              		.cfi_offset 4, -16
 534              		.cfi_offset 5, -12
 535              		.cfi_offset 6, -8
 536              		.cfi_offset 14, -4
 537              		.loc 3 304 0
 538 0002 0446     		mov	r4, r0
 539 0004 0E46     		mov	r6, r1
 540              	.LBB96:
 541              	.LBB97:
 542              		.loc 5 511 0
 543 0006 FFF7FEFF 		bl	chSysLock
 544              	.LVL54:
 545              	.L34:
 546              	.LBE97:
 547              	.LBE96:
 548              		.loc 3 310 0
 549 000a A368     		ldr	r3, [r4, #8]
 550 000c 33B9     		cbnz	r3, .L43
 551              	.LVL55:
 552              	.LBB98:
 553              	.LBB99:
 554              	.LBB100:
 555              		.loc 5 831 0
 556 000e 3146     		mov	r1, r6
 557 0010 2046     		mov	r0, r4
 558 0012 FFF7FEFF 		bl	chThdEnqueueTimeoutS
 559              	.LVL56:
 560              	.LBE100:
 561              	.LBE99:
 562              		.loc 3 312 0
 563 0016 051E     		subs	r5, r0, #0
 564 0018 F7DA     		bge	.L34
 565 001a 0FE0     		b	.L38
 566              	.L43:
 567              	.LBE98:
 568              		.loc 3 319 0
 569 001c A368     		ldr	r3, [r4, #8]
 570              		.loc 3 320 0
ARM GAS  /tmp/ccnd1HRZ.s 			page 11


 571 001e A269     		ldr	r2, [r4, #24]
 572              		.loc 3 319 0
 573 0020 013B     		subs	r3, r3, #1
 574 0022 A360     		str	r3, [r4, #8]
 575              		.loc 3 320 0
 576 0024 531C     		adds	r3, r2, #1
 577 0026 A361     		str	r3, [r4, #24]
 578 0028 1578     		ldrb	r5, [r2]	@ zero_extendqisi2
 579              	.LVL57:
 580              		.loc 3 321 0
 581 002a 2269     		ldr	r2, [r4, #16]
 582 002c 9342     		cmp	r3, r2
 583              		.loc 3 322 0
 584 002e 24BF     		itt	cs
 585 0030 E368     		ldrcs	r3, [r4, #12]
 586 0032 A361     		strcs	r3, [r4, #24]
 587              		.loc 3 326 0
 588 0034 E369     		ldr	r3, [r4, #28]
 589 0036 0BB1     		cbz	r3, .L38
 590              		.loc 3 327 0
 591 0038 2046     		mov	r0, r4
 592 003a 9847     		blx	r3
 593              	.LVL58:
 594              	.L38:
 595              	.LBB101:
 596              	.LBB102:
 597              		.loc 5 522 0
 598 003c FFF7FEFF 		bl	chSysUnlock
 599              	.LVL59:
 600              	.LBE102:
 601              	.LBE101:
 602              		.loc 3 333 0
 603 0040 2846     		mov	r0, r5
 604 0042 70BD     		pop	{r4, r5, r6, pc}
 605              		.cfi_endproc
 606              	.LFE329:
 607              		.size	iqGetTimeout, .-iqGetTimeout
 608              		.section	.text.iqReadI,"ax",%progbits
 609              		.align	1
 610              		.global	iqReadI
 611              		.thumb
 612              		.thumb_func
 613              		.type	iqReadI, %function
 614              	iqReadI:
 615              	.LFB330:
 616              		.loc 3 348 0
 617              		.cfi_startproc
 618              		@ args = 0, pretend = 0, frame = 0
 619              		@ frame_needed = 0, uses_anonymous_args = 0
 620              	.LVL60:
 621 0000 70B5     		push	{r4, r5, r6, lr}
 622              		.cfi_def_cfa_offset 16
 623              		.cfi_offset 4, -16
 624              		.cfi_offset 5, -12
 625              		.cfi_offset 6, -8
 626              		.cfi_offset 14, -4
 627              		.loc 3 348 0
ARM GAS  /tmp/ccnd1HRZ.s 			page 12


 628 0002 0646     		mov	r6, r0
 629              		.loc 3 349 0
 630 0004 C569     		ldr	r5, [r0, #28]
 631              	.LVL61:
 632              		.loc 3 354 0
 633 0006 FFF7FEFF 		bl	iq_read
 634              	.LVL62:
 635              		.loc 3 358 0
 636 000a 0446     		mov	r4, r0
 637 000c 10B1     		cbz	r0, .L45
 638              		.loc 3 358 0 is_stmt 0 discriminator 1
 639 000e 0DB1     		cbz	r5, .L45
 640              		.loc 3 359 0 is_stmt 1
 641 0010 3046     		mov	r0, r6
 642              	.LVL63:
 643 0012 A847     		blx	r5
 644              	.LVL64:
 645              	.L45:
 646              		.loc 3 363 0
 647 0014 2046     		mov	r0, r4
 648 0016 70BD     		pop	{r4, r5, r6, pc}
 649              		.cfi_endproc
 650              	.LFE330:
 651              		.size	iqReadI, .-iqReadI
 652              		.section	.text.iqReadTimeout,"ax",%progbits
 653              		.align	1
 654              		.global	iqReadTimeout
 655              		.thumb
 656              		.thumb_func
 657              		.type	iqReadTimeout, %function
 658              	iqReadTimeout:
 659              	.LFB331:
 660              		.loc 3 390 0
 661              		.cfi_startproc
 662              		@ args = 0, pretend = 0, frame = 0
 663              		@ frame_needed = 0, uses_anonymous_args = 0
 664              	.LVL65:
 665 0000 2DE9F047 		push	{r4, r5, r6, r7, r8, r9, r10, lr}
 666              		.cfi_def_cfa_offset 32
 667              		.cfi_offset 4, -32
 668              		.cfi_offset 5, -28
 669              		.cfi_offset 6, -24
 670              		.cfi_offset 7, -20
 671              		.cfi_offset 8, -16
 672              		.cfi_offset 9, -12
 673              		.cfi_offset 10, -8
 674              		.cfi_offset 14, -4
 675              		.loc 3 390 0
 676 0004 9046     		mov	r8, r2
 677 0006 0546     		mov	r5, r0
 678 0008 0E46     		mov	r6, r1
 679 000a 9A46     		mov	r10, r3
 680              		.loc 3 391 0
 681 000c D0F81C90 		ldr	r9, [r0, #28]
 682              	.LVL66:
 683              	.LBB103:
 684              	.LBB104:
ARM GAS  /tmp/ccnd1HRZ.s 			page 13


 685              		.loc 5 511 0
 686 0010 FFF7FEFF 		bl	chSysLock
 687              	.LVL67:
 688 0014 4446     		mov	r4, r8
 689              	.LVL68:
 690              	.L53:
 691              	.LBE104:
 692              	.LBE103:
 693              		.loc 3 398 0
 694 0016 CCB1     		cbz	r4, .L55
 695              	.LBB105:
 696              		.loc 3 401 0
 697 0018 2246     		mov	r2, r4
 698 001a 3146     		mov	r1, r6
 699 001c 2846     		mov	r0, r5
 700 001e FFF7FEFF 		bl	iq_read
 701              	.LVL69:
 702              		.loc 3 402 0
 703 0022 0746     		mov	r7, r0
 704 0024 30B9     		cbnz	r0, .L54
 705              	.LVL70:
 706              	.LBB106:
 707              	.LBB107:
 708              	.LBB108:
 709              		.loc 5 831 0
 710 0026 5146     		mov	r1, r10
 711 0028 2846     		mov	r0, r5
 712              	.LVL71:
 713 002a FFF7FEFF 		bl	chThdEnqueueTimeoutS
 714              	.LVL72:
 715              	.LBE108:
 716              	.LBE107:
 717              		.loc 3 406 0
 718 002e 0028     		cmp	r0, #0
 719 0030 F1D0     		beq	.L53
 720 0032 0BE0     		b	.L55
 721              	.LVL73:
 722              	.L54:
 723              	.LBE106:
 724              		.loc 3 413 0
 725 0034 B9F1000F 		cmp	r9, #0
 726 0038 01D0     		beq	.L57
 727              		.loc 3 414 0
 728 003a 2846     		mov	r0, r5
 729              	.LVL74:
 730 003c C847     		blx	r9
 731              	.LVL75:
 732              	.L57:
 733              	.LBB109:
 734              	.LBB110:
 735              		.loc 5 522 0
 736 003e FFF7FEFF 		bl	chSysUnlock
 737              	.LVL76:
 738              	.LBE110:
 739              	.LBE109:
 740              		.loc 3 420 0
 741 0042 E41B     		subs	r4, r4, r7
ARM GAS  /tmp/ccnd1HRZ.s 			page 14


 742              	.LVL77:
 743              		.loc 3 421 0
 744 0044 3E44     		add	r6, r6, r7
 745              	.LVL78:
 746              	.LBB111:
 747              	.LBB112:
 748              		.loc 5 511 0
 749 0046 FFF7FEFF 		bl	chSysLock
 750              	.LVL79:
 751 004a E4E7     		b	.L53
 752              	.LVL80:
 753              	.L55:
 754              	.LBE112:
 755              	.LBE111:
 756              	.LBE105:
 757              	.LBB113:
 758              	.LBB114:
 759              		.loc 5 522 0
 760 004c FFF7FEFF 		bl	chSysUnlock
 761              	.LVL81:
 762              	.LBE114:
 763              	.LBE113:
 764              		.loc 3 429 0
 765 0050 C4EB0800 		rsb	r0, r4, r8
 766 0054 BDE8F087 		pop	{r4, r5, r6, r7, r8, r9, r10, pc}
 767              		.cfi_endproc
 768              	.LFE331:
 769              		.size	iqReadTimeout, .-iqReadTimeout
 770              		.section	.text.oqObjectInit,"ax",%progbits
 771              		.align	1
 772              		.global	oqObjectInit
 773              		.thumb
 774              		.thumb_func
 775              		.type	oqObjectInit, %function
 776              	oqObjectInit:
 777              	.LFB332:
 778              		.loc 3 447 0
 779              		.cfi_startproc
 780              		@ args = 4, pretend = 0, frame = 0
 781              		@ frame_needed = 0, uses_anonymous_args = 0
 782              		@ link register save eliminated.
 783              	.LVL82:
 784              		.loc 3 450 0
 785 0000 8260     		str	r2, [r0, #8]
 786              		.loc 3 455 0
 787 0002 C361     		str	r3, [r0, #28]
 788              		.loc 3 454 0
 789 0004 0A44     		add	r2, r2, r1
 790              	.LVL83:
 791              		.loc 3 456 0
 792 0006 009B     		ldr	r3, [sp]
 793              	.LVL84:
 794              	.LBB115:
 795              	.LBB116:
 796              	.LBB117:
 797              	.LBB118:
 798              		.loc 4 539 0
ARM GAS  /tmp/ccnd1HRZ.s 			page 15


 799 0008 0060     		str	r0, [r0]
 800              		.loc 4 540 0
 801 000a 4060     		str	r0, [r0, #4]
 802              	.LVL85:
 803              	.LBE118:
 804              	.LBE117:
 805              	.LBE116:
 806              	.LBE115:
 807              		.loc 3 451 0
 808 000c C160     		str	r1, [r0, #12]
 809              		.loc 3 452 0
 810 000e 8161     		str	r1, [r0, #24]
 811              		.loc 3 453 0
 812 0010 4161     		str	r1, [r0, #20]
 813              		.loc 3 454 0
 814 0012 0261     		str	r2, [r0, #16]
 815              		.loc 3 456 0
 816 0014 0362     		str	r3, [r0, #32]
 817 0016 7047     		bx	lr
 818              		.cfi_endproc
 819              	.LFE332:
 820              		.size	oqObjectInit, .-oqObjectInit
 821              		.section	.text.oqResetI,"ax",%progbits
 822              		.align	1
 823              		.global	oqResetI
 824              		.thumb
 825              		.thumb_func
 826              		.type	oqResetI, %function
 827              	oqResetI:
 828              	.LFB333:
 829              		.loc 3 470 0
 830              		.cfi_startproc
 831              		@ args = 0, pretend = 0, frame = 0
 832              		@ frame_needed = 0, uses_anonymous_args = 0
 833              		@ link register save eliminated.
 834              	.LVL86:
 835              		.loc 3 474 0
 836 0000 C168     		ldr	r1, [r0, #12]
 837              		.loc 3 476 0
 838 0002 0269     		ldr	r2, [r0, #16]
 839              		.loc 3 474 0
 840 0004 8161     		str	r1, [r0, #24]
 841              		.loc 3 476 0
 842 0006 521A     		subs	r2, r2, r1
 843              		.loc 3 475 0
 844 0008 4161     		str	r1, [r0, #20]
 845              		.loc 3 476 0
 846 000a 8260     		str	r2, [r0, #8]
 847              	.LVL87:
 848              	.LBB119:
 849              	.LBB120:
 850              		.loc 5 857 0
 851 000c 6FF00101 		mvn	r1, #1
 852 0010 FFF7FEBF 		b	chThdDequeueAllI
 853              	.LVL88:
 854              	.LBE120:
 855              	.LBE119:
ARM GAS  /tmp/ccnd1HRZ.s 			page 16


 856              		.cfi_endproc
 857              	.LFE333:
 858              		.size	oqResetI, .-oqResetI
 859              		.section	.text.oqPutI,"ax",%progbits
 860              		.align	1
 861              		.global	oqPutI
 862              		.thumb
 863              		.thumb_func
 864              		.type	oqPutI, %function
 865              	oqPutI:
 866              	.LFB334:
 867              		.loc 3 494 0
 868              		.cfi_startproc
 869              		@ args = 0, pretend = 0, frame = 0
 870              		@ frame_needed = 0, uses_anonymous_args = 0
 871              	.LVL89:
 872 0000 08B5     		push	{r3, lr}
 873              		.cfi_def_cfa_offset 8
 874              		.cfi_offset 3, -8
 875              		.cfi_offset 14, -4
 876              		.loc 3 499 0
 877 0002 8368     		ldr	r3, [r0, #8]
 878 0004 8BB1     		cbz	r3, .L67
 879              		.loc 3 501 0
 880 0006 8368     		ldr	r3, [r0, #8]
 881 0008 013B     		subs	r3, r3, #1
 882 000a 8360     		str	r3, [r0, #8]
 883              		.loc 3 502 0
 884 000c 4369     		ldr	r3, [r0, #20]
 885 000e 5A1C     		adds	r2, r3, #1
 886 0010 4261     		str	r2, [r0, #20]
 887 0012 1970     		strb	r1, [r3]
 888              		.loc 3 503 0
 889 0014 0369     		ldr	r3, [r0, #16]
 890 0016 4269     		ldr	r2, [r0, #20]
 891 0018 9A42     		cmp	r2, r3
 892              		.loc 3 504 0
 893 001a 24BF     		itt	cs
 894 001c C368     		ldrcs	r3, [r0, #12]
 895 001e 4361     		strcs	r3, [r0, #20]
 896              		.loc 3 508 0
 897 0020 C369     		ldr	r3, [r0, #28]
 898 0022 03B1     		cbz	r3, .L69
 899              		.loc 3 509 0
 900 0024 9847     		blx	r3
 901              	.LVL90:
 902              	.L69:
 903              		.loc 3 512 0
 904 0026 0020     		movs	r0, #0
 905 0028 08BD     		pop	{r3, pc}
 906              	.LVL91:
 907              	.L67:
 908              		.loc 3 515 0
 909 002a 4FF0FF30 		mov	r0, #-1
 910              	.LVL92:
 911 002e 08BD     		pop	{r3, pc}
 912              		.cfi_endproc
ARM GAS  /tmp/ccnd1HRZ.s 			page 17


 913              	.LFE334:
 914              		.size	oqPutI, .-oqPutI
 915              		.section	.text.oqPutTimeout,"ax",%progbits
 916              		.align	1
 917              		.global	oqPutTimeout
 918              		.thumb
 919              		.thumb_func
 920              		.type	oqPutTimeout, %function
 921              	oqPutTimeout:
 922              	.LFB335:
 923              		.loc 3 540 0
 924              		.cfi_startproc
 925              		@ args = 0, pretend = 0, frame = 0
 926              		@ frame_needed = 0, uses_anonymous_args = 0
 927              	.LVL93:
 928 0000 F8B5     		push	{r3, r4, r5, r6, r7, lr}
 929              		.cfi_def_cfa_offset 24
 930              		.cfi_offset 3, -24
 931              		.cfi_offset 4, -20
 932              		.cfi_offset 5, -16
 933              		.cfi_offset 6, -12
 934              		.cfi_offset 7, -8
 935              		.cfi_offset 14, -4
 936              		.loc 3 540 0
 937 0002 0446     		mov	r4, r0
 938 0004 0E46     		mov	r6, r1
 939 0006 1746     		mov	r7, r2
 940              	.LBB121:
 941              	.LBB122:
 942              		.loc 5 511 0
 943 0008 FFF7FEFF 		bl	chSysLock
 944              	.LVL94:
 945              	.L71:
 946              	.LBE122:
 947              	.LBE121:
 948              		.loc 3 545 0
 949 000c A368     		ldr	r3, [r4, #8]
 950 000e 43B9     		cbnz	r3, .L80
 951              	.LVL95:
 952              	.LBB123:
 953              	.LBB124:
 954              	.LBB125:
 955              		.loc 5 831 0
 956 0010 3946     		mov	r1, r7
 957 0012 2046     		mov	r0, r4
 958 0014 FFF7FEFF 		bl	chThdEnqueueTimeoutS
 959              	.LVL96:
 960              	.LBE125:
 961              	.LBE124:
 962              		.loc 3 547 0
 963 0018 051E     		subs	r5, r0, #0
 964 001a F7DA     		bge	.L71
 965              	.LBB126:
 966              	.LBB127:
 967              		.loc 5 522 0
 968 001c FFF7FEFF 		bl	chSysUnlock
 969              	.LVL97:
ARM GAS  /tmp/ccnd1HRZ.s 			page 18


 970              	.LBE127:
 971              	.LBE126:
 972              		.loc 3 549 0
 973 0020 13E0     		b	.L72
 974              	.L80:
 975              	.LBE123:
 976              		.loc 3 554 0
 977 0022 A368     		ldr	r3, [r4, #8]
 978 0024 013B     		subs	r3, r3, #1
 979 0026 A360     		str	r3, [r4, #8]
 980              		.loc 3 555 0
 981 0028 6369     		ldr	r3, [r4, #20]
 982 002a 5A1C     		adds	r2, r3, #1
 983 002c 6261     		str	r2, [r4, #20]
 984 002e 1E70     		strb	r6, [r3]
 985              		.loc 3 556 0
 986 0030 2369     		ldr	r3, [r4, #16]
 987 0032 6269     		ldr	r2, [r4, #20]
 988 0034 9A42     		cmp	r2, r3
 989              		.loc 3 557 0
 990 0036 24BF     		itt	cs
 991 0038 E368     		ldrcs	r3, [r4, #12]
 992 003a 6361     		strcs	r3, [r4, #20]
 993              		.loc 3 561 0
 994 003c E369     		ldr	r3, [r4, #28]
 995 003e 0BB1     		cbz	r3, .L75
 996              		.loc 3 562 0
 997 0040 2046     		mov	r0, r4
 998 0042 9847     		blx	r3
 999              	.LVL98:
 1000              	.L75:
 1001              	.LBB128:
 1002              	.LBB129:
 1003              		.loc 5 522 0
 1004 0044 FFF7FEFF 		bl	chSysUnlock
 1005              	.LVL99:
 1006              	.LBE129:
 1007              	.LBE128:
 1008              		.loc 3 567 0
 1009 0048 0025     		movs	r5, #0
 1010              	.L72:
 1011              		.loc 3 568 0
 1012 004a 2846     		mov	r0, r5
 1013 004c F8BD     		pop	{r3, r4, r5, r6, r7, pc}
 1014              		.cfi_endproc
 1015              	.LFE335:
 1016              		.size	oqPutTimeout, .-oqPutTimeout
 1017              		.section	.text.oqGetI,"ax",%progbits
 1018              		.align	1
 1019              		.global	oqGetI
 1020              		.thumb
 1021              		.thumb_func
 1022              		.type	oqGetI, %function
 1023              	oqGetI:
 1024              	.LFB336:
 1025              		.loc 3 581 0
 1026              		.cfi_startproc
ARM GAS  /tmp/ccnd1HRZ.s 			page 19


 1027              		@ args = 0, pretend = 0, frame = 0
 1028              		@ frame_needed = 0, uses_anonymous_args = 0
 1029              	.LVL100:
 1030              		.loc 3 586 0
 1031 0000 8369     		ldr	r3, [r0, #24]
 1032 0002 4269     		ldr	r2, [r0, #20]
 1033 0004 9A42     		cmp	r2, r3
 1034              		.loc 3 581 0
 1035 0006 10B5     		push	{r4, lr}
 1036              		.cfi_def_cfa_offset 8
 1037              		.cfi_offset 4, -8
 1038              		.cfi_offset 14, -4
 1039              		.loc 3 586 0
 1040 0008 04D1     		bne	.L82
 1041              		.loc 3 586 0 is_stmt 0 discriminator 1
 1042 000a 8268     		ldr	r2, [r0, #8]
 1043 000c 12B1     		cbz	r2, .L82
 1044              		.loc 3 600 0 is_stmt 1
 1045 000e 4FF0FF30 		mov	r0, #-1
 1046              	.LVL101:
 1047 0012 10BD     		pop	{r4, pc}
 1048              	.LVL102:
 1049              	.L82:
 1050              	.LBB130:
 1051              		.loc 3 589 0
 1052 0014 8268     		ldr	r2, [r0, #8]
 1053 0016 0132     		adds	r2, r2, #1
 1054 0018 8260     		str	r2, [r0, #8]
 1055              		.loc 3 590 0
 1056 001a 5A1C     		adds	r2, r3, #1
 1057 001c 8261     		str	r2, [r0, #24]
 1058 001e 1C78     		ldrb	r4, [r3]	@ zero_extendqisi2
 1059              	.LVL103:
 1060              		.loc 3 591 0
 1061 0020 0369     		ldr	r3, [r0, #16]
 1062 0022 9A42     		cmp	r2, r3
 1063 0024 01D3     		bcc	.L85
 1064              		.loc 3 592 0
 1065 0026 C368     		ldr	r3, [r0, #12]
 1066 0028 8361     		str	r3, [r0, #24]
 1067              	.L85:
 1068              	.LVL104:
 1069              	.LBB131:
 1070              	.LBB132:
 1071              		.loc 5 844 0
 1072 002a 0021     		movs	r1, #0
 1073 002c FFF7FEFF 		bl	chThdDequeueNextI
 1074              	.LVL105:
 1075              	.LBE132:
 1076              	.LBE131:
 1077              		.loc 3 597 0
 1078 0030 2046     		mov	r0, r4
 1079 0032 10BD     		pop	{r4, pc}
 1080              	.LBE130:
 1081              		.cfi_endproc
 1082              	.LFE336:
 1083              		.size	oqGetI, .-oqGetI
ARM GAS  /tmp/ccnd1HRZ.s 			page 20


 1084              		.section	.text.oqWriteI,"ax",%progbits
 1085              		.align	1
 1086              		.global	oqWriteI
 1087              		.thumb
 1088              		.thumb_func
 1089              		.type	oqWriteI, %function
 1090              	oqWriteI:
 1091              	.LFB337:
 1092              		.loc 3 617 0
 1093              		.cfi_startproc
 1094              		@ args = 0, pretend = 0, frame = 0
 1095              		@ frame_needed = 0, uses_anonymous_args = 0
 1096              	.LVL106:
 1097 0000 70B5     		push	{r4, r5, r6, lr}
 1098              		.cfi_def_cfa_offset 16
 1099              		.cfi_offset 4, -16
 1100              		.cfi_offset 5, -12
 1101              		.cfi_offset 6, -8
 1102              		.cfi_offset 14, -4
 1103              		.loc 3 617 0
 1104 0002 0646     		mov	r6, r0
 1105              		.loc 3 618 0
 1106 0004 C569     		ldr	r5, [r0, #28]
 1107              	.LVL107:
 1108              		.loc 3 623 0
 1109 0006 FFF7FEFF 		bl	oq_write
 1110              	.LVL108:
 1111              		.loc 3 627 0
 1112 000a 0446     		mov	r4, r0
 1113 000c 10B1     		cbz	r0, .L89
 1114              		.loc 3 627 0 is_stmt 0 discriminator 1
 1115 000e 0DB1     		cbz	r5, .L89
 1116              		.loc 3 628 0 is_stmt 1
 1117 0010 3046     		mov	r0, r6
 1118              	.LVL109:
 1119 0012 A847     		blx	r5
 1120              	.LVL110:
 1121              	.L89:
 1122              		.loc 3 632 0
 1123 0014 2046     		mov	r0, r4
 1124 0016 70BD     		pop	{r4, r5, r6, pc}
 1125              		.cfi_endproc
 1126              	.LFE337:
 1127              		.size	oqWriteI, .-oqWriteI
 1128              		.section	.text.oqWriteTimeout,"ax",%progbits
 1129              		.align	1
 1130              		.global	oqWriteTimeout
 1131              		.thumb
 1132              		.thumb_func
 1133              		.type	oqWriteTimeout, %function
 1134              	oqWriteTimeout:
 1135              	.LFB338:
 1136              		.loc 3 659 0
 1137              		.cfi_startproc
 1138              		@ args = 0, pretend = 0, frame = 0
 1139              		@ frame_needed = 0, uses_anonymous_args = 0
 1140              	.LVL111:
ARM GAS  /tmp/ccnd1HRZ.s 			page 21


 1141 0000 2DE9F047 		push	{r4, r5, r6, r7, r8, r9, r10, lr}
 1142              		.cfi_def_cfa_offset 32
 1143              		.cfi_offset 4, -32
 1144              		.cfi_offset 5, -28
 1145              		.cfi_offset 6, -24
 1146              		.cfi_offset 7, -20
 1147              		.cfi_offset 8, -16
 1148              		.cfi_offset 9, -12
 1149              		.cfi_offset 10, -8
 1150              		.cfi_offset 14, -4
 1151              		.loc 3 659 0
 1152 0004 9046     		mov	r8, r2
 1153 0006 0546     		mov	r5, r0
 1154 0008 0E46     		mov	r6, r1
 1155 000a 9A46     		mov	r10, r3
 1156              		.loc 3 660 0
 1157 000c D0F81C90 		ldr	r9, [r0, #28]
 1158              	.LVL112:
 1159              	.LBB133:
 1160              	.LBB134:
 1161              		.loc 5 511 0
 1162 0010 FFF7FEFF 		bl	chSysLock
 1163              	.LVL113:
 1164 0014 4446     		mov	r4, r8
 1165              	.LVL114:
 1166              	.L97:
 1167              	.LBE134:
 1168              	.LBE133:
 1169              		.loc 3 667 0
 1170 0016 CCB1     		cbz	r4, .L99
 1171              	.LBB135:
 1172              		.loc 3 670 0
 1173 0018 2246     		mov	r2, r4
 1174 001a 3146     		mov	r1, r6
 1175 001c 2846     		mov	r0, r5
 1176 001e FFF7FEFF 		bl	oq_write
 1177              	.LVL115:
 1178              		.loc 3 671 0
 1179 0022 0746     		mov	r7, r0
 1180 0024 30B9     		cbnz	r0, .L98
 1181              	.LVL116:
 1182              	.LBB136:
 1183              	.LBB137:
 1184              	.LBB138:
 1185              		.loc 5 831 0
 1186 0026 5146     		mov	r1, r10
 1187 0028 2846     		mov	r0, r5
 1188              	.LVL117:
 1189 002a FFF7FEFF 		bl	chThdEnqueueTimeoutS
 1190              	.LVL118:
 1191              	.LBE138:
 1192              	.LBE137:
 1193              		.loc 3 675 0
 1194 002e 0028     		cmp	r0, #0
 1195 0030 F1D0     		beq	.L97
 1196 0032 0BE0     		b	.L99
 1197              	.LVL119:
ARM GAS  /tmp/ccnd1HRZ.s 			page 22


 1198              	.L98:
 1199              	.LBE136:
 1200              		.loc 3 682 0
 1201 0034 B9F1000F 		cmp	r9, #0
 1202 0038 01D0     		beq	.L101
 1203              		.loc 3 683 0
 1204 003a 2846     		mov	r0, r5
 1205              	.LVL120:
 1206 003c C847     		blx	r9
 1207              	.LVL121:
 1208              	.L101:
 1209              	.LBB139:
 1210              	.LBB140:
 1211              		.loc 5 522 0
 1212 003e FFF7FEFF 		bl	chSysUnlock
 1213              	.LVL122:
 1214              	.LBE140:
 1215              	.LBE139:
 1216              		.loc 3 689 0
 1217 0042 E41B     		subs	r4, r4, r7
 1218              	.LVL123:
 1219              		.loc 3 690 0
 1220 0044 3E44     		add	r6, r6, r7
 1221              	.LVL124:
 1222              	.LBB141:
 1223              	.LBB142:
 1224              		.loc 5 511 0
 1225 0046 FFF7FEFF 		bl	chSysLock
 1226              	.LVL125:
 1227 004a E4E7     		b	.L97
 1228              	.LVL126:
 1229              	.L99:
 1230              	.LBE142:
 1231              	.LBE141:
 1232              	.LBE135:
 1233              	.LBB143:
 1234              	.LBB144:
 1235              		.loc 5 522 0
 1236 004c FFF7FEFF 		bl	chSysUnlock
 1237              	.LVL127:
 1238              	.LBE144:
 1239              	.LBE143:
 1240              		.loc 3 698 0
 1241 0050 C4EB0800 		rsb	r0, r4, r8
 1242 0054 BDE8F087 		pop	{r4, r5, r6, r7, r8, r9, r10, pc}
 1243              		.cfi_endproc
 1244              	.LFE338:
 1245              		.size	oqWriteTimeout, .-oqWriteTimeout
 1246              		.text
 1247              	.Letext0:
 1248              		.file 6 "/usr/lib/gcc/arm-none-eabi/5.4.1/include/stddef.h"
 1249              		.file 7 "/usr/include/newlib/machine/_default_types.h"
 1250              		.file 8 "/usr/include/newlib/sys/_stdint.h"
 1251              		.file 9 "../../modules/ChibiOS/os/common/ports/ARMCMx/compilers/GCC/chtypes.h"
 1252              		.file 10 "../../modules/ChibiOS/os/rt/include/chsystypes.h"
 1253              		.file 11 "../../modules/ChibiOS/os/rt/include/chtime.h"
 1254              		.file 12 "../../modules/ChibiOS/os/common/ports/ARMCMx/chcore.h"
ARM GAS  /tmp/ccnd1HRZ.s 			page 23


 1255              		.file 13 "../../modules/ChibiOS/os/common/ports/ARMCMx/chcore_v7m.h"
 1256              		.file 14 "../../modules/ChibiOS/os/rt/include/chtm.h"
 1257              		.file 15 "../../modules/ChibiOS/os/rt/include/chstats.h"
 1258              		.file 16 "../../modules/ChibiOS/os/rt/include/chsem.h"
 1259              		.file 17 "../../modules/ChibiOS/os/rt/include/chmtx.h"
 1260              		.file 18 "../../modules/ChibiOS/os/hal/include/hal_queues.h"
 1261              		.file 19 "../../modules/ChibiOS/os/rt/include/chthreads.h"
 1262              		.file 20 "../../modules/ChibiOS/os/common/ext/ARM/CMSIS/Core/Include/core_cm4.h"