ARM GAS  /tmp/ccLmi2EU.s 			page 1


   1              		.syntax unified
   2              		.cpu cortex-m4
   3              		.eabi_attribute 27, 1
   4              		.eabi_attribute 28, 1
   5              		.fpu fpv4-sp-d16
   6              		.eabi_attribute 20, 1
   7              		.eabi_attribute 21, 1
   8              		.eabi_attribute 23, 3
   9              		.eabi_attribute 24, 1
  10              		.eabi_attribute 25, 1
  11              		.eabi_attribute 26, 1
  12              		.eabi_attribute 30, 4
  13              		.eabi_attribute 34, 1
  14              		.eabi_attribute 18, 4
  15              		.thumb
  16              		.syntax unified
  17              		.file	"hal_st.c"
  18              		.text
  19              	.Ltext0:
  20              		.cfi_sections	.debug_frame
  21              		.section	.text.stInit,"ax",%progbits
  22              		.align	1
  23              		.global	stInit
  24              		.thumb
  25              		.thumb_func
  26              		.type	stInit, %function
  27              	stInit:
  28              	.LFB323:
  29              		.file 1 "../../modules/ChibiOS/os/hal/src/hal_st.c"
  30              		.loc 1 60 0
  31              		.cfi_startproc
  32              		@ args = 0, pretend = 0, frame = 0
  33              		@ frame_needed = 0, uses_anonymous_args = 0
  34              		@ link register save eliminated.
  35              		.loc 1 62 0
  36 0000 FFF7FEBF 		b	st_lld_init
  37              	.LVL0:
  38              		.cfi_endproc
  39              	.LFE323:
  40              		.size	stInit, .-stInit
  41              		.section	.text.stStartAlarm,"ax",%progbits
  42              		.align	1
  43              		.global	stStartAlarm
  44              		.thumb
  45              		.thumb_func
  46              		.type	stStartAlarm, %function
  47              	stStartAlarm:
  48              	.LFB324:
  49              		.loc 1 77 0
  50              		.cfi_startproc
  51              		@ args = 0, pretend = 0, frame = 0
  52              		@ frame_needed = 0, uses_anonymous_args = 0
  53              		@ link register save eliminated.
  54              	.LVL1:
  55              	.LBB10:
  56              	.LBB11:
  57              		.file 2 "../../modules/ChibiOS/os/hal/ports/STM32/LLD/TIMv1/hal_st_lld.h"
ARM GAS  /tmp/ccLmi2EU.s 			page 2


  58              		.loc 2 161 0
  59 0000 034B     		ldr	r3, .L3
  60              		.loc 2 162 0
  61 0002 0022     		movs	r2, #0
  62              		.loc 2 161 0
  63 0004 5863     		str	r0, [r3, #52]
  64              		.loc 2 162 0
  65 0006 1A61     		str	r2, [r3, #16]
  66              		.loc 2 163 0
  67 0008 0222     		movs	r2, #2
  68 000a DA60     		str	r2, [r3, #12]
  69              	.LVL2:
  70 000c 7047     		bx	lr
  71              	.L4:
  72 000e 00BF     		.align	2
  73              	.L3:
  74 0010 000C0040 		.word	1073744896
  75              	.LBE11:
  76              	.LBE10:
  77              		.cfi_endproc
  78              	.LFE324:
  79              		.size	stStartAlarm, .-stStartAlarm
  80              		.section	.text.stStopAlarm,"ax",%progbits
  81              		.align	1
  82              		.global	stStopAlarm
  83              		.thumb
  84              		.thumb_func
  85              		.type	stStopAlarm, %function
  86              	stStopAlarm:
  87              	.LFB325:
  88              		.loc 1 91 0
  89              		.cfi_startproc
  90              		@ args = 0, pretend = 0, frame = 0
  91              		@ frame_needed = 0, uses_anonymous_args = 0
  92              		@ link register save eliminated.
  93              	.LBB12:
  94              	.LBB13:
  95              		.loc 2 173 0
  96 0000 014B     		ldr	r3, .L6
  97 0002 0022     		movs	r2, #0
  98 0004 DA60     		str	r2, [r3, #12]
  99 0006 7047     		bx	lr
 100              	.L7:
 101              		.align	2
 102              	.L6:
 103 0008 000C0040 		.word	1073744896
 104              	.LBE13:
 105              	.LBE12:
 106              		.cfi_endproc
 107              	.LFE325:
 108              		.size	stStopAlarm, .-stStopAlarm
 109              		.section	.text.stSetAlarm,"ax",%progbits
 110              		.align	1
 111              		.global	stSetAlarm
 112              		.thumb
 113              		.thumb_func
 114              		.type	stSetAlarm, %function
ARM GAS  /tmp/ccLmi2EU.s 			page 3


 115              	stSetAlarm:
 116              	.LFB326:
 117              		.loc 1 105 0
 118              		.cfi_startproc
 119              		@ args = 0, pretend = 0, frame = 0
 120              		@ frame_needed = 0, uses_anonymous_args = 0
 121              		@ link register save eliminated.
 122              	.LVL3:
 123              	.LBB14:
 124              	.LBB15:
 125              		.loc 2 185 0
 126 0000 014B     		ldr	r3, .L9
 127 0002 5863     		str	r0, [r3, #52]
 128              	.LVL4:
 129 0004 7047     		bx	lr
 130              	.L10:
 131 0006 00BF     		.align	2
 132              	.L9:
 133 0008 000C0040 		.word	1073744896
 134              	.LBE15:
 135              	.LBE14:
 136              		.cfi_endproc
 137              	.LFE326:
 138              		.size	stSetAlarm, .-stSetAlarm
 139              		.section	.text.stGetAlarm,"ax",%progbits
 140              		.align	1
 141              		.global	stGetAlarm
 142              		.thumb
 143              		.thumb_func
 144              		.type	stGetAlarm, %function
 145              	stGetAlarm:
 146              	.LFB327:
 147              		.loc 1 121 0
 148              		.cfi_startproc
 149              		@ args = 0, pretend = 0, frame = 0
 150              		@ frame_needed = 0, uses_anonymous_args = 0
 151              		@ link register save eliminated.
 152              	.LBB16:
 153              	.LBB17:
 154              		.loc 2 197 0
 155 0000 014B     		ldr	r3, .L12
 156 0002 586B     		ldr	r0, [r3, #52]
 157              	.LBE17:
 158              	.LBE16:
 159              		.loc 1 126 0
 160 0004 7047     		bx	lr
 161              	.L13:
 162 0006 00BF     		.align	2
 163              	.L12:
 164 0008 000C0040 		.word	1073744896
 165              		.cfi_endproc
 166              	.LFE327:
 167              		.size	stGetAlarm, .-stGetAlarm
 168              		.text
 169              	.Letext0:
 170              		.file 3 "/usr/include/newlib/machine/_default_types.h"
 171              		.file 4 "/usr/include/newlib/sys/_stdint.h"
ARM GAS  /tmp/ccLmi2EU.s 			page 4


 172              		.file 5 "../../modules/ChibiOS/os/common/ports/ARMCMx/compilers/GCC/chtypes.h"
 173              		.file 6 "../../modules/ChibiOS/os/rt/include/chsystypes.h"
 174              		.file 7 "../../modules/ChibiOS/os/rt/include/chschd.h"
 175              		.file 8 "../../modules/ChibiOS/os/rt/include/chtime.h"
 176              		.file 9 "../../modules/ChibiOS/os/common/ports/ARMCMx/chcore.h"
 177              		.file 10 "../../modules/ChibiOS/os/common/ports/ARMCMx/chcore_v7m.h"
 178              		.file 11 "../../modules/ChibiOS/os/hal/ports/STM32/LLD/TIMv1/stm32_tim.h"
 179              		.file 12 "../../modules/ChibiOS/os/rt/include/chtm.h"
 180              		.file 13 "../../modules/ChibiOS/os/rt/include/chstats.h"
 181              		.file 14 "../../modules/ChibiOS/os/rt/include/chsem.h"
 182              		.file 15 "../../modules/ChibiOS/os/rt/include/chmtx.h"
 183              		.file 16 "../../modules/ChibiOS/os/common/ext/ARM/CMSIS/Core/Include/core_cm4.h"