ARM GAS  /tmp/cc7gQbhQ.s 			page 1


   1              		.syntax unified
   2              		.cpu cortex-m4
   3              		.eabi_attribute 27, 1
   4              		.eabi_attribute 28, 1
   5              		.fpu fpv4-sp-d16
   6              		.eabi_attribute 20, 1
   7              		.eabi_attribute 21, 1
   8              		.eabi_attribute 23, 3
   9              		.eabi_attribute 24, 1
  10              		.eabi_attribute 25, 1
  11              		.eabi_attribute 26, 1
  12              		.eabi_attribute 30, 4
  13              		.eabi_attribute 34, 1
  14              		.eabi_attribute 18, 4
  15              		.thumb
  16              		.syntax unified
  17              		.file	"hal_pwm.c"
  18              		.text
  19              	.Ltext0:
  20              		.cfi_sections	.debug_frame
  21              		.section	.text.chSysLock,"ax",%progbits
  22              		.align	1
  23              		.thumb
  24              		.thumb_func
  25              		.type	chSysLock, %function
  26              	chSysLock:
  27              	.LFB184:
  28              		.file 1 "../../modules/ChibiOS/os/rt/include/chsys.h"
  29              		.loc 1 353 0
  30              		.cfi_startproc
  31              		@ args = 0, pretend = 0, frame = 0
  32              		@ frame_needed = 0, uses_anonymous_args = 0
  33              		@ link register save eliminated.
  34              	.LVL0:
  35              	.LBB50:
  36              	.LBB51:
  37              	.LBB52:
  38              		.file 2 "../../modules/ChibiOS/os/common/ext/ARM/CMSIS/Core/Include/cmsis_gcc.h"
  39              		.loc 2 493 0
  40 0000 2023     		movs	r3, #32
  41              		.syntax unified
  42              	@ 493 "../../modules/ChibiOS/os/common/ext/ARM/CMSIS/Core/Include/cmsis_gcc.h" 1
  43 0002 83F31188 		MSR basepri, r3
  44              	@ 0 "" 2
  45              	.LVL1:
  46              		.thumb
  47              		.syntax unified
  48              	.LBE52:
  49              	.LBE51:
  50              	.LBE50:
  51              		.loc 1 356 0
  52 0006 FFF7FEBF 		b	_stats_start_measure_crit_thd
  53              	.LVL2:
  54              		.cfi_endproc
  55              	.LFE184:
  56              		.size	chSysLock, .-chSysLock
  57              		.section	.text.chSysUnlock,"ax",%progbits
ARM GAS  /tmp/cc7gQbhQ.s 			page 2


  58              		.align	1
  59              		.thumb
  60              		.thumb_func
  61              		.type	chSysUnlock, %function
  62              	chSysUnlock:
  63              	.LFB185:
  64              		.loc 1 365 0
  65              		.cfi_startproc
  66              		@ args = 0, pretend = 0, frame = 0
  67              		@ frame_needed = 0, uses_anonymous_args = 0
  68 0000 08B5     		push	{r3, lr}
  69              		.cfi_def_cfa_offset 8
  70              		.cfi_offset 3, -8
  71              		.cfi_offset 14, -4
  72              		.loc 1 368 0
  73 0002 FFF7FEFF 		bl	_stats_stop_measure_crit_thd
  74              	.LVL3:
  75              	.LBB53:
  76              	.LBB54:
  77              	.LBB55:
  78              		.loc 2 493 0
  79 0006 0023     		movs	r3, #0
  80              		.syntax unified
  81              	@ 493 "../../modules/ChibiOS/os/common/ext/ARM/CMSIS/Core/Include/cmsis_gcc.h" 1
  82 0008 83F31188 		MSR basepri, r3
  83              	@ 0 "" 2
  84              	.LVL4:
  85              		.thumb
  86              		.syntax unified
  87 000c 08BD     		pop	{r3, pc}
  88              	.LBE55:
  89              	.LBE54:
  90              	.LBE53:
  91              		.cfi_endproc
  92              	.LFE185:
  93              		.size	chSysUnlock, .-chSysUnlock
  94              		.section	.text.pwmInit,"ax",%progbits
  95              		.align	1
  96              		.global	pwmInit
  97              		.thumb
  98              		.thumb_func
  99              		.type	pwmInit, %function
 100              	pwmInit:
 101              	.LFB323:
 102              		.file 3 "../../modules/ChibiOS/os/hal/src/hal_pwm.c"
 103              		.loc 3 56 0
 104              		.cfi_startproc
 105              		@ args = 0, pretend = 0, frame = 0
 106              		@ frame_needed = 0, uses_anonymous_args = 0
 107              		@ link register save eliminated.
 108              		.loc 3 58 0
 109 0000 FFF7FEBF 		b	pwm_lld_init
 110              	.LVL5:
 111              		.cfi_endproc
 112              	.LFE323:
 113              		.size	pwmInit, .-pwmInit
 114              		.section	.text.pwmObjectInit,"ax",%progbits
ARM GAS  /tmp/cc7gQbhQ.s 			page 3


 115              		.align	1
 116              		.global	pwmObjectInit
 117              		.thumb
 118              		.thumb_func
 119              		.type	pwmObjectInit, %function
 120              	pwmObjectInit:
 121              	.LFB324:
 122              		.loc 3 68 0
 123              		.cfi_startproc
 124              		@ args = 0, pretend = 0, frame = 0
 125              		@ frame_needed = 0, uses_anonymous_args = 0
 126              		@ link register save eliminated.
 127              	.LVL6:
 128              		.loc 3 70 0
 129 0000 0123     		movs	r3, #1
 130 0002 0370     		strb	r3, [r0]
 131              		.loc 3 71 0
 132 0004 0023     		movs	r3, #0
 133 0006 4360     		str	r3, [r0, #4]
 134              		.loc 3 72 0
 135 0008 C360     		str	r3, [r0, #12]
 136              		.loc 3 73 0
 137 000a 0374     		strb	r3, [r0, #16]
 138 000c 7047     		bx	lr
 139              		.cfi_endproc
 140              	.LFE324:
 141              		.size	pwmObjectInit, .-pwmObjectInit
 142              		.section	.text.pwmStart,"ax",%progbits
 143              		.align	1
 144              		.global	pwmStart
 145              		.thumb
 146              		.thumb_func
 147              		.type	pwmStart, %function
 148              	pwmStart:
 149              	.LFB325:
 150              		.loc 3 89 0
 151              		.cfi_startproc
 152              		@ args = 0, pretend = 0, frame = 0
 153              		@ frame_needed = 0, uses_anonymous_args = 0
 154              	.LVL7:
 155 0000 38B5     		push	{r3, r4, r5, lr}
 156              		.cfi_def_cfa_offset 16
 157              		.cfi_offset 3, -16
 158              		.cfi_offset 4, -12
 159              		.cfi_offset 5, -8
 160              		.cfi_offset 14, -4
 161              		.loc 3 89 0
 162 0002 0D46     		mov	r5, r1
 163 0004 0446     		mov	r4, r0
 164              	.LBB56:
 165              	.LBB57:
 166              		.file 4 "../../modules/ChibiOS/os/hal/osal/rt/osal.h"
 167              		.loc 4 511 0
 168 0006 FFF7FEFF 		bl	chSysLock
 169              	.LVL8:
 170              	.LBE57:
 171              	.LBE56:
ARM GAS  /tmp/cc7gQbhQ.s 			page 4


 172              		.loc 3 97 0
 173 000a 6B68     		ldr	r3, [r5, #4]
 174 000c A360     		str	r3, [r4, #8]
 175              		.loc 3 96 0
 176 000e 6560     		str	r5, [r4, #4]
 177              		.loc 3 98 0
 178 0010 2046     		mov	r0, r4
 179 0012 FFF7FEFF 		bl	pwm_lld_start
 180              	.LVL9:
 181              		.loc 3 99 0
 182 0016 0023     		movs	r3, #0
 183 0018 E360     		str	r3, [r4, #12]
 184              		.loc 3 100 0
 185 001a 0223     		movs	r3, #2
 186 001c 2370     		strb	r3, [r4]
 187              		.loc 3 102 0
 188 001e BDE83840 		pop	{r3, r4, r5, lr}
 189              		.cfi_restore 14
 190              		.cfi_restore 5
 191              		.cfi_restore 4
 192              		.cfi_restore 3
 193              		.cfi_def_cfa_offset 0
 194              	.LVL10:
 195              	.LBB58:
 196              	.LBB59:
 197              		.loc 4 522 0
 198 0022 FFF7FEBF 		b	chSysUnlock
 199              	.LVL11:
 200              	.LBE59:
 201              	.LBE58:
 202              		.cfi_endproc
 203              	.LFE325:
 204              		.size	pwmStart, .-pwmStart
 205              		.section	.text.pwmStop,"ax",%progbits
 206              		.align	1
 207              		.global	pwmStop
 208              		.thumb
 209              		.thumb_func
 210              		.type	pwmStop, %function
 211              	pwmStop:
 212              	.LFB326:
 213              		.loc 3 111 0
 214              		.cfi_startproc
 215              		@ args = 0, pretend = 0, frame = 0
 216              		@ frame_needed = 0, uses_anonymous_args = 0
 217              	.LVL12:
 218 0000 10B5     		push	{r4, lr}
 219              		.cfi_def_cfa_offset 8
 220              		.cfi_offset 4, -8
 221              		.cfi_offset 14, -4
 222              		.loc 3 111 0
 223 0002 0446     		mov	r4, r0
 224              	.LBB60:
 225              	.LBB61:
 226              		.loc 4 511 0
 227 0004 FFF7FEFF 		bl	chSysLock
 228              	.LVL13:
ARM GAS  /tmp/cc7gQbhQ.s 			page 5


 229              	.LBE61:
 230              	.LBE60:
 231              		.loc 3 120 0
 232 0008 2046     		mov	r0, r4
 233 000a FFF7FEFF 		bl	pwm_lld_stop
 234              	.LVL14:
 235              		.loc 3 121 0
 236 000e 0023     		movs	r3, #0
 237 0010 E360     		str	r3, [r4, #12]
 238              		.loc 3 122 0
 239 0012 6360     		str	r3, [r4, #4]
 240              		.loc 3 123 0
 241 0014 0123     		movs	r3, #1
 242 0016 2370     		strb	r3, [r4]
 243              		.loc 3 126 0
 244 0018 BDE81040 		pop	{r4, lr}
 245              		.cfi_restore 14
 246              		.cfi_restore 4
 247              		.cfi_def_cfa_offset 0
 248              	.LVL15:
 249              	.LBB62:
 250              	.LBB63:
 251              		.loc 4 522 0
 252 001c FFF7FEBF 		b	chSysUnlock
 253              	.LVL16:
 254              	.LBE63:
 255              	.LBE62:
 256              		.cfi_endproc
 257              	.LFE326:
 258              		.size	pwmStop, .-pwmStop
 259              		.section	.text.pwmChangePeriod,"ax",%progbits
 260              		.align	1
 261              		.global	pwmChangePeriod
 262              		.thumb
 263              		.thumb_func
 264              		.type	pwmChangePeriod, %function
 265              	pwmChangePeriod:
 266              	.LFB327:
 267              		.loc 3 143 0
 268              		.cfi_startproc
 269              		@ args = 0, pretend = 0, frame = 0
 270              		@ frame_needed = 0, uses_anonymous_args = 0
 271              	.LVL17:
 272 0000 38B5     		push	{r3, r4, r5, lr}
 273              		.cfi_def_cfa_offset 16
 274              		.cfi_offset 3, -16
 275              		.cfi_offset 4, -12
 276              		.cfi_offset 5, -8
 277              		.cfi_offset 14, -4
 278              		.loc 3 143 0
 279 0002 0546     		mov	r5, r0
 280 0004 0C46     		mov	r4, r1
 281              	.LBB64:
 282              	.LBB65:
 283              		.loc 4 511 0
 284 0006 FFF7FEFF 		bl	chSysLock
 285              	.LVL18:
ARM GAS  /tmp/cc7gQbhQ.s 			page 6


 286              	.LBE65:
 287              	.LBE64:
 288              		.loc 3 149 0
 289 000a AB69     		ldr	r3, [r5, #24]
 290 000c AC60     		str	r4, [r5, #8]
 291 000e 013C     		subs	r4, r4, #1
 292              	.LVL19:
 293 0010 DC62     		str	r4, [r3, #44]
 294              		.loc 3 151 0
 295 0012 BDE83840 		pop	{r3, r4, r5, lr}
 296              		.cfi_restore 14
 297              		.cfi_restore 5
 298              		.cfi_restore 4
 299              		.cfi_restore 3
 300              		.cfi_def_cfa_offset 0
 301              	.LVL20:
 302              	.LBB66:
 303              	.LBB67:
 304              		.loc 4 522 0
 305 0016 FFF7FEBF 		b	chSysUnlock
 306              	.LVL21:
 307              	.LBE67:
 308              	.LBE66:
 309              		.cfi_endproc
 310              	.LFE327:
 311              		.size	pwmChangePeriod, .-pwmChangePeriod
 312              		.section	.text.pwmEnableChannel,"ax",%progbits
 313              		.align	1
 314              		.global	pwmEnableChannel
 315              		.thumb
 316              		.thumb_func
 317              		.type	pwmEnableChannel, %function
 318              	pwmEnableChannel:
 319              	.LFB328:
 320              		.loc 3 169 0
 321              		.cfi_startproc
 322              		@ args = 0, pretend = 0, frame = 0
 323              		@ frame_needed = 0, uses_anonymous_args = 0
 324              	.LVL22:
 325 0000 70B5     		push	{r4, r5, r6, lr}
 326              		.cfi_def_cfa_offset 16
 327              		.cfi_offset 4, -16
 328              		.cfi_offset 5, -12
 329              		.cfi_offset 6, -8
 330              		.cfi_offset 14, -4
 331              		.loc 3 169 0
 332 0002 0446     		mov	r4, r0
 333 0004 0D46     		mov	r5, r1
 334 0006 1646     		mov	r6, r2
 335              	.LBB68:
 336              	.LBB69:
 337              		.loc 4 511 0
 338 0008 FFF7FEFF 		bl	chSysLock
 339              	.LVL23:
 340              	.LBE69:
 341              	.LBE68:
 342              		.loc 3 177 0
ARM GAS  /tmp/cc7gQbhQ.s 			page 7


 343 000c E268     		ldr	r2, [r4, #12]
 344 000e 0123     		movs	r3, #1
 345 0010 AB40     		lsls	r3, r3, r5
 346 0012 1343     		orrs	r3, r3, r2
 347 0014 E360     		str	r3, [r4, #12]
 348 0016 3246     		mov	r2, r6
 349 0018 2946     		mov	r1, r5
 350 001a 2046     		mov	r0, r4
 351 001c FFF7FEFF 		bl	pwm_lld_enable_channel
 352              	.LVL24:
 353              		.loc 3 180 0
 354 0020 BDE87040 		pop	{r4, r5, r6, lr}
 355              		.cfi_restore 14
 356              		.cfi_restore 6
 357              		.cfi_restore 5
 358              		.cfi_restore 4
 359              		.cfi_def_cfa_offset 0
 360              	.LVL25:
 361              	.LBB70:
 362              	.LBB71:
 363              		.loc 4 522 0
 364 0024 FFF7FEBF 		b	chSysUnlock
 365              	.LVL26:
 366              	.LBE71:
 367              	.LBE70:
 368              		.cfi_endproc
 369              	.LFE328:
 370              		.size	pwmEnableChannel, .-pwmEnableChannel
 371              		.section	.text.pwmDisableChannel,"ax",%progbits
 372              		.align	1
 373              		.global	pwmDisableChannel
 374              		.thumb
 375              		.thumb_func
 376              		.type	pwmDisableChannel, %function
 377              	pwmDisableChannel:
 378              	.LFB329:
 379              		.loc 3 196 0
 380              		.cfi_startproc
 381              		@ args = 0, pretend = 0, frame = 0
 382              		@ frame_needed = 0, uses_anonymous_args = 0
 383              	.LVL27:
 384 0000 38B5     		push	{r3, r4, r5, lr}
 385              		.cfi_def_cfa_offset 16
 386              		.cfi_offset 3, -16
 387              		.cfi_offset 4, -12
 388              		.cfi_offset 5, -8
 389              		.cfi_offset 14, -4
 390              		.loc 3 196 0
 391 0002 0446     		mov	r4, r0
 392 0004 0D46     		mov	r5, r1
 393              	.LBB72:
 394              	.LBB73:
 395              		.loc 4 511 0
 396 0006 FFF7FEFF 		bl	chSysLock
 397              	.LVL28:
 398              	.LBE73:
 399              	.LBE72:
ARM GAS  /tmp/cc7gQbhQ.s 			page 8


 400              		.loc 3 204 0
 401 000a 0123     		movs	r3, #1
 402 000c 03FA05F2 		lsl	r2, r3, r5
 403 0010 E368     		ldr	r3, [r4, #12]
 404 0012 23EA0203 		bic	r3, r3, r2
 405 0016 E360     		str	r3, [r4, #12]
 406 0018 2946     		mov	r1, r5
 407 001a 2046     		mov	r0, r4
 408 001c FFF7FEFF 		bl	pwm_lld_disable_channel
 409              	.LVL29:
 410              		.loc 3 207 0
 411 0020 BDE83840 		pop	{r3, r4, r5, lr}
 412              		.cfi_restore 14
 413              		.cfi_restore 5
 414              		.cfi_restore 4
 415              		.cfi_restore 3
 416              		.cfi_def_cfa_offset 0
 417              	.LVL30:
 418              	.LBB74:
 419              	.LBB75:
 420              		.loc 4 522 0
 421 0024 FFF7FEBF 		b	chSysUnlock
 422              	.LVL31:
 423              	.LBE75:
 424              	.LBE74:
 425              		.cfi_endproc
 426              	.LFE329:
 427              		.size	pwmDisableChannel, .-pwmDisableChannel
 428              		.section	.text.pwmEnablePeriodicNotification,"ax",%progbits
 429              		.align	1
 430              		.global	pwmEnablePeriodicNotification
 431              		.thumb
 432              		.thumb_func
 433              		.type	pwmEnablePeriodicNotification, %function
 434              	pwmEnablePeriodicNotification:
 435              	.LFB330:
 436              		.loc 3 218 0
 437              		.cfi_startproc
 438              		@ args = 0, pretend = 0, frame = 0
 439              		@ frame_needed = 0, uses_anonymous_args = 0
 440              	.LVL32:
 441 0000 10B5     		push	{r4, lr}
 442              		.cfi_def_cfa_offset 8
 443              		.cfi_offset 4, -8
 444              		.cfi_offset 14, -4
 445              		.loc 3 218 0
 446 0002 0446     		mov	r4, r0
 447              	.LBB76:
 448              	.LBB77:
 449              		.loc 4 511 0
 450 0004 FFF7FEFF 		bl	chSysLock
 451              	.LVL33:
 452              	.LBE77:
 453              	.LBE76:
 454              		.loc 3 227 0
 455 0008 2046     		mov	r0, r4
 456 000a FFF7FEFF 		bl	pwm_lld_enable_periodic_notification
ARM GAS  /tmp/cc7gQbhQ.s 			page 9


 457              	.LVL34:
 458              		.loc 3 230 0
 459 000e BDE81040 		pop	{r4, lr}
 460              		.cfi_restore 14
 461              		.cfi_restore 4
 462              		.cfi_def_cfa_offset 0
 463              	.LVL35:
 464              	.LBB78:
 465              	.LBB79:
 466              		.loc 4 522 0
 467 0012 FFF7FEBF 		b	chSysUnlock
 468              	.LVL36:
 469              	.LBE79:
 470              	.LBE78:
 471              		.cfi_endproc
 472              	.LFE330:
 473              		.size	pwmEnablePeriodicNotification, .-pwmEnablePeriodicNotification
 474              		.section	.text.pwmDisablePeriodicNotification,"ax",%progbits
 475              		.align	1
 476              		.global	pwmDisablePeriodicNotification
 477              		.thumb
 478              		.thumb_func
 479              		.type	pwmDisablePeriodicNotification, %function
 480              	pwmDisablePeriodicNotification:
 481              	.LFB331:
 482              		.loc 3 241 0
 483              		.cfi_startproc
 484              		@ args = 0, pretend = 0, frame = 0
 485              		@ frame_needed = 0, uses_anonymous_args = 0
 486              	.LVL37:
 487 0000 10B5     		push	{r4, lr}
 488              		.cfi_def_cfa_offset 8
 489              		.cfi_offset 4, -8
 490              		.cfi_offset 14, -4
 491              		.loc 3 241 0
 492 0002 0446     		mov	r4, r0
 493              	.LBB80:
 494              	.LBB81:
 495              		.loc 4 511 0
 496 0004 FFF7FEFF 		bl	chSysLock
 497              	.LVL38:
 498              	.LBE81:
 499              	.LBE80:
 500              		.loc 3 250 0
 501 0008 2046     		mov	r0, r4
 502 000a FFF7FEFF 		bl	pwm_lld_disable_periodic_notification
 503              	.LVL39:
 504              		.loc 3 253 0
 505 000e BDE81040 		pop	{r4, lr}
 506              		.cfi_restore 14
 507              		.cfi_restore 4
 508              		.cfi_def_cfa_offset 0
 509              	.LVL40:
 510              	.LBB82:
 511              	.LBB83:
 512              		.loc 4 522 0
 513 0012 FFF7FEBF 		b	chSysUnlock
ARM GAS  /tmp/cc7gQbhQ.s 			page 10


 514              	.LVL41:
 515              	.LBE83:
 516              	.LBE82:
 517              		.cfi_endproc
 518              	.LFE331:
 519              		.size	pwmDisablePeriodicNotification, .-pwmDisablePeriodicNotification
 520              		.section	.text.pwmEnableChannelNotification,"ax",%progbits
 521              		.align	1
 522              		.global	pwmEnableChannelNotification
 523              		.thumb
 524              		.thumb_func
 525              		.type	pwmEnableChannelNotification, %function
 526              	pwmEnableChannelNotification:
 527              	.LFB332:
 528              		.loc 3 266 0
 529              		.cfi_startproc
 530              		@ args = 0, pretend = 0, frame = 0
 531              		@ frame_needed = 0, uses_anonymous_args = 0
 532              	.LVL42:
 533 0000 38B5     		push	{r3, r4, r5, lr}
 534              		.cfi_def_cfa_offset 16
 535              		.cfi_offset 3, -16
 536              		.cfi_offset 4, -12
 537              		.cfi_offset 5, -8
 538              		.cfi_offset 14, -4
 539              		.loc 3 266 0
 540 0002 0446     		mov	r4, r0
 541 0004 0D46     		mov	r5, r1
 542              	.LBB84:
 543              	.LBB85:
 544              		.loc 4 511 0
 545 0006 FFF7FEFF 		bl	chSysLock
 546              	.LVL43:
 547              	.LBE85:
 548              	.LBE84:
 549              		.loc 3 278 0
 550 000a 2946     		mov	r1, r5
 551 000c 2046     		mov	r0, r4
 552 000e FFF7FEFF 		bl	pwm_lld_enable_channel_notification
 553              	.LVL44:
 554              		.loc 3 281 0
 555 0012 BDE83840 		pop	{r3, r4, r5, lr}
 556              		.cfi_restore 14
 557              		.cfi_restore 5
 558              		.cfi_restore 4
 559              		.cfi_restore 3
 560              		.cfi_def_cfa_offset 0
 561              	.LVL45:
 562              	.LBB86:
 563              	.LBB87:
 564              		.loc 4 522 0
 565 0016 FFF7FEBF 		b	chSysUnlock
 566              	.LVL46:
 567              	.LBE87:
 568              	.LBE86:
 569              		.cfi_endproc
 570              	.LFE332:
ARM GAS  /tmp/cc7gQbhQ.s 			page 11


 571              		.size	pwmEnableChannelNotification, .-pwmEnableChannelNotification
 572              		.section	.text.pwmDisableChannelNotification,"ax",%progbits
 573              		.align	1
 574              		.global	pwmDisableChannelNotification
 575              		.thumb
 576              		.thumb_func
 577              		.type	pwmDisableChannelNotification, %function
 578              	pwmDisableChannelNotification:
 579              	.LFB333:
 580              		.loc 3 294 0
 581              		.cfi_startproc
 582              		@ args = 0, pretend = 0, frame = 0
 583              		@ frame_needed = 0, uses_anonymous_args = 0
 584              	.LVL47:
 585 0000 38B5     		push	{r3, r4, r5, lr}
 586              		.cfi_def_cfa_offset 16
 587              		.cfi_offset 3, -16
 588              		.cfi_offset 4, -12
 589              		.cfi_offset 5, -8
 590              		.cfi_offset 14, -4
 591              		.loc 3 294 0
 592 0002 0446     		mov	r4, r0
 593 0004 0D46     		mov	r5, r1
 594              	.LBB88:
 595              	.LBB89:
 596              		.loc 4 511 0
 597 0006 FFF7FEFF 		bl	chSysLock
 598              	.LVL48:
 599              	.LBE89:
 600              	.LBE88:
 601              		.loc 3 306 0
 602 000a 2946     		mov	r1, r5
 603 000c 2046     		mov	r0, r4
 604 000e FFF7FEFF 		bl	pwm_lld_disable_channel_notification
 605              	.LVL49:
 606              		.loc 3 309 0
 607 0012 BDE83840 		pop	{r3, r4, r5, lr}
 608              		.cfi_restore 14
 609              		.cfi_restore 5
 610              		.cfi_restore 4
 611              		.cfi_restore 3
 612              		.cfi_def_cfa_offset 0
 613              	.LVL50:
 614              	.LBB90:
 615              	.LBB91:
 616              		.loc 4 522 0
 617 0016 FFF7FEBF 		b	chSysUnlock
 618              	.LVL51:
 619              	.LBE91:
 620              	.LBE90:
 621              		.cfi_endproc
 622              	.LFE333:
 623              		.size	pwmDisableChannelNotification, .-pwmDisableChannelNotification
 624              		.text
 625              	.Letext0:
 626              		.file 5 "/usr/include/newlib/machine/_default_types.h"
 627              		.file 6 "/usr/include/newlib/sys/_stdint.h"
ARM GAS  /tmp/cc7gQbhQ.s 			page 12


 628              		.file 7 "../../modules/ChibiOS/os/common/ports/ARMCMx/compilers/GCC/chtypes.h"
 629              		.file 8 "../../modules/ChibiOS/os/rt/include/chsystypes.h"
 630              		.file 9 "../../modules/ChibiOS/os/rt/include/chschd.h"
 631              		.file 10 "../../modules/ChibiOS/os/rt/include/chtime.h"
 632              		.file 11 "../../modules/ChibiOS/os/common/ports/ARMCMx/chcore.h"
 633              		.file 12 "../../modules/ChibiOS/os/common/ports/ARMCMx/chcore_v7m.h"
 634              		.file 13 "../../modules/ChibiOS/os/hal/ports/STM32/LLD/TIMv1/stm32_tim.h"
 635              		.file 14 "../../modules/ChibiOS/os/rt/include/chtm.h"
 636              		.file 15 "../../modules/ChibiOS/os/rt/include/chstats.h"
 637              		.file 16 "../../modules/ChibiOS/os/rt/include/chsem.h"
 638              		.file 17 "../../modules/ChibiOS/os/rt/include/chmtx.h"
 639              		.file 18 "../../modules/ChibiOS/os/hal/include/hal_pwm.h"
 640              		.file 19 "../../modules/ChibiOS/os/hal/ports/STM32/LLD/TIMv1/hal_pwm_lld.h"
 641              		.file 20 "../../modules/ChibiOS/os/common/ext/ARM/CMSIS/Core/Include/core_cm4.h"
 642              		.section	.debug_info,"",%progbits
 643              	.Ldebug_info0:
 644 0000 C4110000 		.4byte	0x11c4
 645 0004 0400     		.2byte	0x4
 646 0006 00000000 		.4byte	.Ldebug_abbrev0
 647 000a 04       		.byte	0x4
 648 000b 01       		.uleb128 0x1
 649 000c 88000000 		.4byte	.LASF170
 650 0010 0C       		.byte	0xc
 651 0011 35050000 		.4byte	.LASF171
 652 0015 E4060000 		.4byte	.LASF172
 653 0019 00000000 		.4byte	.Ldebug_ranges0+0
 654 001d 00000000 		.4byte	0
 655 0021 00000000 		.4byte	.Ldebug_line0
 656 0025 02       		.uleb128 0x2
 657 0026 04       		.byte	0x4
 658 0027 05       		.byte	0x5
 659 0028 696E7400 		.ascii	"int\000"
 660 002c 03       		.uleb128 0x3
 661 002d 04       		.byte	0x4
 662 002e 07       		.byte	0x7
 663 002f 68030000 		.4byte	.LASF0
 664 0033 03       		.uleb128 0x3
 665 0034 08       		.byte	0x8
 666 0035 05       		.byte	0x5
 667 0036 88050000 		.4byte	.LASF1
 668 003a 03       		.uleb128 0x3
 669 003b 08       		.byte	0x8
 670 003c 04       		.byte	0x4
 671 003d 29050000 		.4byte	.LASF2
 672 0041 03       		.uleb128 0x3
 673 0042 01       		.byte	0x1
 674 0043 06       		.byte	0x6
 675 0044 3C020000 		.4byte	.LASF3
 676 0048 04       		.uleb128 0x4
 677 0049 4D000000 		.4byte	.LASF7
 678 004d 05       		.byte	0x5
 679 004e 1D       		.byte	0x1d
 680 004f 53000000 		.4byte	0x53
 681 0053 03       		.uleb128 0x3
 682 0054 01       		.byte	0x1
 683 0055 08       		.byte	0x8
 684 0056 36060000 		.4byte	.LASF4
ARM GAS  /tmp/cc7gQbhQ.s 			page 13


 685 005a 03       		.uleb128 0x3
 686 005b 02       		.byte	0x2
 687 005c 05       		.byte	0x5
 688 005d 51060000 		.4byte	.LASF5
 689 0061 03       		.uleb128 0x3
 690 0062 02       		.byte	0x2
 691 0063 07       		.byte	0x7
 692 0064 E1070000 		.4byte	.LASF6
 693 0068 04       		.uleb128 0x4
 694 0069 9D040000 		.4byte	.LASF8
 695 006d 05       		.byte	0x5
 696 006e 3F       		.byte	0x3f
 697 006f 73000000 		.4byte	0x73
 698 0073 03       		.uleb128 0x3
 699 0074 04       		.byte	0x4
 700 0075 05       		.byte	0x5
 701 0076 8E020000 		.4byte	.LASF9
 702 007a 04       		.uleb128 0x4
 703 007b EE020000 		.4byte	.LASF10
 704 007f 05       		.byte	0x5
 705 0080 41       		.byte	0x41
 706 0081 85000000 		.4byte	0x85
 707 0085 03       		.uleb128 0x3
 708 0086 04       		.byte	0x4
 709 0087 07       		.byte	0x7
 710 0088 3C070000 		.4byte	.LASF11
 711 008c 04       		.uleb128 0x4
 712 008d B4050000 		.4byte	.LASF12
 713 0091 05       		.byte	0x5
 714 0092 5B       		.byte	0x5b
 715 0093 97000000 		.4byte	0x97
 716 0097 03       		.uleb128 0x3
 717 0098 08       		.byte	0x8
 718 0099 07       		.byte	0x7
 719 009a 96010000 		.4byte	.LASF13
 720 009e 04       		.uleb128 0x4
 721 009f 3F080000 		.4byte	.LASF14
 722 00a3 06       		.byte	0x6
 723 00a4 18       		.byte	0x18
 724 00a5 48000000 		.4byte	0x48
 725 00a9 04       		.uleb128 0x4
 726 00aa 2E060000 		.4byte	.LASF15
 727 00ae 06       		.byte	0x6
 728 00af 2C       		.byte	0x2c
 729 00b0 68000000 		.4byte	0x68
 730 00b4 04       		.uleb128 0x4
 731 00b5 0D080000 		.4byte	.LASF16
 732 00b9 06       		.byte	0x6
 733 00ba 30       		.byte	0x30
 734 00bb 7A000000 		.4byte	0x7a
 735 00bf 04       		.uleb128 0x4
 736 00c0 37000000 		.4byte	.LASF17
 737 00c4 06       		.byte	0x6
 738 00c5 3C       		.byte	0x3c
 739 00c6 8C000000 		.4byte	0x8c
 740 00ca 04       		.uleb128 0x4
 741 00cb 05080000 		.4byte	.LASF18
ARM GAS  /tmp/cc7gQbhQ.s 			page 14


 742 00cf 07       		.byte	0x7
 743 00d0 27       		.byte	0x27
 744 00d1 B4000000 		.4byte	0xb4
 745 00d5 04       		.uleb128 0x4
 746 00d6 01020000 		.4byte	.LASF19
 747 00da 07       		.byte	0x7
 748 00db 28       		.byte	0x28
 749 00dc BF000000 		.4byte	0xbf
 750 00e0 04       		.uleb128 0x4
 751 00e1 B2080000 		.4byte	.LASF20
 752 00e5 07       		.byte	0x7
 753 00e6 2A       		.byte	0x2a
 754 00e7 9E000000 		.4byte	0x9e
 755 00eb 04       		.uleb128 0x4
 756 00ec C9020000 		.4byte	.LASF21
 757 00f0 07       		.byte	0x7
 758 00f1 2B       		.byte	0x2b
 759 00f2 9E000000 		.4byte	0x9e
 760 00f6 04       		.uleb128 0x4
 761 00f7 F0050000 		.4byte	.LASF22
 762 00fb 07       		.byte	0x7
 763 00fc 2C       		.byte	0x2c
 764 00fd 9E000000 		.4byte	0x9e
 765 0101 04       		.uleb128 0x4
 766 0102 17060000 		.4byte	.LASF23
 767 0106 07       		.byte	0x7
 768 0107 2E       		.byte	0x2e
 769 0108 B4000000 		.4byte	0xb4
 770 010c 04       		.uleb128 0x4
 771 010d FE030000 		.4byte	.LASF24
 772 0111 07       		.byte	0x7
 773 0112 2F       		.byte	0x2f
 774 0113 A9000000 		.4byte	0xa9
 775 0117 04       		.uleb128 0x4
 776 0118 6C040000 		.4byte	.LASF25
 777 011c 07       		.byte	0x7
 778 011d 31       		.byte	0x31
 779 011e B4000000 		.4byte	0xb4
 780 0122 04       		.uleb128 0x4
 781 0123 62030000 		.4byte	.LASF26
 782 0127 07       		.byte	0x7
 783 0128 33       		.byte	0x33
 784 0129 A9000000 		.4byte	0xa9
 785 012d 04       		.uleb128 0x4
 786 012e 19040000 		.4byte	.LASF27
 787 0132 07       		.byte	0x7
 788 0133 34       		.byte	0x34
 789 0134 B4000000 		.4byte	0xb4
 790 0138 04       		.uleb128 0x4
 791 0139 7A070000 		.4byte	.LASF28
 792 013d 08       		.byte	0x8
 793 013e 34       		.byte	0x34
 794 013f 43010000 		.4byte	0x143
 795 0143 05       		.uleb128 0x5
 796 0144 BE030000 		.4byte	.LASF47
 797 0148 60       		.byte	0x60
 798 0149 09       		.byte	0x9
ARM GAS  /tmp/cc7gQbhQ.s 			page 15


 799 014a 8E       		.byte	0x8e
 800 014b 2E020000 		.4byte	0x22e
 801 014f 06       		.uleb128 0x6
 802 0150 CE030000 		.4byte	.LASF29
 803 0154 09       		.byte	0x9
 804 0155 8F       		.byte	0x8f
 805 0156 63020000 		.4byte	0x263
 806 015a 00       		.byte	0
 807 015b 06       		.uleb128 0x6
 808 015c A7050000 		.4byte	.LASF30
 809 0160 09       		.byte	0x9
 810 0161 90       		.byte	0x90
 811 0162 01010000 		.4byte	0x101
 812 0166 08       		.byte	0x8
 813 0167 07       		.uleb128 0x7
 814 0168 63747800 		.ascii	"ctx\000"
 815 016c 09       		.byte	0x9
 816 016d 91       		.byte	0x91
 817 016e A3040000 		.4byte	0x4a3
 818 0172 0C       		.byte	0xc
 819 0173 06       		.uleb128 0x6
 820 0174 B7040000 		.4byte	.LASF31
 821 0178 09       		.byte	0x9
 822 0179 93       		.byte	0x93
 823 017a 39020000 		.4byte	0x239
 824 017e 10       		.byte	0x10
 825 017f 06       		.uleb128 0x6
 826 0180 63070000 		.4byte	.LASF32
 827 0184 09       		.byte	0x9
 828 0185 94       		.byte	0x94
 829 0186 39020000 		.4byte	0x239
 830 018a 14       		.byte	0x14
 831 018b 06       		.uleb128 0x6
 832 018c F9030000 		.4byte	.LASF33
 833 0190 09       		.byte	0x9
 834 0191 9B       		.byte	0x9b
 835 0192 AB080000 		.4byte	0x8ab
 836 0196 18       		.byte	0x18
 837 0197 06       		.uleb128 0x6
 838 0198 4E070000 		.4byte	.LASF34
 839 019c 09       		.byte	0x9
 840 019d A4       		.byte	0xa4
 841 019e BD080000 		.4byte	0x8bd
 842 01a2 1C       		.byte	0x1c
 843 01a3 06       		.uleb128 0x6
 844 01a4 7F020000 		.4byte	.LASF35
 845 01a8 09       		.byte	0x9
 846 01a9 A9       		.byte	0xa9
 847 01aa EB000000 		.4byte	0xeb
 848 01ae 20       		.byte	0x20
 849 01af 06       		.uleb128 0x6
 850 01b0 6F080000 		.4byte	.LASF36
 851 01b4 09       		.byte	0x9
 852 01b5 AD       		.byte	0xad
 853 01b6 E0000000 		.4byte	0xe0
 854 01ba 21       		.byte	0x21
 855 01bb 06       		.uleb128 0x6
ARM GAS  /tmp/cc7gQbhQ.s 			page 16


 856 01bc F8050000 		.4byte	.LASF37
 857 01c0 09       		.byte	0x9
 858 01c1 B2       		.byte	0xb2
 859 01c2 F6000000 		.4byte	0xf6
 860 01c6 22       		.byte	0x22
 861 01c7 08       		.uleb128 0x8
 862 01c8 7500     		.ascii	"u\000"
 863 01ca 09       		.byte	0x9
 864 01cb 0301     		.2byte	0x103
 865 01cd E1070000 		.4byte	0x7e1
 866 01d1 24       		.byte	0x24
 867 01d2 09       		.uleb128 0x9
 868 01d3 38030000 		.4byte	.LASF38
 869 01d7 09       		.byte	0x9
 870 01d8 0801     		.2byte	0x108
 871 01da 3F020000 		.4byte	0x23f
 872 01de 28       		.byte	0x28
 873 01df 09       		.uleb128 0x9
 874 01e0 76020000 		.4byte	.LASF39
 875 01e4 09       		.byte	0x9
 876 01e5 0E01     		.2byte	0x10e
 877 01e7 63020000 		.4byte	0x263
 878 01eb 2C       		.byte	0x2c
 879 01ec 09       		.uleb128 0x9
 880 01ed 30080000 		.4byte	.LASF40
 881 01f1 09       		.byte	0x9
 882 01f2 1401     		.2byte	0x114
 883 01f4 17010000 		.4byte	0x117
 884 01f8 34       		.byte	0x34
 885 01f9 09       		.uleb128 0x9
 886 01fa CC080000 		.4byte	.LASF41
 887 01fe 09       		.byte	0x9
 888 01ff 1B01     		.2byte	0x11b
 889 0201 A5080000 		.4byte	0x8a5
 890 0205 38       		.byte	0x38
 891 0206 09       		.uleb128 0x9
 892 0207 C8040000 		.4byte	.LASF42
 893 020b 09       		.byte	0x9
 894 020c 1F01     		.2byte	0x11f
 895 020e 01010000 		.4byte	0x101
 896 0212 3C       		.byte	0x3c
 897 0213 09       		.uleb128 0x9
 898 0214 DA030000 		.4byte	.LASF43
 899 0218 09       		.byte	0x9
 900 0219 2601     		.2byte	0x126
 901 021b 16030000 		.4byte	0x316
 902 021f 40       		.byte	0x40
 903 0220 09       		.uleb128 0x9
 904 0221 DA020000 		.4byte	.LASF44
 905 0225 09       		.byte	0x9
 906 0226 2C01     		.2byte	0x12c
 907 0228 92070000 		.4byte	0x792
 908 022c 48       		.byte	0x48
 909 022d 00       		.byte	0
 910 022e 04       		.uleb128 0x4
 911 022f FF040000 		.4byte	.LASF45
 912 0233 08       		.byte	0x8
ARM GAS  /tmp/cc7gQbhQ.s 			page 17


 913 0234 39       		.byte	0x39
 914 0235 39020000 		.4byte	0x239
 915 0239 0A       		.uleb128 0xa
 916 023a 04       		.byte	0x4
 917 023b 38010000 		.4byte	0x138
 918 023f 04       		.uleb128 0x4
 919 0240 A3080000 		.4byte	.LASF46
 920 0244 08       		.byte	0x8
 921 0245 3E       		.byte	0x3e
 922 0246 4A020000 		.4byte	0x24a
 923 024a 05       		.uleb128 0x5
 924 024b 09040000 		.4byte	.LASF48
 925 024f 04       		.byte	0x4
 926 0250 09       		.byte	0x9
 927 0251 7C       		.byte	0x7c
 928 0252 63020000 		.4byte	0x263
 929 0256 06       		.uleb128 0x6
 930 0257 25000000 		.4byte	.LASF49
 931 025b 09       		.byte	0x9
 932 025c 7D       		.byte	0x7d
 933 025d 39020000 		.4byte	0x239
 934 0261 00       		.byte	0
 935 0262 00       		.byte	0
 936 0263 04       		.uleb128 0x4
 937 0264 20080000 		.4byte	.LASF50
 938 0268 08       		.byte	0x8
 939 0269 45       		.byte	0x45
 940 026a 6E020000 		.4byte	0x26e
 941 026e 05       		.uleb128 0x5
 942 026f 68000000 		.4byte	.LASF51
 943 0273 08       		.byte	0x8
 944 0274 09       		.byte	0x9
 945 0275 83       		.byte	0x83
 946 0276 93020000 		.4byte	0x293
 947 027a 06       		.uleb128 0x6
 948 027b 25000000 		.4byte	.LASF49
 949 027f 09       		.byte	0x9
 950 0280 84       		.byte	0x84
 951 0281 39020000 		.4byte	0x239
 952 0285 00       		.byte	0
 953 0286 06       		.uleb128 0x6
 954 0287 57000000 		.4byte	.LASF52
 955 028b 09       		.byte	0x9
 956 028c 85       		.byte	0x85
 957 028d 39020000 		.4byte	0x239
 958 0291 04       		.byte	0x4
 959 0292 00       		.byte	0
 960 0293 04       		.uleb128 0x4
 961 0294 0D000000 		.4byte	.LASF53
 962 0298 08       		.byte	0x8
 963 0299 4C       		.byte	0x4c
 964 029a 9E020000 		.4byte	0x29e
 965 029e 0B       		.uleb128 0xb
 966 029f 5E040000 		.4byte	.LASF54
 967 02a3 1C       		.byte	0x1c
 968 02a4 09       		.byte	0x9
 969 02a5 5E01     		.2byte	0x15e
ARM GAS  /tmp/cc7gQbhQ.s 			page 18


 970 02a7 FA020000 		.4byte	0x2fa
 971 02ab 09       		.uleb128 0x9
 972 02ac CE030000 		.4byte	.LASF29
 973 02b0 09       		.byte	0x9
 974 02b1 5F01     		.2byte	0x15f
 975 02b3 63020000 		.4byte	0x263
 976 02b7 00       		.byte	0
 977 02b8 09       		.uleb128 0x9
 978 02b9 A7050000 		.4byte	.LASF30
 979 02bd 09       		.byte	0x9
 980 02be 6001     		.2byte	0x160
 981 02c0 01010000 		.4byte	0x101
 982 02c4 08       		.byte	0x8
 983 02c5 08       		.uleb128 0x8
 984 02c6 63747800 		.ascii	"ctx\000"
 985 02ca 09       		.byte	0x9
 986 02cb 6201     		.2byte	0x162
 987 02cd A3040000 		.4byte	0x4a3
 988 02d1 0C       		.byte	0xc
 989 02d2 09       		.uleb128 0x9
 990 02d3 B7040000 		.4byte	.LASF31
 991 02d7 09       		.byte	0x9
 992 02d8 6501     		.2byte	0x165
 993 02da 39020000 		.4byte	0x239
 994 02de 10       		.byte	0x10
 995 02df 09       		.uleb128 0x9
 996 02e0 63070000 		.4byte	.LASF32
 997 02e4 09       		.byte	0x9
 998 02e5 6601     		.2byte	0x166
 999 02e7 39020000 		.4byte	0x239
 1000 02eb 14       		.byte	0x14
 1001 02ec 09       		.uleb128 0x9
 1002 02ed AC050000 		.4byte	.LASF55
 1003 02f1 09       		.byte	0x9
 1004 02f2 6901     		.2byte	0x169
 1005 02f4 39020000 		.4byte	0x239
 1006 02f8 18       		.byte	0x18
 1007 02f9 00       		.byte	0
 1008 02fa 04       		.uleb128 0x4
 1009 02fb 92070000 		.4byte	.LASF56
 1010 02ff 08       		.byte	0x8
 1011 0300 51       		.byte	0x51
 1012 0301 05030000 		.4byte	0x305
 1013 0305 0A       		.uleb128 0xa
 1014 0306 04       		.byte	0x4
 1015 0307 0B030000 		.4byte	0x30b
 1016 030b 0C       		.uleb128 0xc
 1017 030c 16030000 		.4byte	0x316
 1018 0310 0D       		.uleb128 0xd
 1019 0311 16030000 		.4byte	0x316
 1020 0315 00       		.byte	0
 1021 0316 0E       		.uleb128 0xe
 1022 0317 04       		.byte	0x4
 1023 0318 04       		.uleb128 0x4
 1024 0319 FD050000 		.4byte	.LASF57
 1025 031d 08       		.byte	0x8
 1026 031e 56       		.byte	0x56
ARM GAS  /tmp/cc7gQbhQ.s 			page 19


 1027 031f 23030000 		.4byte	0x323
 1028 0323 0B       		.uleb128 0xb
 1029 0324 B4060000 		.4byte	.LASF58
 1030 0328 14       		.byte	0x14
 1031 0329 09       		.byte	0x9
 1032 032a 3901     		.2byte	0x139
 1033 032c 72030000 		.4byte	0x372
 1034 0330 09       		.uleb128 0x9
 1035 0331 25000000 		.4byte	.LASF49
 1036 0335 09       		.byte	0x9
 1037 0336 3A01     		.2byte	0x13a
 1038 0338 C3080000 		.4byte	0x8c3
 1039 033c 00       		.byte	0
 1040 033d 09       		.uleb128 0x9
 1041 033e 57000000 		.4byte	.LASF52
 1042 0342 09       		.byte	0x9
 1043 0343 3B01     		.2byte	0x13b
 1044 0345 C3080000 		.4byte	0x8c3
 1045 0349 04       		.byte	0x4
 1046 034a 09       		.uleb128 0x9
 1047 034b 2A000000 		.4byte	.LASF59
 1048 034f 09       		.byte	0x9
 1049 0350 3C01     		.2byte	0x13c
 1050 0352 56040000 		.4byte	0x456
 1051 0356 08       		.byte	0x8
 1052 0357 09       		.uleb128 0x9
 1053 0358 F7010000 		.4byte	.LASF60
 1054 035c 09       		.byte	0x9
 1055 035d 3D01     		.2byte	0x13d
 1056 035f FA020000 		.4byte	0x2fa
 1057 0363 0C       		.byte	0xc
 1058 0364 08       		.uleb128 0x8
 1059 0365 70617200 		.ascii	"par\000"
 1060 0369 09       		.byte	0x9
 1061 036a 3F01     		.2byte	0x13f
 1062 036c 16030000 		.4byte	0x316
 1063 0370 10       		.byte	0x10
 1064 0371 00       		.byte	0
 1065 0372 04       		.uleb128 0x4
 1066 0373 C9010000 		.4byte	.LASF61
 1067 0377 08       		.byte	0x8
 1068 0378 5B       		.byte	0x5b
 1069 0379 7D030000 		.4byte	0x37d
 1070 037d 0B       		.uleb128 0xb
 1071 037e 12050000 		.4byte	.LASF62
 1072 0382 10       		.byte	0x10
 1073 0383 09       		.byte	0x9
 1074 0384 4901     		.2byte	0x149
 1075 0386 BF030000 		.4byte	0x3bf
 1076 038a 09       		.uleb128 0x9
 1077 038b 25000000 		.4byte	.LASF49
 1078 038f 09       		.byte	0x9
 1079 0390 4A01     		.2byte	0x14a
 1080 0392 C3080000 		.4byte	0x8c3
 1081 0396 00       		.byte	0
 1082 0397 09       		.uleb128 0x9
 1083 0398 57000000 		.4byte	.LASF52
ARM GAS  /tmp/cc7gQbhQ.s 			page 20


 1084 039c 09       		.byte	0x9
 1085 039d 4C01     		.2byte	0x14c
 1086 039f C3080000 		.4byte	0x8c3
 1087 03a3 04       		.byte	0x4
 1088 03a4 09       		.uleb128 0x9
 1089 03a5 2A000000 		.4byte	.LASF59
 1090 03a9 09       		.byte	0x9
 1091 03aa 4E01     		.2byte	0x14e
 1092 03ac 56040000 		.4byte	0x456
 1093 03b0 08       		.byte	0x8
 1094 03b1 09       		.uleb128 0x9
 1095 03b2 5B060000 		.4byte	.LASF63
 1096 03b6 09       		.byte	0x9
 1097 03b7 5601     		.2byte	0x156
 1098 03b9 4B040000 		.4byte	0x44b
 1099 03bd 0C       		.byte	0xc
 1100 03be 00       		.byte	0
 1101 03bf 04       		.uleb128 0x4
 1102 03c0 79000000 		.4byte	.LASF64
 1103 03c4 08       		.byte	0x8
 1104 03c5 60       		.byte	0x60
 1105 03c6 CA030000 		.4byte	0x3ca
 1106 03ca 0B       		.uleb128 0xb
 1107 03cb 28030000 		.4byte	.LASF65
 1108 03cf 04       		.byte	0x4
 1109 03d0 09       		.byte	0x9
 1110 03d1 7001     		.2byte	0x170
 1111 03d3 E5030000 		.4byte	0x3e5
 1112 03d7 09       		.uleb128 0x9
 1113 03d8 C7070000 		.4byte	.LASF66
 1114 03dc 09       		.byte	0x9
 1115 03dd 7801     		.2byte	0x178
 1116 03df C9080000 		.4byte	0x8c9
 1117 03e3 00       		.byte	0
 1118 03e4 00       		.byte	0
 1119 03e5 04       		.uleb128 0x4
 1120 03e6 32040000 		.4byte	.LASF67
 1121 03ea 08       		.byte	0x8
 1122 03eb 65       		.byte	0x65
 1123 03ec F0030000 		.4byte	0x3f0
 1124 03f0 0B       		.uleb128 0xb
 1125 03f1 6B060000 		.4byte	.LASF68
 1126 03f5 D0       		.byte	0xd0
 1127 03f6 09       		.byte	0x9
 1128 03f7 9001     		.2byte	0x190
 1129 03f9 4B040000 		.4byte	0x44b
 1130 03fd 09       		.uleb128 0x9
 1131 03fe 39080000 		.4byte	.LASF69
 1132 0402 09       		.byte	0x9
 1133 0403 9401     		.2byte	0x194
 1134 0405 93020000 		.4byte	0x293
 1135 0409 00       		.byte	0
 1136 040a 09       		.uleb128 0x9
 1137 040b 21030000 		.4byte	.LASF70
 1138 040f 09       		.byte	0x9
 1139 0410 9801     		.2byte	0x198
 1140 0412 72030000 		.4byte	0x372
ARM GAS  /tmp/cc7gQbhQ.s 			page 21


 1141 0416 1C       		.byte	0x1c
 1142 0417 08       		.uleb128 0x8
 1143 0418 64626700 		.ascii	"dbg\000"
 1144 041c 09       		.byte	0x9
 1145 041d 9C01     		.2byte	0x19c
 1146 041f BF030000 		.4byte	0x3bf
 1147 0423 2C       		.byte	0x2c
 1148 0424 09       		.uleb128 0x9
 1149 0425 B6010000 		.4byte	.LASF71
 1150 0429 09       		.byte	0x9
 1151 042a A001     		.2byte	0x1a0
 1152 042c 38010000 		.4byte	0x138
 1153 0430 30       		.byte	0x30
 1154 0431 08       		.uleb128 0x8
 1155 0432 746D00   		.ascii	"tm\000"
 1156 0435 09       		.byte	0x9
 1157 0436 A501     		.2byte	0x1a5
 1158 0438 44070000 		.4byte	0x744
 1159 043c 90       		.byte	0x90
 1160 043d 09       		.uleb128 0x9
 1161 043e 40000000 		.4byte	.LASF72
 1162 0442 09       		.byte	0x9
 1163 0443 AB01     		.2byte	0x1ab
 1164 0445 D6070000 		.4byte	0x7d6
 1165 0449 98       		.byte	0x98
 1166 044a 00       		.byte	0
 1167 044b 04       		.uleb128 0x4
 1168 044c 88070000 		.4byte	.LASF73
 1169 0450 0A       		.byte	0xa
 1170 0451 6D       		.byte	0x6d
 1171 0452 B4000000 		.4byte	0xb4
 1172 0456 04       		.uleb128 0x4
 1173 0457 54030000 		.4byte	.LASF74
 1174 045b 0A       		.byte	0xa
 1175 045c 79       		.byte	0x79
 1176 045d B4000000 		.4byte	0xb4
 1177 0461 03       		.uleb128 0x3
 1178 0462 04       		.byte	0x4
 1179 0463 07       		.byte	0x7
 1180 0464 F6040000 		.4byte	.LASF75
 1181 0468 0F       		.uleb128 0xf
 1182 0469 B4000000 		.4byte	0xb4
 1183 046d 10       		.uleb128 0x10
 1184 046e 68040000 		.4byte	0x468
 1185 0472 7D040000 		.4byte	0x47d
 1186 0476 11       		.uleb128 0x11
 1187 0477 61040000 		.4byte	0x461
 1188 047b 01       		.byte	0x1
 1189 047c 00       		.byte	0
 1190 047d 10       		.uleb128 0x10
 1191 047e 68040000 		.4byte	0x468
 1192 0482 8D040000 		.4byte	0x48d
 1193 0486 11       		.uleb128 0x11
 1194 0487 61040000 		.4byte	0x461
 1195 048b 03       		.byte	0x3
 1196 048c 00       		.byte	0
 1197 048d 04       		.uleb128 0x4
ARM GAS  /tmp/cc7gQbhQ.s 			page 22


 1198 048e 18030000 		.4byte	.LASF76
 1199 0492 0B       		.byte	0xb
 1200 0493 65       		.byte	0x65
 1201 0494 16030000 		.4byte	0x316
 1202 0498 04       		.uleb128 0x4
 1203 0499 AC040000 		.4byte	.LASF77
 1204 049d 0B       		.byte	0xb
 1205 049e 6D       		.byte	0x6d
 1206 049f BF000000 		.4byte	0xbf
 1207 04a3 05       		.uleb128 0x5
 1208 04a4 7B050000 		.4byte	.LASF78
 1209 04a8 04       		.byte	0x4
 1210 04a9 0B       		.byte	0xb
 1211 04aa 89       		.byte	0x89
 1212 04ab BB040000 		.4byte	0x4bb
 1213 04af 07       		.uleb128 0x7
 1214 04b0 737000   		.ascii	"sp\000"
 1215 04b3 0B       		.byte	0xb
 1216 04b4 8A       		.byte	0x8a
 1217 04b5 07060000 		.4byte	0x607
 1218 04b9 00       		.byte	0
 1219 04ba 00       		.byte	0
 1220 04bb 0B       		.uleb128 0xb
 1221 04bc 5C000000 		.4byte	.LASF79
 1222 04c0 64       		.byte	0x64
 1223 04c1 0C       		.byte	0xc
 1224 04c2 5901     		.2byte	0x159
 1225 04c4 07060000 		.4byte	0x607
 1226 04c8 08       		.uleb128 0x8
 1227 04c9 73313600 		.ascii	"s16\000"
 1228 04cd 0C       		.byte	0xc
 1229 04ce 5B01     		.2byte	0x15b
 1230 04d0 8D040000 		.4byte	0x48d
 1231 04d4 00       		.byte	0
 1232 04d5 08       		.uleb128 0x8
 1233 04d6 73313700 		.ascii	"s17\000"
 1234 04da 0C       		.byte	0xc
 1235 04db 5C01     		.2byte	0x15c
 1236 04dd 8D040000 		.4byte	0x48d
 1237 04e1 04       		.byte	0x4
 1238 04e2 08       		.uleb128 0x8
 1239 04e3 73313800 		.ascii	"s18\000"
 1240 04e7 0C       		.byte	0xc
 1241 04e8 5D01     		.2byte	0x15d
 1242 04ea 8D040000 		.4byte	0x48d
 1243 04ee 08       		.byte	0x8
 1244 04ef 08       		.uleb128 0x8
 1245 04f0 73313900 		.ascii	"s19\000"
 1246 04f4 0C       		.byte	0xc
 1247 04f5 5E01     		.2byte	0x15e
 1248 04f7 8D040000 		.4byte	0x48d
 1249 04fb 0C       		.byte	0xc
 1250 04fc 08       		.uleb128 0x8
 1251 04fd 73323000 		.ascii	"s20\000"
 1252 0501 0C       		.byte	0xc
 1253 0502 5F01     		.2byte	0x15f
 1254 0504 8D040000 		.4byte	0x48d
ARM GAS  /tmp/cc7gQbhQ.s 			page 23


 1255 0508 10       		.byte	0x10
 1256 0509 08       		.uleb128 0x8
 1257 050a 73323100 		.ascii	"s21\000"
 1258 050e 0C       		.byte	0xc
 1259 050f 6001     		.2byte	0x160
 1260 0511 8D040000 		.4byte	0x48d
 1261 0515 14       		.byte	0x14
 1262 0516 08       		.uleb128 0x8
 1263 0517 73323200 		.ascii	"s22\000"
 1264 051b 0C       		.byte	0xc
 1265 051c 6101     		.2byte	0x161
 1266 051e 8D040000 		.4byte	0x48d
 1267 0522 18       		.byte	0x18
 1268 0523 08       		.uleb128 0x8
 1269 0524 73323300 		.ascii	"s23\000"
 1270 0528 0C       		.byte	0xc
 1271 0529 6201     		.2byte	0x162
 1272 052b 8D040000 		.4byte	0x48d
 1273 052f 1C       		.byte	0x1c
 1274 0530 08       		.uleb128 0x8
 1275 0531 73323400 		.ascii	"s24\000"
 1276 0535 0C       		.byte	0xc
 1277 0536 6301     		.2byte	0x163
 1278 0538 8D040000 		.4byte	0x48d
 1279 053c 20       		.byte	0x20
 1280 053d 08       		.uleb128 0x8
 1281 053e 73323500 		.ascii	"s25\000"
 1282 0542 0C       		.byte	0xc
 1283 0543 6401     		.2byte	0x164
 1284 0545 8D040000 		.4byte	0x48d
 1285 0549 24       		.byte	0x24
 1286 054a 08       		.uleb128 0x8
 1287 054b 73323600 		.ascii	"s26\000"
 1288 054f 0C       		.byte	0xc
 1289 0550 6501     		.2byte	0x165
 1290 0552 8D040000 		.4byte	0x48d
 1291 0556 28       		.byte	0x28
 1292 0557 08       		.uleb128 0x8
 1293 0558 73323700 		.ascii	"s27\000"
 1294 055c 0C       		.byte	0xc
 1295 055d 6601     		.2byte	0x166
 1296 055f 8D040000 		.4byte	0x48d
 1297 0563 2C       		.byte	0x2c
 1298 0564 08       		.uleb128 0x8
 1299 0565 73323800 		.ascii	"s28\000"
 1300 0569 0C       		.byte	0xc
 1301 056a 6701     		.2byte	0x167
 1302 056c 8D040000 		.4byte	0x48d
 1303 0570 30       		.byte	0x30
 1304 0571 08       		.uleb128 0x8
 1305 0572 73323900 		.ascii	"s29\000"
 1306 0576 0C       		.byte	0xc
 1307 0577 6801     		.2byte	0x168
 1308 0579 8D040000 		.4byte	0x48d
 1309 057d 34       		.byte	0x34
 1310 057e 08       		.uleb128 0x8
 1311 057f 73333000 		.ascii	"s30\000"
ARM GAS  /tmp/cc7gQbhQ.s 			page 24


 1312 0583 0C       		.byte	0xc
 1313 0584 6901     		.2byte	0x169
 1314 0586 8D040000 		.4byte	0x48d
 1315 058a 38       		.byte	0x38
 1316 058b 08       		.uleb128 0x8
 1317 058c 73333100 		.ascii	"s31\000"
 1318 0590 0C       		.byte	0xc
 1319 0591 6A01     		.2byte	0x16a
 1320 0593 8D040000 		.4byte	0x48d
 1321 0597 3C       		.byte	0x3c
 1322 0598 08       		.uleb128 0x8
 1323 0599 723400   		.ascii	"r4\000"
 1324 059c 0C       		.byte	0xc
 1325 059d 6C01     		.2byte	0x16c
 1326 059f 8D040000 		.4byte	0x48d
 1327 05a3 40       		.byte	0x40
 1328 05a4 08       		.uleb128 0x8
 1329 05a5 723500   		.ascii	"r5\000"
 1330 05a8 0C       		.byte	0xc
 1331 05a9 6D01     		.2byte	0x16d
 1332 05ab 8D040000 		.4byte	0x48d
 1333 05af 44       		.byte	0x44
 1334 05b0 08       		.uleb128 0x8
 1335 05b1 723600   		.ascii	"r6\000"
 1336 05b4 0C       		.byte	0xc
 1337 05b5 6E01     		.2byte	0x16e
 1338 05b7 8D040000 		.4byte	0x48d
 1339 05bb 48       		.byte	0x48
 1340 05bc 08       		.uleb128 0x8
 1341 05bd 723700   		.ascii	"r7\000"
 1342 05c0 0C       		.byte	0xc
 1343 05c1 6F01     		.2byte	0x16f
 1344 05c3 8D040000 		.4byte	0x48d
 1345 05c7 4C       		.byte	0x4c
 1346 05c8 08       		.uleb128 0x8
 1347 05c9 723800   		.ascii	"r8\000"
 1348 05cc 0C       		.byte	0xc
 1349 05cd 7001     		.2byte	0x170
 1350 05cf 8D040000 		.4byte	0x48d
 1351 05d3 50       		.byte	0x50
 1352 05d4 08       		.uleb128 0x8
 1353 05d5 723900   		.ascii	"r9\000"
 1354 05d8 0C       		.byte	0xc
 1355 05d9 7101     		.2byte	0x171
 1356 05db 8D040000 		.4byte	0x48d
 1357 05df 54       		.byte	0x54
 1358 05e0 08       		.uleb128 0x8
 1359 05e1 72313000 		.ascii	"r10\000"
 1360 05e5 0C       		.byte	0xc
 1361 05e6 7201     		.2byte	0x172
 1362 05e8 8D040000 		.4byte	0x48d
 1363 05ec 58       		.byte	0x58
 1364 05ed 08       		.uleb128 0x8
 1365 05ee 72313100 		.ascii	"r11\000"
 1366 05f2 0C       		.byte	0xc
 1367 05f3 7301     		.2byte	0x173
 1368 05f5 8D040000 		.4byte	0x48d
ARM GAS  /tmp/cc7gQbhQ.s 			page 25


 1369 05f9 5C       		.byte	0x5c
 1370 05fa 08       		.uleb128 0x8
 1371 05fb 6C7200   		.ascii	"lr\000"
 1372 05fe 0C       		.byte	0xc
 1373 05ff 7401     		.2byte	0x174
 1374 0601 8D040000 		.4byte	0x48d
 1375 0605 60       		.byte	0x60
 1376 0606 00       		.byte	0
 1377 0607 0A       		.uleb128 0xa
 1378 0608 04       		.byte	0x4
 1379 0609 BB040000 		.4byte	0x4bb
 1380 060d 12       		.uleb128 0x12
 1381 060e 60       		.byte	0x60
 1382 060f 0D       		.byte	0xd
 1383 0610 F501     		.2byte	0x1f5
 1384 0612 19070000 		.4byte	0x719
 1385 0616 08       		.uleb128 0x8
 1386 0617 43523100 		.ascii	"CR1\000"
 1387 061b 0D       		.byte	0xd
 1388 061c F601     		.2byte	0x1f6
 1389 061e 68040000 		.4byte	0x468
 1390 0622 00       		.byte	0
 1391 0623 08       		.uleb128 0x8
 1392 0624 43523200 		.ascii	"CR2\000"
 1393 0628 0D       		.byte	0xd
 1394 0629 F701     		.2byte	0x1f7
 1395 062b 68040000 		.4byte	0x468
 1396 062f 04       		.byte	0x4
 1397 0630 09       		.uleb128 0x9
 1398 0631 E5030000 		.4byte	.LASF80
 1399 0635 0D       		.byte	0xd
 1400 0636 F801     		.2byte	0x1f8
 1401 0638 68040000 		.4byte	0x468
 1402 063c 08       		.byte	0x8
 1403 063d 09       		.uleb128 0x9
 1404 063e 1A000000 		.4byte	.LASF81
 1405 0642 0D       		.byte	0xd
 1406 0643 F901     		.2byte	0x1f9
 1407 0645 68040000 		.4byte	0x468
 1408 0649 0C       		.byte	0xc
 1409 064a 08       		.uleb128 0x8
 1410 064b 535200   		.ascii	"SR\000"
 1411 064e 0D       		.byte	0xd
 1412 064f FA01     		.2byte	0x1fa
 1413 0651 68040000 		.4byte	0x468
 1414 0655 10       		.byte	0x10
 1415 0656 08       		.uleb128 0x8
 1416 0657 45475200 		.ascii	"EGR\000"
 1417 065b 0D       		.byte	0xd
 1418 065c FB01     		.2byte	0x1fb
 1419 065e 68040000 		.4byte	0x468
 1420 0662 14       		.byte	0x14
 1421 0663 09       		.uleb128 0x9
 1422 0664 2A020000 		.4byte	.LASF82
 1423 0668 0D       		.byte	0xd
 1424 0669 FC01     		.2byte	0x1fc
 1425 066b 68040000 		.4byte	0x468
ARM GAS  /tmp/cc7gQbhQ.s 			page 26


 1426 066f 18       		.byte	0x18
 1427 0670 09       		.uleb128 0x9
 1428 0671 30020000 		.4byte	.LASF83
 1429 0675 0D       		.byte	0xd
 1430 0676 FD01     		.2byte	0x1fd
 1431 0678 68040000 		.4byte	0x468
 1432 067c 1C       		.byte	0x1c
 1433 067d 09       		.uleb128 0x9
 1434 067e 83070000 		.4byte	.LASF84
 1435 0682 0D       		.byte	0xd
 1436 0683 FE01     		.2byte	0x1fe
 1437 0685 68040000 		.4byte	0x468
 1438 0689 20       		.byte	0x20
 1439 068a 08       		.uleb128 0x8
 1440 068b 434E5400 		.ascii	"CNT\000"
 1441 068f 0D       		.byte	0xd
 1442 0690 FF01     		.2byte	0x1ff
 1443 0692 68040000 		.4byte	0x468
 1444 0696 24       		.byte	0x24
 1445 0697 08       		.uleb128 0x8
 1446 0698 50534300 		.ascii	"PSC\000"
 1447 069c 0D       		.byte	0xd
 1448 069d 0002     		.2byte	0x200
 1449 069f 68040000 		.4byte	0x468
 1450 06a3 28       		.byte	0x28
 1451 06a4 08       		.uleb128 0x8
 1452 06a5 41525200 		.ascii	"ARR\000"
 1453 06a9 0D       		.byte	0xd
 1454 06aa 0102     		.2byte	0x201
 1455 06ac 68040000 		.4byte	0x468
 1456 06b0 2C       		.byte	0x2c
 1457 06b1 08       		.uleb128 0x8
 1458 06b2 52435200 		.ascii	"RCR\000"
 1459 06b6 0D       		.byte	0xd
 1460 06b7 0202     		.2byte	0x202
 1461 06b9 68040000 		.4byte	0x468
 1462 06bd 30       		.byte	0x30
 1463 06be 08       		.uleb128 0x8
 1464 06bf 43435200 		.ascii	"CCR\000"
 1465 06c3 0D       		.byte	0xd
 1466 06c4 0302     		.2byte	0x203
 1467 06c6 19070000 		.4byte	0x719
 1468 06ca 34       		.byte	0x34
 1469 06cb 09       		.uleb128 0x9
 1470 06cc FC010000 		.4byte	.LASF85
 1471 06d0 0D       		.byte	0xd
 1472 06d1 0402     		.2byte	0x204
 1473 06d3 68040000 		.4byte	0x468
 1474 06d7 44       		.byte	0x44
 1475 06d8 08       		.uleb128 0x8
 1476 06d9 44435200 		.ascii	"DCR\000"
 1477 06dd 0D       		.byte	0xd
 1478 06de 0502     		.2byte	0x205
 1479 06e0 68040000 		.4byte	0x468
 1480 06e4 48       		.byte	0x48
 1481 06e5 09       		.uleb128 0x9
 1482 06e6 75070000 		.4byte	.LASF86
ARM GAS  /tmp/cc7gQbhQ.s 			page 27


 1483 06ea 0D       		.byte	0xd
 1484 06eb 0602     		.2byte	0x206
 1485 06ed 68040000 		.4byte	0x468
 1486 06f1 4C       		.byte	0x4c
 1487 06f2 08       		.uleb128 0x8
 1488 06f3 4F5200   		.ascii	"OR\000"
 1489 06f6 0D       		.byte	0xd
 1490 06f7 0702     		.2byte	0x207
 1491 06f9 68040000 		.4byte	0x468
 1492 06fd 50       		.byte	0x50
 1493 06fe 09       		.uleb128 0x9
 1494 06ff 36020000 		.4byte	.LASF87
 1495 0703 0D       		.byte	0xd
 1496 0704 0802     		.2byte	0x208
 1497 0706 68040000 		.4byte	0x468
 1498 070a 54       		.byte	0x54
 1499 070b 09       		.uleb128 0x9
 1500 070c D2060000 		.4byte	.LASF88
 1501 0710 0D       		.byte	0xd
 1502 0711 0902     		.2byte	0x209
 1503 0713 1E070000 		.4byte	0x71e
 1504 0717 58       		.byte	0x58
 1505 0718 00       		.byte	0
 1506 0719 0F       		.uleb128 0xf
 1507 071a 7D040000 		.4byte	0x47d
 1508 071e 0F       		.uleb128 0xf
 1509 071f 6D040000 		.4byte	0x46d
 1510 0723 13       		.uleb128 0x13
 1511 0724 47040000 		.4byte	.LASF89
 1512 0728 0D       		.byte	0xd
 1513 0729 0A02     		.2byte	0x20a
 1514 072b 0D060000 		.4byte	0x60d
 1515 072f 14       		.uleb128 0x14
 1516 0730 04       		.byte	0x4
 1517 0731 0E       		.byte	0xe
 1518 0732 38       		.byte	0x38
 1519 0733 44070000 		.4byte	0x744
 1520 0737 06       		.uleb128 0x6
 1521 0738 D1070000 		.4byte	.LASF90
 1522 073c 0E       		.byte	0xe
 1523 073d 3C       		.byte	0x3c
 1524 073e CA000000 		.4byte	0xca
 1525 0742 00       		.byte	0
 1526 0743 00       		.byte	0
 1527 0744 04       		.uleb128 0x4
 1528 0745 96050000 		.4byte	.LASF91
 1529 0749 0E       		.byte	0xe
 1530 074a 3D       		.byte	0x3d
 1531 074b 2F070000 		.4byte	0x72f
 1532 074f 14       		.uleb128 0x14
 1533 0750 18       		.byte	0x18
 1534 0751 0E       		.byte	0xe
 1535 0752 48       		.byte	0x48
 1536 0753 92070000 		.4byte	0x792
 1537 0757 06       		.uleb128 0x6
 1538 0758 E0030000 		.4byte	.LASF92
 1539 075c 0E       		.byte	0xe
ARM GAS  /tmp/cc7gQbhQ.s 			page 28


 1540 075d 49       		.byte	0x49
 1541 075e CA000000 		.4byte	0xca
 1542 0762 00       		.byte	0
 1543 0763 06       		.uleb128 0x6
 1544 0764 7D010000 		.4byte	.LASF93
 1545 0768 0E       		.byte	0xe
 1546 0769 4A       		.byte	0x4a
 1547 076a CA000000 		.4byte	0xca
 1548 076e 04       		.byte	0x4
 1549 076f 06       		.uleb128 0x6
 1550 0770 04040000 		.4byte	.LASF94
 1551 0774 0E       		.byte	0xe
 1552 0775 4B       		.byte	0x4b
 1553 0776 CA000000 		.4byte	0xca
 1554 077a 08       		.byte	0x8
 1555 077b 07       		.uleb128 0x7
 1556 077c 6E00     		.ascii	"n\000"
 1557 077e 0E       		.byte	0xe
 1558 077f 4C       		.byte	0x4c
 1559 0780 2D010000 		.4byte	0x12d
 1560 0784 0C       		.byte	0xc
 1561 0785 06       		.uleb128 0x6
 1562 0786 BF050000 		.4byte	.LASF95
 1563 078a 0E       		.byte	0xe
 1564 078b 4D       		.byte	0x4d
 1565 078c D5000000 		.4byte	0xd5
 1566 0790 10       		.byte	0x10
 1567 0791 00       		.byte	0
 1568 0792 04       		.uleb128 0x4
 1569 0793 83010000 		.4byte	.LASF96
 1570 0797 0E       		.byte	0xe
 1571 0798 4E       		.byte	0x4e
 1572 0799 4F070000 		.4byte	0x74f
 1573 079d 14       		.uleb128 0x14
 1574 079e 38       		.byte	0x38
 1575 079f 0F       		.byte	0xf
 1576 07a0 38       		.byte	0x38
 1577 07a1 D6070000 		.4byte	0x7d6
 1578 07a5 06       		.uleb128 0x6
 1579 07a6 C8030000 		.4byte	.LASF97
 1580 07aa 0F       		.byte	0xf
 1581 07ab 39       		.byte	0x39
 1582 07ac 2D010000 		.4byte	0x12d
 1583 07b0 00       		.byte	0
 1584 07b1 06       		.uleb128 0x6
 1585 07b2 1F060000 		.4byte	.LASF98
 1586 07b6 0F       		.byte	0xf
 1587 07b7 3A       		.byte	0x3a
 1588 07b8 2D010000 		.4byte	0x12d
 1589 07bc 04       		.byte	0x4
 1590 07bd 06       		.uleb128 0x6
 1591 07be DF080000 		.4byte	.LASF99
 1592 07c2 0F       		.byte	0xf
 1593 07c3 3B       		.byte	0x3b
 1594 07c4 92070000 		.4byte	0x792
 1595 07c8 08       		.byte	0x8
 1596 07c9 06       		.uleb128 0x6
ARM GAS  /tmp/cc7gQbhQ.s 			page 29


 1597 07ca 53040000 		.4byte	.LASF100
 1598 07ce 0F       		.byte	0xf
 1599 07cf 3D       		.byte	0x3d
 1600 07d0 92070000 		.4byte	0x792
 1601 07d4 20       		.byte	0x20
 1602 07d5 00       		.byte	0
 1603 07d6 04       		.uleb128 0x4
 1604 07d7 EA030000 		.4byte	.LASF101
 1605 07db 0F       		.byte	0xf
 1606 07dc 3F       		.byte	0x3f
 1607 07dd 9D070000 		.4byte	0x79d
 1608 07e1 15       		.uleb128 0x15
 1609 07e2 04       		.byte	0x4
 1610 07e3 09       		.byte	0x9
 1611 07e4 C6       		.byte	0xc6
 1612 07e5 43080000 		.4byte	0x843
 1613 07e9 16       		.uleb128 0x16
 1614 07ea 30000000 		.4byte	.LASF102
 1615 07ee 09       		.byte	0x9
 1616 07ef CD       		.byte	0xcd
 1617 07f0 0C010000 		.4byte	0x10c
 1618 07f4 16       		.uleb128 0x16
 1619 07f5 AD010000 		.4byte	.LASF103
 1620 07f9 09       		.byte	0x9
 1621 07fa D4       		.byte	0xd4
 1622 07fb 0C010000 		.4byte	0x10c
 1623 07ff 16       		.uleb128 0x16
 1624 0800 9C080000 		.4byte	.LASF104
 1625 0804 09       		.byte	0x9
 1626 0805 DB       		.byte	0xdb
 1627 0806 16030000 		.4byte	0x316
 1628 080a 16       		.uleb128 0x16
 1629 080b 1F000000 		.4byte	.LASF105
 1630 080f 09       		.byte	0x9
 1631 0810 E2       		.byte	0xe2
 1632 0811 43080000 		.4byte	0x843
 1633 0815 16       		.uleb128 0x16
 1634 0816 C1010000 		.4byte	.LASF106
 1635 081a 09       		.byte	0x9
 1636 081b E7       		.byte	0xe7
 1637 081c 0C010000 		.4byte	0x10c
 1638 0820 16       		.uleb128 0x16
 1639 0821 92030000 		.4byte	.LASF107
 1640 0825 09       		.byte	0x9
 1641 0826 F0       		.byte	0xf0
 1642 0827 6E080000 		.4byte	0x86e
 1643 082b 16       		.uleb128 0x16
 1644 082c 27070000 		.4byte	.LASF108
 1645 0830 09       		.byte	0x9
 1646 0831 F9       		.byte	0xf9
 1647 0832 A5080000 		.4byte	0x8a5
 1648 0836 17       		.uleb128 0x17
 1649 0837 64060000 		.4byte	.LASF109
 1650 083b 09       		.byte	0x9
 1651 083c 0101     		.2byte	0x101
 1652 083e 17010000 		.4byte	0x117
 1653 0842 00       		.byte	0
ARM GAS  /tmp/cc7gQbhQ.s 			page 30


 1654 0843 0A       		.uleb128 0xa
 1655 0844 04       		.byte	0x4
 1656 0845 2E020000 		.4byte	0x22e
 1657 0849 05       		.uleb128 0x5
 1658 084a C5060000 		.4byte	.LASF110
 1659 084e 0C       		.byte	0xc
 1660 084f 10       		.byte	0x10
 1661 0850 34       		.byte	0x34
 1662 0851 6E080000 		.4byte	0x86e
 1663 0855 06       		.uleb128 0x6
 1664 0856 CE030000 		.4byte	.LASF29
 1665 085a 10       		.byte	0x10
 1666 085b 35       		.byte	0x35
 1667 085c 63020000 		.4byte	0x263
 1668 0860 00       		.byte	0
 1669 0861 07       		.uleb128 0x7
 1670 0862 636E7400 		.ascii	"cnt\000"
 1671 0866 10       		.byte	0x10
 1672 0867 37       		.byte	0x37
 1673 0868 22010000 		.4byte	0x122
 1674 086c 08       		.byte	0x8
 1675 086d 00       		.byte	0
 1676 086e 0A       		.uleb128 0xa
 1677 086f 04       		.byte	0x4
 1678 0870 49080000 		.4byte	0x849
 1679 0874 05       		.uleb128 0x5
 1680 0875 D8070000 		.4byte	.LASF111
 1681 0879 10       		.byte	0x10
 1682 087a 11       		.byte	0x11
 1683 087b 39       		.byte	0x39
 1684 087c A5080000 		.4byte	0x8a5
 1685 0880 06       		.uleb128 0x6
 1686 0881 CE030000 		.4byte	.LASF29
 1687 0885 11       		.byte	0x11
 1688 0886 3A       		.byte	0x3a
 1689 0887 63020000 		.4byte	0x263
 1690 088b 00       		.byte	0
 1691 088c 06       		.uleb128 0x6
 1692 088d 36070000 		.4byte	.LASF112
 1693 0891 11       		.byte	0x11
 1694 0892 3C       		.byte	0x3c
 1695 0893 39020000 		.4byte	0x239
 1696 0897 08       		.byte	0x8
 1697 0898 06       		.uleb128 0x6
 1698 0899 25000000 		.4byte	.LASF49
 1699 089d 11       		.byte	0x11
 1700 089e 3E       		.byte	0x3e
 1701 089f D9080000 		.4byte	0x8d9
 1702 08a3 0C       		.byte	0xc
 1703 08a4 00       		.byte	0
 1704 08a5 0A       		.uleb128 0xa
 1705 08a6 04       		.byte	0x4
 1706 08a7 74080000 		.4byte	0x874
 1707 08ab 0A       		.uleb128 0xa
 1708 08ac 04       		.byte	0x4
 1709 08ad B8080000 		.4byte	0x8b8
 1710 08b1 03       		.uleb128 0x3
ARM GAS  /tmp/cc7gQbhQ.s 			page 31


 1711 08b2 01       		.byte	0x1
 1712 08b3 08       		.byte	0x8
 1713 08b4 5E070000 		.4byte	.LASF113
 1714 08b8 18       		.uleb128 0x18
 1715 08b9 B1080000 		.4byte	0x8b1
 1716 08bd 0A       		.uleb128 0xa
 1717 08be 04       		.byte	0x4
 1718 08bf 98040000 		.4byte	0x498
 1719 08c3 0A       		.uleb128 0xa
 1720 08c4 04       		.byte	0x4
 1721 08c5 18030000 		.4byte	0x318
 1722 08c9 0F       		.uleb128 0xf
 1723 08ca AB080000 		.4byte	0x8ab
 1724 08ce 04       		.uleb128 0x4
 1725 08cf 4C030000 		.4byte	.LASF114
 1726 08d3 11       		.byte	0x11
 1727 08d4 34       		.byte	0x34
 1728 08d5 74080000 		.4byte	0x874
 1729 08d9 0A       		.uleb128 0xa
 1730 08da 04       		.byte	0x4
 1731 08db CE080000 		.4byte	0x8ce
 1732 08df 03       		.uleb128 0x3
 1733 08e0 01       		.byte	0x1
 1734 08e1 02       		.byte	0x2
 1735 08e2 28060000 		.4byte	.LASF115
 1736 08e6 19       		.uleb128 0x19
 1737 08e7 01       		.byte	0x1
 1738 08e8 53000000 		.4byte	0x53
 1739 08ec 12       		.byte	0x12
 1740 08ed 4A       		.byte	0x4a
 1741 08ee 05090000 		.4byte	0x905
 1742 08f2 1A       		.uleb128 0x1a
 1743 08f3 D4080000 		.4byte	.LASF116
 1744 08f7 00       		.byte	0
 1745 08f8 1A       		.uleb128 0x1a
 1746 08f9 55070000 		.4byte	.LASF117
 1747 08fd 01       		.byte	0x1
 1748 08fe 1A       		.uleb128 0x1a
 1749 08ff 0D060000 		.4byte	.LASF118
 1750 0903 02       		.byte	0x2
 1751 0904 00       		.byte	0
 1752 0905 04       		.uleb128 0x4
 1753 0906 BD040000 		.4byte	.LASF119
 1754 090a 12       		.byte	0x12
 1755 090b 4E       		.byte	0x4e
 1756 090c E6080000 		.4byte	0x8e6
 1757 0910 04       		.uleb128 0x4
 1758 0911 65080000 		.4byte	.LASF120
 1759 0915 12       		.byte	0x12
 1760 0916 53       		.byte	0x53
 1761 0917 1B090000 		.4byte	0x91b
 1762 091b 0B       		.uleb128 0xb
 1763 091c 65080000 		.4byte	.LASF120
 1764 0920 1C       		.byte	0x1c
 1765 0921 13       		.byte	0x13
 1766 0922 8902     		.2byte	0x289
 1767 0924 84090000 		.4byte	0x984
ARM GAS  /tmp/cc7gQbhQ.s 			page 32


 1768 0928 09       		.uleb128 0x9
 1769 0929 7F020000 		.4byte	.LASF35
 1770 092d 13       		.byte	0x13
 1771 092e 8D02     		.2byte	0x28d
 1772 0930 05090000 		.4byte	0x905
 1773 0934 00       		.byte	0
 1774 0935 09       		.uleb128 0x9
 1775 0936 6E070000 		.4byte	.LASF121
 1776 093a 13       		.byte	0x13
 1777 093b 9102     		.2byte	0x291
 1778 093d 7A0A0000 		.4byte	0xa7a
 1779 0941 04       		.byte	0x4
 1780 0942 09       		.uleb128 0x9
 1781 0943 76010000 		.4byte	.LASF122
 1782 0947 13       		.byte	0x13
 1783 0948 9502     		.2byte	0x295
 1784 094a CA090000 		.4byte	0x9ca
 1785 094e 08       		.byte	0x8
 1786 094f 09       		.uleb128 0x9
 1787 0950 2E070000 		.4byte	.LASF123
 1788 0954 13       		.byte	0x13
 1789 0955 9902     		.2byte	0x299
 1790 0957 BE090000 		.4byte	0x9be
 1791 095b 0C       		.byte	0xc
 1792 095c 09       		.uleb128 0x9
 1793 095d 85020000 		.4byte	.LASF124
 1794 0961 13       		.byte	0x13
 1795 0962 9D02     		.2byte	0x29d
 1796 0964 B2090000 		.4byte	0x9b2
 1797 0968 10       		.byte	0x10
 1798 0969 09       		.uleb128 0x9
 1799 096a C6080000 		.4byte	.LASF125
 1800 096e 13       		.byte	0x13
 1801 096f A502     		.2byte	0x2a5
 1802 0971 B4000000 		.4byte	0xb4
 1803 0975 14       		.byte	0x14
 1804 0976 08       		.uleb128 0x8
 1805 0977 74696D00 		.ascii	"tim\000"
 1806 097b 13       		.byte	0x13
 1807 097c A902     		.2byte	0x2a9
 1808 097e 850A0000 		.4byte	0xa85
 1809 0982 18       		.byte	0x18
 1810 0983 00       		.byte	0
 1811 0984 04       		.uleb128 0x4
 1812 0985 E0020000 		.4byte	.LASF126
 1813 0989 12       		.byte	0x12
 1814 098a 5A       		.byte	0x5a
 1815 098b 8F090000 		.4byte	0x98f
 1816 098f 0A       		.uleb128 0xa
 1817 0990 04       		.byte	0x4
 1818 0991 95090000 		.4byte	0x995
 1819 0995 0C       		.uleb128 0xc
 1820 0996 A0090000 		.4byte	0x9a0
 1821 099a 0D       		.uleb128 0xd
 1822 099b A0090000 		.4byte	0x9a0
 1823 099f 00       		.byte	0
 1824 09a0 0A       		.uleb128 0xa
ARM GAS  /tmp/cc7gQbhQ.s 			page 33


 1825 09a1 04       		.byte	0x4
 1826 09a2 10090000 		.4byte	0x910
 1827 09a6 13       		.uleb128 0x13
 1828 09a7 58020000 		.4byte	.LASF127
 1829 09ab 13       		.byte	0x13
 1830 09ac 3502     		.2byte	0x235
 1831 09ae B4000000 		.4byte	0xb4
 1832 09b2 13       		.uleb128 0x13
 1833 09b3 00000000 		.4byte	.LASF128
 1834 09b7 13       		.byte	0x13
 1835 09b8 3A02     		.2byte	0x23a
 1836 09ba 9E000000 		.4byte	0x9e
 1837 09be 13       		.uleb128 0x13
 1838 09bf 75060000 		.4byte	.LASF129
 1839 09c3 13       		.byte	0x13
 1840 09c4 3F02     		.2byte	0x23f
 1841 09c6 B4000000 		.4byte	0xb4
 1842 09ca 13       		.uleb128 0x13
 1843 09cb 93080000 		.4byte	.LASF130
 1844 09cf 13       		.byte	0x13
 1845 09d0 4402     		.2byte	0x244
 1846 09d2 B4000000 		.4byte	0xb4
 1847 09d6 12       		.uleb128 0x12
 1848 09d7 08       		.byte	0x8
 1849 09d8 13       		.byte	0x13
 1850 09d9 4902     		.2byte	0x249
 1851 09db FA090000 		.4byte	0x9fa
 1852 09df 09       		.uleb128 0x9
 1853 09e0 69070000 		.4byte	.LASF131
 1854 09e4 13       		.byte	0x13
 1855 09e5 4D02     		.2byte	0x24d
 1856 09e7 A6090000 		.4byte	0x9a6
 1857 09eb 00       		.byte	0
 1858 09ec 09       		.uleb128 0x9
 1859 09ed 3E040000 		.4byte	.LASF132
 1860 09f1 13       		.byte	0x13
 1861 09f2 5302     		.2byte	0x253
 1862 09f4 84090000 		.4byte	0x984
 1863 09f8 04       		.byte	0x4
 1864 09f9 00       		.byte	0
 1865 09fa 13       		.uleb128 0x13
 1866 09fb F4070000 		.4byte	.LASF133
 1867 09ff 13       		.byte	0x13
 1868 0a00 5502     		.2byte	0x255
 1869 0a02 D6090000 		.4byte	0x9d6
 1870 0a06 12       		.uleb128 0x12
 1871 0a07 34       		.byte	0x34
 1872 0a08 13       		.byte	0x13
 1873 0a09 5A02     		.2byte	0x25a
 1874 0a0b 5E0A0000 		.4byte	0xa5e
 1875 0a0f 09       		.uleb128 0x9
 1876 0a10 8A060000 		.4byte	.LASF134
 1877 0a14 13       		.byte	0x13
 1878 0a15 6002     		.2byte	0x260
 1879 0a17 B4000000 		.4byte	0xb4
 1880 0a1b 00       		.byte	0
 1881 0a1c 09       		.uleb128 0x9
ARM GAS  /tmp/cc7gQbhQ.s 			page 34


 1882 0a1d 76010000 		.4byte	.LASF122
 1883 0a21 13       		.byte	0x13
 1884 0a22 6602     		.2byte	0x266
 1885 0a24 CA090000 		.4byte	0x9ca
 1886 0a28 04       		.byte	0x4
 1887 0a29 09       		.uleb128 0x9
 1888 0a2a 3E040000 		.4byte	.LASF132
 1889 0a2e 13       		.byte	0x13
 1890 0a2f 6C02     		.2byte	0x26c
 1891 0a31 84090000 		.4byte	0x984
 1892 0a35 08       		.byte	0x8
 1893 0a36 09       		.uleb128 0x9
 1894 0a37 85020000 		.4byte	.LASF124
 1895 0a3b 13       		.byte	0x13
 1896 0a3c 7002     		.2byte	0x270
 1897 0a3e 5E0A0000 		.4byte	0xa5e
 1898 0a42 0C       		.byte	0xc
 1899 0a43 08       		.uleb128 0x8
 1900 0a44 63723200 		.ascii	"cr2\000"
 1901 0a48 13       		.byte	0x13
 1902 0a49 7602     		.2byte	0x276
 1903 0a4b B4000000 		.4byte	0xb4
 1904 0a4f 2C       		.byte	0x2c
 1905 0a50 09       		.uleb128 0x9
 1906 0a51 FB080000 		.4byte	.LASF135
 1907 0a55 13       		.byte	0x13
 1908 0a56 8302     		.2byte	0x283
 1909 0a58 B4000000 		.4byte	0xb4
 1910 0a5c 30       		.byte	0x30
 1911 0a5d 00       		.byte	0
 1912 0a5e 10       		.uleb128 0x10
 1913 0a5f FA090000 		.4byte	0x9fa
 1914 0a63 6E0A0000 		.4byte	0xa6e
 1915 0a67 11       		.uleb128 0x11
 1916 0a68 61040000 		.4byte	0x461
 1917 0a6c 03       		.byte	0x3
 1918 0a6d 00       		.byte	0
 1919 0a6e 13       		.uleb128 0x13
 1920 0a6f 16080000 		.4byte	.LASF136
 1921 0a73 13       		.byte	0x13
 1922 0a74 8402     		.2byte	0x284
 1923 0a76 060A0000 		.4byte	0xa06
 1924 0a7a 0A       		.uleb128 0xa
 1925 0a7b 04       		.byte	0x4
 1926 0a7c 800A0000 		.4byte	0xa80
 1927 0a80 18       		.uleb128 0x18
 1928 0a81 6E0A0000 		.4byte	0xa6e
 1929 0a85 0A       		.uleb128 0xa
 1930 0a86 04       		.byte	0x4
 1931 0a87 23070000 		.4byte	0x723
 1932 0a8b 1B       		.uleb128 0x1b
 1933 0a8c 9B070000 		.4byte	.LASF173
 1934 0a90 02       		.byte	0x2
 1935 0a91 EB01     		.2byte	0x1eb
 1936 0a93 03       		.byte	0x3
 1937 0a94 A50A0000 		.4byte	0xaa5
 1938 0a98 1C       		.uleb128 0x1c
ARM GAS  /tmp/cc7gQbhQ.s 			page 35


 1939 0a99 62020000 		.4byte	.LASF174
 1940 0a9d 02       		.byte	0x2
 1941 0a9e EB01     		.2byte	0x1eb
 1942 0aa0 B4000000 		.4byte	0xb4
 1943 0aa4 00       		.byte	0
 1944 0aa5 1D       		.uleb128 0x1d
 1945 0aa6 6C010000 		.4byte	.LASF137
 1946 0aaa 0C       		.byte	0xc
 1947 0aab 5A02     		.2byte	0x25a
 1948 0aad 03       		.byte	0x3
 1949 0aae 1D       		.uleb128 0x1d
 1950 0aaf 6A020000 		.4byte	.LASF138
 1951 0ab3 0C       		.byte	0xc
 1952 0ab4 7202     		.2byte	0x272
 1953 0ab6 03       		.byte	0x3
 1954 0ab7 1D       		.uleb128 0x1d
 1955 0ab8 9E060000 		.4byte	.LASF139
 1956 0abc 04       		.byte	0x4
 1957 0abd 0802     		.2byte	0x208
 1958 0abf 03       		.byte	0x3
 1959 0ac0 1D       		.uleb128 0x1d
 1960 0ac1 40030000 		.4byte	.LASF140
 1961 0ac5 04       		.byte	0x4
 1962 0ac6 FD01     		.2byte	0x1fd
 1963 0ac8 03       		.byte	0x3
 1964 0ac9 1E       		.uleb128 0x1e
 1965 0aca 94060000 		.4byte	.LASF141
 1966 0ace 01       		.byte	0x1
 1967 0acf 6101     		.2byte	0x161
 1968 0ad1 00000000 		.4byte	.LFB184
 1969 0ad5 0A000000 		.4byte	.LFE184-.LFB184
 1970 0ad9 01       		.uleb128 0x1
 1971 0ada 9C       		.byte	0x9c
 1972 0adb 180B0000 		.4byte	0xb18
 1973 0adf 1F       		.uleb128 0x1f
 1974 0ae0 A50A0000 		.4byte	0xaa5
 1975 0ae4 00000000 		.4byte	.LBB50
 1976 0ae8 06000000 		.4byte	.LBE50-.LBB50
 1977 0aec 01       		.byte	0x1
 1978 0aed 6301     		.2byte	0x163
 1979 0aef 0E0B0000 		.4byte	0xb0e
 1980 0af3 20       		.uleb128 0x20
 1981 0af4 8B0A0000 		.4byte	0xa8b
 1982 0af8 00000000 		.4byte	.LBB51
 1983 0afc 06000000 		.4byte	.LBE51-.LBB51
 1984 0b00 0C       		.byte	0xc
 1985 0b01 6202     		.2byte	0x262
 1986 0b03 21       		.uleb128 0x21
 1987 0b04 980A0000 		.4byte	0xa98
 1988 0b08 00000000 		.4byte	.LLST0
 1989 0b0c 00       		.byte	0
 1990 0b0d 00       		.byte	0
 1991 0b0e 22       		.uleb128 0x22
 1992 0b0f 0A000000 		.4byte	.LVL2
 1993 0b13 45110000 		.4byte	0x1145
 1994 0b17 00       		.byte	0
 1995 0b18 1E       		.uleb128 0x1e
ARM GAS  /tmp/cc7gQbhQ.s 			page 36


 1996 0b19 BA080000 		.4byte	.LASF142
 1997 0b1d 01       		.byte	0x1
 1998 0b1e 6D01     		.2byte	0x16d
 1999 0b20 00000000 		.4byte	.LFB185
 2000 0b24 0E000000 		.4byte	.LFE185-.LFB185
 2001 0b28 01       		.uleb128 0x1
 2002 0b29 9C       		.byte	0x9c
 2003 0b2a 700B0000 		.4byte	0xb70
 2004 0b2e 23       		.uleb128 0x23
 2005 0b2f 81060000 		.4byte	.LASF147
 2006 0b33 800B0000 		.4byte	0xb80
 2007 0b37 1F       		.uleb128 0x1f
 2008 0b38 AE0A0000 		.4byte	0xaae
 2009 0b3c 06000000 		.4byte	.LBB53
 2010 0b40 08000000 		.4byte	.LBE53-.LBB53
 2011 0b44 01       		.byte	0x1
 2012 0b45 7A01     		.2byte	0x17a
 2013 0b47 660B0000 		.4byte	0xb66
 2014 0b4b 20       		.uleb128 0x20
 2015 0b4c 8B0A0000 		.4byte	0xa8b
 2016 0b50 06000000 		.4byte	.LBB54
 2017 0b54 08000000 		.4byte	.LBE54-.LBB54
 2018 0b58 0C       		.byte	0xc
 2019 0b59 7502     		.2byte	0x275
 2020 0b5b 21       		.uleb128 0x21
 2021 0b5c 980A0000 		.4byte	0xa98
 2022 0b60 15000000 		.4byte	.LLST1
 2023 0b64 00       		.byte	0
 2024 0b65 00       		.byte	0
 2025 0b66 24       		.uleb128 0x24
 2026 0b67 06000000 		.4byte	.LVL3
 2027 0b6b 50110000 		.4byte	0x1150
 2028 0b6f 00       		.byte	0
 2029 0b70 10       		.uleb128 0x10
 2030 0b71 B8080000 		.4byte	0x8b8
 2031 0b75 800B0000 		.4byte	0xb80
 2032 0b79 11       		.uleb128 0x11
 2033 0b7a 61040000 		.4byte	0x461
 2034 0b7e 0B       		.byte	0xb
 2035 0b7f 00       		.byte	0
 2036 0b80 18       		.uleb128 0x18
 2037 0b81 700B0000 		.4byte	0xb70
 2038 0b85 25       		.uleb128 0x25
 2039 0b86 D2020000 		.4byte	.LASF143
 2040 0b8a 03       		.byte	0x3
 2041 0b8b 38       		.byte	0x38
 2042 0b8c 00000000 		.4byte	.LFB323
 2043 0b90 04000000 		.4byte	.LFE323-.LFB323
 2044 0b94 01       		.uleb128 0x1
 2045 0b95 9C       		.byte	0x9c
 2046 0b96 A40B0000 		.4byte	0xba4
 2047 0b9a 22       		.uleb128 0x22
 2048 0b9b 04000000 		.4byte	.LVL5
 2049 0b9f 5B110000 		.4byte	0x115b
 2050 0ba3 00       		.byte	0
 2051 0ba4 25       		.uleb128 0x25
 2052 0ba5 60050000 		.4byte	.LASF144
ARM GAS  /tmp/cc7gQbhQ.s 			page 37


 2053 0ba9 03       		.byte	0x3
 2054 0baa 44       		.byte	0x44
 2055 0bab 00000000 		.4byte	.LFB324
 2056 0baf 0E000000 		.4byte	.LFE324-.LFB324
 2057 0bb3 01       		.uleb128 0x1
 2058 0bb4 9C       		.byte	0x9c
 2059 0bb5 C70B0000 		.4byte	0xbc7
 2060 0bb9 26       		.uleb128 0x26
 2061 0bba A7040000 		.4byte	.LASF146
 2062 0bbe 03       		.byte	0x3
 2063 0bbf 44       		.byte	0x44
 2064 0bc0 A0090000 		.4byte	0x9a0
 2065 0bc4 01       		.uleb128 0x1
 2066 0bc5 50       		.byte	0x50
 2067 0bc6 00       		.byte	0
 2068 0bc7 25       		.uleb128 0x25
 2069 0bc8 21020000 		.4byte	.LASF145
 2070 0bcc 03       		.byte	0x3
 2071 0bcd 59       		.byte	0x59
 2072 0bce 00000000 		.4byte	.LFB325
 2073 0bd2 26000000 		.4byte	.LFE325-.LFB325
 2074 0bd6 01       		.uleb128 0x1
 2075 0bd7 9C       		.byte	0x9c
 2076 0bd8 4E0C0000 		.4byte	0xc4e
 2077 0bdc 27       		.uleb128 0x27
 2078 0bdd A7040000 		.4byte	.LASF146
 2079 0be1 03       		.byte	0x3
 2080 0be2 59       		.byte	0x59
 2081 0be3 A0090000 		.4byte	0x9a0
 2082 0be7 29000000 		.4byte	.LLST2
 2083 0beb 27       		.uleb128 0x27
 2084 0bec 6E070000 		.4byte	.LASF121
 2085 0bf0 03       		.byte	0x3
 2086 0bf1 59       		.byte	0x59
 2087 0bf2 7A0A0000 		.4byte	0xa7a
 2088 0bf6 55000000 		.4byte	.LLST3
 2089 0bfa 23       		.uleb128 0x23
 2090 0bfb 81060000 		.4byte	.LASF147
 2091 0bff 5E0C0000 		.4byte	0xc5e
 2092 0c03 28       		.uleb128 0x28
 2093 0c04 C00A0000 		.4byte	0xac0
 2094 0c08 06000000 		.4byte	.LBB56
 2095 0c0c 04000000 		.4byte	.LBE56-.LBB56
 2096 0c10 03       		.byte	0x3
 2097 0c11 5D       		.byte	0x5d
 2098 0c12 200C0000 		.4byte	0xc20
 2099 0c16 24       		.uleb128 0x24
 2100 0c17 0A000000 		.4byte	.LVL8
 2101 0c1b C90A0000 		.4byte	0xac9
 2102 0c1f 00       		.byte	0
 2103 0c20 28       		.uleb128 0x28
 2104 0c21 B70A0000 		.4byte	0xab7
 2105 0c25 22000000 		.4byte	.LBB58
 2106 0c29 04000000 		.4byte	.LBE58-.LBB58
 2107 0c2d 03       		.byte	0x3
 2108 0c2e 65       		.byte	0x65
 2109 0c2f 3D0C0000 		.4byte	0xc3d
ARM GAS  /tmp/cc7gQbhQ.s 			page 38


 2110 0c33 22       		.uleb128 0x22
 2111 0c34 26000000 		.4byte	.LVL11
 2112 0c38 180B0000 		.4byte	0xb18
 2113 0c3c 00       		.byte	0
 2114 0c3d 29       		.uleb128 0x29
 2115 0c3e 16000000 		.4byte	.LVL9
 2116 0c42 67110000 		.4byte	0x1167
 2117 0c46 2A       		.uleb128 0x2a
 2118 0c47 01       		.uleb128 0x1
 2119 0c48 50       		.byte	0x50
 2120 0c49 02       		.uleb128 0x2
 2121 0c4a 74       		.byte	0x74
 2122 0c4b 00       		.sleb128 0
 2123 0c4c 00       		.byte	0
 2124 0c4d 00       		.byte	0
 2125 0c4e 10       		.uleb128 0x10
 2126 0c4f B8080000 		.4byte	0x8b8
 2127 0c53 5E0C0000 		.4byte	0xc5e
 2128 0c57 11       		.uleb128 0x11
 2129 0c58 61040000 		.4byte	0x461
 2130 0c5c 08       		.byte	0x8
 2131 0c5d 00       		.byte	0
 2132 0c5e 18       		.uleb128 0x18
 2133 0c5f 4E0C0000 		.4byte	0xc4e
 2134 0c63 25       		.uleb128 0x25
 2135 0c64 D1040000 		.4byte	.LASF148
 2136 0c68 03       		.byte	0x3
 2137 0c69 6F       		.byte	0x6f
 2138 0c6a 00000000 		.4byte	.LFB326
 2139 0c6e 20000000 		.4byte	.LFE326-.LFB326
 2140 0c72 01       		.uleb128 0x1
 2141 0c73 9C       		.byte	0x9c
 2142 0c74 DB0C0000 		.4byte	0xcdb
 2143 0c78 27       		.uleb128 0x27
 2144 0c79 A7040000 		.4byte	.LASF146
 2145 0c7d 03       		.byte	0x3
 2146 0c7e 6F       		.byte	0x6f
 2147 0c7f A0090000 		.4byte	0x9a0
 2148 0c83 81000000 		.4byte	.LLST4
 2149 0c87 23       		.uleb128 0x23
 2150 0c88 81060000 		.4byte	.LASF147
 2151 0c8c EB0C0000 		.4byte	0xceb
 2152 0c90 28       		.uleb128 0x28
 2153 0c91 C00A0000 		.4byte	0xac0
 2154 0c95 04000000 		.4byte	.LBB60
 2155 0c99 04000000 		.4byte	.LBE60-.LBB60
 2156 0c9d 03       		.byte	0x3
 2157 0c9e 73       		.byte	0x73
 2158 0c9f AD0C0000 		.4byte	0xcad
 2159 0ca3 24       		.uleb128 0x24
 2160 0ca4 08000000 		.4byte	.LVL13
 2161 0ca8 C90A0000 		.4byte	0xac9
 2162 0cac 00       		.byte	0
 2163 0cad 28       		.uleb128 0x28
 2164 0cae B70A0000 		.4byte	0xab7
 2165 0cb2 1C000000 		.4byte	.LBB62
 2166 0cb6 04000000 		.4byte	.LBE62-.LBB62
ARM GAS  /tmp/cc7gQbhQ.s 			page 39


 2167 0cba 03       		.byte	0x3
 2168 0cbb 7D       		.byte	0x7d
 2169 0cbc CA0C0000 		.4byte	0xcca
 2170 0cc0 22       		.uleb128 0x22
 2171 0cc1 20000000 		.4byte	.LVL16
 2172 0cc5 180B0000 		.4byte	0xb18
 2173 0cc9 00       		.byte	0
 2174 0cca 29       		.uleb128 0x29
 2175 0ccb 0E000000 		.4byte	.LVL14
 2176 0ccf 73110000 		.4byte	0x1173
 2177 0cd3 2A       		.uleb128 0x2a
 2178 0cd4 01       		.uleb128 0x1
 2179 0cd5 50       		.byte	0x50
 2180 0cd6 02       		.uleb128 0x2
 2181 0cd7 74       		.byte	0x74
 2182 0cd8 00       		.sleb128 0
 2183 0cd9 00       		.byte	0
 2184 0cda 00       		.byte	0
 2185 0cdb 10       		.uleb128 0x10
 2186 0cdc B8080000 		.4byte	0x8b8
 2187 0ce0 EB0C0000 		.4byte	0xceb
 2188 0ce4 11       		.uleb128 0x11
 2189 0ce5 61040000 		.4byte	0x461
 2190 0ce9 07       		.byte	0x7
 2191 0cea 00       		.byte	0
 2192 0ceb 18       		.uleb128 0x18
 2193 0cec DB0C0000 		.4byte	0xcdb
 2194 0cf0 25       		.uleb128 0x25
 2195 0cf1 48020000 		.4byte	.LASF149
 2196 0cf5 03       		.byte	0x3
 2197 0cf6 8F       		.byte	0x8f
 2198 0cf7 00000000 		.4byte	.LFB327
 2199 0cfb 1A000000 		.4byte	.LFE327-.LFB327
 2200 0cff 01       		.uleb128 0x1
 2201 0d00 9C       		.byte	0x9c
 2202 0d01 630D0000 		.4byte	0xd63
 2203 0d05 27       		.uleb128 0x27
 2204 0d06 A7040000 		.4byte	.LASF146
 2205 0d0a 03       		.byte	0x3
 2206 0d0b 8F       		.byte	0x8f
 2207 0d0c A0090000 		.4byte	0x9a0
 2208 0d10 AD000000 		.4byte	.LLST5
 2209 0d14 27       		.uleb128 0x27
 2210 0d15 76010000 		.4byte	.LASF122
 2211 0d19 03       		.byte	0x3
 2212 0d1a 8F       		.byte	0x8f
 2213 0d1b CA090000 		.4byte	0x9ca
 2214 0d1f D9000000 		.4byte	.LLST6
 2215 0d23 23       		.uleb128 0x23
 2216 0d24 81060000 		.4byte	.LASF147
 2217 0d28 730D0000 		.4byte	0xd73
 2218 0d2c 28       		.uleb128 0x28
 2219 0d2d C00A0000 		.4byte	0xac0
 2220 0d31 06000000 		.4byte	.LBB64
 2221 0d35 04000000 		.4byte	.LBE64-.LBB64
 2222 0d39 03       		.byte	0x3
 2223 0d3a 93       		.byte	0x93
ARM GAS  /tmp/cc7gQbhQ.s 			page 40


 2224 0d3b 490D0000 		.4byte	0xd49
 2225 0d3f 24       		.uleb128 0x24
 2226 0d40 0A000000 		.4byte	.LVL18
 2227 0d44 C90A0000 		.4byte	0xac9
 2228 0d48 00       		.byte	0
 2229 0d49 2B       		.uleb128 0x2b
 2230 0d4a B70A0000 		.4byte	0xab7
 2231 0d4e 16000000 		.4byte	.LBB66
 2232 0d52 04000000 		.4byte	.LBE66-.LBB66
 2233 0d56 03       		.byte	0x3
 2234 0d57 96       		.byte	0x96
 2235 0d58 22       		.uleb128 0x22
 2236 0d59 1A000000 		.4byte	.LVL21
 2237 0d5d 180B0000 		.4byte	0xb18
 2238 0d61 00       		.byte	0
 2239 0d62 00       		.byte	0
 2240 0d63 10       		.uleb128 0x10
 2241 0d64 B8080000 		.4byte	0x8b8
 2242 0d68 730D0000 		.4byte	0xd73
 2243 0d6c 11       		.uleb128 0x11
 2244 0d6d 61040000 		.4byte	0x461
 2245 0d71 0F       		.byte	0xf
 2246 0d72 00       		.byte	0
 2247 0d73 18       		.uleb128 0x18
 2248 0d74 630D0000 		.4byte	0xd63
 2249 0d78 25       		.uleb128 0x25
 2250 0d79 EA080000 		.4byte	.LASF150
 2251 0d7d 03       		.byte	0x3
 2252 0d7e A7       		.byte	0xa7
 2253 0d7f 00000000 		.4byte	.LFB328
 2254 0d83 28000000 		.4byte	.LFE328-.LFB328
 2255 0d87 01       		.uleb128 0x1
 2256 0d88 9C       		.byte	0x9c
 2257 0d89 1A0E0000 		.4byte	0xe1a
 2258 0d8d 27       		.uleb128 0x27
 2259 0d8e A7040000 		.4byte	.LASF146
 2260 0d92 03       		.byte	0x3
 2261 0d93 A7       		.byte	0xa7
 2262 0d94 A0090000 		.4byte	0x9a0
 2263 0d98 20010000 		.4byte	.LLST7
 2264 0d9c 27       		.uleb128 0x27
 2265 0d9d AC060000 		.4byte	.LASF151
 2266 0da1 03       		.byte	0x3
 2267 0da2 A8       		.byte	0xa8
 2268 0da3 B2090000 		.4byte	0x9b2
 2269 0da7 4C010000 		.4byte	.LLST8
 2270 0dab 27       		.uleb128 0x27
 2271 0dac D4030000 		.4byte	.LASF152
 2272 0db0 03       		.byte	0x3
 2273 0db1 A9       		.byte	0xa9
 2274 0db2 CA090000 		.4byte	0x9ca
 2275 0db6 6D010000 		.4byte	.LLST9
 2276 0dba 23       		.uleb128 0x23
 2277 0dbb 81060000 		.4byte	.LASF147
 2278 0dbf 2A0E0000 		.4byte	0xe2a
 2279 0dc3 28       		.uleb128 0x28
 2280 0dc4 C00A0000 		.4byte	0xac0
ARM GAS  /tmp/cc7gQbhQ.s 			page 41


 2281 0dc8 08000000 		.4byte	.LBB68
 2282 0dcc 04000000 		.4byte	.LBE68-.LBB68
 2283 0dd0 03       		.byte	0x3
 2284 0dd1 AD       		.byte	0xad
 2285 0dd2 E00D0000 		.4byte	0xde0
 2286 0dd6 24       		.uleb128 0x24
 2287 0dd7 0C000000 		.4byte	.LVL23
 2288 0ddb C90A0000 		.4byte	0xac9
 2289 0ddf 00       		.byte	0
 2290 0de0 28       		.uleb128 0x28
 2291 0de1 B70A0000 		.4byte	0xab7
 2292 0de5 24000000 		.4byte	.LBB70
 2293 0de9 04000000 		.4byte	.LBE70-.LBB70
 2294 0ded 03       		.byte	0x3
 2295 0dee B3       		.byte	0xb3
 2296 0def FD0D0000 		.4byte	0xdfd
 2297 0df3 22       		.uleb128 0x22
 2298 0df4 28000000 		.4byte	.LVL26
 2299 0df8 180B0000 		.4byte	0xb18
 2300 0dfc 00       		.byte	0
 2301 0dfd 29       		.uleb128 0x29
 2302 0dfe 20000000 		.4byte	.LVL24
 2303 0e02 7F110000 		.4byte	0x117f
 2304 0e06 2A       		.uleb128 0x2a
 2305 0e07 01       		.uleb128 0x1
 2306 0e08 50       		.byte	0x50
 2307 0e09 02       		.uleb128 0x2
 2308 0e0a 74       		.byte	0x74
 2309 0e0b 00       		.sleb128 0
 2310 0e0c 2A       		.uleb128 0x2a
 2311 0e0d 01       		.uleb128 0x1
 2312 0e0e 51       		.byte	0x51
 2313 0e0f 02       		.uleb128 0x2
 2314 0e10 75       		.byte	0x75
 2315 0e11 00       		.sleb128 0
 2316 0e12 2A       		.uleb128 0x2a
 2317 0e13 01       		.uleb128 0x1
 2318 0e14 52       		.byte	0x52
 2319 0e15 02       		.uleb128 0x2
 2320 0e16 76       		.byte	0x76
 2321 0e17 00       		.sleb128 0
 2322 0e18 00       		.byte	0
 2323 0e19 00       		.byte	0
 2324 0e1a 10       		.uleb128 0x10
 2325 0e1b B8080000 		.4byte	0x8b8
 2326 0e1f 2A0E0000 		.4byte	0xe2a
 2327 0e23 11       		.uleb128 0x11
 2328 0e24 61040000 		.4byte	0x461
 2329 0e28 10       		.byte	0x10
 2330 0e29 00       		.byte	0
 2331 0e2a 18       		.uleb128 0x18
 2332 0e2b 1A0E0000 		.4byte	0xe1a
 2333 0e2f 25       		.uleb128 0x25
 2334 0e30 20040000 		.4byte	.LASF153
 2335 0e34 03       		.byte	0x3
 2336 0e35 C4       		.byte	0xc4
 2337 0e36 00000000 		.4byte	.LFB329
ARM GAS  /tmp/cc7gQbhQ.s 			page 42


 2338 0e3a 28000000 		.4byte	.LFE329-.LFB329
 2339 0e3e 01       		.uleb128 0x1
 2340 0e3f 9C       		.byte	0x9c
 2341 0e40 BC0E0000 		.4byte	0xebc
 2342 0e44 27       		.uleb128 0x27
 2343 0e45 A7040000 		.4byte	.LASF146
 2344 0e49 03       		.byte	0x3
 2345 0e4a C4       		.byte	0xc4
 2346 0e4b A0090000 		.4byte	0x9a0
 2347 0e4f 99010000 		.4byte	.LLST10
 2348 0e53 27       		.uleb128 0x27
 2349 0e54 AC060000 		.4byte	.LASF151
 2350 0e58 03       		.byte	0x3
 2351 0e59 C4       		.byte	0xc4
 2352 0e5a B2090000 		.4byte	0x9b2
 2353 0e5e C5010000 		.4byte	.LLST11
 2354 0e62 23       		.uleb128 0x23
 2355 0e63 81060000 		.4byte	.LASF147
 2356 0e67 CC0E0000 		.4byte	0xecc
 2357 0e6b 28       		.uleb128 0x28
 2358 0e6c C00A0000 		.4byte	0xac0
 2359 0e70 06000000 		.4byte	.LBB72
 2360 0e74 04000000 		.4byte	.LBE72-.LBB72
 2361 0e78 03       		.byte	0x3
 2362 0e79 C8       		.byte	0xc8
 2363 0e7a 880E0000 		.4byte	0xe88
 2364 0e7e 24       		.uleb128 0x24
 2365 0e7f 0A000000 		.4byte	.LVL28
 2366 0e83 C90A0000 		.4byte	0xac9
 2367 0e87 00       		.byte	0
 2368 0e88 28       		.uleb128 0x28
 2369 0e89 B70A0000 		.4byte	0xab7
 2370 0e8d 24000000 		.4byte	.LBB74
 2371 0e91 04000000 		.4byte	.LBE74-.LBB74
 2372 0e95 03       		.byte	0x3
 2373 0e96 CE       		.byte	0xce
 2374 0e97 A50E0000 		.4byte	0xea5
 2375 0e9b 22       		.uleb128 0x22
 2376 0e9c 28000000 		.4byte	.LVL31
 2377 0ea0 180B0000 		.4byte	0xb18
 2378 0ea4 00       		.byte	0
 2379 0ea5 29       		.uleb128 0x29
 2380 0ea6 20000000 		.4byte	.LVL29
 2381 0eaa 8B110000 		.4byte	0x118b
 2382 0eae 2A       		.uleb128 0x2a
 2383 0eaf 01       		.uleb128 0x1
 2384 0eb0 50       		.byte	0x50
 2385 0eb1 02       		.uleb128 0x2
 2386 0eb2 74       		.byte	0x74
 2387 0eb3 00       		.sleb128 0
 2388 0eb4 2A       		.uleb128 0x2a
 2389 0eb5 01       		.uleb128 0x1
 2390 0eb6 51       		.byte	0x51
 2391 0eb7 02       		.uleb128 0x2
 2392 0eb8 75       		.byte	0x75
 2393 0eb9 00       		.sleb128 0
 2394 0eba 00       		.byte	0
ARM GAS  /tmp/cc7gQbhQ.s 			page 43


 2395 0ebb 00       		.byte	0
 2396 0ebc 10       		.uleb128 0x10
 2397 0ebd B8080000 		.4byte	0x8b8
 2398 0ec1 CC0E0000 		.4byte	0xecc
 2399 0ec5 11       		.uleb128 0x11
 2400 0ec6 61040000 		.4byte	0x461
 2401 0eca 11       		.byte	0x11
 2402 0ecb 00       		.byte	0
 2403 0ecc 18       		.uleb128 0x18
 2404 0ecd BC0E0000 		.4byte	0xebc
 2405 0ed1 25       		.uleb128 0x25
 2406 0ed2 A9070000 		.4byte	.LASF154
 2407 0ed6 03       		.byte	0x3
 2408 0ed7 DA       		.byte	0xda
 2409 0ed8 00000000 		.4byte	.LFB330
 2410 0edc 16000000 		.4byte	.LFE330-.LFB330
 2411 0ee0 01       		.uleb128 0x1
 2412 0ee1 9C       		.byte	0x9c
 2413 0ee2 490F0000 		.4byte	0xf49
 2414 0ee6 27       		.uleb128 0x27
 2415 0ee7 A7040000 		.4byte	.LASF146
 2416 0eeb 03       		.byte	0x3
 2417 0eec DA       		.byte	0xda
 2418 0eed A0090000 		.4byte	0x9a0
 2419 0ef1 E6010000 		.4byte	.LLST12
 2420 0ef5 23       		.uleb128 0x23
 2421 0ef6 81060000 		.4byte	.LASF147
 2422 0efa 590F0000 		.4byte	0xf59
 2423 0efe 28       		.uleb128 0x28
 2424 0eff C00A0000 		.4byte	0xac0
 2425 0f03 04000000 		.4byte	.LBB76
 2426 0f07 04000000 		.4byte	.LBE76-.LBB76
 2427 0f0b 03       		.byte	0x3
 2428 0f0c DE       		.byte	0xde
 2429 0f0d 1B0F0000 		.4byte	0xf1b
 2430 0f11 24       		.uleb128 0x24
 2431 0f12 08000000 		.4byte	.LVL33
 2432 0f16 C90A0000 		.4byte	0xac9
 2433 0f1a 00       		.byte	0
 2434 0f1b 28       		.uleb128 0x28
 2435 0f1c B70A0000 		.4byte	0xab7
 2436 0f20 12000000 		.4byte	.LBB78
 2437 0f24 04000000 		.4byte	.LBE78-.LBB78
 2438 0f28 03       		.byte	0x3
 2439 0f29 E5       		.byte	0xe5
 2440 0f2a 380F0000 		.4byte	0xf38
 2441 0f2e 22       		.uleb128 0x22
 2442 0f2f 16000000 		.4byte	.LVL36
 2443 0f33 180B0000 		.4byte	0xb18
 2444 0f37 00       		.byte	0
 2445 0f38 29       		.uleb128 0x29
 2446 0f39 0E000000 		.4byte	.LVL34
 2447 0f3d 97110000 		.4byte	0x1197
 2448 0f41 2A       		.uleb128 0x2a
 2449 0f42 01       		.uleb128 0x1
 2450 0f43 50       		.byte	0x50
 2451 0f44 02       		.uleb128 0x2
ARM GAS  /tmp/cc7gQbhQ.s 			page 44


 2452 0f45 74       		.byte	0x74
 2453 0f46 00       		.sleb128 0
 2454 0f47 00       		.byte	0
 2455 0f48 00       		.byte	0
 2456 0f49 10       		.uleb128 0x10
 2457 0f4a B8080000 		.4byte	0x8b8
 2458 0f4e 590F0000 		.4byte	0xf59
 2459 0f52 11       		.uleb128 0x11
 2460 0f53 61040000 		.4byte	0x461
 2461 0f57 1D       		.byte	0x1d
 2462 0f58 00       		.byte	0
 2463 0f59 18       		.uleb128 0x18
 2464 0f5a 490F0000 		.4byte	0xf49
 2465 0f5e 25       		.uleb128 0x25
 2466 0f5f F9020000 		.4byte	.LASF155
 2467 0f63 03       		.byte	0x3
 2468 0f64 F1       		.byte	0xf1
 2469 0f65 00000000 		.4byte	.LFB331
 2470 0f69 16000000 		.4byte	.LFE331-.LFB331
 2471 0f6d 01       		.uleb128 0x1
 2472 0f6e 9C       		.byte	0x9c
 2473 0f6f D60F0000 		.4byte	0xfd6
 2474 0f73 27       		.uleb128 0x27
 2475 0f74 A7040000 		.4byte	.LASF146
 2476 0f78 03       		.byte	0x3
 2477 0f79 F1       		.byte	0xf1
 2478 0f7a A0090000 		.4byte	0x9a0
 2479 0f7e 12020000 		.4byte	.LLST13
 2480 0f82 23       		.uleb128 0x23
 2481 0f83 81060000 		.4byte	.LASF147
 2482 0f87 E60F0000 		.4byte	0xfe6
 2483 0f8b 28       		.uleb128 0x28
 2484 0f8c C00A0000 		.4byte	0xac0
 2485 0f90 04000000 		.4byte	.LBB80
 2486 0f94 04000000 		.4byte	.LBE80-.LBB80
 2487 0f98 03       		.byte	0x3
 2488 0f99 F5       		.byte	0xf5
 2489 0f9a A80F0000 		.4byte	0xfa8
 2490 0f9e 24       		.uleb128 0x24
 2491 0f9f 08000000 		.4byte	.LVL38
 2492 0fa3 C90A0000 		.4byte	0xac9
 2493 0fa7 00       		.byte	0
 2494 0fa8 28       		.uleb128 0x28
 2495 0fa9 B70A0000 		.4byte	0xab7
 2496 0fad 12000000 		.4byte	.LBB82
 2497 0fb1 04000000 		.4byte	.LBE82-.LBB82
 2498 0fb5 03       		.byte	0x3
 2499 0fb6 FC       		.byte	0xfc
 2500 0fb7 C50F0000 		.4byte	0xfc5
 2501 0fbb 22       		.uleb128 0x22
 2502 0fbc 16000000 		.4byte	.LVL41
 2503 0fc0 180B0000 		.4byte	0xb18
 2504 0fc4 00       		.byte	0
 2505 0fc5 29       		.uleb128 0x29
 2506 0fc6 0E000000 		.4byte	.LVL39
 2507 0fca A3110000 		.4byte	0x11a3
 2508 0fce 2A       		.uleb128 0x2a
ARM GAS  /tmp/cc7gQbhQ.s 			page 45


 2509 0fcf 01       		.uleb128 0x1
 2510 0fd0 50       		.byte	0x50
 2511 0fd1 02       		.uleb128 0x2
 2512 0fd2 74       		.byte	0x74
 2513 0fd3 00       		.sleb128 0
 2514 0fd4 00       		.byte	0
 2515 0fd5 00       		.byte	0
 2516 0fd6 10       		.uleb128 0x10
 2517 0fd7 B8080000 		.4byte	0x8b8
 2518 0fdb E60F0000 		.4byte	0xfe6
 2519 0fdf 11       		.uleb128 0x11
 2520 0fe0 61040000 		.4byte	0x461
 2521 0fe4 1E       		.byte	0x1e
 2522 0fe5 00       		.byte	0
 2523 0fe6 18       		.uleb128 0x18
 2524 0fe7 D60F0000 		.4byte	0xfd6
 2525 0feb 2C       		.uleb128 0x2c
 2526 0fec 75030000 		.4byte	.LASF156
 2527 0ff0 03       		.byte	0x3
 2528 0ff1 0A01     		.2byte	0x10a
 2529 0ff3 00000000 		.4byte	.LFB332
 2530 0ff7 1A000000 		.4byte	.LFE332-.LFB332
 2531 0ffb 01       		.uleb128 0x1
 2532 0ffc 9C       		.byte	0x9c
 2533 0ffd 7D100000 		.4byte	0x107d
 2534 1001 2D       		.uleb128 0x2d
 2535 1002 A7040000 		.4byte	.LASF146
 2536 1006 03       		.byte	0x3
 2537 1007 0A01     		.2byte	0x10a
 2538 1009 A0090000 		.4byte	0x9a0
 2539 100d 3E020000 		.4byte	.LLST14
 2540 1011 2D       		.uleb128 0x2d
 2541 1012 AC060000 		.4byte	.LASF151
 2542 1016 03       		.byte	0x3
 2543 1017 0A01     		.2byte	0x10a
 2544 1019 B2090000 		.4byte	0x9b2
 2545 101d 6A020000 		.4byte	.LLST15
 2546 1021 23       		.uleb128 0x23
 2547 1022 81060000 		.4byte	.LASF147
 2548 1026 8D100000 		.4byte	0x108d
 2549 102a 1F       		.uleb128 0x1f
 2550 102b C00A0000 		.4byte	0xac0
 2551 102f 06000000 		.4byte	.LBB84
 2552 1033 04000000 		.4byte	.LBE84-.LBB84
 2553 1037 03       		.byte	0x3
 2554 1038 0E01     		.2byte	0x10e
 2555 103a 48100000 		.4byte	0x1048
 2556 103e 24       		.uleb128 0x24
 2557 103f 0A000000 		.4byte	.LVL43
 2558 1043 C90A0000 		.4byte	0xac9
 2559 1047 00       		.byte	0
 2560 1048 1F       		.uleb128 0x1f
 2561 1049 B70A0000 		.4byte	0xab7
 2562 104d 16000000 		.4byte	.LBB86
 2563 1051 04000000 		.4byte	.LBE86-.LBB86
 2564 1055 03       		.byte	0x3
 2565 1056 1801     		.2byte	0x118
ARM GAS  /tmp/cc7gQbhQ.s 			page 46


 2566 1058 66100000 		.4byte	0x1066
 2567 105c 22       		.uleb128 0x22
 2568 105d 1A000000 		.4byte	.LVL46
 2569 1061 180B0000 		.4byte	0xb18
 2570 1065 00       		.byte	0
 2571 1066 29       		.uleb128 0x29
 2572 1067 12000000 		.4byte	.LVL44
 2573 106b AF110000 		.4byte	0x11af
 2574 106f 2A       		.uleb128 0x2a
 2575 1070 01       		.uleb128 0x1
 2576 1071 50       		.byte	0x50
 2577 1072 02       		.uleb128 0x2
 2578 1073 74       		.byte	0x74
 2579 1074 00       		.sleb128 0
 2580 1075 2A       		.uleb128 0x2a
 2581 1076 01       		.uleb128 0x1
 2582 1077 51       		.byte	0x51
 2583 1078 02       		.uleb128 0x2
 2584 1079 75       		.byte	0x75
 2585 107a 00       		.sleb128 0
 2586 107b 00       		.byte	0
 2587 107c 00       		.byte	0
 2588 107d 10       		.uleb128 0x10
 2589 107e B8080000 		.4byte	0x8b8
 2590 1082 8D100000 		.4byte	0x108d
 2591 1086 11       		.uleb128 0x11
 2592 1087 61040000 		.4byte	0x461
 2593 108b 1C       		.byte	0x1c
 2594 108c 00       		.byte	0
 2595 108d 18       		.uleb128 0x18
 2596 108e 7D100000 		.4byte	0x107d
 2597 1092 2C       		.uleb128 0x2c
 2598 1093 47080000 		.4byte	.LASF157
 2599 1097 03       		.byte	0x3
 2600 1098 2601     		.2byte	0x126
 2601 109a 00000000 		.4byte	.LFB333
 2602 109e 1A000000 		.4byte	.LFE333-.LFB333
 2603 10a2 01       		.uleb128 0x1
 2604 10a3 9C       		.byte	0x9c
 2605 10a4 24110000 		.4byte	0x1124
 2606 10a8 2D       		.uleb128 0x2d
 2607 10a9 A7040000 		.4byte	.LASF146
 2608 10ad 03       		.byte	0x3
 2609 10ae 2601     		.2byte	0x126
 2610 10b0 A0090000 		.4byte	0x9a0
 2611 10b4 8B020000 		.4byte	.LLST16
 2612 10b8 2D       		.uleb128 0x2d
 2613 10b9 AC060000 		.4byte	.LASF151
 2614 10bd 03       		.byte	0x3
 2615 10be 2601     		.2byte	0x126
 2616 10c0 B2090000 		.4byte	0x9b2
 2617 10c4 B7020000 		.4byte	.LLST17
 2618 10c8 23       		.uleb128 0x23
 2619 10c9 81060000 		.4byte	.LASF147
 2620 10cd 24110000 		.4byte	0x1124
 2621 10d1 1F       		.uleb128 0x1f
 2622 10d2 C00A0000 		.4byte	0xac0
ARM GAS  /tmp/cc7gQbhQ.s 			page 47


 2623 10d6 06000000 		.4byte	.LBB88
 2624 10da 04000000 		.4byte	.LBE88-.LBB88
 2625 10de 03       		.byte	0x3
 2626 10df 2A01     		.2byte	0x12a
 2627 10e1 EF100000 		.4byte	0x10ef
 2628 10e5 24       		.uleb128 0x24
 2629 10e6 0A000000 		.4byte	.LVL48
 2630 10ea C90A0000 		.4byte	0xac9
 2631 10ee 00       		.byte	0
 2632 10ef 1F       		.uleb128 0x1f
 2633 10f0 B70A0000 		.4byte	0xab7
 2634 10f4 16000000 		.4byte	.LBB90
 2635 10f8 04000000 		.4byte	.LBE90-.LBB90
 2636 10fc 03       		.byte	0x3
 2637 10fd 3401     		.2byte	0x134
 2638 10ff 0D110000 		.4byte	0x110d
 2639 1103 22       		.uleb128 0x22
 2640 1104 1A000000 		.4byte	.LVL51
 2641 1108 180B0000 		.4byte	0xb18
 2642 110c 00       		.byte	0
 2643 110d 29       		.uleb128 0x29
 2644 110e 12000000 		.4byte	.LVL49
 2645 1112 BB110000 		.4byte	0x11bb
 2646 1116 2A       		.uleb128 0x2a
 2647 1117 01       		.uleb128 0x1
 2648 1118 50       		.byte	0x50
 2649 1119 02       		.uleb128 0x2
 2650 111a 74       		.byte	0x74
 2651 111b 00       		.sleb128 0
 2652 111c 2A       		.uleb128 0x2a
 2653 111d 01       		.uleb128 0x1
 2654 111e 51       		.byte	0x51
 2655 111f 02       		.uleb128 0x2
 2656 1120 75       		.byte	0x75
 2657 1121 00       		.sleb128 0
 2658 1122 00       		.byte	0
 2659 1123 00       		.byte	0
 2660 1124 18       		.uleb128 0x18
 2661 1125 490F0000 		.4byte	0xf49
 2662 1129 2E       		.uleb128 0x2e
 2663 112a 44060000 		.4byte	.LASF158
 2664 112e 14       		.byte	0x14
 2665 112f 0408     		.2byte	0x804
 2666 1131 35110000 		.4byte	0x1135
 2667 1135 0F       		.uleb128 0xf
 2668 1136 A9000000 		.4byte	0xa9
 2669 113a 2F       		.uleb128 0x2f
 2670 113b 636800   		.ascii	"ch\000"
 2671 113e 09       		.byte	0x9
 2672 113f C701     		.2byte	0x1c7
 2673 1141 E5030000 		.4byte	0x3e5
 2674 1145 30       		.uleb128 0x30
 2675 1146 75080000 		.4byte	.LASF159
 2676 114a 75080000 		.4byte	.LASF159
 2677 114e 0F       		.byte	0xf
 2678 114f 4F       		.byte	0x4f
 2679 1150 30       		.uleb128 0x30
ARM GAS  /tmp/cc7gQbhQ.s 			page 48


 2680 1151 D9040000 		.4byte	.LASF160
 2681 1155 D9040000 		.4byte	.LASF160
 2682 1159 0F       		.byte	0xf
 2683 115a 50       		.byte	0x50
 2684 115b 31       		.uleb128 0x31
 2685 115c 6E050000 		.4byte	.LASF161
 2686 1160 6E050000 		.4byte	.LASF161
 2687 1164 13       		.byte	0x13
 2688 1165 FA02     		.2byte	0x2fa
 2689 1167 31       		.uleb128 0x31
 2690 1168 97020000 		.4byte	.LASF162
 2691 116c 97020000 		.4byte	.LASF162
 2692 1170 13       		.byte	0x13
 2693 1171 FB02     		.2byte	0x2fb
 2694 1173 31       		.uleb128 0x31
 2695 1174 D7060000 		.4byte	.LASF163
 2696 1178 D7060000 		.4byte	.LASF163
 2697 117c 13       		.byte	0x13
 2698 117d FC02     		.2byte	0x2fc
 2699 117f 31       		.uleb128 0x31
 2700 1180 0A020000 		.4byte	.LASF164
 2701 1184 0A020000 		.4byte	.LASF164
 2702 1188 13       		.byte	0x13
 2703 1189 FD02     		.2byte	0x2fd
 2704 118b 31       		.uleb128 0x31
 2705 118c DF010000 		.4byte	.LASF165
 2706 1190 DF010000 		.4byte	.LASF165
 2707 1194 13       		.byte	0x13
 2708 1195 0003     		.2byte	0x300
 2709 1197 31       		.uleb128 0x31
 2710 1198 99030000 		.4byte	.LASF166
 2711 119c 99030000 		.4byte	.LASF166
 2712 11a0 13       		.byte	0x13
 2713 11a1 0103     		.2byte	0x301
 2714 11a3 31       		.uleb128 0x31
 2715 11a4 CA050000 		.4byte	.LASF167
 2716 11a8 CA050000 		.4byte	.LASF167
 2717 11ac 13       		.byte	0x13
 2718 11ad 0203     		.2byte	0x302
 2719 11af 31       		.uleb128 0x31
 2720 11b0 A5020000 		.4byte	.LASF168
 2721 11b4 A5020000 		.4byte	.LASF168
 2722 11b8 13       		.byte	0x13
 2723 11b9 0303     		.2byte	0x303
 2724 11bb 31       		.uleb128 0x31
 2725 11bc 78040000 		.4byte	.LASF169
 2726 11c0 78040000 		.4byte	.LASF169
 2727 11c4 13       		.byte	0x13
 2728 11c5 0503     		.2byte	0x305
 2729 11c7 00       		.byte	0
 2730              		.section	.debug_abbrev,"",%progbits
 2731              	.Ldebug_abbrev0:
 2732 0000 01       		.uleb128 0x1
 2733 0001 11       		.uleb128 0x11
 2734 0002 01       		.byte	0x1
 2735 0003 25       		.uleb128 0x25
 2736 0004 0E       		.uleb128 0xe
ARM GAS  /tmp/cc7gQbhQ.s 			page 49


 2737 0005 13       		.uleb128 0x13
 2738 0006 0B       		.uleb128 0xb
 2739 0007 03       		.uleb128 0x3
 2740 0008 0E       		.uleb128 0xe
 2741 0009 1B       		.uleb128 0x1b
 2742 000a 0E       		.uleb128 0xe
 2743 000b 55       		.uleb128 0x55
 2744 000c 17       		.uleb128 0x17
 2745 000d 11       		.uleb128 0x11
 2746 000e 01       		.uleb128 0x1
 2747 000f 10       		.uleb128 0x10
 2748 0010 17       		.uleb128 0x17
 2749 0011 00       		.byte	0
 2750 0012 00       		.byte	0
 2751 0013 02       		.uleb128 0x2
 2752 0014 24       		.uleb128 0x24
 2753 0015 00       		.byte	0
 2754 0016 0B       		.uleb128 0xb
 2755 0017 0B       		.uleb128 0xb
 2756 0018 3E       		.uleb128 0x3e
 2757 0019 0B       		.uleb128 0xb
 2758 001a 03       		.uleb128 0x3
 2759 001b 08       		.uleb128 0x8
 2760 001c 00       		.byte	0
 2761 001d 00       		.byte	0
 2762 001e 03       		.uleb128 0x3
 2763 001f 24       		.uleb128 0x24
 2764 0020 00       		.byte	0
 2765 0021 0B       		.uleb128 0xb
 2766 0022 0B       		.uleb128 0xb
 2767 0023 3E       		.uleb128 0x3e
 2768 0024 0B       		.uleb128 0xb
 2769 0025 03       		.uleb128 0x3
 2770 0026 0E       		.uleb128 0xe
 2771 0027 00       		.byte	0
 2772 0028 00       		.byte	0
 2773 0029 04       		.uleb128 0x4
 2774 002a 16       		.uleb128 0x16
 2775 002b 00       		.byte	0
 2776 002c 03       		.uleb128 0x3
 2777 002d 0E       		.uleb128 0xe
 2778 002e 3A       		.uleb128 0x3a
 2779 002f 0B       		.uleb128 0xb
 2780 0030 3B       		.uleb128 0x3b
 2781 0031 0B       		.uleb128 0xb
 2782 0032 49       		.uleb128 0x49
 2783 0033 13       		.uleb128 0x13
 2784 0034 00       		.byte	0
 2785 0035 00       		.byte	0
 2786 0036 05       		.uleb128 0x5
 2787 0037 13       		.uleb128 0x13
 2788 0038 01       		.byte	0x1
 2789 0039 03       		.uleb128 0x3
 2790 003a 0E       		.uleb128 0xe
 2791 003b 0B       		.uleb128 0xb
 2792 003c 0B       		.uleb128 0xb
 2793 003d 3A       		.uleb128 0x3a
ARM GAS  /tmp/cc7gQbhQ.s 			page 50


 2794 003e 0B       		.uleb128 0xb
 2795 003f 3B       		.uleb128 0x3b
 2796 0040 0B       		.uleb128 0xb
 2797 0041 01       		.uleb128 0x1
 2798 0042 13       		.uleb128 0x13
 2799 0043 00       		.byte	0
 2800 0044 00       		.byte	0
 2801 0045 06       		.uleb128 0x6
 2802 0046 0D       		.uleb128 0xd
 2803 0047 00       		.byte	0
 2804 0048 03       		.uleb128 0x3
 2805 0049 0E       		.uleb128 0xe
 2806 004a 3A       		.uleb128 0x3a
 2807 004b 0B       		.uleb128 0xb
 2808 004c 3B       		.uleb128 0x3b
 2809 004d 0B       		.uleb128 0xb
 2810 004e 49       		.uleb128 0x49
 2811 004f 13       		.uleb128 0x13
 2812 0050 38       		.uleb128 0x38
 2813 0051 0B       		.uleb128 0xb
 2814 0052 00       		.byte	0
 2815 0053 00       		.byte	0
 2816 0054 07       		.uleb128 0x7
 2817 0055 0D       		.uleb128 0xd
 2818 0056 00       		.byte	0
 2819 0057 03       		.uleb128 0x3
 2820 0058 08       		.uleb128 0x8
 2821 0059 3A       		.uleb128 0x3a
 2822 005a 0B       		.uleb128 0xb
 2823 005b 3B       		.uleb128 0x3b
 2824 005c 0B       		.uleb128 0xb
 2825 005d 49       		.uleb128 0x49
 2826 005e 13       		.uleb128 0x13
 2827 005f 38       		.uleb128 0x38
 2828 0060 0B       		.uleb128 0xb
 2829 0061 00       		.byte	0
 2830 0062 00       		.byte	0
 2831 0063 08       		.uleb128 0x8
 2832 0064 0D       		.uleb128 0xd
 2833 0065 00       		.byte	0
 2834 0066 03       		.uleb128 0x3
 2835 0067 08       		.uleb128 0x8
 2836 0068 3A       		.uleb128 0x3a
 2837 0069 0B       		.uleb128 0xb
 2838 006a 3B       		.uleb128 0x3b
 2839 006b 05       		.uleb128 0x5
 2840 006c 49       		.uleb128 0x49
 2841 006d 13       		.uleb128 0x13
 2842 006e 38       		.uleb128 0x38
 2843 006f 0B       		.uleb128 0xb
 2844 0070 00       		.byte	0
 2845 0071 00       		.byte	0
 2846 0072 09       		.uleb128 0x9
 2847 0073 0D       		.uleb128 0xd
 2848 0074 00       		.byte	0
 2849 0075 03       		.uleb128 0x3
 2850 0076 0E       		.uleb128 0xe
ARM GAS  /tmp/cc7gQbhQ.s 			page 51


 2851 0077 3A       		.uleb128 0x3a
 2852 0078 0B       		.uleb128 0xb
 2853 0079 3B       		.uleb128 0x3b
 2854 007a 05       		.uleb128 0x5
 2855 007b 49       		.uleb128 0x49
 2856 007c 13       		.uleb128 0x13
 2857 007d 38       		.uleb128 0x38
 2858 007e 0B       		.uleb128 0xb
 2859 007f 00       		.byte	0
 2860 0080 00       		.byte	0
 2861 0081 0A       		.uleb128 0xa
 2862 0082 0F       		.uleb128 0xf
 2863 0083 00       		.byte	0
 2864 0084 0B       		.uleb128 0xb
 2865 0085 0B       		.uleb128 0xb
 2866 0086 49       		.uleb128 0x49
 2867 0087 13       		.uleb128 0x13
 2868 0088 00       		.byte	0
 2869 0089 00       		.byte	0
 2870 008a 0B       		.uleb128 0xb
 2871 008b 13       		.uleb128 0x13
 2872 008c 01       		.byte	0x1
 2873 008d 03       		.uleb128 0x3
 2874 008e 0E       		.uleb128 0xe
 2875 008f 0B       		.uleb128 0xb
 2876 0090 0B       		.uleb128 0xb
 2877 0091 3A       		.uleb128 0x3a
 2878 0092 0B       		.uleb128 0xb
 2879 0093 3B       		.uleb128 0x3b
 2880 0094 05       		.uleb128 0x5
 2881 0095 01       		.uleb128 0x1
 2882 0096 13       		.uleb128 0x13
 2883 0097 00       		.byte	0
 2884 0098 00       		.byte	0
 2885 0099 0C       		.uleb128 0xc
 2886 009a 15       		.uleb128 0x15
 2887 009b 01       		.byte	0x1
 2888 009c 27       		.uleb128 0x27
 2889 009d 19       		.uleb128 0x19
 2890 009e 01       		.uleb128 0x1
 2891 009f 13       		.uleb128 0x13
 2892 00a0 00       		.byte	0
 2893 00a1 00       		.byte	0
 2894 00a2 0D       		.uleb128 0xd
 2895 00a3 05       		.uleb128 0x5
 2896 00a4 00       		.byte	0
 2897 00a5 49       		.uleb128 0x49
 2898 00a6 13       		.uleb128 0x13
 2899 00a7 00       		.byte	0
 2900 00a8 00       		.byte	0
 2901 00a9 0E       		.uleb128 0xe
 2902 00aa 0F       		.uleb128 0xf
 2903 00ab 00       		.byte	0
 2904 00ac 0B       		.uleb128 0xb
 2905 00ad 0B       		.uleb128 0xb
 2906 00ae 00       		.byte	0
 2907 00af 00       		.byte	0
ARM GAS  /tmp/cc7gQbhQ.s 			page 52


 2908 00b0 0F       		.uleb128 0xf
 2909 00b1 35       		.uleb128 0x35
 2910 00b2 00       		.byte	0
 2911 00b3 49       		.uleb128 0x49
 2912 00b4 13       		.uleb128 0x13
 2913 00b5 00       		.byte	0
 2914 00b6 00       		.byte	0
 2915 00b7 10       		.uleb128 0x10
 2916 00b8 01       		.uleb128 0x1
 2917 00b9 01       		.byte	0x1
 2918 00ba 49       		.uleb128 0x49
 2919 00bb 13       		.uleb128 0x13
 2920 00bc 01       		.uleb128 0x1
 2921 00bd 13       		.uleb128 0x13
 2922 00be 00       		.byte	0
 2923 00bf 00       		.byte	0
 2924 00c0 11       		.uleb128 0x11
 2925 00c1 21       		.uleb128 0x21
 2926 00c2 00       		.byte	0
 2927 00c3 49       		.uleb128 0x49
 2928 00c4 13       		.uleb128 0x13
 2929 00c5 2F       		.uleb128 0x2f
 2930 00c6 0B       		.uleb128 0xb
 2931 00c7 00       		.byte	0
 2932 00c8 00       		.byte	0
 2933 00c9 12       		.uleb128 0x12
 2934 00ca 13       		.uleb128 0x13
 2935 00cb 01       		.byte	0x1
 2936 00cc 0B       		.uleb128 0xb
 2937 00cd 0B       		.uleb128 0xb
 2938 00ce 3A       		.uleb128 0x3a
 2939 00cf 0B       		.uleb128 0xb
 2940 00d0 3B       		.uleb128 0x3b
 2941 00d1 05       		.uleb128 0x5
 2942 00d2 01       		.uleb128 0x1
 2943 00d3 13       		.uleb128 0x13
 2944 00d4 00       		.byte	0
 2945 00d5 00       		.byte	0
 2946 00d6 13       		.uleb128 0x13
 2947 00d7 16       		.uleb128 0x16
 2948 00d8 00       		.byte	0
 2949 00d9 03       		.uleb128 0x3
 2950 00da 0E       		.uleb128 0xe
 2951 00db 3A       		.uleb128 0x3a
 2952 00dc 0B       		.uleb128 0xb
 2953 00dd 3B       		.uleb128 0x3b
 2954 00de 05       		.uleb128 0x5
 2955 00df 49       		.uleb128 0x49
 2956 00e0 13       		.uleb128 0x13
 2957 00e1 00       		.byte	0
 2958 00e2 00       		.byte	0
 2959 00e3 14       		.uleb128 0x14
 2960 00e4 13       		.uleb128 0x13
 2961 00e5 01       		.byte	0x1
 2962 00e6 0B       		.uleb128 0xb
 2963 00e7 0B       		.uleb128 0xb
 2964 00e8 3A       		.uleb128 0x3a
ARM GAS  /tmp/cc7gQbhQ.s 			page 53


 2965 00e9 0B       		.uleb128 0xb
 2966 00ea 3B       		.uleb128 0x3b
 2967 00eb 0B       		.uleb128 0xb
 2968 00ec 01       		.uleb128 0x1
 2969 00ed 13       		.uleb128 0x13
 2970 00ee 00       		.byte	0
 2971 00ef 00       		.byte	0
 2972 00f0 15       		.uleb128 0x15
 2973 00f1 17       		.uleb128 0x17
 2974 00f2 01       		.byte	0x1
 2975 00f3 0B       		.uleb128 0xb
 2976 00f4 0B       		.uleb128 0xb
 2977 00f5 3A       		.uleb128 0x3a
 2978 00f6 0B       		.uleb128 0xb
 2979 00f7 3B       		.uleb128 0x3b
 2980 00f8 0B       		.uleb128 0xb
 2981 00f9 01       		.uleb128 0x1
 2982 00fa 13       		.uleb128 0x13
 2983 00fb 00       		.byte	0
 2984 00fc 00       		.byte	0
 2985 00fd 16       		.uleb128 0x16
 2986 00fe 0D       		.uleb128 0xd
 2987 00ff 00       		.byte	0
 2988 0100 03       		.uleb128 0x3
 2989 0101 0E       		.uleb128 0xe
 2990 0102 3A       		.uleb128 0x3a
 2991 0103 0B       		.uleb128 0xb
 2992 0104 3B       		.uleb128 0x3b
 2993 0105 0B       		.uleb128 0xb
 2994 0106 49       		.uleb128 0x49
 2995 0107 13       		.uleb128 0x13
 2996 0108 00       		.byte	0
 2997 0109 00       		.byte	0
 2998 010a 17       		.uleb128 0x17
 2999 010b 0D       		.uleb128 0xd
 3000 010c 00       		.byte	0
 3001 010d 03       		.uleb128 0x3
 3002 010e 0E       		.uleb128 0xe
 3003 010f 3A       		.uleb128 0x3a
 3004 0110 0B       		.uleb128 0xb
 3005 0111 3B       		.uleb128 0x3b
 3006 0112 05       		.uleb128 0x5
 3007 0113 49       		.uleb128 0x49
 3008 0114 13       		.uleb128 0x13
 3009 0115 00       		.byte	0
 3010 0116 00       		.byte	0
 3011 0117 18       		.uleb128 0x18
 3012 0118 26       		.uleb128 0x26
 3013 0119 00       		.byte	0
 3014 011a 49       		.uleb128 0x49
 3015 011b 13       		.uleb128 0x13
 3016 011c 00       		.byte	0
 3017 011d 00       		.byte	0
 3018 011e 19       		.uleb128 0x19
 3019 011f 04       		.uleb128 0x4
 3020 0120 01       		.byte	0x1
 3021 0121 0B       		.uleb128 0xb
ARM GAS  /tmp/cc7gQbhQ.s 			page 54


 3022 0122 0B       		.uleb128 0xb
 3023 0123 49       		.uleb128 0x49
 3024 0124 13       		.uleb128 0x13
 3025 0125 3A       		.uleb128 0x3a
 3026 0126 0B       		.uleb128 0xb
 3027 0127 3B       		.uleb128 0x3b
 3028 0128 0B       		.uleb128 0xb
 3029 0129 01       		.uleb128 0x1
 3030 012a 13       		.uleb128 0x13
 3031 012b 00       		.byte	0
 3032 012c 00       		.byte	0
 3033 012d 1A       		.uleb128 0x1a
 3034 012e 28       		.uleb128 0x28
 3035 012f 00       		.byte	0
 3036 0130 03       		.uleb128 0x3
 3037 0131 0E       		.uleb128 0xe
 3038 0132 1C       		.uleb128 0x1c
 3039 0133 0B       		.uleb128 0xb
 3040 0134 00       		.byte	0
 3041 0135 00       		.byte	0
 3042 0136 1B       		.uleb128 0x1b
 3043 0137 2E       		.uleb128 0x2e
 3044 0138 01       		.byte	0x1
 3045 0139 03       		.uleb128 0x3
 3046 013a 0E       		.uleb128 0xe
 3047 013b 3A       		.uleb128 0x3a
 3048 013c 0B       		.uleb128 0xb
 3049 013d 3B       		.uleb128 0x3b
 3050 013e 05       		.uleb128 0x5
 3051 013f 27       		.uleb128 0x27
 3052 0140 19       		.uleb128 0x19
 3053 0141 20       		.uleb128 0x20
 3054 0142 0B       		.uleb128 0xb
 3055 0143 01       		.uleb128 0x1
 3056 0144 13       		.uleb128 0x13
 3057 0145 00       		.byte	0
 3058 0146 00       		.byte	0
 3059 0147 1C       		.uleb128 0x1c
 3060 0148 05       		.uleb128 0x5
 3061 0149 00       		.byte	0
 3062 014a 03       		.uleb128 0x3
 3063 014b 0E       		.uleb128 0xe
 3064 014c 3A       		.uleb128 0x3a
 3065 014d 0B       		.uleb128 0xb
 3066 014e 3B       		.uleb128 0x3b
 3067 014f 05       		.uleb128 0x5
 3068 0150 49       		.uleb128 0x49
 3069 0151 13       		.uleb128 0x13
 3070 0152 00       		.byte	0
 3071 0153 00       		.byte	0
 3072 0154 1D       		.uleb128 0x1d
 3073 0155 2E       		.uleb128 0x2e
 3074 0156 00       		.byte	0
 3075 0157 03       		.uleb128 0x3
 3076 0158 0E       		.uleb128 0xe
 3077 0159 3A       		.uleb128 0x3a
 3078 015a 0B       		.uleb128 0xb
ARM GAS  /tmp/cc7gQbhQ.s 			page 55


 3079 015b 3B       		.uleb128 0x3b
 3080 015c 05       		.uleb128 0x5
 3081 015d 27       		.uleb128 0x27
 3082 015e 19       		.uleb128 0x19
 3083 015f 20       		.uleb128 0x20
 3084 0160 0B       		.uleb128 0xb
 3085 0161 00       		.byte	0
 3086 0162 00       		.byte	0
 3087 0163 1E       		.uleb128 0x1e
 3088 0164 2E       		.uleb128 0x2e
 3089 0165 01       		.byte	0x1
 3090 0166 03       		.uleb128 0x3
 3091 0167 0E       		.uleb128 0xe
 3092 0168 3A       		.uleb128 0x3a
 3093 0169 0B       		.uleb128 0xb
 3094 016a 3B       		.uleb128 0x3b
 3095 016b 05       		.uleb128 0x5
 3096 016c 27       		.uleb128 0x27
 3097 016d 19       		.uleb128 0x19
 3098 016e 11       		.uleb128 0x11
 3099 016f 01       		.uleb128 0x1
 3100 0170 12       		.uleb128 0x12
 3101 0171 06       		.uleb128 0x6
 3102 0172 40       		.uleb128 0x40
 3103 0173 18       		.uleb128 0x18
 3104 0174 9742     		.uleb128 0x2117
 3105 0176 19       		.uleb128 0x19
 3106 0177 01       		.uleb128 0x1
 3107 0178 13       		.uleb128 0x13
 3108 0179 00       		.byte	0
 3109 017a 00       		.byte	0
 3110 017b 1F       		.uleb128 0x1f
 3111 017c 1D       		.uleb128 0x1d
 3112 017d 01       		.byte	0x1
 3113 017e 31       		.uleb128 0x31
 3114 017f 13       		.uleb128 0x13
 3115 0180 11       		.uleb128 0x11
 3116 0181 01       		.uleb128 0x1
 3117 0182 12       		.uleb128 0x12
 3118 0183 06       		.uleb128 0x6
 3119 0184 58       		.uleb128 0x58
 3120 0185 0B       		.uleb128 0xb
 3121 0186 59       		.uleb128 0x59
 3122 0187 05       		.uleb128 0x5
 3123 0188 01       		.uleb128 0x1
 3124 0189 13       		.uleb128 0x13
 3125 018a 00       		.byte	0
 3126 018b 00       		.byte	0
 3127 018c 20       		.uleb128 0x20
 3128 018d 1D       		.uleb128 0x1d
 3129 018e 01       		.byte	0x1
 3130 018f 31       		.uleb128 0x31
 3131 0190 13       		.uleb128 0x13
 3132 0191 11       		.uleb128 0x11
 3133 0192 01       		.uleb128 0x1
 3134 0193 12       		.uleb128 0x12
 3135 0194 06       		.uleb128 0x6
ARM GAS  /tmp/cc7gQbhQ.s 			page 56


 3136 0195 58       		.uleb128 0x58
 3137 0196 0B       		.uleb128 0xb
 3138 0197 59       		.uleb128 0x59
 3139 0198 05       		.uleb128 0x5
 3140 0199 00       		.byte	0
 3141 019a 00       		.byte	0
 3142 019b 21       		.uleb128 0x21
 3143 019c 05       		.uleb128 0x5
 3144 019d 00       		.byte	0
 3145 019e 31       		.uleb128 0x31
 3146 019f 13       		.uleb128 0x13
 3147 01a0 02       		.uleb128 0x2
 3148 01a1 17       		.uleb128 0x17
 3149 01a2 00       		.byte	0
 3150 01a3 00       		.byte	0
 3151 01a4 22       		.uleb128 0x22
 3152 01a5 898201   		.uleb128 0x4109
 3153 01a8 00       		.byte	0
 3154 01a9 11       		.uleb128 0x11
 3155 01aa 01       		.uleb128 0x1
 3156 01ab 9542     		.uleb128 0x2115
 3157 01ad 19       		.uleb128 0x19
 3158 01ae 31       		.uleb128 0x31
 3159 01af 13       		.uleb128 0x13
 3160 01b0 00       		.byte	0
 3161 01b1 00       		.byte	0
 3162 01b2 23       		.uleb128 0x23
 3163 01b3 34       		.uleb128 0x34
 3164 01b4 00       		.byte	0
 3165 01b5 03       		.uleb128 0x3
 3166 01b6 0E       		.uleb128 0xe
 3167 01b7 49       		.uleb128 0x49
 3168 01b8 13       		.uleb128 0x13
 3169 01b9 34       		.uleb128 0x34
 3170 01ba 19       		.uleb128 0x19
 3171 01bb 00       		.byte	0
 3172 01bc 00       		.byte	0
 3173 01bd 24       		.uleb128 0x24
 3174 01be 898201   		.uleb128 0x4109
 3175 01c1 00       		.byte	0
 3176 01c2 11       		.uleb128 0x11
 3177 01c3 01       		.uleb128 0x1
 3178 01c4 31       		.uleb128 0x31
 3179 01c5 13       		.uleb128 0x13
 3180 01c6 00       		.byte	0
 3181 01c7 00       		.byte	0
 3182 01c8 25       		.uleb128 0x25
 3183 01c9 2E       		.uleb128 0x2e
 3184 01ca 01       		.byte	0x1
 3185 01cb 3F       		.uleb128 0x3f
 3186 01cc 19       		.uleb128 0x19
 3187 01cd 03       		.uleb128 0x3
 3188 01ce 0E       		.uleb128 0xe
 3189 01cf 3A       		.uleb128 0x3a
 3190 01d0 0B       		.uleb128 0xb
 3191 01d1 3B       		.uleb128 0x3b
 3192 01d2 0B       		.uleb128 0xb
ARM GAS  /tmp/cc7gQbhQ.s 			page 57


 3193 01d3 27       		.uleb128 0x27
 3194 01d4 19       		.uleb128 0x19
 3195 01d5 11       		.uleb128 0x11
 3196 01d6 01       		.uleb128 0x1
 3197 01d7 12       		.uleb128 0x12
 3198 01d8 06       		.uleb128 0x6
 3199 01d9 40       		.uleb128 0x40
 3200 01da 18       		.uleb128 0x18
 3201 01db 9742     		.uleb128 0x2117
 3202 01dd 19       		.uleb128 0x19
 3203 01de 01       		.uleb128 0x1
 3204 01df 13       		.uleb128 0x13
 3205 01e0 00       		.byte	0
 3206 01e1 00       		.byte	0
 3207 01e2 26       		.uleb128 0x26
 3208 01e3 05       		.uleb128 0x5
 3209 01e4 00       		.byte	0
 3210 01e5 03       		.uleb128 0x3
 3211 01e6 0E       		.uleb128 0xe
 3212 01e7 3A       		.uleb128 0x3a
 3213 01e8 0B       		.uleb128 0xb
 3214 01e9 3B       		.uleb128 0x3b
 3215 01ea 0B       		.uleb128 0xb
 3216 01eb 49       		.uleb128 0x49
 3217 01ec 13       		.uleb128 0x13
 3218 01ed 02       		.uleb128 0x2
 3219 01ee 18       		.uleb128 0x18
 3220 01ef 00       		.byte	0
 3221 01f0 00       		.byte	0
 3222 01f1 27       		.uleb128 0x27
 3223 01f2 05       		.uleb128 0x5
 3224 01f3 00       		.byte	0
 3225 01f4 03       		.uleb128 0x3
 3226 01f5 0E       		.uleb128 0xe
 3227 01f6 3A       		.uleb128 0x3a
 3228 01f7 0B       		.uleb128 0xb
 3229 01f8 3B       		.uleb128 0x3b
 3230 01f9 0B       		.uleb128 0xb
 3231 01fa 49       		.uleb128 0x49
 3232 01fb 13       		.uleb128 0x13
 3233 01fc 02       		.uleb128 0x2
 3234 01fd 17       		.uleb128 0x17
 3235 01fe 00       		.byte	0
 3236 01ff 00       		.byte	0
 3237 0200 28       		.uleb128 0x28
 3238 0201 1D       		.uleb128 0x1d
 3239 0202 01       		.byte	0x1
 3240 0203 31       		.uleb128 0x31
 3241 0204 13       		.uleb128 0x13
 3242 0205 11       		.uleb128 0x11
 3243 0206 01       		.uleb128 0x1
 3244 0207 12       		.uleb128 0x12
 3245 0208 06       		.uleb128 0x6
 3246 0209 58       		.uleb128 0x58
 3247 020a 0B       		.uleb128 0xb
 3248 020b 59       		.uleb128 0x59
 3249 020c 0B       		.uleb128 0xb
ARM GAS  /tmp/cc7gQbhQ.s 			page 58


 3250 020d 01       		.uleb128 0x1
 3251 020e 13       		.uleb128 0x13
 3252 020f 00       		.byte	0
 3253 0210 00       		.byte	0
 3254 0211 29       		.uleb128 0x29
 3255 0212 898201   		.uleb128 0x4109
 3256 0215 01       		.byte	0x1
 3257 0216 11       		.uleb128 0x11
 3258 0217 01       		.uleb128 0x1
 3259 0218 31       		.uleb128 0x31
 3260 0219 13       		.uleb128 0x13
 3261 021a 00       		.byte	0
 3262 021b 00       		.byte	0
 3263 021c 2A       		.uleb128 0x2a
 3264 021d 8A8201   		.uleb128 0x410a
 3265 0220 00       		.byte	0
 3266 0221 02       		.uleb128 0x2
 3267 0222 18       		.uleb128 0x18
 3268 0223 9142     		.uleb128 0x2111
 3269 0225 18       		.uleb128 0x18
 3270 0226 00       		.byte	0
 3271 0227 00       		.byte	0
 3272 0228 2B       		.uleb128 0x2b
 3273 0229 1D       		.uleb128 0x1d
 3274 022a 01       		.byte	0x1
 3275 022b 31       		.uleb128 0x31
 3276 022c 13       		.uleb128 0x13
 3277 022d 11       		.uleb128 0x11
 3278 022e 01       		.uleb128 0x1
 3279 022f 12       		.uleb128 0x12
 3280 0230 06       		.uleb128 0x6
 3281 0231 58       		.uleb128 0x58
 3282 0232 0B       		.uleb128 0xb
 3283 0233 59       		.uleb128 0x59
 3284 0234 0B       		.uleb128 0xb
 3285 0235 00       		.byte	0
 3286 0236 00       		.byte	0
 3287 0237 2C       		.uleb128 0x2c
 3288 0238 2E       		.uleb128 0x2e
 3289 0239 01       		.byte	0x1
 3290 023a 3F       		.uleb128 0x3f
 3291 023b 19       		.uleb128 0x19
 3292 023c 03       		.uleb128 0x3
 3293 023d 0E       		.uleb128 0xe
 3294 023e 3A       		.uleb128 0x3a
 3295 023f 0B       		.uleb128 0xb
 3296 0240 3B       		.uleb128 0x3b
 3297 0241 05       		.uleb128 0x5
 3298 0242 27       		.uleb128 0x27
 3299 0243 19       		.uleb128 0x19
 3300 0244 11       		.uleb128 0x11
 3301 0245 01       		.uleb128 0x1
 3302 0246 12       		.uleb128 0x12
 3303 0247 06       		.uleb128 0x6
 3304 0248 40       		.uleb128 0x40
 3305 0249 18       		.uleb128 0x18
 3306 024a 9742     		.uleb128 0x2117
ARM GAS  /tmp/cc7gQbhQ.s 			page 59


 3307 024c 19       		.uleb128 0x19
 3308 024d 01       		.uleb128 0x1
 3309 024e 13       		.uleb128 0x13
 3310 024f 00       		.byte	0
 3311 0250 00       		.byte	0
 3312 0251 2D       		.uleb128 0x2d
 3313 0252 05       		.uleb128 0x5
 3314 0253 00       		.byte	0
 3315 0254 03       		.uleb128 0x3
 3316 0255 0E       		.uleb128 0xe
 3317 0256 3A       		.uleb128 0x3a
 3318 0257 0B       		.uleb128 0xb
 3319 0258 3B       		.uleb128 0x3b
 3320 0259 05       		.uleb128 0x5
 3321 025a 49       		.uleb128 0x49
 3322 025b 13       		.uleb128 0x13
 3323 025c 02       		.uleb128 0x2
 3324 025d 17       		.uleb128 0x17
 3325 025e 00       		.byte	0
 3326 025f 00       		.byte	0
 3327 0260 2E       		.uleb128 0x2e
 3328 0261 34       		.uleb128 0x34
 3329 0262 00       		.byte	0
 3330 0263 03       		.uleb128 0x3
 3331 0264 0E       		.uleb128 0xe
 3332 0265 3A       		.uleb128 0x3a
 3333 0266 0B       		.uleb128 0xb
 3334 0267 3B       		.uleb128 0x3b
 3335 0268 05       		.uleb128 0x5
 3336 0269 49       		.uleb128 0x49
 3337 026a 13       		.uleb128 0x13
 3338 026b 3F       		.uleb128 0x3f
 3339 026c 19       		.uleb128 0x19
 3340 026d 3C       		.uleb128 0x3c
 3341 026e 19       		.uleb128 0x19
 3342 026f 00       		.byte	0
 3343 0270 00       		.byte	0
 3344 0271 2F       		.uleb128 0x2f
 3345 0272 34       		.uleb128 0x34
 3346 0273 00       		.byte	0
 3347 0274 03       		.uleb128 0x3
 3348 0275 08       		.uleb128 0x8
 3349 0276 3A       		.uleb128 0x3a
 3350 0277 0B       		.uleb128 0xb
 3351 0278 3B       		.uleb128 0x3b
 3352 0279 05       		.uleb128 0x5
 3353 027a 49       		.uleb128 0x49
 3354 027b 13       		.uleb128 0x13
 3355 027c 3F       		.uleb128 0x3f
 3356 027d 19       		.uleb128 0x19
 3357 027e 3C       		.uleb128 0x3c
 3358 027f 19       		.uleb128 0x19
 3359 0280 00       		.byte	0
 3360 0281 00       		.byte	0
 3361 0282 30       		.uleb128 0x30
 3362 0283 2E       		.uleb128 0x2e
 3363 0284 00       		.byte	0
ARM GAS  /tmp/cc7gQbhQ.s 			page 60


 3364 0285 3F       		.uleb128 0x3f
 3365 0286 19       		.uleb128 0x19
 3366 0287 3C       		.uleb128 0x3c
 3367 0288 19       		.uleb128 0x19
 3368 0289 6E       		.uleb128 0x6e
 3369 028a 0E       		.uleb128 0xe
 3370 028b 03       		.uleb128 0x3
 3371 028c 0E       		.uleb128 0xe
 3372 028d 3A       		.uleb128 0x3a
 3373 028e 0B       		.uleb128 0xb
 3374 028f 3B       		.uleb128 0x3b
 3375 0290 0B       		.uleb128 0xb
 3376 0291 00       		.byte	0
 3377 0292 00       		.byte	0
 3378 0293 31       		.uleb128 0x31
 3379 0294 2E       		.uleb128 0x2e
 3380 0295 00       		.byte	0
 3381 0296 3F       		.uleb128 0x3f
 3382 0297 19       		.uleb128 0x19
 3383 0298 3C       		.uleb128 0x3c
 3384 0299 19       		.uleb128 0x19
 3385 029a 6E       		.uleb128 0x6e
 3386 029b 0E       		.uleb128 0xe
 3387 029c 03       		.uleb128 0x3
 3388 029d 0E       		.uleb128 0xe
 3389 029e 3A       		.uleb128 0x3a
 3390 029f 0B       		.uleb128 0xb
 3391 02a0 3B       		.uleb128 0x3b
 3392 02a1 05       		.uleb128 0x5
 3393 02a2 00       		.byte	0
 3394 02a3 00       		.byte	0
 3395 02a4 00       		.byte	0
 3396              		.section	.debug_loc,"",%progbits
 3397              	.Ldebug_loc0:
 3398              	.LLST0:
 3399 0000 00000000 		.4byte	.LVL0
 3400 0004 06000000 		.4byte	.LVL1
 3401 0008 0300     		.2byte	0x3
 3402 000a 08       		.byte	0x8
 3403 000b 20       		.byte	0x20
 3404 000c 9F       		.byte	0x9f
 3405 000d 00000000 		.4byte	0
 3406 0011 00000000 		.4byte	0
 3407              	.LLST1:
 3408 0015 06000000 		.4byte	.LVL3
 3409 0019 0C000000 		.4byte	.LVL4
 3410 001d 0200     		.2byte	0x2
 3411 001f 30       		.byte	0x30
 3412 0020 9F       		.byte	0x9f
 3413 0021 00000000 		.4byte	0
 3414 0025 00000000 		.4byte	0
 3415              	.LLST2:
 3416 0029 00000000 		.4byte	.LVL7
 3417 002d 09000000 		.4byte	.LVL8-1
 3418 0031 0100     		.2byte	0x1
 3419 0033 50       		.byte	0x50
 3420 0034 09000000 		.4byte	.LVL8-1
ARM GAS  /tmp/cc7gQbhQ.s 			page 61


 3421 0038 22000000 		.4byte	.LVL10
 3422 003c 0100     		.2byte	0x1
 3423 003e 54       		.byte	0x54
 3424 003f 22000000 		.4byte	.LVL10
 3425 0043 26000000 		.4byte	.LFE325
 3426 0047 0400     		.2byte	0x4
 3427 0049 F3       		.byte	0xf3
 3428 004a 01       		.uleb128 0x1
 3429 004b 50       		.byte	0x50
 3430 004c 9F       		.byte	0x9f
 3431 004d 00000000 		.4byte	0
 3432 0051 00000000 		.4byte	0
 3433              	.LLST3:
 3434 0055 00000000 		.4byte	.LVL7
 3435 0059 09000000 		.4byte	.LVL8-1
 3436 005d 0100     		.2byte	0x1
 3437 005f 51       		.byte	0x51
 3438 0060 09000000 		.4byte	.LVL8-1
 3439 0064 22000000 		.4byte	.LVL10
 3440 0068 0100     		.2byte	0x1
 3441 006a 55       		.byte	0x55
 3442 006b 22000000 		.4byte	.LVL10
 3443 006f 26000000 		.4byte	.LFE325
 3444 0073 0400     		.2byte	0x4
 3445 0075 F3       		.byte	0xf3
 3446 0076 01       		.uleb128 0x1
 3447 0077 51       		.byte	0x51
 3448 0078 9F       		.byte	0x9f
 3449 0079 00000000 		.4byte	0
 3450 007d 00000000 		.4byte	0
 3451              	.LLST4:
 3452 0081 00000000 		.4byte	.LVL12
 3453 0085 07000000 		.4byte	.LVL13-1
 3454 0089 0100     		.2byte	0x1
 3455 008b 50       		.byte	0x50
 3456 008c 07000000 		.4byte	.LVL13-1
 3457 0090 1C000000 		.4byte	.LVL15
 3458 0094 0100     		.2byte	0x1
 3459 0096 54       		.byte	0x54
 3460 0097 1C000000 		.4byte	.LVL15
 3461 009b 20000000 		.4byte	.LFE326
 3462 009f 0400     		.2byte	0x4
 3463 00a1 F3       		.byte	0xf3
 3464 00a2 01       		.uleb128 0x1
 3465 00a3 50       		.byte	0x50
 3466 00a4 9F       		.byte	0x9f
 3467 00a5 00000000 		.4byte	0
 3468 00a9 00000000 		.4byte	0
 3469              	.LLST5:
 3470 00ad 00000000 		.4byte	.LVL17
 3471 00b1 09000000 		.4byte	.LVL18-1
 3472 00b5 0100     		.2byte	0x1
 3473 00b7 50       		.byte	0x50
 3474 00b8 09000000 		.4byte	.LVL18-1
 3475 00bc 16000000 		.4byte	.LVL20
 3476 00c0 0100     		.2byte	0x1
 3477 00c2 55       		.byte	0x55
ARM GAS  /tmp/cc7gQbhQ.s 			page 62


 3478 00c3 16000000 		.4byte	.LVL20
 3479 00c7 1A000000 		.4byte	.LFE327
 3480 00cb 0400     		.2byte	0x4
 3481 00cd F3       		.byte	0xf3
 3482 00ce 01       		.uleb128 0x1
 3483 00cf 50       		.byte	0x50
 3484 00d0 9F       		.byte	0x9f
 3485 00d1 00000000 		.4byte	0
 3486 00d5 00000000 		.4byte	0
 3487              	.LLST6:
 3488 00d9 00000000 		.4byte	.LVL17
 3489 00dd 09000000 		.4byte	.LVL18-1
 3490 00e1 0100     		.2byte	0x1
 3491 00e3 51       		.byte	0x51
 3492 00e4 09000000 		.4byte	.LVL18-1
 3493 00e8 10000000 		.4byte	.LVL19
 3494 00ec 0100     		.2byte	0x1
 3495 00ee 54       		.byte	0x54
 3496 00ef 10000000 		.4byte	.LVL19
 3497 00f3 16000000 		.4byte	.LVL20
 3498 00f7 0200     		.2byte	0x2
 3499 00f9 75       		.byte	0x75
 3500 00fa 08       		.sleb128 8
 3501 00fb 16000000 		.4byte	.LVL20
 3502 00ff 19000000 		.4byte	.LVL21-1
 3503 0103 0500     		.2byte	0x5
 3504 0105 F3       		.byte	0xf3
 3505 0106 01       		.uleb128 0x1
 3506 0107 50       		.byte	0x50
 3507 0108 23       		.byte	0x23
 3508 0109 08       		.uleb128 0x8
 3509 010a 19000000 		.4byte	.LVL21-1
 3510 010e 1A000000 		.4byte	.LFE327
 3511 0112 0400     		.2byte	0x4
 3512 0114 F3       		.byte	0xf3
 3513 0115 01       		.uleb128 0x1
 3514 0116 51       		.byte	0x51
 3515 0117 9F       		.byte	0x9f
 3516 0118 00000000 		.4byte	0
 3517 011c 00000000 		.4byte	0
 3518              	.LLST7:
 3519 0120 00000000 		.4byte	.LVL22
 3520 0124 0B000000 		.4byte	.LVL23-1
 3521 0128 0100     		.2byte	0x1
 3522 012a 50       		.byte	0x50
 3523 012b 0B000000 		.4byte	.LVL23-1
 3524 012f 24000000 		.4byte	.LVL25
 3525 0133 0100     		.2byte	0x1
 3526 0135 54       		.byte	0x54
 3527 0136 24000000 		.4byte	.LVL25
 3528 013a 28000000 		.4byte	.LFE328
 3529 013e 0400     		.2byte	0x4
 3530 0140 F3       		.byte	0xf3
 3531 0141 01       		.uleb128 0x1
 3532 0142 50       		.byte	0x50
 3533 0143 9F       		.byte	0x9f
 3534 0144 00000000 		.4byte	0
ARM GAS  /tmp/cc7gQbhQ.s 			page 63


 3535 0148 00000000 		.4byte	0
 3536              	.LLST8:
 3537 014c 00000000 		.4byte	.LVL22
 3538 0150 0B000000 		.4byte	.LVL23-1
 3539 0154 0100     		.2byte	0x1
 3540 0156 51       		.byte	0x51
 3541 0157 0B000000 		.4byte	.LVL23-1
 3542 015b 28000000 		.4byte	.LFE328
 3543 015f 0400     		.2byte	0x4
 3544 0161 F3       		.byte	0xf3
 3545 0162 01       		.uleb128 0x1
 3546 0163 51       		.byte	0x51
 3547 0164 9F       		.byte	0x9f
 3548 0165 00000000 		.4byte	0
 3549 0169 00000000 		.4byte	0
 3550              	.LLST9:
 3551 016d 00000000 		.4byte	.LVL22
 3552 0171 0B000000 		.4byte	.LVL23-1
 3553 0175 0100     		.2byte	0x1
 3554 0177 52       		.byte	0x52
 3555 0178 0B000000 		.4byte	.LVL23-1
 3556 017c 24000000 		.4byte	.LVL25
 3557 0180 0100     		.2byte	0x1
 3558 0182 56       		.byte	0x56
 3559 0183 24000000 		.4byte	.LVL25
 3560 0187 28000000 		.4byte	.LFE328
 3561 018b 0400     		.2byte	0x4
 3562 018d F3       		.byte	0xf3
 3563 018e 01       		.uleb128 0x1
 3564 018f 52       		.byte	0x52
 3565 0190 9F       		.byte	0x9f
 3566 0191 00000000 		.4byte	0
 3567 0195 00000000 		.4byte	0
 3568              	.LLST10:
 3569 0199 00000000 		.4byte	.LVL27
 3570 019d 09000000 		.4byte	.LVL28-1
 3571 01a1 0100     		.2byte	0x1
 3572 01a3 50       		.byte	0x50
 3573 01a4 09000000 		.4byte	.LVL28-1
 3574 01a8 24000000 		.4byte	.LVL30
 3575 01ac 0100     		.2byte	0x1
 3576 01ae 54       		.byte	0x54
 3577 01af 24000000 		.4byte	.LVL30
 3578 01b3 28000000 		.4byte	.LFE329
 3579 01b7 0400     		.2byte	0x4
 3580 01b9 F3       		.byte	0xf3
 3581 01ba 01       		.uleb128 0x1
 3582 01bb 50       		.byte	0x50
 3583 01bc 9F       		.byte	0x9f
 3584 01bd 00000000 		.4byte	0
 3585 01c1 00000000 		.4byte	0
 3586              	.LLST11:
 3587 01c5 00000000 		.4byte	.LVL27
 3588 01c9 09000000 		.4byte	.LVL28-1
 3589 01cd 0100     		.2byte	0x1
 3590 01cf 51       		.byte	0x51
 3591 01d0 09000000 		.4byte	.LVL28-1
ARM GAS  /tmp/cc7gQbhQ.s 			page 64


 3592 01d4 28000000 		.4byte	.LFE329
 3593 01d8 0400     		.2byte	0x4
 3594 01da F3       		.byte	0xf3
 3595 01db 01       		.uleb128 0x1
 3596 01dc 51       		.byte	0x51
 3597 01dd 9F       		.byte	0x9f
 3598 01de 00000000 		.4byte	0
 3599 01e2 00000000 		.4byte	0
 3600              	.LLST12:
 3601 01e6 00000000 		.4byte	.LVL32
 3602 01ea 07000000 		.4byte	.LVL33-1
 3603 01ee 0100     		.2byte	0x1
 3604 01f0 50       		.byte	0x50
 3605 01f1 07000000 		.4byte	.LVL33-1
 3606 01f5 12000000 		.4byte	.LVL35
 3607 01f9 0100     		.2byte	0x1
 3608 01fb 54       		.byte	0x54
 3609 01fc 12000000 		.4byte	.LVL35
 3610 0200 16000000 		.4byte	.LFE330
 3611 0204 0400     		.2byte	0x4
 3612 0206 F3       		.byte	0xf3
 3613 0207 01       		.uleb128 0x1
 3614 0208 50       		.byte	0x50
 3615 0209 9F       		.byte	0x9f
 3616 020a 00000000 		.4byte	0
 3617 020e 00000000 		.4byte	0
 3618              	.LLST13:
 3619 0212 00000000 		.4byte	.LVL37
 3620 0216 07000000 		.4byte	.LVL38-1
 3621 021a 0100     		.2byte	0x1
 3622 021c 50       		.byte	0x50
 3623 021d 07000000 		.4byte	.LVL38-1
 3624 0221 12000000 		.4byte	.LVL40
 3625 0225 0100     		.2byte	0x1
 3626 0227 54       		.byte	0x54
 3627 0228 12000000 		.4byte	.LVL40
 3628 022c 16000000 		.4byte	.LFE331
 3629 0230 0400     		.2byte	0x4
 3630 0232 F3       		.byte	0xf3
 3631 0233 01       		.uleb128 0x1
 3632 0234 50       		.byte	0x50
 3633 0235 9F       		.byte	0x9f
 3634 0236 00000000 		.4byte	0
 3635 023a 00000000 		.4byte	0
 3636              	.LLST14:
 3637 023e 00000000 		.4byte	.LVL42
 3638 0242 09000000 		.4byte	.LVL43-1
 3639 0246 0100     		.2byte	0x1
 3640 0248 50       		.byte	0x50
 3641 0249 09000000 		.4byte	.LVL43-1
 3642 024d 16000000 		.4byte	.LVL45
 3643 0251 0100     		.2byte	0x1
 3644 0253 54       		.byte	0x54
 3645 0254 16000000 		.4byte	.LVL45
 3646 0258 1A000000 		.4byte	.LFE332
 3647 025c 0400     		.2byte	0x4
 3648 025e F3       		.byte	0xf3
ARM GAS  /tmp/cc7gQbhQ.s 			page 65


 3649 025f 01       		.uleb128 0x1
 3650 0260 50       		.byte	0x50
 3651 0261 9F       		.byte	0x9f
 3652 0262 00000000 		.4byte	0
 3653 0266 00000000 		.4byte	0
 3654              	.LLST15:
 3655 026a 00000000 		.4byte	.LVL42
 3656 026e 09000000 		.4byte	.LVL43-1
 3657 0272 0100     		.2byte	0x1
 3658 0274 51       		.byte	0x51
 3659 0275 09000000 		.4byte	.LVL43-1
 3660 0279 1A000000 		.4byte	.LFE332
 3661 027d 0400     		.2byte	0x4
 3662 027f F3       		.byte	0xf3
 3663 0280 01       		.uleb128 0x1
 3664 0281 51       		.byte	0x51
 3665 0282 9F       		.byte	0x9f
 3666 0283 00000000 		.4byte	0
 3667 0287 00000000 		.4byte	0
 3668              	.LLST16:
 3669 028b 00000000 		.4byte	.LVL47
 3670 028f 09000000 		.4byte	.LVL48-1
 3671 0293 0100     		.2byte	0x1
 3672 0295 50       		.byte	0x50
 3673 0296 09000000 		.4byte	.LVL48-1
 3674 029a 16000000 		.4byte	.LVL50
 3675 029e 0100     		.2byte	0x1
 3676 02a0 54       		.byte	0x54
 3677 02a1 16000000 		.4byte	.LVL50
 3678 02a5 1A000000 		.4byte	.LFE333
 3679 02a9 0400     		.2byte	0x4
 3680 02ab F3       		.byte	0xf3
 3681 02ac 01       		.uleb128 0x1
 3682 02ad 50       		.byte	0x50
 3683 02ae 9F       		.byte	0x9f
 3684 02af 00000000 		.4byte	0
 3685 02b3 00000000 		.4byte	0
 3686              	.LLST17:
 3687 02b7 00000000 		.4byte	.LVL47
 3688 02bb 09000000 		.4byte	.LVL48-1
 3689 02bf 0100     		.2byte	0x1
 3690 02c1 51       		.byte	0x51
 3691 02c2 09000000 		.4byte	.LVL48-1
 3692 02c6 1A000000 		.4byte	.LFE333
 3693 02ca 0400     		.2byte	0x4
 3694 02cc F3       		.byte	0xf3
 3695 02cd 01       		.uleb128 0x1
 3696 02ce 51       		.byte	0x51
 3697 02cf 9F       		.byte	0x9f
 3698 02d0 00000000 		.4byte	0
 3699 02d4 00000000 		.4byte	0
 3700              		.section	.debug_aranges,"",%progbits
 3701 0000 7C000000 		.4byte	0x7c
 3702 0004 0200     		.2byte	0x2
 3703 0006 00000000 		.4byte	.Ldebug_info0
 3704 000a 04       		.byte	0x4
 3705 000b 00       		.byte	0
ARM GAS  /tmp/cc7gQbhQ.s 			page 66


 3706 000c 0000     		.2byte	0
 3707 000e 0000     		.2byte	0
 3708 0010 00000000 		.4byte	.LFB184
 3709 0014 0A000000 		.4byte	.LFE184-.LFB184
 3710 0018 00000000 		.4byte	.LFB185
 3711 001c 0E000000 		.4byte	.LFE185-.LFB185
 3712 0020 00000000 		.4byte	.LFB323
 3713 0024 04000000 		.4byte	.LFE323-.LFB323
 3714 0028 00000000 		.4byte	.LFB324
 3715 002c 0E000000 		.4byte	.LFE324-.LFB324
 3716 0030 00000000 		.4byte	.LFB325
 3717 0034 26000000 		.4byte	.LFE325-.LFB325
 3718 0038 00000000 		.4byte	.LFB326
 3719 003c 20000000 		.4byte	.LFE326-.LFB326
 3720 0040 00000000 		.4byte	.LFB327
 3721 0044 1A000000 		.4byte	.LFE327-.LFB327
 3722 0048 00000000 		.4byte	.LFB328
 3723 004c 28000000 		.4byte	.LFE328-.LFB328
 3724 0050 00000000 		.4byte	.LFB329
 3725 0054 28000000 		.4byte	.LFE329-.LFB329
 3726 0058 00000000 		.4byte	.LFB330
 3727 005c 16000000 		.4byte	.LFE330-.LFB330
 3728 0060 00000000 		.4byte	.LFB331
 3729 0064 16000000 		.4byte	.LFE331-.LFB331
 3730 0068 00000000 		.4byte	.LFB332
 3731 006c 1A000000 		.4byte	.LFE332-.LFB332
 3732 0070 00000000 		.4byte	.LFB333
 3733 0074 1A000000 		.4byte	.LFE333-.LFB333
 3734 0078 00000000 		.4byte	0
 3735 007c 00000000 		.4byte	0
 3736              		.section	.debug_ranges,"",%progbits
 3737              	.Ldebug_ranges0:
 3738 0000 00000000 		.4byte	.LFB184
 3739 0004 0A000000 		.4byte	.LFE184
 3740 0008 00000000 		.4byte	.LFB185
 3741 000c 0E000000 		.4byte	.LFE185
 3742 0010 00000000 		.4byte	.LFB323
 3743 0014 04000000 		.4byte	.LFE323
 3744 0018 00000000 		.4byte	.LFB324
 3745 001c 0E000000 		.4byte	.LFE324
 3746 0020 00000000 		.4byte	.LFB325
 3747 0024 26000000 		.4byte	.LFE325
 3748 0028 00000000 		.4byte	.LFB326
 3749 002c 20000000 		.4byte	.LFE326
 3750 0030 00000000 		.4byte	.LFB327
 3751 0034 1A000000 		.4byte	.LFE327
 3752 0038 00000000 		.4byte	.LFB328
 3753 003c 28000000 		.4byte	.LFE328
 3754 0040 00000000 		.4byte	.LFB329
 3755 0044 28000000 		.4byte	.LFE329
 3756 0048 00000000 		.4byte	.LFB330
 3757 004c 16000000 		.4byte	.LFE330
 3758 0050 00000000 		.4byte	.LFB331
 3759 0054 16000000 		.4byte	.LFE331
 3760 0058 00000000 		.4byte	.LFB332
 3761 005c 1A000000 		.4byte	.LFE332
 3762 0060 00000000 		.4byte	.LFB333
ARM GAS  /tmp/cc7gQbhQ.s 			page 67


 3763 0064 1A000000 		.4byte	.LFE333
 3764 0068 00000000 		.4byte	0
 3765 006c 00000000 		.4byte	0
 3766              		.section	.debug_line,"",%progbits
 3767              	.Ldebug_line0:
 3768 0000 75040000 		.section	.debug_str,"MS",%progbits,1
 3768      0200B702 
 3768      00000201 
 3768      FB0E0D00 
 3768      01010101 
 3769              	.LASF128:
 3770 0000 70776D63 		.ascii	"pwmchannel_t\000"
 3770      68616E6E 
 3770      656C5F74 
 3770      00
 3771              	.LASF53:
 3772 000d 72656164 		.ascii	"ready_list_t\000"
 3772      795F6C69 
 3772      73745F74 
 3772      00
 3773              	.LASF81:
 3774 001a 44494552 		.ascii	"DIER\000"
 3774      00
 3775              	.LASF105:
 3776 001f 77747472 		.ascii	"wttrp\000"
 3776      7000
 3777              	.LASF49:
 3778 0025 6E657874 		.ascii	"next\000"
 3778      00
 3779              	.LASF59:
 3780 002a 64656C74 		.ascii	"delta\000"
 3780      6100
 3781              	.LASF102:
 3782 0030 7264796D 		.ascii	"rdymsg\000"
 3782      736700
 3783              	.LASF17:
 3784 0037 75696E74 		.ascii	"uint64_t\000"
 3784      36345F74 
 3784      00
 3785              	.LASF72:
 3786 0040 6B65726E 		.ascii	"kernel_stats\000"
 3786      656C5F73 
 3786      74617473 
 3786      00
 3787              	.LASF7:
 3788 004d 5F5F7569 		.ascii	"__uint8_t\000"
 3788      6E74385F 
 3788      7400
 3789              	.LASF52:
 3790 0057 70726576 		.ascii	"prev\000"
 3790      00
 3791              	.LASF79:
 3792 005c 706F7274 		.ascii	"port_intctx\000"
 3792      5F696E74 
 3792      63747800 
 3793              	.LASF51:
 3794 0068 63685F74 		.ascii	"ch_threads_queue\000"
ARM GAS  /tmp/cc7gQbhQ.s 			page 68


 3794      68726561 
 3794      64735F71 
 3794      75657565 
 3794      00
 3795              	.LASF64:
 3796 0079 73797374 		.ascii	"system_debug_t\000"
 3796      656D5F64 
 3796      65627567 
 3796      5F7400
 3797              	.LASF170:
 3798 0088 474E5520 		.ascii	"GNU C11 5.4.1 20160919 -mcpu=cortex-m4 -mfloat-abi="
 3798      43313120 
 3798      352E342E 
 3798      31203230 
 3798      31363039 
 3799 00bb 68617264 		.ascii	"hard -mfpu=fpv4-sp-d16 -mno-thumb-interwork -mthumb"
 3799      202D6D66 
 3799      70753D66 
 3799      7076342D 
 3799      73702D64 
 3800 00ee 202D6720 		.ascii	" -g -Os -fomit-frame-pointer -falign-functions=16 -"
 3800      2D4F7320 
 3800      2D666F6D 
 3800      69742D66 
 3800      72616D65 
 3801 0121 6666756E 		.ascii	"ffunction-sections -fdata-sections -fno-common -fsi"
 3801      6374696F 
 3801      6E2D7365 
 3801      6374696F 
 3801      6E73202D 
 3802 0154 6E676C65 		.ascii	"ngle-precision-constant\000"
 3802      2D707265 
 3802      63697369 
 3802      6F6E2D63 
 3802      6F6E7374 
 3803              	.LASF137:
 3804 016c 706F7274 		.ascii	"port_lock\000"
 3804      5F6C6F63 
 3804      6B00
 3805              	.LASF122:
 3806 0176 70657269 		.ascii	"period\000"
 3806      6F6400
 3807              	.LASF93:
 3808 017d 776F7273 		.ascii	"worst\000"
 3808      7400
 3809              	.LASF96:
 3810 0183 74696D65 		.ascii	"time_measurement_t\000"
 3810      5F6D6561 
 3810      73757265 
 3810      6D656E74 
 3810      5F7400
 3811              	.LASF13:
 3812 0196 6C6F6E67 		.ascii	"long long unsigned int\000"
 3812      206C6F6E 
 3812      6720756E 
 3812      7369676E 
 3812      65642069 
ARM GAS  /tmp/cc7gQbhQ.s 			page 69


 3813              	.LASF103:
 3814 01ad 65786974 		.ascii	"exitcode\000"
 3814      636F6465 
 3814      00
 3815              	.LASF71:
 3816 01b6 6D61696E 		.ascii	"mainthread\000"
 3816      74687265 
 3816      616400
 3817              	.LASF106:
 3818 01c1 73656E74 		.ascii	"sentmsg\000"
 3818      6D736700 
 3819              	.LASF61:
 3820 01c9 76697274 		.ascii	"virtual_timers_list_t\000"
 3820      75616C5F 
 3820      74696D65 
 3820      72735F6C 
 3820      6973745F 
 3821              	.LASF165:
 3822 01df 70776D5F 		.ascii	"pwm_lld_disable_channel\000"
 3822      6C6C645F 
 3822      64697361 
 3822      626C655F 
 3822      6368616E 
 3823              	.LASF60:
 3824 01f7 66756E63 		.ascii	"func\000"
 3824      00
 3825              	.LASF85:
 3826 01fc 42445452 		.ascii	"BDTR\000"
 3826      00
 3827              	.LASF19:
 3828 0201 72747469 		.ascii	"rttime_t\000"
 3828      6D655F74 
 3828      00
 3829              	.LASF164:
 3830 020a 70776D5F 		.ascii	"pwm_lld_enable_channel\000"
 3830      6C6C645F 
 3830      656E6162 
 3830      6C655F63 
 3830      68616E6E 
 3831              	.LASF145:
 3832 0221 70776D53 		.ascii	"pwmStart\000"
 3832      74617274 
 3832      00
 3833              	.LASF82:
 3834 022a 43434D52 		.ascii	"CCMR1\000"
 3834      3100
 3835              	.LASF83:
 3836 0230 43434D52 		.ascii	"CCMR2\000"
 3836      3200
 3837              	.LASF87:
 3838 0236 43434D52 		.ascii	"CCMR3\000"
 3838      3300
 3839              	.LASF3:
 3840 023c 7369676E 		.ascii	"signed char\000"
 3840      65642063 
 3840      68617200 
 3841              	.LASF149:
ARM GAS  /tmp/cc7gQbhQ.s 			page 70


 3842 0248 70776D43 		.ascii	"pwmChangePeriod\000"
 3842      68616E67 
 3842      65506572 
 3842      696F6400 
 3843              	.LASF127:
 3844 0258 70776D6D 		.ascii	"pwmmode_t\000"
 3844      6F64655F 
 3844      7400
 3845              	.LASF174:
 3846 0262 62617365 		.ascii	"basePri\000"
 3846      50726900 
 3847              	.LASF138:
 3848 026a 706F7274 		.ascii	"port_unlock\000"
 3848      5F756E6C 
 3848      6F636B00 
 3849              	.LASF39:
 3850 0276 6D736771 		.ascii	"msgqueue\000"
 3850      75657565 
 3850      00
 3851              	.LASF35:
 3852 027f 73746174 		.ascii	"state\000"
 3852      6500
 3853              	.LASF124:
 3854 0285 6368616E 		.ascii	"channels\000"
 3854      6E656C73 
 3854      00
 3855              	.LASF9:
 3856 028e 6C6F6E67 		.ascii	"long int\000"
 3856      20696E74 
 3856      00
 3857              	.LASF162:
 3858 0297 70776D5F 		.ascii	"pwm_lld_start\000"
 3858      6C6C645F 
 3858      73746172 
 3858      7400
 3859              	.LASF168:
 3860 02a5 70776D5F 		.ascii	"pwm_lld_enable_channel_notification\000"
 3860      6C6C645F 
 3860      656E6162 
 3860      6C655F63 
 3860      68616E6E 
 3861              	.LASF21:
 3862 02c9 74737461 		.ascii	"tstate_t\000"
 3862      74655F74 
 3862      00
 3863              	.LASF143:
 3864 02d2 70776D49 		.ascii	"pwmInit\000"
 3864      6E697400 
 3865              	.LASF44:
 3866 02da 73746174 		.ascii	"stats\000"
 3866      7300
 3867              	.LASF126:
 3868 02e0 70776D63 		.ascii	"pwmcallback_t\000"
 3868      616C6C62 
 3868      61636B5F 
 3868      7400
 3869              	.LASF10:
ARM GAS  /tmp/cc7gQbhQ.s 			page 71


 3870 02ee 5F5F7569 		.ascii	"__uint32_t\000"
 3870      6E743332 
 3870      5F7400
 3871              	.LASF155:
 3872 02f9 70776D44 		.ascii	"pwmDisablePeriodicNotification\000"
 3872      69736162 
 3872      6C655065 
 3872      72696F64 
 3872      69634E6F 
 3873              	.LASF76:
 3874 0318 72656761 		.ascii	"regarm_t\000"
 3874      726D5F74 
 3874      00
 3875              	.LASF70:
 3876 0321 76746C69 		.ascii	"vtlist\000"
 3876      737400
 3877              	.LASF65:
 3878 0328 63685F73 		.ascii	"ch_system_debug\000"
 3878      79737465 
 3878      6D5F6465 
 3878      62756700 
 3879              	.LASF38:
 3880 0338 77616974 		.ascii	"waiting\000"
 3880      696E6700 
 3881              	.LASF140:
 3882 0340 6F73616C 		.ascii	"osalSysLock\000"
 3882      5379734C 
 3882      6F636B00 
 3883              	.LASF114:
 3884 034c 6D757465 		.ascii	"mutex_t\000"
 3884      785F7400 
 3885              	.LASF74:
 3886 0354 73797369 		.ascii	"sysinterval_t\000"
 3886      6E746572 
 3886      76616C5F 
 3886      7400
 3887              	.LASF26:
 3888 0362 636E745F 		.ascii	"cnt_t\000"
 3888      7400
 3889              	.LASF0:
 3890 0368 756E7369 		.ascii	"unsigned int\000"
 3890      676E6564 
 3890      20696E74 
 3890      00
 3891              	.LASF156:
 3892 0375 70776D45 		.ascii	"pwmEnableChannelNotification\000"
 3892      6E61626C 
 3892      65436861 
 3892      6E6E656C 
 3892      4E6F7469 
 3893              	.LASF107:
 3894 0392 77747365 		.ascii	"wtsemp\000"
 3894      6D7000
 3895              	.LASF166:
 3896 0399 70776D5F 		.ascii	"pwm_lld_enable_periodic_notification\000"
 3896      6C6C645F 
 3896      656E6162 
ARM GAS  /tmp/cc7gQbhQ.s 			page 72


 3896      6C655F70 
 3896      6572696F 
 3897              	.LASF47:
 3898 03be 63685F74 		.ascii	"ch_thread\000"
 3898      68726561 
 3898      6400
 3899              	.LASF97:
 3900 03c8 6E5F6972 		.ascii	"n_irq\000"
 3900      7100
 3901              	.LASF29:
 3902 03ce 71756575 		.ascii	"queue\000"
 3902      6500
 3903              	.LASF152:
 3904 03d4 77696474 		.ascii	"width\000"
 3904      6800
 3905              	.LASF43:
 3906 03da 6D706F6F 		.ascii	"mpool\000"
 3906      6C00
 3907              	.LASF92:
 3908 03e0 62657374 		.ascii	"best\000"
 3908      00
 3909              	.LASF80:
 3910 03e5 534D4352 		.ascii	"SMCR\000"
 3910      00
 3911              	.LASF101:
 3912 03ea 6B65726E 		.ascii	"kernel_stats_t\000"
 3912      656C5F73 
 3912      74617473 
 3912      5F7400
 3913              	.LASF33:
 3914 03f9 6E616D65 		.ascii	"name\000"
 3914      00
 3915              	.LASF24:
 3916 03fe 6D73675F 		.ascii	"msg_t\000"
 3916      7400
 3917              	.LASF94:
 3918 0404 6C617374 		.ascii	"last\000"
 3918      00
 3919              	.LASF48:
 3920 0409 63685F74 		.ascii	"ch_threads_list\000"
 3920      68726561 
 3920      64735F6C 
 3920      69737400 
 3921              	.LASF27:
 3922 0419 75636E74 		.ascii	"ucnt_t\000"
 3922      5F7400
 3923              	.LASF153:
 3924 0420 70776D44 		.ascii	"pwmDisableChannel\000"
 3924      69736162 
 3924      6C654368 
 3924      616E6E65 
 3924      6C00
 3925              	.LASF67:
 3926 0432 63685F73 		.ascii	"ch_system_t\000"
 3926      79737465 
 3926      6D5F7400 
 3927              	.LASF132:
ARM GAS  /tmp/cc7gQbhQ.s 			page 73


 3928 043e 63616C6C 		.ascii	"callback\000"
 3928      6261636B 
 3928      00
 3929              	.LASF89:
 3930 0447 73746D33 		.ascii	"stm32_tim_t\000"
 3930      325F7469 
 3930      6D5F7400 
 3931              	.LASF100:
 3932 0453 6D5F6372 		.ascii	"m_crit_isr\000"
 3932      69745F69 
 3932      737200
 3933              	.LASF54:
 3934 045e 63685F72 		.ascii	"ch_ready_list\000"
 3934      65616479 
 3934      5F6C6973 
 3934      7400
 3935              	.LASF25:
 3936 046c 6576656E 		.ascii	"eventmask_t\000"
 3936      746D6173 
 3936      6B5F7400 
 3937              	.LASF169:
 3938 0478 70776D5F 		.ascii	"pwm_lld_disable_channel_notification\000"
 3938      6C6C645F 
 3938      64697361 
 3938      626C655F 
 3938      6368616E 
 3939              	.LASF8:
 3940 049d 5F5F696E 		.ascii	"__int32_t\000"
 3940      7433325F 
 3940      7400
 3941              	.LASF146:
 3942 04a7 70776D70 		.ascii	"pwmp\000"
 3942      00
 3943              	.LASF77:
 3944 04ac 73746B61 		.ascii	"stkalign_t\000"
 3944      6C69676E 
 3944      5F7400
 3945              	.LASF31:
 3946 04b7 6E657765 		.ascii	"newer\000"
 3946      7200
 3947              	.LASF119:
 3948 04bd 70776D73 		.ascii	"pwmstate_t\000"
 3948      74617465 
 3948      5F7400
 3949              	.LASF42:
 3950 04c8 7265616C 		.ascii	"realprio\000"
 3950      7072696F 
 3950      00
 3951              	.LASF148:
 3952 04d1 70776D53 		.ascii	"pwmStop\000"
 3952      746F7000 
 3953              	.LASF160:
 3954 04d9 5F737461 		.ascii	"_stats_stop_measure_crit_thd\000"
 3954      74735F73 
 3954      746F705F 
 3954      6D656173 
 3954      7572655F 
ARM GAS  /tmp/cc7gQbhQ.s 			page 74


 3955              	.LASF75:
 3956 04f6 73697A65 		.ascii	"sizetype\000"
 3956      74797065 
 3956      00
 3957              	.LASF45:
 3958 04ff 74687265 		.ascii	"thread_reference_t\000"
 3958      61645F72 
 3958      65666572 
 3958      656E6365 
 3958      5F7400
 3959              	.LASF62:
 3960 0512 63685F76 		.ascii	"ch_virtual_timers_list\000"
 3960      69727475 
 3960      616C5F74 
 3960      696D6572 
 3960      735F6C69 
 3961              	.LASF2:
 3962 0529 6C6F6E67 		.ascii	"long double\000"
 3962      20646F75 
 3962      626C6500 
 3963              	.LASF171:
 3964 0535 2E2E2F2E 		.ascii	"../../modules/ChibiOS/os/hal/src/hal_pwm.c\000"
 3964      2E2F6D6F 
 3964      64756C65 
 3964      732F4368 
 3964      6962694F 
 3965              	.LASF144:
 3966 0560 70776D4F 		.ascii	"pwmObjectInit\000"
 3966      626A6563 
 3966      74496E69 
 3966      7400
 3967              	.LASF161:
 3968 056e 70776D5F 		.ascii	"pwm_lld_init\000"
 3968      6C6C645F 
 3968      696E6974 
 3968      00
 3969              	.LASF78:
 3970 057b 706F7274 		.ascii	"port_context\000"
 3970      5F636F6E 
 3970      74657874 
 3970      00
 3971              	.LASF1:
 3972 0588 6C6F6E67 		.ascii	"long long int\000"
 3972      206C6F6E 
 3972      6720696E 
 3972      7400
 3973              	.LASF91:
 3974 0596 746D5F63 		.ascii	"tm_calibration_t\000"
 3974      616C6962 
 3974      72617469 
 3974      6F6E5F74 
 3974      00
 3975              	.LASF30:
 3976 05a7 7072696F 		.ascii	"prio\000"
 3976      00
 3977              	.LASF55:
 3978 05ac 63757272 		.ascii	"current\000"
ARM GAS  /tmp/cc7gQbhQ.s 			page 75


 3978      656E7400 
 3979              	.LASF12:
 3980 05b4 5F5F7569 		.ascii	"__uint64_t\000"
 3980      6E743634 
 3980      5F7400
 3981              	.LASF95:
 3982 05bf 63756D75 		.ascii	"cumulative\000"
 3982      6C617469 
 3982      766500
 3983              	.LASF167:
 3984 05ca 70776D5F 		.ascii	"pwm_lld_disable_periodic_notification\000"
 3984      6C6C645F 
 3984      64697361 
 3984      626C655F 
 3984      70657269 
 3985              	.LASF22:
 3986 05f0 74726566 		.ascii	"trefs_t\000"
 3986      735F7400 
 3987              	.LASF37:
 3988 05f8 72656673 		.ascii	"refs\000"
 3988      00
 3989              	.LASF57:
 3990 05fd 76697274 		.ascii	"virtual_timer_t\000"
 3990      75616C5F 
 3990      74696D65 
 3990      725F7400 
 3991              	.LASF118:
 3992 060d 50574D5F 		.ascii	"PWM_READY\000"
 3992      52454144 
 3992      5900
 3993              	.LASF23:
 3994 0617 74707269 		.ascii	"tprio_t\000"
 3994      6F5F7400 
 3995              	.LASF98:
 3996 061f 6E5F6374 		.ascii	"n_ctxswc\000"
 3996      78737763 
 3996      00
 3997              	.LASF115:
 3998 0628 5F426F6F 		.ascii	"_Bool\000"
 3998      6C00
 3999              	.LASF15:
 4000 062e 696E7433 		.ascii	"int32_t\000"
 4000      325F7400 
 4001              	.LASF4:
 4002 0636 756E7369 		.ascii	"unsigned char\000"
 4002      676E6564 
 4002      20636861 
 4002      7200
 4003              	.LASF158:
 4004 0644 49544D5F 		.ascii	"ITM_RxBuffer\000"
 4004      52784275 
 4004      66666572 
 4004      00
 4005              	.LASF5:
 4006 0651 73686F72 		.ascii	"short int\000"
 4006      7420696E 
 4006      7400
ARM GAS  /tmp/cc7gQbhQ.s 			page 76


 4007              	.LASF63:
 4008 065b 6C617374 		.ascii	"lasttime\000"
 4008      74696D65 
 4008      00
 4009              	.LASF109:
 4010 0664 65776D61 		.ascii	"ewmask\000"
 4010      736B00
 4011              	.LASF68:
 4012 066b 63685F73 		.ascii	"ch_system\000"
 4012      79737465 
 4012      6D00
 4013              	.LASF129:
 4014 0675 70776D63 		.ascii	"pwmchnmsk_t\000"
 4014      686E6D73 
 4014      6B5F7400 
 4015              	.LASF147:
 4016 0681 5F5F6675 		.ascii	"__func__\000"
 4016      6E635F5F 
 4016      00
 4017              	.LASF134:
 4018 068a 66726571 		.ascii	"frequency\000"
 4018      75656E63 
 4018      7900
 4019              	.LASF141:
 4020 0694 63685379 		.ascii	"chSysLock\000"
 4020      734C6F63 
 4020      6B00
 4021              	.LASF139:
 4022 069e 6F73616C 		.ascii	"osalSysUnlock\000"
 4022      53797355 
 4022      6E6C6F63 
 4022      6B00
 4023              	.LASF151:
 4024 06ac 6368616E 		.ascii	"channel\000"
 4024      6E656C00 
 4025              	.LASF58:
 4026 06b4 63685F76 		.ascii	"ch_virtual_timer\000"
 4026      69727475 
 4026      616C5F74 
 4026      696D6572 
 4026      00
 4027              	.LASF110:
 4028 06c5 63685F73 		.ascii	"ch_semaphore\000"
 4028      656D6170 
 4028      686F7265 
 4028      00
 4029              	.LASF88:
 4030 06d2 43435852 		.ascii	"CCXR\000"
 4030      00
 4031              	.LASF163:
 4032 06d7 70776D5F 		.ascii	"pwm_lld_stop\000"
 4032      6C6C645F 
 4032      73746F70 
 4032      00
 4033              	.LASF172:
 4034 06e4 2F686F6D 		.ascii	"/home/user/csse4011/project/4011-surfbee/ardupilot/"
 4034      652F7573 
ARM GAS  /tmp/cc7gQbhQ.s 			page 77


 4034      65722F63 
 4034      73736534 
 4034      3031312F 
 4035 0717 6275696C 		.ascii	"build/stm32l475\000"
 4035      642F7374 
 4035      6D33326C 
 4035      34373500 
 4036              	.LASF108:
 4037 0727 77746D74 		.ascii	"wtmtxp\000"
 4037      787000
 4038              	.LASF123:
 4039 072e 656E6162 		.ascii	"enabled\000"
 4039      6C656400 
 4040              	.LASF112:
 4041 0736 6F776E65 		.ascii	"owner\000"
 4041      7200
 4042              	.LASF11:
 4043 073c 6C6F6E67 		.ascii	"long unsigned int\000"
 4043      20756E73 
 4043      69676E65 
 4043      6420696E 
 4043      7400
 4044              	.LASF34:
 4045 074e 77616261 		.ascii	"wabase\000"
 4045      736500
 4046              	.LASF117:
 4047 0755 50574D5F 		.ascii	"PWM_STOP\000"
 4047      53544F50 
 4047      00
 4048              	.LASF113:
 4049 075e 63686172 		.ascii	"char\000"
 4049      00
 4050              	.LASF32:
 4051 0763 6F6C6465 		.ascii	"older\000"
 4051      7200
 4052              	.LASF131:
 4053 0769 6D6F6465 		.ascii	"mode\000"
 4053      00
 4054              	.LASF121:
 4055 076e 636F6E66 		.ascii	"config\000"
 4055      696700
 4056              	.LASF86:
 4057 0775 444D4152 		.ascii	"DMAR\000"
 4057      00
 4058              	.LASF28:
 4059 077a 74687265 		.ascii	"thread_t\000"
 4059      61645F74 
 4059      00
 4060              	.LASF84:
 4061 0783 43434552 		.ascii	"CCER\000"
 4061      00
 4062              	.LASF73:
 4063 0788 73797374 		.ascii	"systime_t\000"
 4063      696D655F 
 4063      7400
 4064              	.LASF56:
 4065 0792 76746675 		.ascii	"vtfunc_t\000"
ARM GAS  /tmp/cc7gQbhQ.s 			page 78


 4065      6E635F74 
 4065      00
 4066              	.LASF173:
 4067 079b 5F5F7365 		.ascii	"__set_BASEPRI\000"
 4067      745F4241 
 4067      53455052 
 4067      4900
 4068              	.LASF154:
 4069 07a9 70776D45 		.ascii	"pwmEnablePeriodicNotification\000"
 4069      6E61626C 
 4069      65506572 
 4069      696F6469 
 4069      634E6F74 
 4070              	.LASF66:
 4071 07c7 70616E69 		.ascii	"panic_msg\000"
 4071      635F6D73 
 4071      6700
 4072              	.LASF90:
 4073 07d1 6F666673 		.ascii	"offset\000"
 4073      657400
 4074              	.LASF111:
 4075 07d8 63685F6D 		.ascii	"ch_mutex\000"
 4075      75746578 
 4075      00
 4076              	.LASF6:
 4077 07e1 73686F72 		.ascii	"short unsigned int\000"
 4077      7420756E 
 4077      7369676E 
 4077      65642069 
 4077      6E7400
 4078              	.LASF133:
 4079 07f4 50574D43 		.ascii	"PWMChannelConfig\000"
 4079      68616E6E 
 4079      656C436F 
 4079      6E666967 
 4079      00
 4080              	.LASF18:
 4081 0805 7274636E 		.ascii	"rtcnt_t\000"
 4081      745F7400 
 4082              	.LASF16:
 4083 080d 75696E74 		.ascii	"uint32_t\000"
 4083      33325F74 
 4083      00
 4084              	.LASF136:
 4085 0816 50574D43 		.ascii	"PWMConfig\000"
 4085      6F6E6669 
 4085      6700
 4086              	.LASF50:
 4087 0820 74687265 		.ascii	"threads_queue_t\000"
 4087      6164735F 
 4087      71756575 
 4087      655F7400 
 4088              	.LASF40:
 4089 0830 6570656E 		.ascii	"epending\000"
 4089      64696E67 
 4089      00
 4090              	.LASF69:
ARM GAS  /tmp/cc7gQbhQ.s 			page 79


 4091 0839 726C6973 		.ascii	"rlist\000"
 4091      7400
 4092              	.LASF14:
 4093 083f 75696E74 		.ascii	"uint8_t\000"
 4093      385F7400 
 4094              	.LASF157:
 4095 0847 70776D44 		.ascii	"pwmDisableChannelNotification\000"
 4095      69736162 
 4095      6C654368 
 4095      616E6E65 
 4095      6C4E6F74 
 4096              	.LASF120:
 4097 0865 50574D44 		.ascii	"PWMDriver\000"
 4097      72697665 
 4097      7200
 4098              	.LASF36:
 4099 086f 666C6167 		.ascii	"flags\000"
 4099      7300
 4100              	.LASF159:
 4101 0875 5F737461 		.ascii	"_stats_start_measure_crit_thd\000"
 4101      74735F73 
 4101      74617274 
 4101      5F6D6561 
 4101      73757265 
 4102              	.LASF130:
 4103 0893 70776D63 		.ascii	"pwmcnt_t\000"
 4103      6E745F74 
 4103      00
 4104              	.LASF104:
 4105 089c 77746F62 		.ascii	"wtobjp\000"
 4105      6A7000
 4106              	.LASF46:
 4107 08a3 74687265 		.ascii	"threads_list_t\000"
 4107      6164735F 
 4107      6C697374 
 4107      5F7400
 4108              	.LASF20:
 4109 08b2 746D6F64 		.ascii	"tmode_t\000"
 4109      655F7400 
 4110              	.LASF142:
 4111 08ba 63685379 		.ascii	"chSysUnlock\000"
 4111      73556E6C 
 4111      6F636B00 
 4112              	.LASF125:
 4113 08c6 636C6F63 		.ascii	"clock\000"
 4113      6B00
 4114              	.LASF41:
 4115 08cc 6D74786C 		.ascii	"mtxlist\000"
 4115      69737400 
 4116              	.LASF116:
 4117 08d4 50574D5F 		.ascii	"PWM_UNINIT\000"
 4117      554E494E 
 4117      495400
 4118              	.LASF99:
 4119 08df 6D5F6372 		.ascii	"m_crit_thd\000"
 4119      69745F74 
 4119      686400
ARM GAS  /tmp/cc7gQbhQ.s 			page 80


 4120              	.LASF150:
 4121 08ea 70776D45 		.ascii	"pwmEnableChannel\000"
 4121      6E61626C 
 4121      65436861 
 4121      6E6E656C 
 4121      00
 4122              	.LASF135:
 4123 08fb 64696572 		.ascii	"dier\000"
 4123      00
 4124              		.ident	"GCC: (15:5.4.1+svn241155-1) 5.4.1 20160919"
ARM GAS  /tmp/cc7gQbhQ.s 			page 81


DEFINED SYMBOLS
                            *ABS*:0000000000000000 hal_pwm.c
     /tmp/cc7gQbhQ.s:22     .text.chSysLock:0000000000000000 $t
     /tmp/cc7gQbhQ.s:26     .text.chSysLock:0000000000000000 chSysLock
     /tmp/cc7gQbhQ.s:58     .text.chSysUnlock:0000000000000000 $t
     /tmp/cc7gQbhQ.s:62     .text.chSysUnlock:0000000000000000 chSysUnlock
     /tmp/cc7gQbhQ.s:95     .text.pwmInit:0000000000000000 $t
     /tmp/cc7gQbhQ.s:100    .text.pwmInit:0000000000000000 pwmInit
     /tmp/cc7gQbhQ.s:115    .text.pwmObjectInit:0000000000000000 $t
     /tmp/cc7gQbhQ.s:120    .text.pwmObjectInit:0000000000000000 pwmObjectInit
     /tmp/cc7gQbhQ.s:143    .text.pwmStart:0000000000000000 $t
     /tmp/cc7gQbhQ.s:148    .text.pwmStart:0000000000000000 pwmStart
     /tmp/cc7gQbhQ.s:206    .text.pwmStop:0000000000000000 $t
     /tmp/cc7gQbhQ.s:211    .text.pwmStop:0000000000000000 pwmStop
     /tmp/cc7gQbhQ.s:260    .text.pwmChangePeriod:0000000000000000 $t
     /tmp/cc7gQbhQ.s:265    .text.pwmChangePeriod:0000000000000000 pwmChangePeriod
     /tmp/cc7gQbhQ.s:313    .text.pwmEnableChannel:0000000000000000 $t
     /tmp/cc7gQbhQ.s:318    .text.pwmEnableChannel:0000000000000000 pwmEnableChannel
     /tmp/cc7gQbhQ.s:372    .text.pwmDisableChannel:0000000000000000 $t
     /tmp/cc7gQbhQ.s:377    .text.pwmDisableChannel:0000000000000000 pwmDisableChannel
     /tmp/cc7gQbhQ.s:429    .text.pwmEnablePeriodicNotification:0000000000000000 $t
     /tmp/cc7gQbhQ.s:434    .text.pwmEnablePeriodicNotification:0000000000000000 pwmEnablePeriodicNotification
     /tmp/cc7gQbhQ.s:475    .text.pwmDisablePeriodicNotification:0000000000000000 $t
     /tmp/cc7gQbhQ.s:480    .text.pwmDisablePeriodicNotification:0000000000000000 pwmDisablePeriodicNotification
     /tmp/cc7gQbhQ.s:521    .text.pwmEnableChannelNotification:0000000000000000 $t
     /tmp/cc7gQbhQ.s:526    .text.pwmEnableChannelNotification:0000000000000000 pwmEnableChannelNotification
     /tmp/cc7gQbhQ.s:573    .text.pwmDisableChannelNotification:0000000000000000 $t
     /tmp/cc7gQbhQ.s:578    .text.pwmDisableChannelNotification:0000000000000000 pwmDisableChannelNotification
                     .debug_frame:0000000000000010 $d

UNDEFINED SYMBOLS
_stats_start_measure_crit_thd
_stats_stop_measure_crit_thd
pwm_lld_init
pwm_lld_start
pwm_lld_stop
pwm_lld_enable_channel
pwm_lld_disable_channel
pwm_lld_enable_periodic_notification
pwm_lld_disable_periodic_notification
pwm_lld_enable_channel_notification
pwm_lld_disable_channel_notification
