ARM GAS  /tmp/ccI5Hmtd.s 			page 1


   1              		.syntax unified
   2              		.cpu cortex-m4
   3              		.eabi_attribute 27, 1
   4              		.eabi_attribute 28, 1
   5              		.fpu fpv4-sp-d16
   6              		.eabi_attribute 20, 1
   7              		.eabi_attribute 21, 1
   8              		.eabi_attribute 23, 3
   9              		.eabi_attribute 24, 1
  10              		.eabi_attribute 25, 1
  11              		.eabi_attribute 26, 1
  12              		.eabi_attribute 30, 4
  13              		.eabi_attribute 34, 1
  14              		.eabi_attribute 18, 4
  15              		.thumb
  16              		.syntax unified
  17              		.file	"hal_i2c_lld.c"
  18              		.text
  19              	.Ltext0:
  20              		.cfi_sections	.debug_frame
  21              		.section	.text.i2c_lld_serve_event_interrupt,"ax",%progbits
  22              		.align	1
  23              		.thumb
  24              		.thumb_func
  25              		.type	i2c_lld_serve_event_interrupt, %function
  26              	i2c_lld_serve_event_interrupt:
  27              	.LFB327:
  28              		.file 1 "../../modules/ChibiOS/os/hal/ports/STM32/LLD/I2Cv1/hal_i2c_lld.c"
  29              		.loc 1 283 0
  30              		.cfi_startproc
  31              		@ args = 0, pretend = 0, frame = 0
  32              		@ frame_needed = 0, uses_anonymous_args = 0
  33              	.LVL0:
  34 0000 F8B5     		push	{r3, r4, r5, r6, r7, lr}
  35              		.cfi_def_cfa_offset 24
  36              		.cfi_offset 3, -24
  37              		.cfi_offset 4, -20
  38              		.cfi_offset 5, -16
  39              		.cfi_offset 6, -12
  40              		.cfi_offset 7, -8
  41              		.cfi_offset 14, -4
  42              		.loc 1 284 0
  43 0002 446B     		ldr	r4, [r0, #52]
  44              	.LVL1:
  45              		.loc 1 291 0
  46 0004 3E4A     		ldr	r2, .L32
  47              		.loc 1 285 0
  48 0006 A369     		ldr	r3, [r4, #24]
  49              	.LVL2:
  50              		.loc 1 286 0
  51 0008 6669     		ldr	r6, [r4, #20]
  52              	.LVL3:
  53              		.loc 1 291 0
  54 000a 46EA0343 		orr	r3, r6, r3, lsl #16
  55              	.LVL4:
  56 000e 23F07F43 		bic	r3, r3, #-16777216
  57 0012 9342     		cmp	r3, r2
ARM GAS  /tmp/ccI5Hmtd.s 			page 2


  58              		.loc 1 283 0
  59 0014 0546     		mov	r5, r0
  60              		.loc 1 291 0
  61 0016 19D0     		beq	.L3
  62 0018 06D8     		bhi	.L4
  63 001a 073A     		subs	r2, r2, #7
  64 001c 9342     		cmp	r3, r2
  65 001e 0AD0     		beq	.L5
  66 0020 0132     		adds	r2, r2, #1
  67 0022 9342     		cmp	r3, r2
  68 0024 17D0     		beq	.L6
  69 0026 5AE0     		b	.L2
  70              	.L4:
  71 0028 364A     		ldr	r2, .L32+4
  72 002a 9342     		cmp	r3, r2
  73 002c 28D0     		beq	.L7
  74 002e 0232     		adds	r2, r2, #2
  75 0030 9342     		cmp	r3, r2
  76 0032 30D0     		beq	.L8
  77 0034 53E0     		b	.L2
  78              	.L5:
  79              		.loc 1 293 0
  80 0036 038C     		ldrh	r3, [r0, #32]
  81 0038 1A0A     		lsrs	r2, r3, #8
  82 003a 0AD0     		beq	.L29
  83              		.loc 1 295 0
  84 003c 03F00103 		and	r3, r3, #1
  85 0040 43F0F003 		orr	r3, r3, #240
  86 0044 02F00602 		and	r2, r2, #6
  87 0048 1343     		orrs	r3, r3, r2
  88 004a 02E0     		b	.L29
  89              	.L3:
  90              		.loc 1 302 0
  91 004c 038C     		ldrh	r3, [r0, #32]
  92 004e C3F34703 		ubfx	r3, r3, #1, #8
  93              	.L29:
  94 0052 2361     		str	r3, [r4, #16]
  95              		.loc 1 303 0
  96 0054 4EE0     		b	.L10
  97              	.L6:
  98              		.loc 1 305 0
  99 0056 6368     		ldr	r3, [r4, #4]
 100 0058 23F40073 		bic	r3, r3, #512
 101 005c 6360     		str	r3, [r4, #4]
 102              		.loc 1 306 0
 103 005e C36A     		ldr	r3, [r0, #44]
 104 0060 1B68     		ldr	r3, [r3]
 105 0062 1A68     		ldr	r2, [r3]
 106 0064 42F00102 		orr	r2, r2, #1
 107 0068 1A60     		str	r2, [r3]
 108              		.loc 1 307 0
 109 006a 6268     		ldr	r2, [r4, #4]
 110 006c 42F48052 		orr	r2, r2, #4096
 111 0070 6260     		str	r2, [r4, #4]
 112              		.loc 1 308 0
 113 0072 5B68     		ldr	r3, [r3, #4]
 114 0074 012B     		cmp	r3, #1
ARM GAS  /tmp/ccI5Hmtd.s 			page 3


 115 0076 3DD8     		bhi	.L10
 116              		.loc 1 309 0
 117 0078 2368     		ldr	r3, [r4]
 118 007a 23F48063 		bic	r3, r3, #1024
 119 007e 38E0     		b	.L30
 120              	.L7:
 121              		.loc 1 312 0
 122 0080 6368     		ldr	r3, [r4, #4]
 123 0082 23F40073 		bic	r3, r3, #512
 124 0086 6360     		str	r3, [r4, #4]
 125              		.loc 1 313 0
 126 0088 036B     		ldr	r3, [r0, #48]
 127 008a 1A68     		ldr	r2, [r3]
 128 008c 1368     		ldr	r3, [r2]
 129 008e 43F00103 		orr	r3, r3, #1
 130 0092 1360     		str	r3, [r2]
 131              		.loc 1 314 0
 132 0094 2EE0     		b	.L10
 133              	.L8:
 134              		.loc 1 317 0
 135 0096 C36A     		ldr	r3, [r0, #44]
 136 0098 1B68     		ldr	r3, [r3]
 137 009a 5F68     		ldr	r7, [r3, #4]
 138 009c 47B1     		cbz	r7, .L12
 139              		.loc 1 319 0
 140 009e 038C     		ldrh	r3, [r0, #32]
 141 00a0 43F00103 		orr	r3, r3, #1
 142 00a4 0384     		strh	r3, [r0, #32]	@ movhi
 143              		.loc 1 320 0
 144 00a6 2368     		ldr	r3, [r4]
 145 00a8 43F4A063 		orr	r3, r3, #1280
 146 00ac 2360     		str	r3, [r4]
 147              		.loc 1 321 0
 148 00ae F8BD     		pop	{r3, r4, r5, r6, r7, pc}
 149              	.LVL5:
 150              	.L12:
 151              		.loc 1 323 0
 152 00b0 6368     		ldr	r3, [r4, #4]
 153 00b2 23F40073 		bic	r3, r3, #512
 154 00b6 6360     		str	r3, [r4, #4]
 155              		.loc 1 324 0
 156 00b8 2368     		ldr	r3, [r4]
 157 00ba 43F40073 		orr	r3, r3, #512
 158 00be 2360     		str	r3, [r4]
 159              	.LVL6:
 160              	.LBB86:
 161              	.LBB87:
 162              	.LBB88:
 163              	.LBB89:
 164              	.LBB90:
 165              	.LBB91:
 166              	.LBB92:
 167              		.file 2 "../../modules/ChibiOS/os/common/ext/ARM/CMSIS/Core/Include/cmsis_gcc.h"
 168              		.loc 2 493 0
 169 00c0 2023     		movs	r3, #32
 170              		.syntax unified
 171              	@ 493 "../../modules/ChibiOS/os/common/ext/ARM/CMSIS/Core/Include/cmsis_gcc.h" 1
ARM GAS  /tmp/ccI5Hmtd.s 			page 4


 172 00c2 83F31188 		MSR basepri, r3
 173              	@ 0 "" 2
 174              	.LVL7:
 175              		.thumb
 176              		.syntax unified
 177              	.LBE92:
 178              	.LBE91:
 179              	.LBE90:
 180              	.LBE89:
 181              		.file 3 "../../modules/ChibiOS/os/rt/include/chsys.h"
 182              		.loc 3 396 0
 183 00c6 FFF7FEFF 		bl	_stats_start_measure_crit_isr
 184              	.LVL8:
 185              	.LBE88:
 186              	.LBE87:
 187              	.LBE86:
 188              	.LBB93:
 189              	.LBB94:
 190              		.file 4 "../../modules/ChibiOS/os/hal/osal/rt/osal.h"
 191              		.loc 4 775 0
 192 00ca 3946     		mov	r1, r7
 193 00cc 05F11C00 		add	r0, r5, #28
 194              	.LVL9:
 195 00d0 FFF7FEFF 		bl	chThdResumeI
 196              	.LVL10:
 197              	.LBE94:
 198              	.LBE93:
 199              	.LBB95:
 200              	.LBB96:
 201              	.LBB97:
 202              		.loc 3 416 0
 203 00d4 FFF7FEFF 		bl	_stats_stop_measure_crit_isr
 204              	.LVL11:
 205              	.LBB98:
 206              	.LBB99:
 207              	.LBB100:
 208              	.LBB101:
 209              		.loc 2 493 0
 210              		.syntax unified
 211              	@ 493 "../../modules/ChibiOS/os/common/ext/ARM/CMSIS/Core/Include/cmsis_gcc.h" 1
 212 00d8 87F31188 		MSR basepri, r7
 213              	@ 0 "" 2
 214              	.LVL12:
 215              		.thumb
 216              		.syntax unified
 217 00dc 0AE0     		b	.L10
 218              	.LVL13:
 219              	.L2:
 220              	.LBE101:
 221              	.LBE100:
 222              	.LBE99:
 223              	.LBE98:
 224              	.LBE97:
 225              	.LBE96:
 226              	.LBE95:
 227              		.loc 1 328 0
 228 00de 3106     		lsls	r1, r6, #24
ARM GAS  /tmp/ccI5Hmtd.s 			page 5


 229              		.loc 1 329 0
 230 00e0 44BF     		itt	mi
 231 00e2 0023     		movmi	r3, #0
 232 00e4 2361     		strmi	r3, [r4, #16]
 233              		.loc 1 330 0
 234 00e6 7207     		lsls	r2, r6, #29
 235              		.loc 1 331 0
 236 00e8 48BF     		it	mi
 237 00ea 2369     		ldrmi	r3, [r4, #16]
 238              		.loc 1 332 0
 239 00ec F306     		lsls	r3, r6, #27
 240 00ee 01D5     		bpl	.L10
 241              		.loc 1 333 0
 242 00f0 2368     		ldr	r3, [r4]
 243              	.L30:
 244 00f2 2360     		str	r3, [r4]
 245              	.LVL14:
 246              	.L10:
 247              		.loc 1 337 0
 248 00f4 16F00A0F 		tst	r6, #10
 249              		.loc 1 338 0
 250 00f8 18BF     		it	ne
 251 00fa A369     		ldrne	r3, [r4, #24]
 252 00fc F8BD     		pop	{r3, r4, r5, r6, r7, pc}
 253              	.LVL15:
 254              	.L33:
 255 00fe 00BF     		.align	2
 256              	.L32:
 257 0100 08000300 		.word	196616
 258 0104 82000700 		.word	458882
 259              		.cfi_endproc
 260              	.LFE327:
 261              		.size	i2c_lld_serve_event_interrupt, .-i2c_lld_serve_event_interrupt
 262              		.section	.text.i2c_lld_serve_tx_end_irq,"ax",%progbits
 263              		.align	1
 264              		.thumb
 265              		.thumb_func
 266              		.type	i2c_lld_serve_tx_end_irq, %function
 267              	i2c_lld_serve_tx_end_irq:
 268              	.LFB329:
 269              		.loc 1 376 0
 270              		.cfi_startproc
 271              		@ args = 0, pretend = 0, frame = 0
 272              		@ frame_needed = 0, uses_anonymous_args = 0
 273              	.LVL16:
 274              		.loc 1 381 0
 275 0000 11F00C0F 		tst	r1, #12
 276              		.loc 1 376 0
 277 0004 38B5     		push	{r3, r4, r5, lr}
 278              		.cfi_def_cfa_offset 16
 279              		.cfi_offset 3, -16
 280              		.cfi_offset 4, -12
 281              		.cfi_offset 5, -8
 282              		.cfi_offset 14, -4
 283              		.loc 1 376 0
 284 0006 0546     		mov	r5, r0
 285              		.loc 1 377 0
ARM GAS  /tmp/ccI5Hmtd.s 			page 6


 286 0008 446B     		ldr	r4, [r0, #52]
 287              	.LVL17:
 288              		.loc 1 381 0
 289 000a 02D0     		beq	.L35
 290              	.LVL18:
 291              	.LBB102:
 292              	.LBB103:
 293              		.loc 4 480 0
 294 000c 0A48     		ldr	r0, .L41
 295              	.LVL19:
 296 000e FFF7FEFF 		bl	chSysHalt
 297              	.LVL20:
 298              	.L35:
 299              	.LBE103:
 300              	.LBE102:
 301              		.loc 1 388 0
 302 0012 2B6B     		ldr	r3, [r5, #48]
 303 0014 1A68     		ldr	r2, [r3]
 304 0016 1168     		ldr	r1, [r2]
 305 0018 21F01F01 		bic	r1, r1, #31
 306 001c 1160     		str	r1, [r2]
 307              	.L36:
 308              		.loc 1 388 0 is_stmt 0 discriminator 2
 309 001e 1168     		ldr	r1, [r2]
 310 0020 C907     		lsls	r1, r1, #31
 311 0022 FCD4     		bmi	.L36
 312              		.loc 1 388 0 discriminator 3
 313 0024 597A     		ldrb	r1, [r3, #9]	@ zero_extendqisi2
 314 0026 5A68     		ldr	r2, [r3, #4]
 315 0028 3D23     		movs	r3, #61
 316 002a 8B40     		lsls	r3, r3, r1
 317 002c 1360     		str	r3, [r2]
 318              		.loc 1 392 0 is_stmt 1 discriminator 3
 319 002e 6368     		ldr	r3, [r4, #4]
 320 0030 43F40073 		orr	r3, r3, #512
 321 0034 6360     		str	r3, [r4, #4]
 322 0036 38BD     		pop	{r3, r4, r5, pc}
 323              	.LVL21:
 324              	.L42:
 325              		.align	2
 326              	.L41:
 327 0038 00000000 		.word	.LC0
 328              		.cfi_endproc
 329              	.LFE329:
 330              		.size	i2c_lld_serve_tx_end_irq, .-i2c_lld_serve_tx_end_irq
 331              		.section	.text.i2c_lld_serve_rx_end_irq,"ax",%progbits
 332              		.align	1
 333              		.thumb
 334              		.thumb_func
 335              		.type	i2c_lld_serve_rx_end_irq, %function
 336              	i2c_lld_serve_rx_end_irq:
 337              	.LFB328:
 338              		.loc 1 349 0
 339              		.cfi_startproc
 340              		@ args = 0, pretend = 0, frame = 0
 341              		@ frame_needed = 0, uses_anonymous_args = 0
 342              	.LVL22:
ARM GAS  /tmp/ccI5Hmtd.s 			page 7


 343              		.loc 1 354 0
 344 0000 11F00C0F 		tst	r1, #12
 345              		.loc 1 349 0
 346 0004 70B5     		push	{r4, r5, r6, lr}
 347              		.cfi_def_cfa_offset 16
 348              		.cfi_offset 4, -16
 349              		.cfi_offset 5, -12
 350              		.cfi_offset 6, -8
 351              		.cfi_offset 14, -4
 352              		.loc 1 349 0
 353 0006 0646     		mov	r6, r0
 354              		.loc 1 350 0
 355 0008 446B     		ldr	r4, [r0, #52]
 356              	.LVL23:
 357              		.loc 1 354 0
 358 000a 02D0     		beq	.L44
 359              	.LVL24:
 360              	.LBB124:
 361              	.LBB125:
 362              		.loc 4 480 0
 363 000c 1648     		ldr	r0, .L50
 364              	.LVL25:
 365 000e FFF7FEFF 		bl	chSysHalt
 366              	.LVL26:
 367              	.L44:
 368              	.LBE125:
 369              	.LBE124:
 370              		.loc 1 361 0
 371 0012 F36A     		ldr	r3, [r6, #44]
 372 0014 1A68     		ldr	r2, [r3]
 373 0016 1168     		ldr	r1, [r2]
 374 0018 21F01F01 		bic	r1, r1, #31
 375 001c 1160     		str	r1, [r2]
 376              	.L45:
 377              		.loc 1 361 0 is_stmt 0 discriminator 2
 378 001e 1568     		ldr	r5, [r2]
 379 0020 15F00105 		ands	r5, r5, #1
 380 0024 FBD1     		bne	.L45
 381              		.loc 1 361 0 discriminator 3
 382 0026 597A     		ldrb	r1, [r3, #9]	@ zero_extendqisi2
 383 0028 5A68     		ldr	r2, [r3, #4]
 384 002a 3D23     		movs	r3, #61
 385 002c 8B40     		lsls	r3, r3, r1
 386 002e 1360     		str	r3, [r2]
 387              		.loc 1 363 0 is_stmt 1 discriminator 3
 388 0030 6368     		ldr	r3, [r4, #4]
 389 0032 23F48053 		bic	r3, r3, #4096
 390 0036 6360     		str	r3, [r4, #4]
 391              		.loc 1 364 0 discriminator 3
 392 0038 2368     		ldr	r3, [r4]
 393 003a 23F48063 		bic	r3, r3, #1024
 394 003e 2360     		str	r3, [r4]
 395              		.loc 1 365 0 discriminator 3
 396 0040 2368     		ldr	r3, [r4]
 397 0042 43F40073 		orr	r3, r3, #512
 398 0046 2360     		str	r3, [r4]
 399              	.LVL27:
ARM GAS  /tmp/ccI5Hmtd.s 			page 8


 400              	.LBB126:
 401              	.LBB127:
 402              	.LBB128:
 403              	.LBB129:
 404              	.LBB130:
 405              	.LBB131:
 406              	.LBB132:
 407              		.loc 2 493 0 discriminator 3
 408 0048 2023     		movs	r3, #32
 409              		.syntax unified
 410              	@ 493 "../../modules/ChibiOS/os/common/ext/ARM/CMSIS/Core/Include/cmsis_gcc.h" 1
 411 004a 83F31188 		MSR basepri, r3
 412              	@ 0 "" 2
 413              	.LVL28:
 414              		.thumb
 415              		.syntax unified
 416              	.LBE132:
 417              	.LBE131:
 418              	.LBE130:
 419              	.LBE129:
 420              		.loc 3 396 0 discriminator 3
 421 004e FFF7FEFF 		bl	_stats_start_measure_crit_isr
 422              	.LVL29:
 423              	.LBE128:
 424              	.LBE127:
 425              	.LBE126:
 426              	.LBB133:
 427              	.LBB134:
 428              		.loc 4 775 0 discriminator 3
 429 0052 2946     		mov	r1, r5
 430 0054 06F11C00 		add	r0, r6, #28
 431              	.LVL30:
 432 0058 FFF7FEFF 		bl	chThdResumeI
 433              	.LVL31:
 434              	.LBE134:
 435              	.LBE133:
 436              	.LBB135:
 437              	.LBB136:
 438              	.LBB137:
 439              		.loc 3 416 0 discriminator 3
 440 005c FFF7FEFF 		bl	_stats_stop_measure_crit_isr
 441              	.LVL32:
 442              	.LBB138:
 443              	.LBB139:
 444              	.LBB140:
 445              	.LBB141:
 446              		.loc 2 493 0 discriminator 3
 447              		.syntax unified
 448              	@ 493 "../../modules/ChibiOS/os/common/ext/ARM/CMSIS/Core/Include/cmsis_gcc.h" 1
 449 0060 85F31188 		MSR basepri, r5
 450              	@ 0 "" 2
 451              	.LVL33:
 452              		.thumb
 453              		.syntax unified
 454 0064 70BD     		pop	{r4, r5, r6, pc}
 455              	.LVL34:
 456              	.L51:
ARM GAS  /tmp/ccI5Hmtd.s 			page 9


 457 0066 00BF     		.align	2
 458              	.L50:
 459 0068 00000000 		.word	.LC0
 460              	.LBE141:
 461              	.LBE140:
 462              	.LBE139:
 463              	.LBE138:
 464              	.LBE137:
 465              	.LBE136:
 466              	.LBE135:
 467              		.cfi_endproc
 468              	.LFE328:
 469              		.size	i2c_lld_serve_rx_end_irq, .-i2c_lld_serve_rx_end_irq
 470              		.section	.text.i2c_lld_serve_error_interrupt,"ax",%progbits
 471              		.align	1
 472              		.thumb
 473              		.thumb_func
 474              		.type	i2c_lld_serve_error_interrupt, %function
 475              	i2c_lld_serve_error_interrupt:
 476              	.LFB330:
 477              		.loc 1 403 0
 478              		.cfi_startproc
 479              		@ args = 0, pretend = 0, frame = 0
 480              		@ frame_needed = 0, uses_anonymous_args = 0
 481              	.LVL35:
 482              		.loc 1 406 0
 483 0000 036B     		ldr	r3, [r0, #48]
 484 0002 1A68     		ldr	r2, [r3]
 485              		.loc 1 403 0
 486 0004 10B5     		push	{r4, lr}
 487              		.cfi_def_cfa_offset 8
 488              		.cfi_offset 4, -8
 489              		.cfi_offset 14, -4
 490              		.loc 1 403 0
 491 0006 0446     		mov	r4, r0
 492              		.loc 1 406 0
 493 0008 1068     		ldr	r0, [r2]
 494              	.LVL36:
 495 000a 20F01F00 		bic	r0, r0, #31
 496 000e 1060     		str	r0, [r2]
 497              	.L53:
 498              		.loc 1 406 0 is_stmt 0 discriminator 2
 499 0010 1068     		ldr	r0, [r2]
 500 0012 C007     		lsls	r0, r0, #31
 501 0014 FCD4     		bmi	.L53
 502              		.loc 1 406 0 discriminator 3
 503 0016 587A     		ldrb	r0, [r3, #9]	@ zero_extendqisi2
 504 0018 5A68     		ldr	r2, [r3, #4]
 505 001a 3D23     		movs	r3, #61
 506 001c 8340     		lsls	r3, r3, r0
 507 001e 1360     		str	r3, [r2]
 508              		.loc 1 407 0 is_stmt 1 discriminator 3
 509 0020 E36A     		ldr	r3, [r4, #44]
 510 0022 1A68     		ldr	r2, [r3]
 511 0024 1068     		ldr	r0, [r2]
 512 0026 20F01F00 		bic	r0, r0, #31
 513 002a 1060     		str	r0, [r2]
ARM GAS  /tmp/ccI5Hmtd.s 			page 10


 514              	.L54:
 515              		.loc 1 407 0 is_stmt 0 discriminator 2
 516 002c 1068     		ldr	r0, [r2]
 517 002e C007     		lsls	r0, r0, #31
 518 0030 FCD4     		bmi	.L54
 519              		.loc 1 407 0 discriminator 3
 520 0032 587A     		ldrb	r0, [r3, #9]	@ zero_extendqisi2
 521 0034 5A68     		ldr	r2, [r3, #4]
 522 0036 3D23     		movs	r3, #61
 523 0038 8340     		lsls	r3, r3, r0
 524 003a 1360     		str	r3, [r2]
 525              		.loc 1 411 0 is_stmt 1 discriminator 3
 526 003c 01F48073 		and	r3, r1, #256
 527 0040 9BB2     		uxth	r3, r3
 528 0042 03B1     		cbz	r3, .L84
 529              		.loc 1 412 0
 530 0044 0123     		movs	r3, #1
 531              	.L84:
 532              		.loc 1 414 0
 533 0046 8805     		lsls	r0, r1, #22
 534              		.loc 1 412 0
 535 0048 A360     		str	r3, [r4, #8]
 536              		.loc 1 415 0
 537 004a 42BF     		ittt	mi
 538 004c A368     		ldrmi	r3, [r4, #8]
 539 004e 43F00203 		orrmi	r3, r3, #2
 540 0052 A360     		strmi	r3, [r4, #8]
 541              		.loc 1 417 0
 542 0054 4A05     		lsls	r2, r1, #21
 543 0056 0CD5     		bpl	.L58
 544              		.loc 1 418 0
 545 0058 636B     		ldr	r3, [r4, #52]
 546 005a 5A68     		ldr	r2, [r3, #4]
 547 005c 22F40072 		bic	r2, r2, #512
 548 0060 5A60     		str	r2, [r3, #4]
 549              		.loc 1 419 0
 550 0062 1A68     		ldr	r2, [r3]
 551 0064 42F40072 		orr	r2, r2, #512
 552 0068 1A60     		str	r2, [r3]
 553              		.loc 1 420 0
 554 006a A368     		ldr	r3, [r4, #8]
 555 006c 43F00403 		orr	r3, r3, #4
 556 0070 A360     		str	r3, [r4, #8]
 557              	.L58:
 558              		.loc 1 423 0
 559 0072 0B05     		lsls	r3, r1, #20
 560              		.loc 1 424 0
 561 0074 42BF     		ittt	mi
 562 0076 A368     		ldrmi	r3, [r4, #8]
 563 0078 43F00803 		orrmi	r3, r3, #8
 564 007c A360     		strmi	r3, [r4, #8]
 565              		.loc 1 426 0
 566 007e 4804     		lsls	r0, r1, #17
 567              		.loc 1 427 0
 568 0080 42BF     		ittt	mi
 569 0082 A368     		ldrmi	r3, [r4, #8]
 570 0084 43F02003 		orrmi	r3, r3, #32
ARM GAS  /tmp/ccI5Hmtd.s 			page 11


 571 0088 A360     		strmi	r3, [r4, #8]
 572              		.loc 1 429 0
 573 008a CA04     		lsls	r2, r1, #19
 574              		.loc 1 430 0
 575 008c 42BF     		ittt	mi
 576 008e A368     		ldrmi	r3, [r4, #8]
 577 0090 43F01003 		orrmi	r3, r3, #16
 578 0094 A360     		strmi	r3, [r4, #8]
 579              		.loc 1 432 0
 580 0096 0B04     		lsls	r3, r1, #16
 581              		.loc 1 433 0
 582 0098 42BF     		ittt	mi
 583 009a A368     		ldrmi	r3, [r4, #8]
 584 009c 43F04003 		orrmi	r3, r3, #64
 585 00a0 A360     		strmi	r3, [r4, #8]
 586              		.loc 1 436 0
 587 00a2 A368     		ldr	r3, [r4, #8]
 588 00a4 7BB1     		cbz	r3, .L52
 589              	.LVL37:
 590              	.LBB160:
 591              	.LBB161:
 592              	.LBB162:
 593              	.LBB163:
 594              	.LBB164:
 595              	.LBB165:
 596              	.LBB166:
 597              		.loc 2 493 0
 598 00a6 2023     		movs	r3, #32
 599              		.syntax unified
 600              	@ 493 "../../modules/ChibiOS/os/common/ext/ARM/CMSIS/Core/Include/cmsis_gcc.h" 1
 601 00a8 83F31188 		MSR basepri, r3
 602              	@ 0 "" 2
 603              	.LVL38:
 604              		.thumb
 605              		.syntax unified
 606              	.LBE166:
 607              	.LBE165:
 608              	.LBE164:
 609              	.LBE163:
 610              		.loc 3 396 0
 611 00ac FFF7FEFF 		bl	_stats_start_measure_crit_isr
 612              	.LVL39:
 613              	.LBE162:
 614              	.LBE161:
 615              	.LBE160:
 616              	.LBB167:
 617              	.LBB168:
 618              		.loc 4 775 0
 619 00b0 6FF00101 		mvn	r1, #1
 620 00b4 04F11C00 		add	r0, r4, #28
 621              	.LVL40:
 622 00b8 FFF7FEFF 		bl	chThdResumeI
 623              	.LVL41:
 624              	.LBE168:
 625              	.LBE167:
 626              	.LBB169:
 627              	.LBB170:
ARM GAS  /tmp/ccI5Hmtd.s 			page 12


 628              	.LBB171:
 629              		.loc 3 416 0
 630 00bc FFF7FEFF 		bl	_stats_stop_measure_crit_isr
 631              	.LVL42:
 632              	.LBB172:
 633              	.LBB173:
 634              	.LBB174:
 635              	.LBB175:
 636              		.loc 2 493 0
 637 00c0 0023     		movs	r3, #0
 638              		.syntax unified
 639              	@ 493 "../../modules/ChibiOS/os/common/ext/ARM/CMSIS/Core/Include/cmsis_gcc.h" 1
 640 00c2 83F31188 		MSR basepri, r3
 641              	@ 0 "" 2
 642              	.LVL43:
 643              		.thumb
 644              		.syntax unified
 645              	.L52:
 646 00c6 10BD     		pop	{r4, pc}
 647              	.LBE175:
 648              	.LBE174:
 649              	.LBE173:
 650              	.LBE172:
 651              	.LBE171:
 652              	.LBE170:
 653              	.LBE169:
 654              		.cfi_endproc
 655              	.LFE330:
 656              		.size	i2c_lld_serve_error_interrupt, .-i2c_lld_serve_error_interrupt
 657              		.section	.text.VectorBC,"ax",%progbits
 658              		.align	1
 659              		.global	VectorBC
 660              		.thumb
 661              		.thumb_func
 662              		.type	VectorBC, %function
 663              	VectorBC:
 664              	.LFB331:
 665              		.loc 1 450 0
 666              		.cfi_startproc
 667              		@ args = 0, pretend = 0, frame = 0
 668              		@ frame_needed = 0, uses_anonymous_args = 0
 669 0000 08B5     		push	{r3, lr}
 670              		.cfi_def_cfa_offset 8
 671              		.cfi_offset 3, -8
 672              		.cfi_offset 14, -4
 673              		.loc 1 452 0
 674 0002 FFF7FEFF 		bl	_stats_increase_irq
 675              	.LVL44:
 676              		.loc 1 454 0
 677 0006 0348     		ldr	r0, .L86
 678 0008 FFF7FEFF 		bl	i2c_lld_serve_event_interrupt
 679              	.LVL45:
 680              		.loc 1 457 0
 681 000c BDE80840 		pop	{r3, lr}
 682              		.cfi_restore 14
 683              		.cfi_restore 3
 684              		.cfi_def_cfa_offset 0
ARM GAS  /tmp/ccI5Hmtd.s 			page 13


 685              		.loc 1 456 0
 686 0010 FFF7FEBF 		b	_port_irq_epilogue
 687              	.LVL46:
 688              	.L87:
 689              		.align	2
 690              	.L86:
 691 0014 00000000 		.word	.LANCHOR0
 692              		.cfi_endproc
 693              	.LFE331:
 694              		.size	VectorBC, .-VectorBC
 695              		.section	.text.VectorC0,"ax",%progbits
 696              		.align	1
 697              		.global	VectorC0
 698              		.thumb
 699              		.thumb_func
 700              		.type	VectorC0, %function
 701              	VectorC0:
 702              	.LFB332:
 703              		.loc 1 462 0
 704              		.cfi_startproc
 705              		@ args = 0, pretend = 0, frame = 0
 706              		@ frame_needed = 0, uses_anonymous_args = 0
 707 0000 38B5     		push	{r3, r4, r5, lr}
 708              		.cfi_def_cfa_offset 16
 709              		.cfi_offset 3, -16
 710              		.cfi_offset 4, -12
 711              		.cfi_offset 5, -8
 712              		.cfi_offset 14, -4
 713              		.loc 1 463 0
 714 0002 094D     		ldr	r5, .L89
 715 0004 6B6B     		ldr	r3, [r5, #52]
 716 0006 5C69     		ldr	r4, [r3, #20]
 717              	.LVL47:
 718              		.loc 1 465 0
 719 0008 FFF7FEFF 		bl	_stats_increase_irq
 720              	.LVL48:
 721              		.loc 1 467 0
 722 000c A1B2     		uxth	r1, r4
 723 000e 6A6B     		ldr	r2, [r5, #52]
 724 0010 01F45F43 		and	r3, r1, #57088
 725 0014 DB43     		mvns	r3, r3
 726 0016 5361     		str	r3, [r2, #20]
 727              		.loc 1 468 0
 728 0018 2846     		mov	r0, r5
 729 001a FFF7FEFF 		bl	i2c_lld_serve_error_interrupt
 730              	.LVL49:
 731              		.loc 1 471 0
 732 001e BDE83840 		pop	{r3, r4, r5, lr}
 733              		.cfi_restore 14
 734              		.cfi_restore 5
 735              		.cfi_restore 4
 736              		.cfi_restore 3
 737              		.cfi_def_cfa_offset 0
 738              	.LVL50:
 739              		.loc 1 470 0
 740 0022 FFF7FEBF 		b	_port_irq_epilogue
 741              	.LVL51:
ARM GAS  /tmp/ccI5Hmtd.s 			page 14


 742              	.L90:
 743 0026 00BF     		.align	2
 744              	.L89:
 745 0028 00000000 		.word	.LANCHOR0
 746              		.cfi_endproc
 747              	.LFE332:
 748              		.size	VectorC0, .-VectorC0
 749              		.section	.text.VectorC4,"ax",%progbits
 750              		.align	1
 751              		.global	VectorC4
 752              		.thumb
 753              		.thumb_func
 754              		.type	VectorC4, %function
 755              	VectorC4:
 756              	.LFB333:
 757              		.loc 1 480 0
 758              		.cfi_startproc
 759              		@ args = 0, pretend = 0, frame = 0
 760              		@ frame_needed = 0, uses_anonymous_args = 0
 761 0000 08B5     		push	{r3, lr}
 762              		.cfi_def_cfa_offset 8
 763              		.cfi_offset 3, -8
 764              		.cfi_offset 14, -4
 765              		.loc 1 482 0
 766 0002 FFF7FEFF 		bl	_stats_increase_irq
 767              	.LVL52:
 768              		.loc 1 484 0
 769 0006 0348     		ldr	r0, .L92
 770 0008 FFF7FEFF 		bl	i2c_lld_serve_event_interrupt
 771              	.LVL53:
 772              		.loc 1 487 0
 773 000c BDE80840 		pop	{r3, lr}
 774              		.cfi_restore 14
 775              		.cfi_restore 3
 776              		.cfi_def_cfa_offset 0
 777              		.loc 1 486 0
 778 0010 FFF7FEBF 		b	_port_irq_epilogue
 779              	.LVL54:
 780              	.L93:
 781              		.align	2
 782              	.L92:
 783 0014 00000000 		.word	.LANCHOR1
 784              		.cfi_endproc
 785              	.LFE333:
 786              		.size	VectorC4, .-VectorC4
 787              		.section	.text.VectorC8,"ax",%progbits
 788              		.align	1
 789              		.global	VectorC8
 790              		.thumb
 791              		.thumb_func
 792              		.type	VectorC8, %function
 793              	VectorC8:
 794              	.LFB334:
 795              		.loc 1 494 0
 796              		.cfi_startproc
 797              		@ args = 0, pretend = 0, frame = 0
 798              		@ frame_needed = 0, uses_anonymous_args = 0
ARM GAS  /tmp/ccI5Hmtd.s 			page 15


 799 0000 38B5     		push	{r3, r4, r5, lr}
 800              		.cfi_def_cfa_offset 16
 801              		.cfi_offset 3, -16
 802              		.cfi_offset 4, -12
 803              		.cfi_offset 5, -8
 804              		.cfi_offset 14, -4
 805              		.loc 1 495 0
 806 0002 094D     		ldr	r5, .L95
 807 0004 6B6B     		ldr	r3, [r5, #52]
 808 0006 5C69     		ldr	r4, [r3, #20]
 809              	.LVL55:
 810              		.loc 1 497 0
 811 0008 FFF7FEFF 		bl	_stats_increase_irq
 812              	.LVL56:
 813              		.loc 1 499 0
 814 000c A1B2     		uxth	r1, r4
 815 000e 6A6B     		ldr	r2, [r5, #52]
 816 0010 01F45F43 		and	r3, r1, #57088
 817 0014 DB43     		mvns	r3, r3
 818 0016 5361     		str	r3, [r2, #20]
 819              		.loc 1 500 0
 820 0018 2846     		mov	r0, r5
 821 001a FFF7FEFF 		bl	i2c_lld_serve_error_interrupt
 822              	.LVL57:
 823              		.loc 1 503 0
 824 001e BDE83840 		pop	{r3, r4, r5, lr}
 825              		.cfi_restore 14
 826              		.cfi_restore 5
 827              		.cfi_restore 4
 828              		.cfi_restore 3
 829              		.cfi_def_cfa_offset 0
 830              	.LVL58:
 831              		.loc 1 502 0
 832 0022 FFF7FEBF 		b	_port_irq_epilogue
 833              	.LVL59:
 834              	.L96:
 835 0026 00BF     		.align	2
 836              	.L95:
 837 0028 00000000 		.word	.LANCHOR1
 838              		.cfi_endproc
 839              	.LFE334:
 840              		.size	VectorC8, .-VectorC8
 841              		.section	.text.i2c_lld_init,"ax",%progbits
 842              		.align	1
 843              		.global	i2c_lld_init
 844              		.thumb
 845              		.thumb_func
 846              		.type	i2c_lld_init, %function
 847              	i2c_lld_init:
 848              	.LFB335:
 849              		.loc 1 547 0
 850              		.cfi_startproc
 851              		@ args = 0, pretend = 0, frame = 0
 852              		@ frame_needed = 0, uses_anonymous_args = 0
 853 0000 38B5     		push	{r3, r4, r5, lr}
 854              		.cfi_def_cfa_offset 16
 855              		.cfi_offset 3, -16
ARM GAS  /tmp/ccI5Hmtd.s 			page 16


 856              		.cfi_offset 4, -12
 857              		.cfi_offset 5, -8
 858              		.cfi_offset 14, -4
 859              		.loc 1 550 0
 860 0002 0A4D     		ldr	r5, .L98
 861 0004 2846     		mov	r0, r5
 862 0006 FFF7FEFF 		bl	i2cObjectInit
 863              	.LVL60:
 864              		.loc 1 551 0
 865 000a 0024     		movs	r4, #0
 866              		.loc 1 552 0
 867 000c 084B     		ldr	r3, .L98+4
 868 000e 6B63     		str	r3, [r5, #52]
 869              		.loc 1 551 0
 870 0010 EC61     		str	r4, [r5, #28]
 871              		.loc 1 553 0
 872 0012 EC62     		str	r4, [r5, #44]
 873              		.loc 1 554 0
 874 0014 2C63     		str	r4, [r5, #48]
 875              		.loc 1 558 0
 876 0016 074D     		ldr	r5, .L98+8
 877 0018 2846     		mov	r0, r5
 878 001a FFF7FEFF 		bl	i2cObjectInit
 879              	.LVL61:
 880              		.loc 1 560 0
 881 001e 064B     		ldr	r3, .L98+12
 882              		.loc 1 559 0
 883 0020 EC61     		str	r4, [r5, #28]
 884              		.loc 1 560 0
 885 0022 6B63     		str	r3, [r5, #52]
 886              		.loc 1 561 0
 887 0024 EC62     		str	r4, [r5, #44]
 888              		.loc 1 562 0
 889 0026 2C63     		str	r4, [r5, #48]
 890 0028 38BD     		pop	{r3, r4, r5, pc}
 891              	.L99:
 892 002a 00BF     		.align	2
 893              	.L98:
 894 002c 00000000 		.word	.LANCHOR0
 895 0030 00540040 		.word	1073763328
 896 0034 00000000 		.word	.LANCHOR1
 897 0038 00580040 		.word	1073764352
 898              		.cfi_endproc
 899              	.LFE335:
 900              		.size	i2c_lld_init, .-i2c_lld_init
 901              		.section	.text.i2c_lld_start,"ax",%progbits
 902              		.align	1
 903              		.global	i2c_lld_start
 904              		.thumb
 905              		.thumb_func
 906              		.type	i2c_lld_start, %function
 907              	i2c_lld_start:
 908              	.LFB336:
 909              		.loc 1 581 0
 910              		.cfi_startproc
 911              		@ args = 0, pretend = 0, frame = 0
 912              		@ frame_needed = 0, uses_anonymous_args = 0
ARM GAS  /tmp/ccI5Hmtd.s 			page 17


 913              	.LVL62:
 914 0000 F8B5     		push	{r3, r4, r5, r6, r7, lr}
 915              		.cfi_def_cfa_offset 24
 916              		.cfi_offset 3, -24
 917              		.cfi_offset 4, -20
 918              		.cfi_offset 5, -16
 919              		.cfi_offset 6, -12
 920              		.cfi_offset 7, -8
 921              		.cfi_offset 14, -4
 922              		.loc 1 585 0
 923 0002 0378     		ldrb	r3, [r0]	@ zero_extendqisi2
 924              		.loc 1 582 0
 925 0004 456B     		ldr	r5, [r0, #52]
 926              	.LVL63:
 927              		.loc 1 585 0
 928 0006 012B     		cmp	r3, #1
 929              		.loc 1 581 0
 930 0008 0446     		mov	r4, r0
 931              		.loc 1 585 0
 932 000a 73D1     		bne	.L102
 933              		.loc 1 587 0
 934 000c 40F25643 		movw	r3, #1110
 935 0010 8362     		str	r3, [r0, #40]
 936              		.loc 1 591 0
 937 0012 40F21643 		movw	r3, #1046
 938 0016 4362     		str	r3, [r0, #36]
 939              		.loc 1 597 0
 940 0018 6A4B     		ldr	r3, .L117
 941 001a 9842     		cmp	r0, r3
 942 001c 32D1     		bne	.L103
 943              		.loc 1 598 0
 944 001e 6A4E     		ldr	r6, .L117+4
 945              		.loc 1 600 0
 946 0020 6A4A     		ldr	r2, .L117+8
 947              		.loc 1 598 0
 948 0022 336A     		ldr	r3, [r6, #32]
 949 0024 43F40013 		orr	r3, r3, #2097152
 950 0028 3362     		str	r3, [r6, #32]
 951 002a 336A     		ldr	r3, [r6, #32]
 952 002c 23F40013 		bic	r3, r3, #2097152
 953 0030 3362     		str	r3, [r6, #32]
 954 0032 336A     		ldr	r3, [r6, #32]
 955              		.loc 1 600 0
 956 0034 0521     		movs	r1, #5
 957 0036 0346     		mov	r3, r0
 958 0038 0020     		movs	r0, #0
 959              	.LVL64:
 960 003a FFF7FEFF 		bl	dmaStreamAllocI
 961              	.LVL65:
 962              		.loc 1 605 0
 963 003e 644A     		ldr	r2, .L117+12
 964              		.loc 1 600 0
 965 0040 E062     		str	r0, [r4, #44]
 966              		.loc 1 605 0
 967 0042 2346     		mov	r3, r4
 968 0044 0521     		movs	r1, #5
 969 0046 0620     		movs	r0, #6
ARM GAS  /tmp/ccI5Hmtd.s 			page 18


 970 0048 FFF7FEFF 		bl	dmaStreamAllocI
 971              	.LVL66:
 972              		.loc 1 611 0
 973 004c 336C     		ldr	r3, [r6, #64]
 974              		.loc 1 605 0
 975 004e 2063     		str	r0, [r4, #48]
 976              		.loc 1 611 0
 977 0050 43F40013 		orr	r3, r3, #2097152
 978 0054 3364     		str	r3, [r6, #64]
 979 0056 336E     		ldr	r3, [r6, #96]
 980 0058 43F40013 		orr	r3, r3, #2097152
 981 005c 3366     		str	r3, [r6, #96]
 982              		.loc 1 612 0
 983 005e 0521     		movs	r1, #5
 984 0060 1F20     		movs	r0, #31
 985              		.loc 1 611 0
 986 0062 336E     		ldr	r3, [r6, #96]
 987              		.loc 1 612 0
 988 0064 FFF7FEFF 		bl	nvicEnableVector
 989              	.LVL67:
 990              		.loc 1 613 0
 991 0068 0521     		movs	r1, #5
 992 006a 2020     		movs	r0, #32
 993 006c FFF7FEFF 		bl	nvicEnableVector
 994              	.LVL68:
 995              		.loc 1 615 0
 996 0070 636A     		ldr	r3, [r4, #36]
 997 0072 43F00073 		orr	r3, r3, #33554432
 998 0076 43F44033 		orr	r3, r3, #196608
 999 007a 6362     		str	r3, [r4, #36]
 1000              		.loc 1 617 0
 1001 007c A36A     		ldr	r3, [r4, #40]
 1002 007e 43F00073 		orr	r3, r3, #33554432
 1003 0082 34E0     		b	.L115
 1004              	.LVL69:
 1005              	.L103:
 1006              		.loc 1 623 0
 1007 0084 534B     		ldr	r3, .L117+16
 1008 0086 9842     		cmp	r0, r3
 1009 0088 34D1     		bne	.L102
 1010              		.loc 1 624 0
 1011 008a 4F4E     		ldr	r6, .L117+4
 1012              		.loc 1 626 0
 1013 008c 4F4A     		ldr	r2, .L117+8
 1014              		.loc 1 624 0
 1015 008e 336A     		ldr	r3, [r6, #32]
 1016 0090 43F48003 		orr	r3, r3, #4194304
 1017 0094 3362     		str	r3, [r6, #32]
 1018 0096 336A     		ldr	r3, [r6, #32]
 1019 0098 23F48003 		bic	r3, r3, #4194304
 1020 009c 3362     		str	r3, [r6, #32]
 1021 009e 336A     		ldr	r3, [r6, #32]
 1022              		.loc 1 626 0
 1023 00a0 0521     		movs	r1, #5
 1024 00a2 0346     		mov	r3, r0
 1025 00a4 0320     		movs	r0, #3
 1026              	.LVL70:
ARM GAS  /tmp/ccI5Hmtd.s 			page 19


 1027 00a6 FFF7FEFF 		bl	dmaStreamAllocI
 1028              	.LVL71:
 1029              		.loc 1 631 0
 1030 00aa 494A     		ldr	r2, .L117+12
 1031              		.loc 1 626 0
 1032 00ac E062     		str	r0, [r4, #44]
 1033              		.loc 1 631 0
 1034 00ae 2346     		mov	r3, r4
 1035 00b0 0521     		movs	r1, #5
 1036 00b2 0720     		movs	r0, #7
 1037 00b4 FFF7FEFF 		bl	dmaStreamAllocI
 1038              	.LVL72:
 1039              		.loc 1 637 0
 1040 00b8 336C     		ldr	r3, [r6, #64]
 1041              		.loc 1 631 0
 1042 00ba 2063     		str	r0, [r4, #48]
 1043              		.loc 1 637 0
 1044 00bc 43F48003 		orr	r3, r3, #4194304
 1045 00c0 3364     		str	r3, [r6, #64]
 1046 00c2 336E     		ldr	r3, [r6, #96]
 1047 00c4 43F48003 		orr	r3, r3, #4194304
 1048 00c8 3366     		str	r3, [r6, #96]
 1049              		.loc 1 638 0
 1050 00ca 0521     		movs	r1, #5
 1051 00cc 2120     		movs	r0, #33
 1052              		.loc 1 637 0
 1053 00ce 336E     		ldr	r3, [r6, #96]
 1054              		.loc 1 638 0
 1055 00d0 FFF7FEFF 		bl	nvicEnableVector
 1056              	.LVL73:
 1057              		.loc 1 639 0
 1058 00d4 0521     		movs	r1, #5
 1059 00d6 2220     		movs	r0, #34
 1060 00d8 FFF7FEFF 		bl	nvicEnableVector
 1061              	.LVL74:
 1062              		.loc 1 641 0
 1063 00dc 636A     		ldr	r3, [r4, #36]
 1064 00de 43F06063 		orr	r3, r3, #234881024
 1065 00e2 43F44033 		orr	r3, r3, #196608
 1066 00e6 6362     		str	r3, [r4, #36]
 1067              		.loc 1 643 0
 1068 00e8 A36A     		ldr	r3, [r4, #40]
 1069 00ea 43F06063 		orr	r3, r3, #234881024
 1070              	.L115:
 1071 00ee 43F44033 		orr	r3, r3, #196608
 1072 00f2 A362     		str	r3, [r4, #40]
 1073              	.L102:
 1074              		.loc 1 676 0
 1075 00f4 E36A     		ldr	r3, [r4, #44]
 1076 00f6 1A68     		ldr	r2, [r3]
 1077 00f8 05F11003 		add	r3, r5, #16
 1078 00fc 9360     		str	r3, [r2, #8]
 1079              		.loc 1 677 0
 1080 00fe 226B     		ldr	r2, [r4, #48]
 1081 0100 1268     		ldr	r2, [r2]
 1082 0102 9360     		str	r3, [r2, #8]
 1083              		.loc 1 680 0
ARM GAS  /tmp/ccI5Hmtd.s 			page 20


 1084 0104 4FF40043 		mov	r3, #32768
 1085 0108 2B60     		str	r3, [r5]
 1086              		.loc 1 682 0
 1087 010a 4FF41062 		mov	r2, #2304
 1088              		.loc 1 681 0
 1089 010e 0023     		movs	r3, #0
 1090 0110 2B60     		str	r3, [r5]
 1091              		.loc 1 682 0
 1092 0112 6A60     		str	r2, [r5, #4]
 1093              	.LVL75:
 1094              	.LBB182:
 1095              	.LBB183:
 1096              		.loc 1 144 0
 1097 0114 626B     		ldr	r2, [r4, #52]
 1098              	.LVL76:
 1099              		.loc 1 146 0
 1100 0116 6468     		ldr	r4, [r4, #4]
 1101              	.LVL77:
 1102              		.loc 1 154 0
 1103 0118 5768     		ldr	r7, [r2, #4]
 1104              		.loc 1 146 0
 1105 011a 6168     		ldr	r1, [r4, #4]
 1106              	.LVL78:
 1107              		.loc 1 147 0
 1108 011c 267A     		ldrb	r6, [r4, #8]	@ zero_extendqisi2
 1109              	.LVL79:
 1110              		.loc 1 154 0
 1111 011e 4FF6C070 		movw	r0, #65472
 1112 0122 3840     		ands	r0, r0, r7
 1113 0124 5060     		str	r0, [r2, #4]
 1114              		.loc 1 155 0
 1115 0126 5068     		ldr	r0, [r2, #4]
 1116 0128 40F02A00 		orr	r0, r0, #42
 1117 012c 5060     		str	r0, [r2, #4]
 1118              	.LVL80:
 1119              		.loc 1 161 0
 1120 012e 2A48     		ldr	r0, .L117+20
 1121 0130 8142     		cmp	r1, r0
 1122 0132 07DC     		bgt	.L105
 1123              	.LVL81:
 1124              		.loc 1 172 0
 1125 0134 4900     		lsls	r1, r1, #1
 1126              	.LVL82:
 1127 0136 294B     		ldr	r3, .L117+24
 1128 0138 B3FBF1F3 		udiv	r3, r3, r1
 1129              		.loc 1 175 0
 1130 013c 2B21     		movs	r1, #43
 1131              		.loc 1 172 0
 1132 013e C3F30B03 		ubfx	r3, r3, #0, #12
 1133              	.LVL83:
 1134 0142 1FE0     		b	.L116
 1135              	.LVL84:
 1136              	.L105:
 1137              		.loc 1 177 0
 1138 0144 2648     		ldr	r0, .L117+28
 1139 0146 8142     		cmp	r1, r0
 1140 0148 1DDC     		bgt	.L106
ARM GAS  /tmp/ccI5Hmtd.s 			page 21


 1141              		.loc 1 183 0
 1142 014a 022E     		cmp	r6, #2
 1143 014c 09D1     		bne	.L107
 1144              		.loc 1 187 0
 1145 014e 00F11E70 		add	r0, r0, #41418752
 1146 0152 01EB4101 		add	r1, r1, r1, lsl #1
 1147              	.LVL85:
 1148 0156 00F53130 		add	r0, r0, #181248
 1149 015a B0FBF1F1 		udiv	r1, r0, r1
 1150 015e 89B2     		uxth	r1, r1
 1151              	.LVL86:
 1152 0160 0CE0     		b	.L108
 1153              	.LVL87:
 1154              	.L107:
 1155              		.loc 1 189 0
 1156 0162 032E     		cmp	r6, #3
 1157              		.loc 1 193 0
 1158 0164 01BF     		itttt	eq
 1159 0166 1923     		moveq	r3, #25
 1160 0168 5943     		muleq	r1, r3, r1
 1161              	.LVL88:
 1162 016a 1C48     		ldreq	r0, .L117+24
 1163 016c B0FBF1F3 		udiveq	r3, r0, r1
 1164              		.loc 1 159 0
 1165 0170 12BF     		itee	ne
 1166 0172 40F6FF71 		movwne	r1, #4095
 1167              		.loc 1 193 0
 1168 0176 99B2     		uxtheq	r1, r3
 1169              	.LVL89:
 1170              		.loc 1 194 0
 1171 0178 4FF48043 		moveq	r3, #16384
 1172              	.LVL90:
 1173              	.L108:
 1174              		.loc 1 199 0
 1175 017c 0B43     		orrs	r3, r3, r1
 1176              	.LVL91:
 1177 017e 43F40043 		orr	r3, r3, #32768
 1178              	.LVL92:
 1179              		.loc 1 202 0
 1180 0182 0D21     		movs	r1, #13
 1181              	.LVL93:
 1182              	.L116:
 1183 0184 1162     		str	r1, [r2, #32]
 1184              	.LVL94:
 1185              	.L106:
 1186              		.loc 1 207 0
 1187 0186 D361     		str	r3, [r2, #28]
 1188              	.LVL95:
 1189              	.LBE183:
 1190              	.LBE182:
 1191              	.LBB184:
 1192              	.LBB185:
 1193              		.loc 1 244 0
 1194 0188 1F23     		movs	r3, #31
 1195 018a 5362     		str	r3, [r2, #36]
 1196              	.LVL96:
 1197              	.LBE185:
ARM GAS  /tmp/ccI5Hmtd.s 			page 22


 1198              	.LBE184:
 1199              	.LBB186:
 1200              	.LBB187:
 1201              		.loc 1 261 0
 1202 018c 2178     		ldrb	r1, [r4]	@ zero_extendqisi2
 1203              		.loc 1 260 0
 1204 018e 1368     		ldr	r3, [r2]
 1205              		.loc 1 261 0
 1206 0190 0229     		cmp	r1, #2
 1207              		.loc 1 260 0
 1208 0192 9BB2     		uxth	r3, r3
 1209              	.LVL97:
 1210              		.loc 1 261 0
 1211 0194 07D0     		beq	.L110
 1212 0196 0329     		cmp	r1, #3
 1213 0198 0BD0     		beq	.L111
 1214 019a 0129     		cmp	r1, #1
 1215 019c 0BD1     		bne	.L109
 1216              		.loc 1 263 0
 1217 019e 23F00A03 		bic	r3, r3, #10
 1218              	.LVL98:
 1219 01a2 9BB2     		uxth	r3, r3
 1220              	.LVL99:
 1221 01a4 07E0     		b	.L109
 1222              	.L110:
 1223              	.LVL100:
 1224 01a6 23F00803 		bic	r3, r3, #8
 1225              	.LVL101:
 1226 01aa 9BB2     		uxth	r3, r3
 1227              		.loc 1 267 0
 1228 01ac 43F00203 		orr	r3, r3, #2
 1229              	.LVL102:
 1230 01b0 01E0     		b	.L109
 1231              	.L111:
 1232              		.loc 1 270 0
 1233 01b2 43F00A03 		orr	r3, r3, #10
 1234              	.LVL103:
 1235              	.L109:
 1236              		.loc 1 273 0
 1237 01b6 1360     		str	r3, [r2]
 1238              	.LVL104:
 1239              	.LBE187:
 1240              	.LBE186:
 1241              		.loc 1 690 0
 1242 01b8 2B68     		ldr	r3, [r5]
 1243 01ba 43F00103 		orr	r3, r3, #1
 1244 01be 2B60     		str	r3, [r5]
 1245 01c0 F8BD     		pop	{r3, r4, r5, r6, r7, pc}
 1246              	.LVL105:
 1247              	.L118:
 1248 01c2 00BF     		.align	2
 1249              	.L117:
 1250 01c4 00000000 		.word	.LANCHOR0
 1251 01c8 00380240 		.word	1073887232
 1252 01cc 00000000 		.word	i2c_lld_serve_rx_end_irq
 1253 01d0 00000000 		.word	i2c_lld_serve_tx_end_irq
 1254 01d4 00000000 		.word	.LANCHOR1
ARM GAS  /tmp/ccI5Hmtd.s 			page 23


 1255 01d8 A0860100 		.word	100000
 1256 01dc 80DE8002 		.word	42000000
 1257 01e0 801A0600 		.word	400000
 1258              		.cfi_endproc
 1259              	.LFE336:
 1260              		.size	i2c_lld_start, .-i2c_lld_start
 1261              		.section	.text.i2c_lld_stop,"ax",%progbits
 1262              		.align	1
 1263              		.global	i2c_lld_stop
 1264              		.thumb
 1265              		.thumb_func
 1266              		.type	i2c_lld_stop, %function
 1267              	i2c_lld_stop:
 1268              	.LFB337:
 1269              		.loc 1 700 0
 1270              		.cfi_startproc
 1271              		@ args = 0, pretend = 0, frame = 0
 1272              		@ frame_needed = 0, uses_anonymous_args = 0
 1273              	.LVL106:
 1274 0000 38B5     		push	{r3, r4, r5, lr}
 1275              		.cfi_def_cfa_offset 16
 1276              		.cfi_offset 3, -16
 1277              		.cfi_offset 4, -12
 1278              		.cfi_offset 5, -8
 1279              		.cfi_offset 14, -4
 1280              		.loc 1 703 0
 1281 0002 0378     		ldrb	r3, [r0]	@ zero_extendqisi2
 1282 0004 012B     		cmp	r3, #1
 1283              		.loc 1 700 0
 1284 0006 0446     		mov	r4, r0
 1285              		.loc 1 703 0
 1286 0008 50D0     		beq	.L119
 1287              	.LVL107:
 1288              	.LBB190:
 1289              	.LBB191:
 1290              		.loc 1 123 0
 1291 000a 436B     		ldr	r3, [r0, #52]
 1292              	.LVL108:
 1293              		.loc 1 132 0
 1294 000c 006B     		ldr	r0, [r0, #48]
 1295              	.LVL109:
 1296              		.loc 1 126 0
 1297 000e 4FF40042 		mov	r2, #32768
 1298 0012 1A60     		str	r2, [r3]
 1299              		.loc 1 127 0
 1300 0014 0022     		movs	r2, #0
 1301 0016 1A60     		str	r2, [r3]
 1302              		.loc 1 128 0
 1303 0018 5A60     		str	r2, [r3, #4]
 1304              		.loc 1 129 0
 1305 001a 5A61     		str	r2, [r3, #20]
 1306              		.loc 1 132 0
 1307 001c 0368     		ldr	r3, [r0]
 1308              	.LVL110:
 1309 001e 1A68     		ldr	r2, [r3]
 1310 0020 22F01F02 		bic	r2, r2, #31
 1311 0024 1A60     		str	r2, [r3]
ARM GAS  /tmp/ccI5Hmtd.s 			page 24


 1312              	.L122:
 1313 0026 1A68     		ldr	r2, [r3]
 1314 0028 D207     		lsls	r2, r2, #31
 1315 002a FCD4     		bmi	.L122
 1316 002c 417A     		ldrb	r1, [r0, #9]	@ zero_extendqisi2
 1317 002e 4268     		ldr	r2, [r0, #4]
 1318 0030 3D23     		movs	r3, #61
 1319 0032 8B40     		lsls	r3, r3, r1
 1320 0034 1360     		str	r3, [r2]
 1321              		.loc 1 133 0
 1322 0036 E36A     		ldr	r3, [r4, #44]
 1323 0038 1A68     		ldr	r2, [r3]
 1324 003a 1168     		ldr	r1, [r2]
 1325 003c 21F01F01 		bic	r1, r1, #31
 1326 0040 1160     		str	r1, [r2]
 1327              	.L123:
 1328 0042 1568     		ldr	r5, [r2]
 1329 0044 15F00105 		ands	r5, r5, #1
 1330 0048 FBD1     		bne	.L123
 1331 004a 597A     		ldrb	r1, [r3, #9]	@ zero_extendqisi2
 1332 004c 5A68     		ldr	r2, [r3, #4]
 1333 004e 3D23     		movs	r3, #61
 1334 0050 8B40     		lsls	r3, r3, r1
 1335 0052 1360     		str	r3, [r2]
 1336              	.LVL111:
 1337              	.LBE191:
 1338              	.LBE190:
 1339              		.loc 1 707 0
 1340 0054 FFF7FEFF 		bl	dmaStreamFreeI
 1341              	.LVL112:
 1342              		.loc 1 708 0
 1343 0058 E06A     		ldr	r0, [r4, #44]
 1344 005a FFF7FEFF 		bl	dmaStreamFreeI
 1345              	.LVL113:
 1346              		.loc 1 713 0
 1347 005e 144B     		ldr	r3, .L129
 1348              		.loc 1 709 0
 1349 0060 2563     		str	r5, [r4, #48]
 1350              		.loc 1 713 0
 1351 0062 9C42     		cmp	r4, r3
 1352              		.loc 1 710 0
 1353 0064 E562     		str	r5, [r4, #44]
 1354              		.loc 1 713 0
 1355 0066 0ED1     		bne	.L124
 1356              		.loc 1 714 0
 1357 0068 1F20     		movs	r0, #31
 1358 006a FFF7FEFF 		bl	nvicDisableVector
 1359              	.LVL114:
 1360              		.loc 1 715 0
 1361 006e 2020     		movs	r0, #32
 1362 0070 FFF7FEFF 		bl	nvicDisableVector
 1363              	.LVL115:
 1364              		.loc 1 716 0
 1365 0074 0F4B     		ldr	r3, .L129+4
 1366 0076 1A6C     		ldr	r2, [r3, #64]
 1367 0078 22F40012 		bic	r2, r2, #2097152
 1368 007c 1A64     		str	r2, [r3, #64]
ARM GAS  /tmp/ccI5Hmtd.s 			page 25


 1369 007e 1A6E     		ldr	r2, [r3, #96]
 1370 0080 22F40012 		bic	r2, r2, #2097152
 1371 0084 10E0     		b	.L128
 1372              	.L124:
 1373              		.loc 1 721 0
 1374 0086 0C4B     		ldr	r3, .L129+8
 1375 0088 9C42     		cmp	r4, r3
 1376 008a 0FD1     		bne	.L119
 1377              		.loc 1 722 0
 1378 008c 2120     		movs	r0, #33
 1379 008e FFF7FEFF 		bl	nvicDisableVector
 1380              	.LVL116:
 1381              		.loc 1 723 0
 1382 0092 2220     		movs	r0, #34
 1383 0094 FFF7FEFF 		bl	nvicDisableVector
 1384              	.LVL117:
 1385              		.loc 1 724 0
 1386 0098 064B     		ldr	r3, .L129+4
 1387 009a 1A6C     		ldr	r2, [r3, #64]
 1388 009c 22F48002 		bic	r2, r2, #4194304
 1389 00a0 1A64     		str	r2, [r3, #64]
 1390 00a2 1A6E     		ldr	r2, [r3, #96]
 1391 00a4 22F48002 		bic	r2, r2, #4194304
 1392              	.L128:
 1393 00a8 1A66     		str	r2, [r3, #96]
 1394 00aa 1B6E     		ldr	r3, [r3, #96]
 1395              	.L119:
 1396 00ac 38BD     		pop	{r3, r4, r5, pc}
 1397              	.LVL118:
 1398              	.L130:
 1399 00ae 00BF     		.align	2
 1400              	.L129:
 1401 00b0 00000000 		.word	.LANCHOR0
 1402 00b4 00380240 		.word	1073887232
 1403 00b8 00000000 		.word	.LANCHOR1
 1404              		.cfi_endproc
 1405              	.LFE337:
 1406              		.size	i2c_lld_stop, .-i2c_lld_stop
 1407              		.section	.text.i2c_lld_master_receive_timeout,"ax",%progbits
 1408              		.align	1
 1409              		.global	i2c_lld_master_receive_timeout
 1410              		.thumb
 1411              		.thumb_func
 1412              		.type	i2c_lld_master_receive_timeout, %function
 1413              	i2c_lld_master_receive_timeout:
 1414              	.LFB338:
 1415              		.loc 1 763 0
 1416              		.cfi_startproc
 1417              		@ args = 4, pretend = 0, frame = 0
 1418              		@ frame_needed = 0, uses_anonymous_args = 0
 1419              	.LVL119:
 1420              		.loc 1 774 0
 1421 0000 4900     		lsls	r1, r1, #1
 1422              	.LVL120:
 1423              		.loc 1 763 0
 1424 0002 2DE9F843 		push	{r3, r4, r5, r6, r7, r8, r9, lr}
 1425              		.cfi_def_cfa_offset 32
ARM GAS  /tmp/ccI5Hmtd.s 			page 26


 1426              		.cfi_offset 3, -32
 1427              		.cfi_offset 4, -28
 1428              		.cfi_offset 5, -24
 1429              		.cfi_offset 6, -20
 1430              		.cfi_offset 7, -16
 1431              		.cfi_offset 8, -12
 1432              		.cfi_offset 9, -8
 1433              		.cfi_offset 14, -4
 1434              		.loc 1 774 0
 1435 0006 41F00101 		orr	r1, r1, #1
 1436              		.loc 1 771 0
 1437 000a 0026     		movs	r6, #0
 1438 000c 8660     		str	r6, [r0, #8]
 1439              		.loc 1 774 0
 1440 000e 0184     		strh	r1, [r0, #32]	@ movhi
 1441              		.loc 1 763 0
 1442 0010 0446     		mov	r4, r0
 1443 0012 9146     		mov	r9, r2
 1444 0014 9846     		mov	r8, r3
 1445 0016 089F     		ldr	r7, [sp, #32]
 1446              		.loc 1 764 0
 1447 0018 456B     		ldr	r5, [r0, #52]
 1448              	.LVL121:
 1449              	.LBB208:
 1450              	.LBB209:
 1451              	.LBB210:
 1452              		.loc 3 368 0
 1453 001a FFF7FEFF 		bl	_stats_stop_measure_crit_thd
 1454              	.LVL122:
 1455              	.LBB211:
 1456              	.LBB212:
 1457              	.LBB213:
 1458              		.loc 2 493 0
 1459              		.syntax unified
 1460              	@ 493 "../../modules/ChibiOS/os/common/ext/ARM/CMSIS/Core/Include/cmsis_gcc.h" 1
 1461 001e 86F31188 		MSR basepri, r6
 1462              	@ 0 "" 2
 1463              	.LVL123:
 1464              		.thumb
 1465              		.syntax unified
 1466              	.LBE213:
 1467              	.LBE212:
 1468              	.LBE211:
 1469              	.LBE210:
 1470              	.LBE209:
 1471              	.LBE208:
 1472              		.loc 1 780 0
 1473 0022 E36A     		ldr	r3, [r4, #44]
 1474 0024 1968     		ldr	r1, [r3]
 1475 0026 636A     		ldr	r3, [r4, #36]
 1476 0028 0B60     		str	r3, [r1]
 1477              		.loc 1 781 0
 1478 002a C1F80C90 		str	r9, [r1, #12]
 1479              	.LBB214:
 1480              	.LBB215:
 1481              	.LBB216:
 1482              	.LBB217:
ARM GAS  /tmp/ccI5Hmtd.s 			page 27


 1483              	.LBB218:
 1484              	.LBB219:
 1485              		.loc 2 493 0
 1486 002e 2023     		movs	r3, #32
 1487              	.LBE219:
 1488              	.LBE218:
 1489              	.LBE217:
 1490              	.LBE216:
 1491              	.LBE215:
 1492              	.LBE214:
 1493              		.loc 1 782 0
 1494 0030 C1F80480 		str	r8, [r1, #4]
 1495              	.LVL124:
 1496              	.LBB225:
 1497              	.LBB224:
 1498              	.LBB223:
 1499              	.LBB222:
 1500              	.LBB221:
 1501              	.LBB220:
 1502              		.loc 2 493 0
 1503              		.syntax unified
 1504              	@ 493 "../../modules/ChibiOS/os/common/ext/ARM/CMSIS/Core/Include/cmsis_gcc.h" 1
 1505 0034 83F31188 		MSR basepri, r3
 1506              	@ 0 "" 2
 1507              	.LVL125:
 1508              		.thumb
 1509              		.syntax unified
 1510              	.LBE220:
 1511              	.LBE221:
 1512              	.LBE222:
 1513              		.loc 3 356 0
 1514 0038 FFF7FEFF 		bl	_stats_start_measure_crit_thd
 1515              	.LVL126:
 1516              	.LBE223:
 1517              	.LBE224:
 1518              	.LBE225:
 1519              		.loc 1 789 0
 1520 003c AB69     		ldr	r3, [r5, #24]
 1521 003e 9A07     		lsls	r2, r3, #30
 1522 0040 11D4     		bmi	.L132
 1523              		.loc 1 789 0 is_stmt 0 discriminator 1
 1524 0042 2B68     		ldr	r3, [r5]
 1525 0044 9B05     		lsls	r3, r3, #22
 1526 0046 0ED4     		bmi	.L132
 1527              		.loc 1 794 0 is_stmt 1
 1528 0048 6B68     		ldr	r3, [r5, #4]
 1529 004a 43F40073 		orr	r3, r3, #512
 1530 004e 6B60     		str	r3, [r5, #4]
 1531              		.loc 1 795 0
 1532 0050 2B68     		ldr	r3, [r5]
 1533 0052 43F4A063 		orr	r3, r3, #1280
 1534 0056 2B60     		str	r3, [r5]
 1535              	.LVL127:
 1536              	.LBB226:
 1537              	.LBB227:
 1538              		.loc 4 760 0
 1539 0058 3946     		mov	r1, r7
ARM GAS  /tmp/ccI5Hmtd.s 			page 28


 1540 005a 04F11C00 		add	r0, r4, #28
 1541              	.LVL128:
 1542              	.LBE227:
 1543              	.LBE226:
 1544              		.loc 1 799 0
 1545 005e BDE8F843 		pop	{r3, r4, r5, r6, r7, r8, r9, lr}
 1546              		.cfi_remember_state
 1547              		.cfi_restore 14
 1548              		.cfi_restore 9
 1549              		.cfi_restore 8
 1550              		.cfi_restore 7
 1551              		.cfi_restore 6
 1552              		.cfi_restore 5
 1553              		.cfi_restore 4
 1554              		.cfi_restore 3
 1555              		.cfi_def_cfa_offset 0
 1556              	.LVL129:
 1557              	.LBB229:
 1558              	.LBB228:
 1559              		.loc 4 760 0
 1560 0062 FFF7FEBF 		b	chThdSuspendTimeoutS
 1561              	.LVL130:
 1562              	.L132:
 1563              		.cfi_restore_state
 1564              	.LBE228:
 1565              	.LBE229:
 1566              		.loc 1 799 0
 1567 0066 4FF0FF30 		mov	r0, #-1
 1568 006a BDE8F883 		pop	{r3, r4, r5, r6, r7, r8, r9, pc}
 1569              		.cfi_endproc
 1570              	.LFE338:
 1571              		.size	i2c_lld_master_receive_timeout, .-i2c_lld_master_receive_timeout
 1572              		.section	.text.i2c_lld_master_transmit_timeout,"ax",%progbits
 1573              		.align	1
 1574              		.global	i2c_lld_master_transmit_timeout
 1575              		.thumb
 1576              		.thumb_func
 1577              		.type	i2c_lld_master_transmit_timeout, %function
 1578              	i2c_lld_master_transmit_timeout:
 1579              	.LFB339:
 1580              		.loc 1 829 0
 1581              		.cfi_startproc
 1582              		@ args = 12, pretend = 0, frame = 0
 1583              		@ frame_needed = 0, uses_anonymous_args = 0
 1584              	.LVL131:
 1585 0000 2DE9F84F 		push	{r3, r4, r5, r6, r7, r8, r9, r10, fp, lr}
 1586              		.cfi_def_cfa_offset 40
 1587              		.cfi_offset 3, -40
 1588              		.cfi_offset 4, -36
 1589              		.cfi_offset 5, -32
 1590              		.cfi_offset 6, -28
 1591              		.cfi_offset 7, -24
 1592              		.cfi_offset 8, -20
 1593              		.cfi_offset 9, -16
 1594              		.cfi_offset 10, -12
 1595              		.cfi_offset 11, -8
 1596              		.cfi_offset 14, -4
ARM GAS  /tmp/ccI5Hmtd.s 			page 29


 1597              		.loc 1 840 0
 1598 0004 4900     		lsls	r1, r1, #1
 1599              	.LVL132:
 1600              		.loc 1 837 0
 1601 0006 0026     		movs	r6, #0
 1602 0008 8660     		str	r6, [r0, #8]
 1603              		.loc 1 840 0
 1604 000a 0184     		strh	r1, [r0, #32]	@ movhi
 1605              		.loc 1 829 0
 1606 000c 0446     		mov	r4, r0
 1607 000e 9346     		mov	fp, r2
 1608 0010 9A46     		mov	r10, r3
 1609 0012 DDF82890 		ldr	r9, [sp, #40]
 1610 0016 DDF82C80 		ldr	r8, [sp, #44]
 1611 001a 0C9F     		ldr	r7, [sp, #48]
 1612              		.loc 1 830 0
 1613 001c 456B     		ldr	r5, [r0, #52]
 1614              	.LVL133:
 1615              	.LBB246:
 1616              	.LBB247:
 1617              	.LBB248:
 1618              		.loc 3 368 0
 1619 001e FFF7FEFF 		bl	_stats_stop_measure_crit_thd
 1620              	.LVL134:
 1621              	.LBB249:
 1622              	.LBB250:
 1623              	.LBB251:
 1624              		.loc 2 493 0
 1625              		.syntax unified
 1626              	@ 493 "../../modules/ChibiOS/os/common/ext/ARM/CMSIS/Core/Include/cmsis_gcc.h" 1
 1627 0022 86F31188 		MSR basepri, r6
 1628              	@ 0 "" 2
 1629              	.LVL135:
 1630              		.thumb
 1631              		.syntax unified
 1632              	.LBE251:
 1633              	.LBE250:
 1634              	.LBE249:
 1635              	.LBE248:
 1636              	.LBE247:
 1637              	.LBE246:
 1638              		.loc 1 846 0
 1639 0026 236B     		ldr	r3, [r4, #48]
 1640              		.loc 1 851 0
 1641 0028 626A     		ldr	r2, [r4, #36]
 1642              		.loc 1 846 0
 1643 002a 1968     		ldr	r1, [r3]
 1644 002c A36A     		ldr	r3, [r4, #40]
 1645 002e 0B60     		str	r3, [r1]
 1646              		.loc 1 851 0
 1647 0030 E36A     		ldr	r3, [r4, #44]
 1648              		.loc 1 847 0
 1649 0032 C1F80CB0 		str	fp, [r1, #12]
 1650              		.loc 1 851 0
 1651 0036 1B68     		ldr	r3, [r3]
 1652              		.loc 1 848 0
 1653 0038 C1F804A0 		str	r10, [r1, #4]
ARM GAS  /tmp/ccI5Hmtd.s 			page 30


 1654              		.loc 1 851 0
 1655 003c 1A60     		str	r2, [r3]
 1656              		.loc 1 852 0
 1657 003e C3F80C90 		str	r9, [r3, #12]
 1658              		.loc 1 853 0
 1659 0042 C3F80480 		str	r8, [r3, #4]
 1660              	.LVL136:
 1661              	.LBB252:
 1662              	.LBB253:
 1663              	.LBB254:
 1664              	.LBB255:
 1665              	.LBB256:
 1666              	.LBB257:
 1667              		.loc 2 493 0
 1668 0046 2023     		movs	r3, #32
 1669              		.syntax unified
 1670              	@ 493 "../../modules/ChibiOS/os/common/ext/ARM/CMSIS/Core/Include/cmsis_gcc.h" 1
 1671 0048 83F31188 		MSR basepri, r3
 1672              	@ 0 "" 2
 1673              	.LVL137:
 1674              		.thumb
 1675              		.syntax unified
 1676              	.LBE257:
 1677              	.LBE256:
 1678              	.LBE255:
 1679              		.loc 3 356 0
 1680 004c FFF7FEFF 		bl	_stats_start_measure_crit_thd
 1681              	.LVL138:
 1682              	.LBE254:
 1683              	.LBE253:
 1684              	.LBE252:
 1685              		.loc 1 860 0
 1686 0050 AB69     		ldr	r3, [r5, #24]
 1687 0052 9A07     		lsls	r2, r3, #30
 1688 0054 11D4     		bmi	.L136
 1689              		.loc 1 860 0 is_stmt 0 discriminator 1
 1690 0056 2B68     		ldr	r3, [r5]
 1691 0058 9B05     		lsls	r3, r3, #22
 1692 005a 0ED4     		bmi	.L136
 1693              		.loc 1 865 0 is_stmt 1
 1694 005c 6B68     		ldr	r3, [r5, #4]
 1695 005e 43F40073 		orr	r3, r3, #512
 1696 0062 6B60     		str	r3, [r5, #4]
 1697              		.loc 1 866 0
 1698 0064 2B68     		ldr	r3, [r5]
 1699 0066 43F48073 		orr	r3, r3, #256
 1700 006a 2B60     		str	r3, [r5]
 1701              	.LVL139:
 1702              	.LBB258:
 1703              	.LBB259:
 1704              		.loc 4 760 0
 1705 006c 3946     		mov	r1, r7
 1706 006e 04F11C00 		add	r0, r4, #28
 1707              	.LVL140:
 1708              	.LBE259:
 1709              	.LBE258:
 1710              		.loc 1 870 0
ARM GAS  /tmp/ccI5Hmtd.s 			page 31


 1711 0072 BDE8F84F 		pop	{r3, r4, r5, r6, r7, r8, r9, r10, fp, lr}
 1712              		.cfi_remember_state
 1713              		.cfi_restore 14
 1714              		.cfi_restore 11
 1715              		.cfi_restore 10
 1716              		.cfi_restore 9
 1717              		.cfi_restore 8
 1718              		.cfi_restore 7
 1719              		.cfi_restore 6
 1720              		.cfi_restore 5
 1721              		.cfi_restore 4
 1722              		.cfi_restore 3
 1723              		.cfi_def_cfa_offset 0
 1724              	.LVL141:
 1725              	.LBB261:
 1726              	.LBB260:
 1727              		.loc 4 760 0
 1728 0076 FFF7FEBF 		b	chThdSuspendTimeoutS
 1729              	.LVL142:
 1730              	.L136:
 1731              		.cfi_restore_state
 1732              	.LBE260:
 1733              	.LBE261:
 1734              		.loc 1 870 0
 1735 007a 4FF0FF30 		mov	r0, #-1
 1736 007e BDE8F88F 		pop	{r3, r4, r5, r6, r7, r8, r9, r10, fp, pc}
 1737              		.cfi_endproc
 1738              	.LFE339:
 1739              		.size	i2c_lld_master_transmit_timeout, .-i2c_lld_master_transmit_timeout
 1740              		.global	I2CD2
 1741              		.global	I2CD1
 1742              		.section	.rodata.str1.1,"aMS",%progbits,1
 1743              	.LC0:
 1744 0000 444D4120 		.ascii	"DMA failure\000"
 1744      6661696C 
 1744      75726500 
 1745              		.section	.bss.I2CD1,"aw",%nobits
 1746              		.align	2
 1747              		.set	.LANCHOR0,. + 0
 1748              		.type	I2CD1, %object
 1749              		.size	I2CD1, 56
 1750              	I2CD1:
 1751 0000 00000000 		.space	56
 1751      00000000 
 1751      00000000 
 1751      00000000 
 1751      00000000 
 1752              		.section	.bss.I2CD2,"aw",%nobits
 1753              		.align	2
 1754              		.set	.LANCHOR1,. + 0
 1755              		.type	I2CD2, %object
 1756              		.size	I2CD2, 56
 1757              	I2CD2:
 1758 0000 00000000 		.space	56
 1758      00000000 
 1758      00000000 
 1758      00000000 
ARM GAS  /tmp/ccI5Hmtd.s 			page 32


 1758      00000000 
 1759              		.text
 1760              	.Letext0:
 1761              		.file 5 "/usr/lib/gcc/arm-none-eabi/5.4.1/include/stddef.h"
 1762              		.file 6 "/usr/include/newlib/machine/_default_types.h"
 1763              		.file 7 "/usr/include/newlib/sys/_stdint.h"
 1764              		.file 8 "../../modules/ChibiOS/os/common/ports/ARMCMx/compilers/GCC/chtypes.h"
 1765              		.file 9 "../../modules/ChibiOS/os/rt/include/chsystypes.h"
 1766              		.file 10 "../../modules/ChibiOS/os/rt/include/chschd.h"
 1767              		.file 11 "../../modules/ChibiOS/os/rt/include/chtime.h"
 1768              		.file 12 "../../modules/ChibiOS/os/common/ext/ST/STM32F4xx/stm32f427xx.h"
 1769              		.file 13 "../../modules/ChibiOS/os/common/ports/ARMCMx/chcore.h"
 1770              		.file 14 "../../modules/ChibiOS/os/common/ports/ARMCMx/chcore_v7m.h"
 1771              		.file 15 "../../modules/ChibiOS/os/rt/include/chtm.h"
 1772              		.file 16 "../../modules/ChibiOS/os/rt/include/chstats.h"
 1773              		.file 17 "../../modules/ChibiOS/os/rt/include/chsem.h"
 1774              		.file 18 "../../modules/ChibiOS/os/rt/include/chmtx.h"
 1775              		.file 19 "../../modules/ChibiOS/os/hal/ports/STM32/LLD/DMAv2/stm32_dma.h"
 1776              		.file 20 "../../modules/ChibiOS/os/hal/include/hal_i2c.h"
 1777              		.file 21 "../../modules/ChibiOS/os/hal/ports/STM32/LLD/I2Cv1/hal_i2c_lld.h"
 1778              		.file 22 "../../modules/ChibiOS/os/common/ext/ARM/CMSIS/Core/Include/core_cm4.h"
 1779              		.file 23 "../../modules/ChibiOS/os/rt/include/chthreads.h"
 1780              		.file 24 "../../modules/ChibiOS/os/rt/include/ch.h"
 1781              		.file 25 "../../modules/ChibiOS/os/hal/ports/common/ARMCMx/nvic.h"