ARM GAS  /tmp/cc8CMedv.s 			page 1


   1              		.syntax unified
   2              		.cpu cortex-m4
   3              		.eabi_attribute 27, 1
   4              		.eabi_attribute 28, 1
   5              		.fpu fpv4-sp-d16
   6              		.eabi_attribute 20, 1
   7              		.eabi_attribute 21, 1
   8              		.eabi_attribute 23, 3
   9              		.eabi_attribute 24, 1
  10              		.eabi_attribute 25, 1
  11              		.eabi_attribute 26, 1
  12              		.eabi_attribute 30, 4
  13              		.eabi_attribute 34, 1
  14              		.eabi_attribute 18, 4
  15              		.thumb
  16              		.syntax unified
  17              		.file	"hal_pwm_lld.c"
  18              		.text
  19              	.Ltext0:
  20              		.cfi_sections	.debug_frame
  21              		.section	.text.pwm_lld_init,"ax",%progbits
  22              		.align	1
  23              		.global	pwm_lld_init
  24              		.thumb
  25              		.thumb_func
  26              		.type	pwm_lld_init, %function
  27              	pwm_lld_init:
  28              	.LFB323:
  29              		.file 1 "../../modules/ChibiOS/os/hal/ports/STM32/LLD/TIMv1/hal_pwm_lld.c"
  30              		.loc 1 377 0
  31              		.cfi_startproc
  32              		@ args = 0, pretend = 0, frame = 0
  33              		@ frame_needed = 0, uses_anonymous_args = 0
  34 0000 38B5     		push	{r3, r4, r5, lr}
  35              		.cfi_def_cfa_offset 16
  36              		.cfi_offset 3, -16
  37              		.cfi_offset 4, -12
  38              		.cfi_offset 5, -8
  39              		.cfi_offset 14, -4
  40              		.loc 1 381 0
  41 0002 0C4C     		ldr	r4, .L2
  42 0004 2046     		mov	r0, r4
  43 0006 FFF7FEFF 		bl	pwmObjectInit
  44              	.LVL0:
  45              		.loc 1 382 0
  46 000a 0425     		movs	r5, #4
  47              		.loc 1 383 0
  48 000c 0A4B     		ldr	r3, .L2+4
  49 000e A361     		str	r3, [r4, #24]
  50              		.loc 1 382 0
  51 0010 2574     		strb	r5, [r4, #16]
  52              		.loc 1 388 0
  53 0012 0A4C     		ldr	r4, .L2+8
  54 0014 2046     		mov	r0, r4
  55 0016 FFF7FEFF 		bl	pwmObjectInit
  56              	.LVL1:
  57              		.loc 1 390 0
ARM GAS  /tmp/cc8CMedv.s 			page 2


  58 001a 4FF08043 		mov	r3, #1073741824
  59 001e A361     		str	r3, [r4, #24]
  60              		.loc 1 389 0
  61 0020 2574     		strb	r5, [r4, #16]
  62              		.loc 1 402 0
  63 0022 074C     		ldr	r4, .L2+12
  64 0024 2046     		mov	r0, r4
  65 0026 FFF7FEFF 		bl	pwmObjectInit
  66              	.LVL2:
  67              		.loc 1 404 0
  68 002a 064B     		ldr	r3, .L2+16
  69              		.loc 1 403 0
  70 002c 2574     		strb	r5, [r4, #16]
  71              		.loc 1 404 0
  72 002e A361     		str	r3, [r4, #24]
  73 0030 38BD     		pop	{r3, r4, r5, pc}
  74              	.L3:
  75 0032 00BF     		.align	2
  76              	.L2:
  77 0034 00000000 		.word	.LANCHOR0
  78 0038 00000140 		.word	1073807360
  79 003c 00000000 		.word	.LANCHOR1
  80 0040 00000000 		.word	.LANCHOR2
  81 0044 00080040 		.word	1073743872
  82              		.cfi_endproc
  83              	.LFE323:
  84              		.size	pwm_lld_init, .-pwm_lld_init
  85              		.section	.text.pwm_lld_start,"ax",%progbits
  86              		.align	1
  87              		.global	pwm_lld_start
  88              		.thumb
  89              		.thumb_func
  90              		.type	pwm_lld_start, %function
  91              	pwm_lld_start:
  92              	.LFB324:
  93              		.loc 1 473 0
  94              		.cfi_startproc
  95              		@ args = 0, pretend = 0, frame = 0
  96              		@ frame_needed = 0, uses_anonymous_args = 0
  97              	.LVL3:
  98              		.loc 1 477 0
  99 0000 0378     		ldrb	r3, [r0]	@ zero_extendqisi2
 100 0002 8269     		ldr	r2, [r0, #24]
 101 0004 012B     		cmp	r3, #1
 102              		.loc 1 473 0
 103 0006 10B5     		push	{r4, lr}
 104              		.cfi_def_cfa_offset 8
 105              		.cfi_offset 4, -8
 106              		.cfi_offset 14, -4
 107              		.loc 1 477 0
 108 0008 49D1     		bne	.L5
 109              		.loc 1 480 0
 110 000a 4D4B     		ldr	r3, .L37
 111 000c 9842     		cmp	r0, r3
 112 000e 14D1     		bne	.L6
 113              		.loc 1 481 0
 114 0010 4C4B     		ldr	r3, .L37+4
ARM GAS  /tmp/cc8CMedv.s 			page 3


 115 0012 596C     		ldr	r1, [r3, #68]
 116 0014 41F00101 		orr	r1, r1, #1
 117 0018 5964     		str	r1, [r3, #68]
 118 001a 596E     		ldr	r1, [r3, #100]
 119 001c 41F00101 		orr	r1, r1, #1
 120 0020 5966     		str	r1, [r3, #100]
 121 0022 596E     		ldr	r1, [r3, #100]
 122              		.loc 1 482 0
 123 0024 596A     		ldr	r1, [r3, #36]
 124 0026 41F00101 		orr	r1, r1, #1
 125 002a 5962     		str	r1, [r3, #36]
 126 002c 596A     		ldr	r1, [r3, #36]
 127 002e 21F00101 		bic	r1, r1, #1
 128 0032 5962     		str	r1, [r3, #36]
 129 0034 5B6A     		ldr	r3, [r3, #36]
 130              		.loc 1 490 0
 131 0036 444B     		ldr	r3, .L37+8
 132 0038 2BE0     		b	.L34
 133              	.L6:
 134              		.loc 1 496 0
 135 003a 444B     		ldr	r3, .L37+12
 136 003c 9842     		cmp	r0, r3
 137 003e 11D1     		bne	.L8
 138              		.loc 1 497 0
 139 0040 404B     		ldr	r3, .L37+4
 140 0042 196C     		ldr	r1, [r3, #64]
 141 0044 41F00101 		orr	r1, r1, #1
 142 0048 1964     		str	r1, [r3, #64]
 143 004a 196E     		ldr	r1, [r3, #96]
 144 004c 41F00101 		orr	r1, r1, #1
 145 0050 1966     		str	r1, [r3, #96]
 146 0052 196E     		ldr	r1, [r3, #96]
 147              		.loc 1 498 0
 148 0054 196A     		ldr	r1, [r3, #32]
 149 0056 41F00101 		orr	r1, r1, #1
 150 005a 1962     		str	r1, [r3, #32]
 151 005c 196A     		ldr	r1, [r3, #32]
 152 005e 21F00101 		bic	r1, r1, #1
 153 0062 13E0     		b	.L35
 154              	.L8:
 155              		.loc 1 526 0
 156 0064 3A4B     		ldr	r3, .L37+16
 157 0066 9842     		cmp	r0, r3
 158 0068 14D1     		bne	.L7
 159              		.loc 1 527 0
 160 006a 364B     		ldr	r3, .L37+4
 161 006c 196C     		ldr	r1, [r3, #64]
 162 006e 41F00401 		orr	r1, r1, #4
 163 0072 1964     		str	r1, [r3, #64]
 164 0074 196E     		ldr	r1, [r3, #96]
 165 0076 41F00401 		orr	r1, r1, #4
 166 007a 1966     		str	r1, [r3, #96]
 167 007c 196E     		ldr	r1, [r3, #96]
 168              		.loc 1 528 0
 169 007e 196A     		ldr	r1, [r3, #32]
 170 0080 41F00401 		orr	r1, r1, #4
 171 0084 1962     		str	r1, [r3, #32]
ARM GAS  /tmp/cc8CMedv.s 			page 4


 172 0086 196A     		ldr	r1, [r3, #32]
 173 0088 21F00401 		bic	r1, r1, #4
 174              	.L35:
 175 008c 1962     		str	r1, [r3, #32]
 176 008e 1B6A     		ldr	r3, [r3, #32]
 177              		.loc 1 535 0
 178 0090 304B     		ldr	r3, .L37+20
 179              	.L34:
 180 0092 4361     		str	r3, [r0, #20]
 181              	.L7:
 182              		.loc 1 648 0
 183 0094 46F66803 		movw	r3, #26728
 184 0098 9361     		str	r3, [r2, #24]
 185              		.loc 1 650 0
 186 009a D361     		str	r3, [r2, #28]
 187 009c 06E0     		b	.L9
 188              	.L5:
 189              		.loc 1 659 0
 190 009e 0023     		movs	r3, #0
 191 00a0 1360     		str	r3, [r2]
 192              		.loc 1 660 0
 193 00a2 5363     		str	r3, [r2, #52]
 194              		.loc 1 661 0
 195 00a4 9363     		str	r3, [r2, #56]
 196              		.loc 1 662 0
 197 00a6 D363     		str	r3, [r2, #60]
 198              		.loc 1 663 0
 199 00a8 1364     		str	r3, [r2, #64]
 200              		.loc 1 670 0
 201 00aa 5362     		str	r3, [r2, #36]
 202              	.L9:
 203              		.loc 1 674 0
 204 00ac 4168     		ldr	r1, [r0, #4]
 205 00ae 4369     		ldr	r3, [r0, #20]
 206 00b0 0C68     		ldr	r4, [r1]
 207 00b2 B3FBF4F3 		udiv	r3, r3, r4
 208 00b6 013B     		subs	r3, r3, #1
 209              	.LVL4:
 210              		.loc 1 678 0
 211 00b8 9362     		str	r3, [r2, #40]
 212              		.loc 1 679 0
 213 00ba 8368     		ldr	r3, [r0, #8]
 214              	.LVL5:
 215 00bc 013B     		subs	r3, r3, #1
 216 00be D362     		str	r3, [r2, #44]
 217              	.LVL6:
 218              		.loc 1 680 0
 219 00c0 CB6A     		ldr	r3, [r1, #44]
 220 00c2 5360     		str	r3, [r2, #4]
 221              	.LVL7:
 222              		.loc 1 684 0
 223 00c4 CB68     		ldr	r3, [r1, #12]
 224 00c6 03F00F03 		and	r3, r3, #15
 225 00ca 012B     		cmp	r3, #1
 226 00cc 02D0     		beq	.L23
 227 00ce 022B     		cmp	r3, #2
 228 00d0 04D1     		bne	.L33
ARM GAS  /tmp/cc8CMedv.s 			page 5


 229 00d2 00E0     		b	.L11
 230              	.L23:
 231              		.loc 1 683 0
 232 00d4 0023     		movs	r3, #0
 233              	.L11:
 234              	.LVL8:
 235              		.loc 1 689 0
 236 00d6 43F00103 		orr	r3, r3, #1
 237              	.LVL9:
 238 00da 00E0     		b	.L10
 239              	.LVL10:
 240              	.L33:
 241              		.loc 1 683 0
 242 00dc 0023     		movs	r3, #0
 243              	.LVL11:
 244              	.L10:
 245              		.loc 1 694 0
 246 00de 4869     		ldr	r0, [r1, #20]
 247              	.LVL12:
 248 00e0 00F00F00 		and	r0, r0, #15
 249 00e4 0128     		cmp	r0, #1
 250 00e6 03D0     		beq	.L14
 251 00e8 0228     		cmp	r0, #2
 252 00ea 03D1     		bne	.L13
 253              		.loc 1 696 0
 254 00ec 43F02003 		orr	r3, r3, #32
 255              	.LVL13:
 256              	.L14:
 257              		.loc 1 699 0
 258 00f0 43F01003 		orr	r3, r3, #16
 259              	.LVL14:
 260              	.L13:
 261              		.loc 1 704 0
 262 00f4 C869     		ldr	r0, [r1, #28]
 263 00f6 00F00F00 		and	r0, r0, #15
 264 00fa 0128     		cmp	r0, #1
 265 00fc 03D0     		beq	.L17
 266 00fe 0228     		cmp	r0, #2
 267 0100 03D1     		bne	.L16
 268              		.loc 1 706 0
 269 0102 43F40073 		orr	r3, r3, #512
 270              	.LVL15:
 271              	.L17:
 272              		.loc 1 709 0
 273 0106 43F48073 		orr	r3, r3, #256
 274              	.LVL16:
 275              	.L16:
 276              		.loc 1 714 0
 277 010a 486A     		ldr	r0, [r1, #36]
 278 010c 00F00F00 		and	r0, r0, #15
 279 0110 0128     		cmp	r0, #1
 280 0112 03D0     		beq	.L20
 281 0114 0228     		cmp	r0, #2
 282 0116 03D1     		bne	.L19
 283              		.loc 1 716 0
 284 0118 43F40053 		orr	r3, r3, #8192
 285              	.LVL17:
ARM GAS  /tmp/cc8CMedv.s 			page 6


 286              	.L20:
 287              		.loc 1 719 0
 288 011c 43F48053 		orr	r3, r3, #4096
 289              	.LVL18:
 290              	.L19:
 291              		.loc 1 767 0
 292 0120 1362     		str	r3, [r2, #32]
 293              		.loc 1 768 0
 294 0122 0123     		movs	r3, #1
 295              	.LVL19:
 296 0124 5361     		str	r3, [r2, #20]
 297              	.LVL20:
 298              		.loc 1 769 0
 299 0126 0023     		movs	r3, #0
 300 0128 1361     		str	r3, [r2, #16]
 301              		.loc 1 770 0
 302 012a 0B6B     		ldr	r3, [r1, #48]
 303 012c 23F0FF03 		bic	r3, r3, #255
 304 0130 D360     		str	r3, [r2, #12]
 305              		.loc 1 776 0
 306 0132 4FF40043 		mov	r3, #32768
 307 0136 5364     		str	r3, [r2, #68]
 308              		.loc 1 780 0
 309 0138 8523     		movs	r3, #133
 310 013a 1360     		str	r3, [r2]
 311 013c 10BD     		pop	{r4, pc}
 312              	.LVL21:
 313              	.L38:
 314 013e 00BF     		.align	2
 315              	.L37:
 316 0140 00000000 		.word	.LANCHOR0
 317 0144 00380240 		.word	1073887232
 318 0148 007A030A 		.word	168000000
 319 014c 00000000 		.word	.LANCHOR1
 320 0150 00000000 		.word	.LANCHOR2
 321 0154 00BD0105 		.word	84000000
 322              		.cfi_endproc
 323              	.LFE324:
 324              		.size	pwm_lld_start, .-pwm_lld_start
 325              		.section	.text.pwm_lld_stop,"ax",%progbits
 326              		.align	1
 327              		.global	pwm_lld_stop
 328              		.thumb
 329              		.thumb_func
 330              		.type	pwm_lld_stop, %function
 331              	pwm_lld_stop:
 332              	.LFB325:
 333              		.loc 1 791 0
 334              		.cfi_startproc
 335              		@ args = 0, pretend = 0, frame = 0
 336              		@ frame_needed = 0, uses_anonymous_args = 0
 337              		@ link register save eliminated.
 338              	.LVL22:
 339              		.loc 1 794 0
 340 0000 0378     		ldrb	r3, [r0]	@ zero_extendqisi2
 341 0002 022B     		cmp	r3, #2
 342 0004 2CD1     		bne	.L39
ARM GAS  /tmp/cc8CMedv.s 			page 7


 343              		.loc 1 795 0
 344 0006 8369     		ldr	r3, [r0, #24]
 345 0008 0022     		movs	r2, #0
 346 000a 1A60     		str	r2, [r3]
 347              		.loc 1 796 0
 348 000c DA60     		str	r2, [r3, #12]
 349              		.loc 1 797 0
 350 000e 1A61     		str	r2, [r3, #16]
 351              		.loc 1 799 0
 352 0010 5A64     		str	r2, [r3, #68]
 353              		.loc 1 803 0
 354 0012 144B     		ldr	r3, .L46
 355 0014 9842     		cmp	r0, r3
 356 0016 0AD1     		bne	.L42
 357              		.loc 1 808 0
 358 0018 134B     		ldr	r3, .L46+4
 359 001a 5A6C     		ldr	r2, [r3, #68]
 360 001c 22F00102 		bic	r2, r2, #1
 361 0020 5A64     		str	r2, [r3, #68]
 362 0022 5A6E     		ldr	r2, [r3, #100]
 363 0024 22F00102 		bic	r2, r2, #1
 364 0028 5A66     		str	r2, [r3, #100]
 365 002a 5B6E     		ldr	r3, [r3, #100]
 366 002c 7047     		bx	lr
 367              	.L42:
 368              		.loc 1 813 0
 369 002e 0F4B     		ldr	r3, .L46+8
 370 0030 9842     		cmp	r0, r3
 371 0032 08D1     		bne	.L43
 372              		.loc 1 817 0
 373 0034 0C4B     		ldr	r3, .L46+4
 374 0036 1A6C     		ldr	r2, [r3, #64]
 375 0038 22F00102 		bic	r2, r2, #1
 376 003c 1A64     		str	r2, [r3, #64]
 377 003e 1A6E     		ldr	r2, [r3, #96]
 378 0040 22F00102 		bic	r2, r2, #1
 379 0044 0AE0     		b	.L45
 380              	.L43:
 381              		.loc 1 831 0
 382 0046 0A4B     		ldr	r3, .L46+12
 383 0048 9842     		cmp	r0, r3
 384 004a 09D1     		bne	.L39
 385              		.loc 1 835 0
 386 004c 064B     		ldr	r3, .L46+4
 387 004e 1A6C     		ldr	r2, [r3, #64]
 388 0050 22F00402 		bic	r2, r2, #4
 389 0054 1A64     		str	r2, [r3, #64]
 390 0056 1A6E     		ldr	r2, [r3, #96]
 391 0058 22F00402 		bic	r2, r2, #4
 392              	.L45:
 393 005c 1A66     		str	r2, [r3, #96]
 394 005e 1B6E     		ldr	r3, [r3, #96]
 395              	.L39:
 396 0060 7047     		bx	lr
 397              	.L47:
 398 0062 00BF     		.align	2
 399              	.L46:
ARM GAS  /tmp/cc8CMedv.s 			page 8


 400 0064 00000000 		.word	.LANCHOR0
 401 0068 00380240 		.word	1073887232
 402 006c 00000000 		.word	.LANCHOR1
 403 0070 00000000 		.word	.LANCHOR2
 404              		.cfi_endproc
 405              	.LFE325:
 406              		.size	pwm_lld_stop, .-pwm_lld_stop
 407              		.section	.text.pwm_lld_enable_channel,"ax",%progbits
 408              		.align	1
 409              		.global	pwm_lld_enable_channel
 410              		.thumb
 411              		.thumb_func
 412              		.type	pwm_lld_enable_channel, %function
 413              	pwm_lld_enable_channel:
 414              	.LFB326:
 415              		.loc 1 914 0
 416              		.cfi_startproc
 417              		@ args = 0, pretend = 0, frame = 0
 418              		@ frame_needed = 0, uses_anonymous_args = 0
 419              		@ link register save eliminated.
 420              	.LVL23:
 421              		.loc 1 918 0
 422 0000 8369     		ldr	r3, [r0, #24]
 423 0002 0C31     		adds	r1, r1, #12
 424              	.LVL24:
 425 0004 03EB8103 		add	r3, r3, r1, lsl #2
 426 0008 5A60     		str	r2, [r3, #4]
 427 000a 7047     		bx	lr
 428              		.cfi_endproc
 429              	.LFE326:
 430              		.size	pwm_lld_enable_channel, .-pwm_lld_enable_channel
 431              		.section	.text.pwm_lld_disable_channel,"ax",%progbits
 432              		.align	1
 433              		.global	pwm_lld_disable_channel
 434              		.thumb
 435              		.thumb_func
 436              		.type	pwm_lld_disable_channel, %function
 437              	pwm_lld_disable_channel:
 438              	.LFB327:
 439              		.loc 1 939 0
 440              		.cfi_startproc
 441              		@ args = 0, pretend = 0, frame = 0
 442              		@ frame_needed = 0, uses_anonymous_args = 0
 443              		@ link register save eliminated.
 444              	.LVL25:
 445              		.loc 1 942 0
 446 0000 8369     		ldr	r3, [r0, #24]
 447 0002 01F10C02 		add	r2, r1, #12
 448 0006 03EB8202 		add	r2, r3, r2, lsl #2
 449 000a 0020     		movs	r0, #0
 450              	.LVL26:
 451 000c 5060     		str	r0, [r2, #4]
 452              		.loc 1 943 0
 453 000e DA68     		ldr	r2, [r3, #12]
 454 0010 0220     		movs	r0, #2
 455 0012 00FA01F1 		lsl	r1, r0, r1
 456              	.LVL27:
ARM GAS  /tmp/cc8CMedv.s 			page 9


 457 0016 22EA0101 		bic	r1, r2, r1
 458 001a D960     		str	r1, [r3, #12]
 459 001c 7047     		bx	lr
 460              		.cfi_endproc
 461              	.LFE327:
 462              		.size	pwm_lld_disable_channel, .-pwm_lld_disable_channel
 463              		.section	.text.pwm_lld_enable_periodic_notification,"ax",%progbits
 464              		.align	1
 465              		.global	pwm_lld_enable_periodic_notification
 466              		.thumb
 467              		.thumb_func
 468              		.type	pwm_lld_enable_periodic_notification, %function
 469              	pwm_lld_enable_periodic_notification:
 470              	.LFB328:
 471              		.loc 1 963 0
 472              		.cfi_startproc
 473              		@ args = 0, pretend = 0, frame = 0
 474              		@ frame_needed = 0, uses_anonymous_args = 0
 475              		@ link register save eliminated.
 476              	.LVL28:
 477              		.loc 1 964 0
 478 0000 8269     		ldr	r2, [r0, #24]
 479 0002 D368     		ldr	r3, [r2, #12]
 480              	.LVL29:
 481              		.loc 1 968 0
 482 0004 D907     		lsls	r1, r3, #31
 483              		.loc 1 969 0
 484 0006 5FBF     		itttt	pl
 485 0008 6FF00101 		mvnpl	r1, #1
 486              		.loc 1 970 0
 487 000c 43F00103 		orrpl	r3, r3, #1
 488              	.LVL30:
 489              		.loc 1 969 0
 490 0010 1161     		strpl	r1, [r2, #16]
 491              		.loc 1 970 0
 492 0012 D360     		strpl	r3, [r2, #12]
 493 0014 7047     		bx	lr
 494              		.cfi_endproc
 495              	.LFE328:
 496              		.size	pwm_lld_enable_periodic_notification, .-pwm_lld_enable_periodic_notification
 497              		.section	.text.pwm_lld_disable_periodic_notification,"ax",%progbits
 498              		.align	1
 499              		.global	pwm_lld_disable_periodic_notification
 500              		.thumb
 501              		.thumb_func
 502              		.type	pwm_lld_disable_periodic_notification, %function
 503              	pwm_lld_disable_periodic_notification:
 504              	.LFB329:
 505              		.loc 1 983 0
 506              		.cfi_startproc
 507              		@ args = 0, pretend = 0, frame = 0
 508              		@ frame_needed = 0, uses_anonymous_args = 0
 509              		@ link register save eliminated.
 510              	.LVL31:
 511              		.loc 1 985 0
 512 0000 8269     		ldr	r2, [r0, #24]
 513 0002 D368     		ldr	r3, [r2, #12]
ARM GAS  /tmp/cc8CMedv.s 			page 10


 514 0004 23F00103 		bic	r3, r3, #1
 515 0008 D360     		str	r3, [r2, #12]
 516 000a 7047     		bx	lr
 517              		.cfi_endproc
 518              	.LFE329:
 519              		.size	pwm_lld_disable_periodic_notification, .-pwm_lld_disable_periodic_notification
 520              		.section	.text.pwm_lld_enable_channel_notification,"ax",%progbits
 521              		.align	1
 522              		.global	pwm_lld_enable_channel_notification
 523              		.thumb
 524              		.thumb_func
 525              		.type	pwm_lld_enable_channel_notification, %function
 526              	pwm_lld_enable_channel_notification:
 527              	.LFB330:
 528              		.loc 1 1000 0
 529              		.cfi_startproc
 530              		@ args = 0, pretend = 0, frame = 0
 531              		@ frame_needed = 0, uses_anonymous_args = 0
 532              		@ link register save eliminated.
 533              	.LVL32:
 534              		.loc 1 1001 0
 535 0000 8269     		ldr	r2, [r0, #24]
 536              		.loc 1 1010 0
 537 0002 0223     		movs	r3, #2
 538              		.loc 1 1001 0
 539 0004 D068     		ldr	r0, [r2, #12]
 540              	.LVL33:
 541              		.loc 1 1010 0
 542 0006 03FA01F1 		lsl	r1, r3, r1
 543              	.LVL34:
 544 000a 0842     		tst	r0, r1
 545              		.loc 1 1011 0
 546 000c 01BF     		itttt	eq
 547 000e CB43     		mvneq	r3, r1
 548              		.loc 1 1012 0
 549 0010 0143     		orreq	r1, r1, r0
 550              		.loc 1 1011 0
 551 0012 1361     		streq	r3, [r2, #16]
 552              		.loc 1 1012 0
 553 0014 D160     		streq	r1, [r2, #12]
 554 0016 7047     		bx	lr
 555              		.cfi_endproc
 556              	.LFE330:
 557              		.size	pwm_lld_enable_channel_notification, .-pwm_lld_enable_channel_notification
 558              		.section	.text.pwm_lld_disable_channel_notification,"ax",%progbits
 559              		.align	1
 560              		.global	pwm_lld_disable_channel_notification
 561              		.thumb
 562              		.thumb_func
 563              		.type	pwm_lld_disable_channel_notification, %function
 564              	pwm_lld_disable_channel_notification:
 565              	.LFB331:
 566              		.loc 1 1028 0
 567              		.cfi_startproc
 568              		@ args = 0, pretend = 0, frame = 0
 569              		@ frame_needed = 0, uses_anonymous_args = 0
 570              		@ link register save eliminated.
ARM GAS  /tmp/cc8CMedv.s 			page 11


 571              	.LVL35:
 572              		.loc 1 1030 0
 573 0000 8069     		ldr	r0, [r0, #24]
 574              	.LVL36:
 575 0002 0222     		movs	r2, #2
 576 0004 C368     		ldr	r3, [r0, #12]
 577 0006 02FA01F1 		lsl	r1, r2, r1
 578              	.LVL37:
 579 000a 23EA0103 		bic	r3, r3, r1
 580 000e C360     		str	r3, [r0, #12]
 581 0010 7047     		bx	lr
 582              		.cfi_endproc
 583              	.LFE331:
 584              		.size	pwm_lld_disable_channel_notification, .-pwm_lld_disable_channel_notification
 585              		.section	.text.pwm_lld_serve_interrupt,"ax",%progbits
 586              		.align	1
 587              		.global	pwm_lld_serve_interrupt
 588              		.thumb
 589              		.thumb_func
 590              		.type	pwm_lld_serve_interrupt, %function
 591              	pwm_lld_serve_interrupt:
 592              	.LFB332:
 593              		.loc 1 1043 0
 594              		.cfi_startproc
 595              		@ args = 0, pretend = 0, frame = 0
 596              		@ frame_needed = 0, uses_anonymous_args = 0
 597              	.LVL38:
 598              		.loc 1 1046 0
 599 0000 8369     		ldr	r3, [r0, #24]
 600              		.loc 1 1043 0
 601 0002 70B5     		push	{r4, r5, r6, lr}
 602              		.cfi_def_cfa_offset 16
 603              		.cfi_offset 4, -16
 604              		.cfi_offset 5, -12
 605              		.cfi_offset 6, -8
 606              		.cfi_offset 14, -4
 607              		.loc 1 1046 0
 608 0004 1D69     		ldr	r5, [r3, #16]
 609              	.LVL39:
 610              		.loc 1 1047 0
 611 0006 DA68     		ldr	r2, [r3, #12]
 612 0008 1540     		ands	r5, r5, r2
 613              	.LVL40:
 614              		.loc 1 1048 0
 615 000a EAB2     		uxtb	r2, r5
 616 000c D243     		mvns	r2, r2
 617              		.loc 1 1049 0
 618 000e AE07     		lsls	r6, r5, #30
 619              		.loc 1 1043 0
 620 0010 0446     		mov	r4, r0
 621              		.loc 1 1048 0
 622 0012 1A61     		str	r2, [r3, #16]
 623              		.loc 1 1049 0
 624 0014 03D5     		bpl	.L57
 625              		.loc 1 1050 0 discriminator 1
 626 0016 4368     		ldr	r3, [r0, #4]
 627 0018 1B69     		ldr	r3, [r3, #16]
ARM GAS  /tmp/cc8CMedv.s 			page 12


 628              		.loc 1 1049 0 discriminator 1
 629 001a 03B1     		cbz	r3, .L57
 630              		.loc 1 1051 0
 631 001c 9847     		blx	r3
 632              	.LVL41:
 633              	.L57:
 634              		.loc 1 1052 0
 635 001e 6807     		lsls	r0, r5, #29
 636 0020 04D5     		bpl	.L58
 637              		.loc 1 1053 0 discriminator 1
 638 0022 6368     		ldr	r3, [r4, #4]
 639 0024 9B69     		ldr	r3, [r3, #24]
 640              		.loc 1 1052 0 discriminator 1
 641 0026 0BB1     		cbz	r3, .L58
 642              		.loc 1 1054 0
 643 0028 2046     		mov	r0, r4
 644 002a 9847     		blx	r3
 645              	.LVL42:
 646              	.L58:
 647              		.loc 1 1055 0
 648 002c 2907     		lsls	r1, r5, #28
 649 002e 04D5     		bpl	.L59
 650              		.loc 1 1056 0 discriminator 1
 651 0030 6368     		ldr	r3, [r4, #4]
 652 0032 1B6A     		ldr	r3, [r3, #32]
 653              		.loc 1 1055 0 discriminator 1
 654 0034 0BB1     		cbz	r3, .L59
 655              		.loc 1 1057 0
 656 0036 2046     		mov	r0, r4
 657 0038 9847     		blx	r3
 658              	.LVL43:
 659              	.L59:
 660              		.loc 1 1058 0
 661 003a EA06     		lsls	r2, r5, #27
 662 003c 04D5     		bpl	.L60
 663              		.loc 1 1059 0 discriminator 1
 664 003e 6368     		ldr	r3, [r4, #4]
 665 0040 9B6A     		ldr	r3, [r3, #40]
 666              		.loc 1 1058 0 discriminator 1
 667 0042 0BB1     		cbz	r3, .L60
 668              		.loc 1 1060 0
 669 0044 2046     		mov	r0, r4
 670 0046 9847     		blx	r3
 671              	.LVL44:
 672              	.L60:
 673              		.loc 1 1061 0
 674 0048 EB07     		lsls	r3, r5, #31
 675 004a 06D5     		bpl	.L56
 676              		.loc 1 1061 0 is_stmt 0 discriminator 1
 677 004c 6368     		ldr	r3, [r4, #4]
 678 004e 9B68     		ldr	r3, [r3, #8]
 679 0050 1BB1     		cbz	r3, .L56
 680              		.loc 1 1062 0 is_stmt 1
 681 0052 2046     		mov	r0, r4
 682              		.loc 1 1063 0
 683 0054 BDE87040 		pop	{r4, r5, r6, lr}
 684              		.cfi_remember_state
ARM GAS  /tmp/cc8CMedv.s 			page 13


 685              		.cfi_restore 14
 686              		.cfi_restore 6
 687              		.cfi_restore 5
 688              		.cfi_restore 4
 689              		.cfi_def_cfa_offset 0
 690              	.LVL45:
 691              		.loc 1 1062 0
 692 0058 1847     		bx	r3	@ indirect register sibling call
 693              	.LVL46:
 694              	.L56:
 695              		.cfi_restore_state
 696 005a 70BD     		pop	{r4, r5, r6, pc}
 697              		.cfi_endproc
 698              	.LFE332:
 699              		.size	pwm_lld_serve_interrupt, .-pwm_lld_serve_interrupt
 700              		.global	PWMD4
 701              		.global	PWMD2
 702              		.global	PWMD1
 703              		.section	.bss.PWMD1,"aw",%nobits
 704              		.align	2
 705              		.set	.LANCHOR0,. + 0
 706              		.type	PWMD1, %object
 707              		.size	PWMD1, 28
 708              	PWMD1:
 709 0000 00000000 		.space	28
 709      00000000 
 709      00000000 
 709      00000000 
 709      00000000 
 710              		.section	.bss.PWMD2,"aw",%nobits
 711              		.align	2
 712              		.set	.LANCHOR1,. + 0
 713              		.type	PWMD2, %object
 714              		.size	PWMD2, 28
 715              	PWMD2:
 716 0000 00000000 		.space	28
 716      00000000 
 716      00000000 
 716      00000000 
 716      00000000 
 717              		.section	.bss.PWMD4,"aw",%nobits
 718              		.align	2
 719              		.set	.LANCHOR2,. + 0
 720              		.type	PWMD4, %object
 721              		.size	PWMD4, 28
 722              	PWMD4:
 723 0000 00000000 		.space	28
 723      00000000 
 723      00000000 
 723      00000000 
 723      00000000 
 724              		.text
 725              	.Letext0:
 726              		.file 2 "/usr/lib/gcc/arm-none-eabi/5.4.1/include/stddef.h"
 727              		.file 3 "/usr/include/newlib/machine/_default_types.h"
 728              		.file 4 "/usr/include/newlib/sys/_stdint.h"
 729              		.file 5 "../../modules/ChibiOS/os/common/ports/ARMCMx/compilers/GCC/chtypes.h"
ARM GAS  /tmp/cc8CMedv.s 			page 14


 730              		.file 6 "../../modules/ChibiOS/os/rt/include/chsystypes.h"
 731              		.file 7 "../../modules/ChibiOS/os/rt/include/chschd.h"
 732              		.file 8 "../../modules/ChibiOS/os/rt/include/chtime.h"
 733              		.file 9 "../../modules/ChibiOS/os/common/ext/ST/STM32F4xx/stm32f427xx.h"
 734              		.file 10 "../../modules/ChibiOS/os/common/ports/ARMCMx/chcore.h"
 735              		.file 11 "../../modules/ChibiOS/os/common/ports/ARMCMx/chcore_v7m.h"
 736              		.file 12 "../../modules/ChibiOS/os/hal/ports/STM32/LLD/TIMv1/stm32_tim.h"
 737              		.file 13 "../../modules/ChibiOS/os/rt/include/chtm.h"
 738              		.file 14 "../../modules/ChibiOS/os/rt/include/chstats.h"
 739              		.file 15 "../../modules/ChibiOS/os/rt/include/chsem.h"
 740              		.file 16 "../../modules/ChibiOS/os/rt/include/chmtx.h"
 741              		.file 17 "../../modules/ChibiOS/os/hal/include/hal_pwm.h"
 742              		.file 18 "../../modules/ChibiOS/os/hal/ports/STM32/LLD/TIMv1/hal_pwm_lld.h"
 743              		.file 19 "../../modules/ChibiOS/os/common/ext/ARM/CMSIS/Core/Include/core_cm4.h"