ARM GAS  /tmp/ccWMN03B.s 			page 1


   1              		.syntax unified
   2              		.cpu cortex-m4
   3              		.eabi_attribute 27, 1
   4              		.eabi_attribute 28, 1
   5              		.fpu fpv4-sp-d16
   6              		.eabi_attribute 20, 1
   7              		.eabi_attribute 21, 1
   8              		.eabi_attribute 23, 3
   9              		.eabi_attribute 24, 1
  10              		.eabi_attribute 25, 1
  11              		.eabi_attribute 26, 1
  12              		.eabi_attribute 30, 4
  13              		.eabi_attribute 34, 1
  14              		.eabi_attribute 18, 4
  15              		.thumb
  16              		.syntax unified
  17              		.file	"hal_st_lld.c"
  18              		.text
  19              	.Ltext0:
  20              		.cfi_sections	.debug_frame
  21              		.section	.text.Vector108,"ax",%progbits
  22              		.align	1
  23              		.global	Vector108
  24              		.thumb
  25              		.thumb_func
  26              		.type	Vector108, %function
  27              	Vector108:
  28              	.LFB323:
  29              		.file 1 "../../modules/ChibiOS/os/hal/ports/STM32/LLD/TIMv1/hal_st_lld.c"
  30              		.loc 1 253 0
  31              		.cfi_startproc
  32              		@ args = 0, pretend = 0, frame = 0
  33              		@ frame_needed = 0, uses_anonymous_args = 0
  34 0000 10B5     		push	{r4, lr}
  35              		.cfi_def_cfa_offset 8
  36              		.cfi_offset 4, -8
  37              		.cfi_offset 14, -4
  38              		.loc 1 255 0
  39 0002 FFF7FEFF 		bl	_stats_increase_irq
  40              	.LVL0:
  41              		.loc 1 260 0
  42 0006 0A4B     		ldr	r3, .L7
  43 0008 1A69     		ldr	r2, [r3, #16]
  44 000a 9207     		lsls	r2, r2, #30
  45 000c 0CD5     		bpl	.L2
  46              		.loc 1 261 0
  47 000e 0024     		movs	r4, #0
  48 0010 1C61     		str	r4, [r3, #16]
  49              	.LVL1:
  50              	.LBB48:
  51              	.LBB49:
  52              	.LBB50:
  53              	.LBB51:
  54              	.LBB52:
  55              	.LBB53:
  56              	.LBB54:
  57              		.file 2 "../../modules/ChibiOS/os/common/ext/ARM/CMSIS/Core/Include/cmsis_gcc.h"
ARM GAS  /tmp/ccWMN03B.s 			page 2


  58              		.loc 2 493 0
  59 0012 2023     		movs	r3, #32
  60              		.syntax unified
  61              	@ 493 "../../modules/ChibiOS/os/common/ext/ARM/CMSIS/Core/Include/cmsis_gcc.h" 1
  62 0014 83F31188 		MSR basepri, r3
  63              	@ 0 "" 2
  64              	.LVL2:
  65              		.thumb
  66              		.syntax unified
  67              	.LBE54:
  68              	.LBE53:
  69              	.LBE52:
  70              	.LBE51:
  71              		.file 3 "../../modules/ChibiOS/os/rt/include/chsys.h"
  72              		.loc 3 396 0
  73 0018 FFF7FEFF 		bl	_stats_start_measure_crit_isr
  74              	.LVL3:
  75              	.LBE50:
  76              	.LBE49:
  77              	.LBE48:
  78              	.LBB55:
  79              	.LBB56:
  80              		.file 4 "../../modules/ChibiOS/os/hal/osal/rt/osal.h"
  81              		.loc 4 603 0
  82 001c FFF7FEFF 		bl	chSysTimerHandlerI
  83              	.LVL4:
  84              	.LBE56:
  85              	.LBE55:
  86              	.LBB57:
  87              	.LBB58:
  88              	.LBB59:
  89              		.loc 3 416 0
  90 0020 FFF7FEFF 		bl	_stats_stop_measure_crit_isr
  91              	.LVL5:
  92              	.LBB60:
  93              	.LBB61:
  94              	.LBB62:
  95              	.LBB63:
  96              		.loc 2 493 0
  97              		.syntax unified
  98              	@ 493 "../../modules/ChibiOS/os/common/ext/ARM/CMSIS/Core/Include/cmsis_gcc.h" 1
  99 0024 84F31188 		MSR basepri, r4
 100              	@ 0 "" 2
 101              	.LVL6:
 102              		.thumb
 103              		.syntax unified
 104              	.L2:
 105              	.LBE63:
 106              	.LBE62:
 107              	.LBE61:
 108              	.LBE60:
 109              	.LBE59:
 110              	.LBE58:
 111              	.LBE57:
 112              		.loc 1 269 0
 113 0028 BDE81040 		pop	{r4, lr}
 114              		.cfi_restore 14
ARM GAS  /tmp/ccWMN03B.s 			page 3


 115              		.cfi_restore 4
 116              		.cfi_def_cfa_offset 0
 117              		.loc 1 268 0
 118 002c FFF7FEBF 		b	_port_irq_epilogue
 119              	.LVL7:
 120              	.L8:
 121              		.align	2
 122              	.L7:
 123 0030 000C0040 		.word	1073744896
 124              		.cfi_endproc
 125              	.LFE323:
 126              		.size	Vector108, .-Vector108
 127              		.section	.text.st_lld_init,"ax",%progbits
 128              		.align	1
 129              		.global	st_lld_init
 130              		.thumb
 131              		.thumb_func
 132              		.type	st_lld_init, %function
 133              	st_lld_init:
 134              	.LFB324:
 135              		.loc 1 281 0
 136              		.cfi_startproc
 137              		@ args = 0, pretend = 0, frame = 0
 138              		@ frame_needed = 0, uses_anonymous_args = 0
 139              		@ link register save eliminated.
 140              		.loc 1 287 0
 141 0000 104B     		ldr	r3, .L10
 142 0002 1A6C     		ldr	r2, [r3, #64]
 143 0004 42F00802 		orr	r2, r2, #8
 144 0008 1A64     		str	r2, [r3, #64]
 145 000a 1A6E     		ldr	r2, [r3, #96]
 146 000c 42F00802 		orr	r2, r2, #8
 147 0010 1A66     		str	r2, [r3, #96]
 148              		.loc 1 290 0
 149 0012 0D4A     		ldr	r2, .L10+4
 150              		.loc 1 287 0
 151 0014 1B6E     		ldr	r3, [r3, #96]
 152              		.loc 1 290 0
 153 0016 9368     		ldr	r3, [r2, #8]
 154 0018 43F00803 		orr	r3, r3, #8
 155 001c 9360     		str	r3, [r2, #8]
 156              		.loc 1 293 0
 157 001e 0B4B     		ldr	r3, .L10+8
 158 0020 5322     		movs	r2, #83
 159 0022 9A62     		str	r2, [r3, #40]
 160              		.loc 1 294 0
 161 0024 4FF0FF32 		mov	r2, #-1
 162 0028 DA62     		str	r2, [r3, #44]
 163              		.loc 1 295 0
 164 002a 0022     		movs	r2, #0
 165 002c 9A61     		str	r2, [r3, #24]
 166              		.loc 1 296 0
 167 002e 5A63     		str	r2, [r3, #52]
 168              		.loc 1 297 0
 169 0030 DA60     		str	r2, [r3, #12]
 170              		.loc 1 298 0
 171 0032 5A60     		str	r2, [r3, #4]
ARM GAS  /tmp/ccWMN03B.s 			page 4


 172              		.loc 1 299 0
 173 0034 0122     		movs	r2, #1
 174 0036 5A61     		str	r2, [r3, #20]
 175              		.loc 1 303 0
 176 0038 0821     		movs	r1, #8
 177              		.loc 1 300 0
 178 003a 1A60     		str	r2, [r3]
 179              		.loc 1 303 0
 180 003c 3220     		movs	r0, #50
 181 003e FFF7FEBF 		b	nvicEnableVector
 182              	.LVL8:
 183              	.L11:
 184 0042 00BF     		.align	2
 185              	.L10:
 186 0044 00380240 		.word	1073887232
 187 0048 002004E0 		.word	-536600576
 188 004c 000C0040 		.word	1073744896
 189              		.cfi_endproc
 190              	.LFE324:
 191              		.size	st_lld_init, .-st_lld_init
 192              		.text
 193              	.Letext0:
 194              		.file 5 "/usr/include/newlib/machine/_default_types.h"
 195              		.file 6 "/usr/include/newlib/sys/_stdint.h"
 196              		.file 7 "../../modules/ChibiOS/os/common/ports/ARMCMx/compilers/GCC/chtypes.h"
 197              		.file 8 "../../modules/ChibiOS/os/rt/include/chsystypes.h"
 198              		.file 9 "../../modules/ChibiOS/os/rt/include/chschd.h"
 199              		.file 10 "../../modules/ChibiOS/os/rt/include/chtime.h"
 200              		.file 11 "../../modules/ChibiOS/os/common/ext/ST/STM32F4xx/stm32f427xx.h"
 201              		.file 12 "../../modules/ChibiOS/os/common/ports/ARMCMx/chcore.h"
 202              		.file 13 "../../modules/ChibiOS/os/common/ports/ARMCMx/chcore_v7m.h"
 203              		.file 14 "../../modules/ChibiOS/os/hal/ports/STM32/LLD/TIMv1/stm32_tim.h"
 204              		.file 15 "../../modules/ChibiOS/os/rt/include/chtm.h"
 205              		.file 16 "../../modules/ChibiOS/os/rt/include/chstats.h"
 206              		.file 17 "../../modules/ChibiOS/os/rt/include/chsem.h"
 207              		.file 18 "../../modules/ChibiOS/os/rt/include/chmtx.h"
 208              		.file 19 "../../modules/ChibiOS/os/hal/ports/common/ARMCMx/nvic.h"
 209              		.file 20 "../../modules/ChibiOS/os/common/ext/ARM/CMSIS/Core/Include/core_cm4.h"