ARM GAS  /tmp/ccxER8tB.s 			page 1


   1              		.syntax unified
   2              		.cpu cortex-m4
   3              		.eabi_attribute 27, 1
   4              		.eabi_attribute 28, 1
   5              		.fpu fpv4-sp-d16
   6              		.eabi_attribute 20, 1
   7              		.eabi_attribute 21, 1
   8              		.eabi_attribute 23, 3
   9              		.eabi_attribute 24, 1
  10              		.eabi_attribute 25, 1
  11              		.eabi_attribute 26, 1
  12              		.eabi_attribute 30, 4
  13              		.eabi_attribute 34, 1
  14              		.eabi_attribute 18, 4
  15              		.thumb
  16              		.syntax unified
  17              		.file	"hal_adc.c"
  18              		.text
  19              	.Ltext0:
  20              		.cfi_sections	.debug_frame
  21              		.section	.text.adcInit,"ax",%progbits
  22              		.align	1
  23              		.global	adcInit
  24              		.thumb
  25              		.thumb_func
  26              		.type	adcInit, %function
  27              	adcInit:
  28              	.LFB323:
  29              		.file 1 "../../modules/ChibiOS/os/hal/src/hal_adc.c"
  30              		.loc 1 56 0
  31              		.cfi_startproc
  32              		@ args = 0, pretend = 0, frame = 0
  33              		@ frame_needed = 0, uses_anonymous_args = 0
  34              		@ link register save eliminated.
  35              		.loc 1 58 0
  36 0000 FFF7FEBF 		b	adc_lld_init
  37              	.LVL0:
  38              		.cfi_endproc
  39              	.LFE323:
  40              		.size	adcInit, .-adcInit
  41              		.section	.text.adcObjectInit,"ax",%progbits
  42              		.align	1
  43              		.global	adcObjectInit
  44              		.thumb
  45              		.thumb_func
  46              		.type	adcObjectInit, %function
  47              	adcObjectInit:
  48              	.LFB324:
  49              		.loc 1 68 0
  50              		.cfi_startproc
  51              		@ args = 0, pretend = 0, frame = 0
  52              		@ frame_needed = 0, uses_anonymous_args = 0
  53              		@ link register save eliminated.
  54              	.LVL1:
  55              		.loc 1 70 0
  56 0000 0123     		movs	r3, #1
  57 0002 0370     		strb	r3, [r0]
ARM GAS  /tmp/ccxER8tB.s 			page 2


  58              		.loc 1 71 0
  59 0004 0023     		movs	r3, #0
  60 0006 4360     		str	r3, [r0, #4]
  61              		.loc 1 72 0
  62 0008 8360     		str	r3, [r0, #8]
  63              		.loc 1 73 0
  64 000a C360     		str	r3, [r0, #12]
  65              		.loc 1 74 0
  66 000c 0361     		str	r3, [r0, #16]
  67              		.loc 1 76 0
  68 000e 4361     		str	r3, [r0, #20]
  69 0010 7047     		bx	lr
  70              		.cfi_endproc
  71              	.LFE324:
  72              		.size	adcObjectInit, .-adcObjectInit
  73              		.section	.text.adcStart,"ax",%progbits
  74              		.align	1
  75              		.global	adcStart
  76              		.thumb
  77              		.thumb_func
  78              		.type	adcStart, %function
  79              	adcStart:
  80              	.LFB325:
  81              		.loc 1 95 0
  82              		.cfi_startproc
  83              		@ args = 0, pretend = 0, frame = 0
  84              		@ frame_needed = 0, uses_anonymous_args = 0
  85              	.LVL2:
  86 0000 38B5     		push	{r3, r4, r5, lr}
  87              		.cfi_def_cfa_offset 16
  88              		.cfi_offset 3, -16
  89              		.cfi_offset 4, -12
  90              		.cfi_offset 5, -8
  91              		.cfi_offset 14, -4
  92              		.loc 1 95 0
  93 0002 0446     		mov	r4, r0
  94 0004 0D46     		mov	r5, r1
  95              	.LBB56:
  96              	.LBB57:
  97              	.LBB58:
  98              	.LBB59:
  99              	.LBB60:
 100              	.LBB61:
 101              		.file 2 "../../modules/ChibiOS/os/common/ext/ARM/CMSIS/Core/Include/cmsis_gcc.h"
 102              		.loc 2 493 0
 103 0006 2023     		movs	r3, #32
 104              		.syntax unified
 105              	@ 493 "../../modules/ChibiOS/os/common/ext/ARM/CMSIS/Core/Include/cmsis_gcc.h" 1
 106 0008 83F31188 		MSR basepri, r3
 107              	@ 0 "" 2
 108              	.LVL3:
 109              		.thumb
 110              		.syntax unified
 111              	.LBE61:
 112              	.LBE60:
 113              	.LBE59:
 114              		.file 3 "../../modules/ChibiOS/os/rt/include/chsys.h"
ARM GAS  /tmp/ccxER8tB.s 			page 3


 115              		.loc 3 356 0
 116 000c FFF7FEFF 		bl	_stats_start_measure_crit_thd
 117              	.LVL4:
 118              	.LBE58:
 119              	.LBE57:
 120              	.LBE56:
 121              		.loc 1 103 0
 122 0010 2046     		mov	r0, r4
 123              		.loc 1 102 0
 124 0012 6560     		str	r5, [r4, #4]
 125              		.loc 1 103 0
 126 0014 FFF7FEFF 		bl	adc_lld_start
 127              	.LVL5:
 128              		.loc 1 104 0
 129 0018 0223     		movs	r3, #2
 130 001a 2370     		strb	r3, [r4]
 131              	.LBB62:
 132              	.LBB63:
 133              	.LBB64:
 134              		.loc 3 368 0
 135 001c FFF7FEFF 		bl	_stats_stop_measure_crit_thd
 136              	.LVL6:
 137              	.LBB65:
 138              	.LBB66:
 139              	.LBB67:
 140              		.loc 2 493 0
 141 0020 0023     		movs	r3, #0
 142              		.syntax unified
 143              	@ 493 "../../modules/ChibiOS/os/common/ext/ARM/CMSIS/Core/Include/cmsis_gcc.h" 1
 144 0022 83F31188 		MSR basepri, r3
 145              	@ 0 "" 2
 146              	.LVL7:
 147              		.thumb
 148              		.syntax unified
 149 0026 38BD     		pop	{r3, r4, r5, pc}
 150              	.LBE67:
 151              	.LBE66:
 152              	.LBE65:
 153              	.LBE64:
 154              	.LBE63:
 155              	.LBE62:
 156              		.cfi_endproc
 157              	.LFE325:
 158              		.size	adcStart, .-adcStart
 159              		.section	.text.adcStop,"ax",%progbits
 160              		.align	1
 161              		.global	adcStop
 162              		.thumb
 163              		.thumb_func
 164              		.type	adcStop, %function
 165              	adcStop:
 166              	.LFB326:
 167              		.loc 1 115 0
 168              		.cfi_startproc
 169              		@ args = 0, pretend = 0, frame = 0
 170              		@ frame_needed = 0, uses_anonymous_args = 0
 171              	.LVL8:
ARM GAS  /tmp/ccxER8tB.s 			page 4


 172 0000 38B5     		push	{r3, r4, r5, lr}
 173              		.cfi_def_cfa_offset 16
 174              		.cfi_offset 3, -16
 175              		.cfi_offset 4, -12
 176              		.cfi_offset 5, -8
 177              		.cfi_offset 14, -4
 178              		.loc 1 115 0
 179 0002 0446     		mov	r4, r0
 180              	.LBB82:
 181              	.LBB83:
 182              	.LBB84:
 183              	.LBB85:
 184              	.LBB86:
 185              	.LBB87:
 186              		.loc 2 493 0
 187 0004 2023     		movs	r3, #32
 188              		.syntax unified
 189              	@ 493 "../../modules/ChibiOS/os/common/ext/ARM/CMSIS/Core/Include/cmsis_gcc.h" 1
 190 0006 83F31188 		MSR basepri, r3
 191              	@ 0 "" 2
 192              	.LVL9:
 193              		.thumb
 194              		.syntax unified
 195              	.LBE87:
 196              	.LBE86:
 197              	.LBE85:
 198              		.loc 3 356 0
 199 000a FFF7FEFF 		bl	_stats_start_measure_crit_thd
 200              	.LVL10:
 201              	.LBE84:
 202              	.LBE83:
 203              	.LBE82:
 204              		.loc 1 124 0
 205 000e 2046     		mov	r0, r4
 206 0010 FFF7FEFF 		bl	adc_lld_stop
 207              	.LVL11:
 208              		.loc 1 125 0
 209 0014 0025     		movs	r5, #0
 210              		.loc 1 126 0
 211 0016 0123     		movs	r3, #1
 212              		.loc 1 125 0
 213 0018 6560     		str	r5, [r4, #4]
 214              		.loc 1 126 0
 215 001a 2370     		strb	r3, [r4]
 216              	.LBB88:
 217              	.LBB89:
 218              	.LBB90:
 219              		.loc 3 368 0
 220 001c FFF7FEFF 		bl	_stats_stop_measure_crit_thd
 221              	.LVL12:
 222              	.LBB91:
 223              	.LBB92:
 224              	.LBB93:
 225              		.loc 2 493 0
 226              		.syntax unified
 227              	@ 493 "../../modules/ChibiOS/os/common/ext/ARM/CMSIS/Core/Include/cmsis_gcc.h" 1
 228 0020 85F31188 		MSR basepri, r5
ARM GAS  /tmp/ccxER8tB.s 			page 5


 229              	@ 0 "" 2
 230              	.LVL13:
 231              		.thumb
 232              		.syntax unified
 233 0024 38BD     		pop	{r3, r4, r5, pc}
 234              	.LBE93:
 235              	.LBE92:
 236              	.LBE91:
 237              	.LBE90:
 238              	.LBE89:
 239              	.LBE88:
 240              		.cfi_endproc
 241              	.LFE326:
 242              		.size	adcStop, .-adcStop
 243              		.section	.text.adcStartConversion,"ax",%progbits
 244              		.align	1
 245              		.global	adcStartConversion
 246              		.thumb
 247              		.thumb_func
 248              		.type	adcStartConversion, %function
 249              	adcStartConversion:
 250              	.LFB327:
 251              		.loc 1 150 0
 252              		.cfi_startproc
 253              		@ args = 0, pretend = 0, frame = 0
 254              		@ frame_needed = 0, uses_anonymous_args = 0
 255              	.LVL14:
 256 0000 F8B5     		push	{r3, r4, r5, r6, r7, lr}
 257              		.cfi_def_cfa_offset 24
 258              		.cfi_offset 3, -24
 259              		.cfi_offset 4, -20
 260              		.cfi_offset 5, -16
 261              		.cfi_offset 6, -12
 262              		.cfi_offset 7, -8
 263              		.cfi_offset 14, -4
 264              		.loc 1 150 0
 265 0002 1E46     		mov	r6, r3
 266 0004 0446     		mov	r4, r0
 267 0006 0D46     		mov	r5, r1
 268 0008 1746     		mov	r7, r2
 269              	.LBB110:
 270              	.LBB111:
 271              	.LBB112:
 272              	.LBB113:
 273              	.LBB114:
 274              	.LBB115:
 275              		.loc 2 493 0
 276 000a 2023     		movs	r3, #32
 277              	.LVL15:
 278              		.syntax unified
 279              	@ 493 "../../modules/ChibiOS/os/common/ext/ARM/CMSIS/Core/Include/cmsis_gcc.h" 1
 280 000c 83F31188 		MSR basepri, r3
 281              	@ 0 "" 2
 282              	.LVL16:
 283              		.thumb
 284              		.syntax unified
 285              	.LBE115:
ARM GAS  /tmp/ccxER8tB.s 			page 6


 286              	.LBE114:
 287              	.LBE113:
 288              		.loc 3 356 0
 289 0010 FFF7FEFF 		bl	_stats_start_measure_crit_thd
 290              	.LVL17:
 291              	.LBE112:
 292              	.LBE111:
 293              	.LBE110:
 294              	.LBB116:
 295              	.LBB117:
 296              		.loc 1 190 0
 297 0014 0323     		movs	r3, #3
 298 0016 2370     		strb	r3, [r4]
 299              		.loc 1 191 0
 300 0018 2046     		mov	r0, r4
 301              		.loc 1 187 0
 302 001a A760     		str	r7, [r4, #8]
 303              		.loc 1 188 0
 304 001c E660     		str	r6, [r4, #12]
 305              		.loc 1 189 0
 306 001e 2561     		str	r5, [r4, #16]
 307              		.loc 1 191 0
 308 0020 FFF7FEFF 		bl	adc_lld_start_conversion
 309              	.LVL18:
 310              	.LBE117:
 311              	.LBE116:
 312              	.LBB118:
 313              	.LBB119:
 314              	.LBB120:
 315              		.loc 3 368 0
 316 0024 FFF7FEFF 		bl	_stats_stop_measure_crit_thd
 317              	.LVL19:
 318              	.LBB121:
 319              	.LBB122:
 320              	.LBB123:
 321              		.loc 2 493 0
 322 0028 0023     		movs	r3, #0
 323              		.syntax unified
 324              	@ 493 "../../modules/ChibiOS/os/common/ext/ARM/CMSIS/Core/Include/cmsis_gcc.h" 1
 325 002a 83F31188 		MSR basepri, r3
 326              	@ 0 "" 2
 327              	.LVL20:
 328              		.thumb
 329              		.syntax unified
 330 002e F8BD     		pop	{r3, r4, r5, r6, r7, pc}
 331              	.LBE123:
 332              	.LBE122:
 333              	.LBE121:
 334              	.LBE120:
 335              	.LBE119:
 336              	.LBE118:
 337              		.cfi_endproc
 338              	.LFE327:
 339              		.size	adcStartConversion, .-adcStartConversion
 340              		.section	.text.adcStartConversionI,"ax",%progbits
 341              		.align	1
 342              		.global	adcStartConversionI
ARM GAS  /tmp/ccxER8tB.s 			page 7


 343              		.thumb
 344              		.thumb_func
 345              		.type	adcStartConversionI, %function
 346              	adcStartConversionI:
 347              	.LFB328:
 348              		.loc 1 178 0
 349              		.cfi_startproc
 350              		@ args = 0, pretend = 0, frame = 0
 351              		@ frame_needed = 0, uses_anonymous_args = 0
 352              		@ link register save eliminated.
 353              	.LVL21:
 354 0000 10B4     		push	{r4}
 355              		.cfi_def_cfa_offset 4
 356              		.cfi_offset 4, -4
 357              		.loc 1 188 0
 358 0002 C360     		str	r3, [r0, #12]
 359              		.loc 1 190 0
 360 0004 0323     		movs	r3, #3
 361              	.LVL22:
 362              		.loc 1 187 0
 363 0006 8260     		str	r2, [r0, #8]
 364              		.loc 1 189 0
 365 0008 0161     		str	r1, [r0, #16]
 366              		.loc 1 190 0
 367 000a 0370     		strb	r3, [r0]
 368              		.loc 1 192 0
 369 000c 5DF8044B 		ldr	r4, [sp], #4
 370              		.cfi_restore 4
 371              		.cfi_def_cfa_offset 0
 372              		.loc 1 191 0
 373 0010 FFF7FEBF 		b	adc_lld_start_conversion
 374              	.LVL23:
 375              		.cfi_endproc
 376              	.LFE328:
 377              		.size	adcStartConversionI, .-adcStartConversionI
 378              		.section	.text.adcStopConversion,"ax",%progbits
 379              		.align	1
 380              		.global	adcStopConversion
 381              		.thumb
 382              		.thumb_func
 383              		.type	adcStopConversion, %function
 384              	adcStopConversion:
 385              	.LFB329:
 386              		.loc 1 204 0
 387              		.cfi_startproc
 388              		@ args = 0, pretend = 0, frame = 0
 389              		@ frame_needed = 0, uses_anonymous_args = 0
 390              	.LVL24:
 391 0000 10B5     		push	{r4, lr}
 392              		.cfi_def_cfa_offset 8
 393              		.cfi_offset 4, -8
 394              		.cfi_offset 14, -4
 395              	.LBB140:
 396              	.LBB141:
 397              	.LBB142:
 398              	.LBB143:
 399              	.LBB144:
ARM GAS  /tmp/ccxER8tB.s 			page 8


 400              	.LBB145:
 401              		.loc 2 493 0
 402 0002 2023     		movs	r3, #32
 403              	.LBE145:
 404              	.LBE144:
 405              	.LBE143:
 406              	.LBE142:
 407              	.LBE141:
 408              	.LBE140:
 409              		.loc 1 204 0
 410 0004 0446     		mov	r4, r0
 411              	.LBB151:
 412              	.LBB150:
 413              	.LBB149:
 414              	.LBB148:
 415              	.LBB147:
 416              	.LBB146:
 417              		.loc 2 493 0
 418              		.syntax unified
 419              	@ 493 "../../modules/ChibiOS/os/common/ext/ARM/CMSIS/Core/Include/cmsis_gcc.h" 1
 420 0006 83F31188 		MSR basepri, r3
 421              	@ 0 "" 2
 422              	.LVL25:
 423              		.thumb
 424              		.syntax unified
 425              	.LBE146:
 426              	.LBE147:
 427              	.LBE148:
 428              		.loc 3 356 0
 429 000a FFF7FEFF 		bl	_stats_start_measure_crit_thd
 430              	.LVL26:
 431              	.LBE149:
 432              	.LBE150:
 433              	.LBE151:
 434              		.loc 1 211 0
 435 000e 2378     		ldrb	r3, [r4]	@ zero_extendqisi2
 436 0010 022B     		cmp	r3, #2
 437 0012 0CD0     		beq	.L8
 438              		.loc 1 212 0
 439 0014 2046     		mov	r0, r4
 440 0016 FFF7FEFF 		bl	adc_lld_stop_conversion
 441              	.LVL27:
 442              		.loc 1 213 0
 443 001a 0023     		movs	r3, #0
 444              		.loc 1 214 0
 445 001c 2046     		mov	r0, r4
 446              		.loc 1 213 0
 447 001e 2361     		str	r3, [r4, #16]
 448              		.loc 1 214 0
 449 0020 0223     		movs	r3, #2
 450 0022 00F8143B 		strb	r3, [r0], #20
 451              	.LVL28:
 452              	.LBB152:
 453              	.LBB153:
 454              		.file 4 "../../modules/ChibiOS/os/hal/osal/rt/osal.h"
 455              		.loc 4 790 0
 456 0026 6FF00101 		mvn	r1, #1
ARM GAS  /tmp/ccxER8tB.s 			page 9


 457 002a FFF7FEFF 		bl	chThdResumeS
 458              	.LVL29:
 459              	.L8:
 460              	.LBE153:
 461              	.LBE152:
 462              	.LBB154:
 463              	.LBB155:
 464              	.LBB156:
 465              		.loc 3 368 0
 466 002e FFF7FEFF 		bl	_stats_stop_measure_crit_thd
 467              	.LVL30:
 468              	.LBB157:
 469              	.LBB158:
 470              	.LBB159:
 471              		.loc 2 493 0
 472 0032 0023     		movs	r3, #0
 473              		.syntax unified
 474              	@ 493 "../../modules/ChibiOS/os/common/ext/ARM/CMSIS/Core/Include/cmsis_gcc.h" 1
 475 0034 83F31188 		MSR basepri, r3
 476              	@ 0 "" 2
 477              	.LVL31:
 478              		.thumb
 479              		.syntax unified
 480 0038 10BD     		pop	{r4, pc}
 481              	.LBE159:
 482              	.LBE158:
 483              	.LBE157:
 484              	.LBE156:
 485              	.LBE155:
 486              	.LBE154:
 487              		.cfi_endproc
 488              	.LFE329:
 489              		.size	adcStopConversion, .-adcStopConversion
 490              		.section	.text.adcStopConversionI,"ax",%progbits
 491              		.align	1
 492              		.global	adcStopConversionI
 493              		.thumb
 494              		.thumb_func
 495              		.type	adcStopConversionI, %function
 496              	adcStopConversionI:
 497              	.LFB330:
 498              		.loc 1 230 0
 499              		.cfi_startproc
 500              		@ args = 0, pretend = 0, frame = 0
 501              		@ frame_needed = 0, uses_anonymous_args = 0
 502              	.LVL32:
 503              		.loc 1 239 0
 504 0000 0378     		ldrb	r3, [r0]	@ zero_extendqisi2
 505 0002 022B     		cmp	r3, #2
 506              		.loc 1 230 0
 507 0004 10B5     		push	{r4, lr}
 508              		.cfi_def_cfa_offset 8
 509              		.cfi_offset 4, -8
 510              		.cfi_offset 14, -4
 511              		.loc 1 230 0
 512 0006 0446     		mov	r4, r0
 513              		.loc 1 239 0
ARM GAS  /tmp/ccxER8tB.s 			page 10


 514 0008 0DD0     		beq	.L13
 515              		.loc 1 240 0
 516 000a FFF7FEFF 		bl	adc_lld_stop_conversion
 517              	.LVL33:
 518              		.loc 1 241 0
 519 000e 0023     		movs	r3, #0
 520              		.loc 1 242 0
 521 0010 2046     		mov	r0, r4
 522              		.loc 1 241 0
 523 0012 2361     		str	r3, [r4, #16]
 524              		.loc 1 242 0
 525 0014 0223     		movs	r3, #2
 526 0016 00F8143B 		strb	r3, [r0], #20
 527              	.LVL34:
 528              	.LBB160:
 529              	.LBB161:
 530              		.loc 4 775 0
 531 001a 6FF00101 		mvn	r1, #1
 532              	.LBE161:
 533              	.LBE160:
 534              		.loc 1 245 0
 535 001e BDE81040 		pop	{r4, lr}
 536              		.cfi_remember_state
 537              		.cfi_restore 14
 538              		.cfi_restore 4
 539              		.cfi_def_cfa_offset 0
 540              	.LVL35:
 541              	.LBB163:
 542              	.LBB162:
 543              		.loc 4 775 0
 544 0022 FFF7FEBF 		b	chThdResumeI
 545              	.LVL36:
 546              	.L13:
 547              		.cfi_restore_state
 548 0026 10BD     		pop	{r4, pc}
 549              	.LBE162:
 550              	.LBE163:
 551              		.cfi_endproc
 552              	.LFE330:
 553              		.size	adcStopConversionI, .-adcStopConversionI
 554              		.section	.text.adcConvert,"ax",%progbits
 555              		.align	1
 556              		.global	adcConvert
 557              		.thumb
 558              		.thumb_func
 559              		.type	adcConvert, %function
 560              	adcConvert:
 561              	.LFB331:
 562              		.loc 1 274 0
 563              		.cfi_startproc
 564              		@ args = 0, pretend = 0, frame = 0
 565              		@ frame_needed = 0, uses_anonymous_args = 0
 566              	.LVL37:
 567 0000 F8B5     		push	{r3, r4, r5, r6, r7, lr}
 568              		.cfi_def_cfa_offset 24
 569              		.cfi_offset 3, -24
 570              		.cfi_offset 4, -20
ARM GAS  /tmp/ccxER8tB.s 			page 11


 571              		.cfi_offset 5, -16
 572              		.cfi_offset 6, -12
 573              		.cfi_offset 7, -8
 574              		.cfi_offset 14, -4
 575              		.loc 1 274 0
 576 0002 1E46     		mov	r6, r3
 577 0004 0446     		mov	r4, r0
 578 0006 0D46     		mov	r5, r1
 579 0008 1746     		mov	r7, r2
 580              	.LBB182:
 581              	.LBB183:
 582              	.LBB184:
 583              	.LBB185:
 584              	.LBB186:
 585              	.LBB187:
 586              		.loc 2 493 0
 587 000a 2023     		movs	r3, #32
 588              	.LVL38:
 589              		.syntax unified
 590              	@ 493 "../../modules/ChibiOS/os/common/ext/ARM/CMSIS/Core/Include/cmsis_gcc.h" 1
 591 000c 83F31188 		MSR basepri, r3
 592              	@ 0 "" 2
 593              	.LVL39:
 594              		.thumb
 595              		.syntax unified
 596              	.LBE187:
 597              	.LBE186:
 598              	.LBE185:
 599              		.loc 3 356 0
 600 0010 FFF7FEFF 		bl	_stats_start_measure_crit_thd
 601              	.LVL40:
 602              	.LBE184:
 603              	.LBE183:
 604              	.LBE182:
 605              	.LBB188:
 606              	.LBB189:
 607              		.loc 1 190 0
 608 0014 0323     		movs	r3, #3
 609 0016 2370     		strb	r3, [r4]
 610              		.loc 1 187 0
 611 0018 A760     		str	r7, [r4, #8]
 612              		.loc 1 188 0
 613 001a E660     		str	r6, [r4, #12]
 614              		.loc 1 189 0
 615 001c 2561     		str	r5, [r4, #16]
 616              		.loc 1 191 0
 617 001e 2046     		mov	r0, r4
 618 0020 FFF7FEFF 		bl	adc_lld_start_conversion
 619              	.LVL41:
 620              	.LBE189:
 621              	.LBE188:
 622              	.LBB190:
 623              	.LBB191:
 624              		.loc 4 735 0
 625 0024 4FF0FF31 		mov	r1, #-1
 626 0028 04F11400 		add	r0, r4, #20
 627              	.LVL42:
ARM GAS  /tmp/ccxER8tB.s 			page 12


 628 002c FFF7FEFF 		bl	chThdSuspendTimeoutS
 629              	.LVL43:
 630 0030 0446     		mov	r4, r0
 631              	.LVL44:
 632              	.LBE191:
 633              	.LBE190:
 634              	.LBB192:
 635              	.LBB193:
 636              	.LBB194:
 637              		.loc 3 368 0
 638 0032 FFF7FEFF 		bl	_stats_stop_measure_crit_thd
 639              	.LVL45:
 640              	.LBB195:
 641              	.LBB196:
 642              	.LBB197:
 643              		.loc 2 493 0
 644 0036 0023     		movs	r3, #0
 645              		.syntax unified
 646              	@ 493 "../../modules/ChibiOS/os/common/ext/ARM/CMSIS/Core/Include/cmsis_gcc.h" 1
 647 0038 83F31188 		MSR basepri, r3
 648              	@ 0 "" 2
 649              	.LVL46:
 650              		.thumb
 651              		.syntax unified
 652              	.LBE197:
 653              	.LBE196:
 654              	.LBE195:
 655              	.LBE194:
 656              	.LBE193:
 657              	.LBE192:
 658              		.loc 1 283 0
 659 003c 2046     		mov	r0, r4
 660 003e F8BD     		pop	{r3, r4, r5, r6, r7, pc}
 661              		.cfi_endproc
 662              	.LFE331:
 663              		.size	adcConvert, .-adcConvert
 664              		.text
 665              	.Letext0:
 666              		.file 5 "/usr/lib/gcc/arm-none-eabi/5.4.1/include/stddef.h"
 667              		.file 6 "/usr/include/newlib/machine/_default_types.h"
 668              		.file 7 "/usr/include/newlib/sys/_stdint.h"
 669              		.file 8 "../../modules/ChibiOS/os/common/ports/ARMCMx/compilers/GCC/chtypes.h"
 670              		.file 9 "../../modules/ChibiOS/os/rt/include/chsystypes.h"
 671              		.file 10 "../../modules/ChibiOS/os/rt/include/chschd.h"
 672              		.file 11 "../../modules/ChibiOS/os/rt/include/chtime.h"
 673              		.file 12 "../../modules/ChibiOS/os/common/ext/ST/STM32F4xx/stm32f427xx.h"
 674              		.file 13 "../../modules/ChibiOS/os/common/ports/ARMCMx/chcore.h"
 675              		.file 14 "../../modules/ChibiOS/os/common/ports/ARMCMx/chcore_v7m.h"
 676              		.file 15 "../../modules/ChibiOS/os/rt/include/chtm.h"
 677              		.file 16 "../../modules/ChibiOS/os/rt/include/chstats.h"
 678              		.file 17 "../../modules/ChibiOS/os/rt/include/chsem.h"
 679              		.file 18 "../../modules/ChibiOS/os/rt/include/chmtx.h"
 680              		.file 19 "../../modules/ChibiOS/os/hal/ports/STM32/LLD/DMAv2/stm32_dma.h"
 681              		.file 20 "../../modules/ChibiOS/os/hal/include/hal_adc.h"
 682              		.file 21 "../../modules/ChibiOS/os/hal/ports/STM32/LLD/ADCv2/hal_adc_lld.h"
 683              		.file 22 "../../modules/ChibiOS/os/rt/include/chthreads.h"
 684              		.file 23 "../../modules/ChibiOS/os/common/ext/ARM/CMSIS/Core/Include/core_cm4.h"
ARM GAS  /tmp/ccxER8tB.s 			page 13


 685              		.section	.debug_info,"",%progbits
 686              	.Ldebug_info0:
 687 0000 B5150000 		.4byte	0x15b5
 688 0004 0400     		.2byte	0x4
 689 0006 00000000 		.4byte	.Ldebug_abbrev0
 690 000a 04       		.byte	0x4
 691 000b 01       		.uleb128 0x1
 692 000c 19060000 		.4byte	.LASF203
 693 0010 0C       		.byte	0xc
 694 0011 09020000 		.4byte	.LASF204
 695 0015 9A050000 		.4byte	.LASF205
 696 0019 48000000 		.4byte	.Ldebug_ranges0+0x48
 697 001d 00000000 		.4byte	0
 698 0021 00000000 		.4byte	.Ldebug_line0
 699 0025 02       		.uleb128 0x2
 700 0026 04       		.byte	0x4
 701 0027 05       		.byte	0x5
 702 0028 696E7400 		.ascii	"int\000"
 703 002c 03       		.uleb128 0x3
 704 002d 18000000 		.4byte	.LASF4
 705 0031 05       		.byte	0x5
 706 0032 D8       		.byte	0xd8
 707 0033 37000000 		.4byte	0x37
 708 0037 04       		.uleb128 0x4
 709 0038 04       		.byte	0x4
 710 0039 07       		.byte	0x7
 711 003a 20050000 		.4byte	.LASF0
 712 003e 04       		.uleb128 0x4
 713 003f 08       		.byte	0x8
 714 0040 05       		.byte	0x5
 715 0041 B3040000 		.4byte	.LASF1
 716 0045 04       		.uleb128 0x4
 717 0046 08       		.byte	0x8
 718 0047 04       		.byte	0x4
 719 0048 E6050000 		.4byte	.LASF2
 720 004c 04       		.uleb128 0x4
 721 004d 01       		.byte	0x1
 722 004e 06       		.byte	0x6
 723 004f EE010000 		.4byte	.LASF3
 724 0053 03       		.uleb128 0x3
 725 0054 48010000 		.4byte	.LASF5
 726 0058 06       		.byte	0x6
 727 0059 1D       		.byte	0x1d
 728 005a 5E000000 		.4byte	0x5e
 729 005e 04       		.uleb128 0x4
 730 005f 01       		.byte	0x1
 731 0060 08       		.byte	0x8
 732 0061 46020000 		.4byte	.LASF6
 733 0065 04       		.uleb128 0x4
 734 0066 02       		.byte	0x2
 735 0067 05       		.byte	0x5
 736 0068 6B080000 		.4byte	.LASF7
 737 006c 03       		.uleb128 0x3
 738 006d AD020000 		.4byte	.LASF8
 739 0071 06       		.byte	0x6
 740 0072 2B       		.byte	0x2b
 741 0073 77000000 		.4byte	0x77
ARM GAS  /tmp/ccxER8tB.s 			page 14


 742 0077 04       		.uleb128 0x4
 743 0078 02       		.byte	0x2
 744 0079 07       		.byte	0x7
 745 007a 56090000 		.4byte	.LASF9
 746 007e 03       		.uleb128 0x3
 747 007f AD090000 		.4byte	.LASF10
 748 0083 06       		.byte	0x6
 749 0084 3F       		.byte	0x3f
 750 0085 89000000 		.4byte	0x89
 751 0089 04       		.uleb128 0x4
 752 008a 04       		.byte	0x4
 753 008b 05       		.byte	0x5
 754 008c 52010000 		.4byte	.LASF11
 755 0090 03       		.uleb128 0x3
 756 0091 A0040000 		.4byte	.LASF12
 757 0095 06       		.byte	0x6
 758 0096 41       		.byte	0x41
 759 0097 9B000000 		.4byte	0x9b
 760 009b 04       		.uleb128 0x4
 761 009c 04       		.byte	0x4
 762 009d 07       		.byte	0x7
 763 009e 9B030000 		.4byte	.LASF13
 764 00a2 03       		.uleb128 0x3
 765 00a3 84030000 		.4byte	.LASF14
 766 00a7 06       		.byte	0x6
 767 00a8 5B       		.byte	0x5b
 768 00a9 AD000000 		.4byte	0xad
 769 00ad 04       		.uleb128 0x4
 770 00ae 08       		.byte	0x8
 771 00af 07       		.byte	0x7
 772 00b0 3F070000 		.4byte	.LASF15
 773 00b4 03       		.uleb128 0x3
 774 00b5 01020000 		.4byte	.LASF16
 775 00b9 07       		.byte	0x7
 776 00ba 18       		.byte	0x18
 777 00bb 53000000 		.4byte	0x53
 778 00bf 03       		.uleb128 0x3
 779 00c0 56070000 		.4byte	.LASF17
 780 00c4 07       		.byte	0x7
 781 00c5 24       		.byte	0x24
 782 00c6 6C000000 		.4byte	0x6c
 783 00ca 03       		.uleb128 0x3
 784 00cb 7C000000 		.4byte	.LASF18
 785 00cf 07       		.byte	0x7
 786 00d0 2C       		.byte	0x2c
 787 00d1 7E000000 		.4byte	0x7e
 788 00d5 03       		.uleb128 0x3
 789 00d6 46090000 		.4byte	.LASF19
 790 00da 07       		.byte	0x7
 791 00db 30       		.byte	0x30
 792 00dc 90000000 		.4byte	0x90
 793 00e0 03       		.uleb128 0x3
 794 00e1 75080000 		.4byte	.LASF20
 795 00e5 07       		.byte	0x7
 796 00e6 3C       		.byte	0x3c
 797 00e7 A2000000 		.4byte	0xa2
 798 00eb 03       		.uleb128 0x3
ARM GAS  /tmp/ccxER8tB.s 			page 15


 799 00ec 2D050000 		.4byte	.LASF21
 800 00f0 08       		.byte	0x8
 801 00f1 27       		.byte	0x27
 802 00f2 D5000000 		.4byte	0xd5
 803 00f6 03       		.uleb128 0x3
 804 00f7 70010000 		.4byte	.LASF22
 805 00fb 08       		.byte	0x8
 806 00fc 28       		.byte	0x28
 807 00fd E0000000 		.4byte	0xe0
 808 0101 03       		.uleb128 0x3
 809 0102 1B080000 		.4byte	.LASF23
 810 0106 08       		.byte	0x8
 811 0107 2A       		.byte	0x2a
 812 0108 B4000000 		.4byte	0xb4
 813 010c 03       		.uleb128 0x3
 814 010d 67010000 		.4byte	.LASF24
 815 0111 08       		.byte	0x8
 816 0112 2B       		.byte	0x2b
 817 0113 B4000000 		.4byte	0xb4
 818 0117 03       		.uleb128 0x3
 819 0118 07090000 		.4byte	.LASF25
 820 011c 08       		.byte	0x8
 821 011d 2C       		.byte	0x2c
 822 011e B4000000 		.4byte	0xb4
 823 0122 03       		.uleb128 0x3
 824 0123 57000000 		.4byte	.LASF26
 825 0127 08       		.byte	0x8
 826 0128 2E       		.byte	0x2e
 827 0129 D5000000 		.4byte	0xd5
 828 012d 03       		.uleb128 0x3
 829 012e 5F070000 		.4byte	.LASF27
 830 0132 08       		.byte	0x8
 831 0133 2F       		.byte	0x2f
 832 0134 CA000000 		.4byte	0xca
 833 0138 03       		.uleb128 0x3
 834 0139 34020000 		.4byte	.LASF28
 835 013d 08       		.byte	0x8
 836 013e 31       		.byte	0x31
 837 013f D5000000 		.4byte	0xd5
 838 0143 03       		.uleb128 0x3
 839 0144 44030000 		.4byte	.LASF29
 840 0148 08       		.byte	0x8
 841 0149 33       		.byte	0x33
 842 014a CA000000 		.4byte	0xca
 843 014e 03       		.uleb128 0x3
 844 014f 23040000 		.4byte	.LASF30
 845 0153 08       		.byte	0x8
 846 0154 34       		.byte	0x34
 847 0155 D5000000 		.4byte	0xd5
 848 0159 03       		.uleb128 0x3
 849 015a DD050000 		.4byte	.LASF31
 850 015e 09       		.byte	0x9
 851 015f 34       		.byte	0x34
 852 0160 64010000 		.4byte	0x164
 853 0164 05       		.uleb128 0x5
 854 0165 CB030000 		.4byte	.LASF50
 855 0169 60       		.byte	0x60
ARM GAS  /tmp/ccxER8tB.s 			page 16


 856 016a 0A       		.byte	0xa
 857 016b 8E       		.byte	0x8e
 858 016c 4F020000 		.4byte	0x24f
 859 0170 06       		.uleb128 0x6
 860 0171 98070000 		.4byte	.LASF32
 861 0175 0A       		.byte	0xa
 862 0176 8F       		.byte	0x8f
 863 0177 84020000 		.4byte	0x284
 864 017b 00       		.byte	0
 865 017c 06       		.uleb128 0x6
 866 017d 01010000 		.4byte	.LASF33
 867 0181 0A       		.byte	0xa
 868 0182 90       		.byte	0x90
 869 0183 22010000 		.4byte	0x122
 870 0187 08       		.byte	0x8
 871 0188 07       		.uleb128 0x7
 872 0189 63747800 		.ascii	"ctx\000"
 873 018d 0A       		.byte	0xa
 874 018e 91       		.byte	0x91
 875 018f 09060000 		.4byte	0x609
 876 0193 0C       		.byte	0xc
 877 0194 06       		.uleb128 0x6
 878 0195 40090000 		.4byte	.LASF34
 879 0199 0A       		.byte	0xa
 880 019a 93       		.byte	0x93
 881 019b 5A020000 		.4byte	0x25a
 882 019f 10       		.byte	0x10
 883 01a0 06       		.uleb128 0x6
 884 01a1 14040000 		.4byte	.LASF35
 885 01a5 0A       		.byte	0xa
 886 01a6 94       		.byte	0x94
 887 01a7 5A020000 		.4byte	0x25a
 888 01ab 14       		.byte	0x14
 889 01ac 06       		.uleb128 0x6
 890 01ad 54080000 		.4byte	.LASF36
 891 01b1 0A       		.byte	0xa
 892 01b2 9B       		.byte	0x9b
 893 01b3 EF080000 		.4byte	0x8ef
 894 01b7 18       		.byte	0x18
 895 01b8 06       		.uleb128 0x6
 896 01b9 0E080000 		.4byte	.LASF37
 897 01bd 0A       		.byte	0xa
 898 01be A4       		.byte	0xa4
 899 01bf 01090000 		.4byte	0x901
 900 01c3 1C       		.byte	0x1c
 901 01c4 06       		.uleb128 0x6
 902 01c5 EC000000 		.4byte	.LASF38
 903 01c9 0A       		.byte	0xa
 904 01ca A9       		.byte	0xa9
 905 01cb 0C010000 		.4byte	0x10c
 906 01cf 20       		.byte	0x20
 907 01d0 06       		.uleb128 0x6
 908 01d1 D2020000 		.4byte	.LASF39
 909 01d5 0A       		.byte	0xa
 910 01d6 AD       		.byte	0xad
 911 01d7 01010000 		.4byte	0x101
 912 01db 21       		.byte	0x21
ARM GAS  /tmp/ccxER8tB.s 			page 17


 913 01dc 06       		.uleb128 0x6
 914 01dd 93070000 		.4byte	.LASF40
 915 01e1 0A       		.byte	0xa
 916 01e2 B2       		.byte	0xb2
 917 01e3 17010000 		.4byte	0x117
 918 01e7 22       		.byte	0x22
 919 01e8 08       		.uleb128 0x8
 920 01e9 7500     		.ascii	"u\000"
 921 01eb 0A       		.byte	0xa
 922 01ec 0301     		.2byte	0x103
 923 01ee 25080000 		.4byte	0x825
 924 01f2 24       		.byte	0x24
 925 01f3 09       		.uleb128 0x9
 926 01f4 E5080000 		.4byte	.LASF41
 927 01f8 0A       		.byte	0xa
 928 01f9 0801     		.2byte	0x108
 929 01fb 60020000 		.4byte	0x260
 930 01ff 28       		.byte	0x28
 931 0200 09       		.uleb128 0x9
 932 0201 98080000 		.4byte	.LASF42
 933 0205 0A       		.byte	0xa
 934 0206 0E01     		.2byte	0x10e
 935 0208 84020000 		.4byte	0x284
 936 020c 2C       		.byte	0x2c
 937 020d 09       		.uleb128 0x9
 938 020e 9E070000 		.4byte	.LASF43
 939 0212 0A       		.byte	0xa
 940 0213 1401     		.2byte	0x114
 941 0215 38010000 		.4byte	0x138
 942 0219 34       		.byte	0x34
 943 021a 09       		.uleb128 0x9
 944 021b AB040000 		.4byte	.LASF44
 945 021f 0A       		.byte	0xa
 946 0220 1B01     		.2byte	0x11b
 947 0222 E9080000 		.4byte	0x8e9
 948 0226 38       		.byte	0x38
 949 0227 09       		.uleb128 0x9
 950 0228 1A040000 		.4byte	.LASF45
 951 022c 0A       		.byte	0xa
 952 022d 1F01     		.2byte	0x11f
 953 022f 22010000 		.4byte	0x122
 954 0233 3C       		.byte	0x3c
 955 0234 09       		.uleb128 0x9
 956 0235 05030000 		.4byte	.LASF46
 957 0239 0A       		.byte	0xa
 958 023a 2601     		.2byte	0x126
 959 023c 37030000 		.4byte	0x337
 960 0240 40       		.byte	0x40
 961 0241 09       		.uleb128 0x9
 962 0242 F2000000 		.4byte	.LASF47
 963 0246 0A       		.byte	0xa
 964 0247 2C01     		.2byte	0x12c
 965 0249 D6070000 		.4byte	0x7d6
 966 024d 48       		.byte	0x48
 967 024e 00       		.byte	0
 968 024f 03       		.uleb128 0x3
 969 0250 F2050000 		.4byte	.LASF48
ARM GAS  /tmp/ccxER8tB.s 			page 18


 970 0254 09       		.byte	0x9
 971 0255 39       		.byte	0x39
 972 0256 5A020000 		.4byte	0x25a
 973 025a 0A       		.uleb128 0xa
 974 025b 04       		.byte	0x4
 975 025c 59010000 		.4byte	0x159
 976 0260 03       		.uleb128 0x3
 977 0261 27090000 		.4byte	.LASF49
 978 0265 09       		.byte	0x9
 979 0266 3E       		.byte	0x3e
 980 0267 6B020000 		.4byte	0x26b
 981 026b 05       		.uleb128 0x5
 982 026c 52040000 		.4byte	.LASF51
 983 0270 04       		.byte	0x4
 984 0271 0A       		.byte	0xa
 985 0272 7C       		.byte	0x7c
 986 0273 84020000 		.4byte	0x284
 987 0277 06       		.uleb128 0x6
 988 0278 C1090000 		.4byte	.LASF52
 989 027c 0A       		.byte	0xa
 990 027d 7D       		.byte	0x7d
 991 027e 5A020000 		.4byte	0x25a
 992 0282 00       		.byte	0
 993 0283 00       		.byte	0
 994 0284 03       		.uleb128 0x3
 995 0285 79010000 		.4byte	.LASF53
 996 0289 09       		.byte	0x9
 997 028a 45       		.byte	0x45
 998 028b 8F020000 		.4byte	0x28f
 999 028f 05       		.uleb128 0x5
 1000 0290 65070000 		.4byte	.LASF54
 1001 0294 08       		.byte	0x8
 1002 0295 0A       		.byte	0xa
 1003 0296 83       		.byte	0x83
 1004 0297 B4020000 		.4byte	0x2b4
 1005 029b 06       		.uleb128 0x6
 1006 029c C1090000 		.4byte	.LASF52
 1007 02a0 0A       		.byte	0xa
 1008 02a1 84       		.byte	0x84
 1009 02a2 5A020000 		.4byte	0x25a
 1010 02a6 00       		.byte	0
 1011 02a7 06       		.uleb128 0x6
 1012 02a8 C6090000 		.4byte	.LASF55
 1013 02ac 0A       		.byte	0xa
 1014 02ad 85       		.byte	0x85
 1015 02ae 5A020000 		.4byte	0x25a
 1016 02b2 04       		.byte	0x4
 1017 02b3 00       		.byte	0
 1018 02b4 03       		.uleb128 0x3
 1019 02b5 07040000 		.4byte	.LASF56
 1020 02b9 09       		.byte	0x9
 1021 02ba 4C       		.byte	0x4c
 1022 02bb BF020000 		.4byte	0x2bf
 1023 02bf 0B       		.uleb128 0xb
 1024 02c0 6B030000 		.4byte	.LASF57
 1025 02c4 1C       		.byte	0x1c
 1026 02c5 0A       		.byte	0xa
ARM GAS  /tmp/ccxER8tB.s 			page 19


 1027 02c6 5E01     		.2byte	0x15e
 1028 02c8 1B030000 		.4byte	0x31b
 1029 02cc 09       		.uleb128 0x9
 1030 02cd 98070000 		.4byte	.LASF32
 1031 02d1 0A       		.byte	0xa
 1032 02d2 5F01     		.2byte	0x15f
 1033 02d4 84020000 		.4byte	0x284
 1034 02d8 00       		.byte	0
 1035 02d9 09       		.uleb128 0x9
 1036 02da 01010000 		.4byte	.LASF33
 1037 02de 0A       		.byte	0xa
 1038 02df 6001     		.2byte	0x160
 1039 02e1 22010000 		.4byte	0x122
 1040 02e5 08       		.byte	0x8
 1041 02e6 08       		.uleb128 0x8
 1042 02e7 63747800 		.ascii	"ctx\000"
 1043 02eb 0A       		.byte	0xa
 1044 02ec 6201     		.2byte	0x162
 1045 02ee 09060000 		.4byte	0x609
 1046 02f2 0C       		.byte	0xc
 1047 02f3 09       		.uleb128 0x9
 1048 02f4 40090000 		.4byte	.LASF34
 1049 02f8 0A       		.byte	0xa
 1050 02f9 6501     		.2byte	0x165
 1051 02fb 5A020000 		.4byte	0x25a
 1052 02ff 10       		.byte	0x10
 1053 0300 09       		.uleb128 0x9
 1054 0301 14040000 		.4byte	.LASF35
 1055 0305 0A       		.byte	0xa
 1056 0306 6601     		.2byte	0x166
 1057 0308 5A020000 		.4byte	0x25a
 1058 030c 14       		.byte	0x14
 1059 030d 09       		.uleb128 0x9
 1060 030e 51050000 		.4byte	.LASF58
 1061 0312 0A       		.byte	0xa
 1062 0313 6901     		.2byte	0x169
 1063 0315 5A020000 		.4byte	0x25a
 1064 0319 18       		.byte	0x18
 1065 031a 00       		.byte	0
 1066 031b 03       		.uleb128 0x3
 1067 031c 9C000000 		.4byte	.LASF59
 1068 0320 09       		.byte	0x9
 1069 0321 51       		.byte	0x51
 1070 0322 26030000 		.4byte	0x326
 1071 0326 0A       		.uleb128 0xa
 1072 0327 04       		.byte	0x4
 1073 0328 2C030000 		.4byte	0x32c
 1074 032c 0C       		.uleb128 0xc
 1075 032d 37030000 		.4byte	0x337
 1076 0331 0D       		.uleb128 0xd
 1077 0332 37030000 		.4byte	0x337
 1078 0336 00       		.byte	0
 1079 0337 0E       		.uleb128 0xe
 1080 0338 04       		.byte	0x4
 1081 0339 03       		.uleb128 0x3
 1082 033a F7030000 		.4byte	.LASF60
 1083 033e 09       		.byte	0x9
ARM GAS  /tmp/ccxER8tB.s 			page 20


 1084 033f 56       		.byte	0x56
 1085 0340 44030000 		.4byte	0x344
 1086 0344 0B       		.uleb128 0xb
 1087 0345 17070000 		.4byte	.LASF61
 1088 0349 14       		.byte	0x14
 1089 034a 0A       		.byte	0xa
 1090 034b 3901     		.2byte	0x139
 1091 034d 93030000 		.4byte	0x393
 1092 0351 09       		.uleb128 0x9
 1093 0352 C1090000 		.4byte	.LASF52
 1094 0356 0A       		.byte	0xa
 1095 0357 3A01     		.2byte	0x13a
 1096 0359 07090000 		.4byte	0x907
 1097 035d 00       		.byte	0
 1098 035e 09       		.uleb128 0x9
 1099 035f C6090000 		.4byte	.LASF55
 1100 0363 0A       		.byte	0xa
 1101 0364 3B01     		.2byte	0x13b
 1102 0366 07090000 		.4byte	0x907
 1103 036a 04       		.byte	0x4
 1104 036b 09       		.uleb128 0x9
 1105 036c 76070000 		.4byte	.LASF62
 1106 0370 0A       		.byte	0xa
 1107 0371 3C01     		.2byte	0x13c
 1108 0373 77040000 		.4byte	0x477
 1109 0377 08       		.byte	0x8
 1110 0378 09       		.uleb128 0x9
 1111 0379 7E080000 		.4byte	.LASF63
 1112 037d 0A       		.byte	0xa
 1113 037e 3D01     		.2byte	0x13d
 1114 0380 1B030000 		.4byte	0x31b
 1115 0384 0C       		.byte	0xc
 1116 0385 08       		.uleb128 0x8
 1117 0386 70617200 		.ascii	"par\000"
 1118 038a 0A       		.byte	0xa
 1119 038b 3F01     		.2byte	0x13f
 1120 038d 37030000 		.4byte	0x337
 1121 0391 10       		.byte	0x10
 1122 0392 00       		.byte	0
 1123 0393 03       		.uleb128 0x3
 1124 0394 D5030000 		.4byte	.LASF64
 1125 0398 09       		.byte	0x9
 1126 0399 5B       		.byte	0x5b
 1127 039a 9E030000 		.4byte	0x39e
 1128 039e 0B       		.uleb128 0xb
 1129 039f B2000000 		.4byte	.LASF65
 1130 03a3 10       		.byte	0x10
 1131 03a4 0A       		.byte	0xa
 1132 03a5 4901     		.2byte	0x149
 1133 03a7 E0030000 		.4byte	0x3e0
 1134 03ab 09       		.uleb128 0x9
 1135 03ac C1090000 		.4byte	.LASF52
 1136 03b0 0A       		.byte	0xa
 1137 03b1 4A01     		.2byte	0x14a
 1138 03b3 07090000 		.4byte	0x907
 1139 03b7 00       		.byte	0
 1140 03b8 09       		.uleb128 0x9
ARM GAS  /tmp/ccxER8tB.s 			page 21


 1141 03b9 C6090000 		.4byte	.LASF55
 1142 03bd 0A       		.byte	0xa
 1143 03be 4C01     		.2byte	0x14c
 1144 03c0 07090000 		.4byte	0x907
 1145 03c4 04       		.byte	0x4
 1146 03c5 09       		.uleb128 0x9
 1147 03c6 76070000 		.4byte	.LASF62
 1148 03ca 0A       		.byte	0xa
 1149 03cb 4E01     		.2byte	0x14e
 1150 03cd 77040000 		.4byte	0x477
 1151 03d1 08       		.byte	0x8
 1152 03d2 09       		.uleb128 0x9
 1153 03d3 54020000 		.4byte	.LASF66
 1154 03d7 0A       		.byte	0xa
 1155 03d8 5601     		.2byte	0x156
 1156 03da 6C040000 		.4byte	0x46c
 1157 03de 0C       		.byte	0xc
 1158 03df 00       		.byte	0
 1159 03e0 03       		.uleb128 0x3
 1160 03e1 7D020000 		.4byte	.LASF67
 1161 03e5 09       		.byte	0x9
 1162 03e6 60       		.byte	0x60
 1163 03e7 EB030000 		.4byte	0x3eb
 1164 03eb 0B       		.uleb128 0xb
 1165 03ec A7080000 		.4byte	.LASF68
 1166 03f0 04       		.byte	0x4
 1167 03f1 0A       		.byte	0xa
 1168 03f2 7001     		.2byte	0x170
 1169 03f4 06040000 		.4byte	0x406
 1170 03f8 09       		.uleb128 0x9
 1171 03f9 5D020000 		.4byte	.LASF69
 1172 03fd 0A       		.byte	0xa
 1173 03fe 7801     		.2byte	0x178
 1174 0400 0D090000 		.4byte	0x90d
 1175 0404 00       		.byte	0
 1176 0405 00       		.byte	0
 1177 0406 03       		.uleb128 0x3
 1178 0407 69090000 		.4byte	.LASF70
 1179 040b 09       		.byte	0x9
 1180 040c 65       		.byte	0x65
 1181 040d 11040000 		.4byte	0x411
 1182 0411 0B       		.uleb128 0xb
 1183 0412 36090000 		.4byte	.LASF71
 1184 0416 D0       		.byte	0xd0
 1185 0417 0A       		.byte	0xa
 1186 0418 9001     		.2byte	0x190
 1187 041a 6C040000 		.4byte	0x46c
 1188 041e 09       		.uleb128 0x9
 1189 041f 15080000 		.4byte	.LASF72
 1190 0423 0A       		.byte	0xa
 1191 0424 9401     		.2byte	0x194
 1192 0426 B4020000 		.4byte	0x2b4
 1193 042a 00       		.byte	0
 1194 042b 09       		.uleb128 0x9
 1195 042c DE080000 		.4byte	.LASF73
 1196 0430 0A       		.byte	0xa
 1197 0431 9801     		.2byte	0x198
ARM GAS  /tmp/ccxER8tB.s 			page 22


 1198 0433 93030000 		.4byte	0x393
 1199 0437 1C       		.byte	0x1c
 1200 0438 08       		.uleb128 0x8
 1201 0439 64626700 		.ascii	"dbg\000"
 1202 043d 0A       		.byte	0xa
 1203 043e 9C01     		.2byte	0x19c
 1204 0440 E0030000 		.4byte	0x3e0
 1205 0444 2C       		.byte	0x2c
 1206 0445 09       		.uleb128 0x9
 1207 0446 F0070000 		.4byte	.LASF74
 1208 044a 0A       		.byte	0xa
 1209 044b A001     		.2byte	0x1a0
 1210 044d 59010000 		.4byte	0x159
 1211 0451 30       		.byte	0x30
 1212 0452 08       		.uleb128 0x8
 1213 0453 746D00   		.ascii	"tm\000"
 1214 0456 0A       		.byte	0xa
 1215 0457 A501     		.2byte	0x1a5
 1216 0459 88070000 		.4byte	0x788
 1217 045d 90       		.byte	0x90
 1218 045e 09       		.uleb128 0x9
 1219 045f 28070000 		.4byte	.LASF75
 1220 0463 0A       		.byte	0xa
 1221 0464 AB01     		.2byte	0x1ab
 1222 0466 1A080000 		.4byte	0x81a
 1223 046a 98       		.byte	0x98
 1224 046b 00       		.byte	0
 1225 046c 03       		.uleb128 0x3
 1226 046d 47000000 		.4byte	.LASF76
 1227 0471 0B       		.byte	0xb
 1228 0472 6D       		.byte	0x6d
 1229 0473 D5000000 		.4byte	0xd5
 1230 0477 03       		.uleb128 0x3
 1231 0478 C1040000 		.4byte	.LASF77
 1232 047c 0B       		.byte	0xb
 1233 047d 79       		.byte	0x79
 1234 047e D5000000 		.4byte	0xd5
 1235 0482 04       		.uleb128 0x4
 1236 0483 04       		.byte	0x4
 1237 0484 07       		.byte	0x7
 1238 0485 29000000 		.4byte	.LASF78
 1239 0489 0F       		.uleb128 0xf
 1240 048a D5000000 		.4byte	0xd5
 1241 048e 10       		.uleb128 0x10
 1242 048f 50       		.byte	0x50
 1243 0490 0C       		.byte	0xc
 1244 0491 CA       		.byte	0xca
 1245 0492 85050000 		.4byte	0x585
 1246 0496 07       		.uleb128 0x7
 1247 0497 535200   		.ascii	"SR\000"
 1248 049a 0C       		.byte	0xc
 1249 049b CC       		.byte	0xcc
 1250 049c 89040000 		.4byte	0x489
 1251 04a0 00       		.byte	0
 1252 04a1 07       		.uleb128 0x7
 1253 04a2 43523100 		.ascii	"CR1\000"
 1254 04a6 0C       		.byte	0xc
ARM GAS  /tmp/ccxER8tB.s 			page 23


 1255 04a7 CD       		.byte	0xcd
 1256 04a8 89040000 		.4byte	0x489
 1257 04ac 04       		.byte	0x4
 1258 04ad 07       		.uleb128 0x7
 1259 04ae 43523200 		.ascii	"CR2\000"
 1260 04b2 0C       		.byte	0xc
 1261 04b3 CE       		.byte	0xce
 1262 04b4 89040000 		.4byte	0x489
 1263 04b8 08       		.byte	0x8
 1264 04b9 06       		.uleb128 0x6
 1265 04ba EB030000 		.4byte	.LASF79
 1266 04be 0C       		.byte	0xc
 1267 04bf CF       		.byte	0xcf
 1268 04c0 89040000 		.4byte	0x489
 1269 04c4 0C       		.byte	0xc
 1270 04c5 06       		.uleb128 0x6
 1271 04c6 F1030000 		.4byte	.LASF80
 1272 04ca 0C       		.byte	0xc
 1273 04cb D0       		.byte	0xd0
 1274 04cc 89040000 		.4byte	0x489
 1275 04d0 10       		.byte	0x10
 1276 04d1 06       		.uleb128 0x6
 1277 04d2 8C080000 		.4byte	.LASF81
 1278 04d6 0C       		.byte	0xc
 1279 04d7 D1       		.byte	0xd1
 1280 04d8 89040000 		.4byte	0x489
 1281 04dc 14       		.byte	0x14
 1282 04dd 06       		.uleb128 0x6
 1283 04de 92080000 		.4byte	.LASF82
 1284 04e2 0C       		.byte	0xc
 1285 04e3 D2       		.byte	0xd2
 1286 04e4 89040000 		.4byte	0x489
 1287 04e8 18       		.byte	0x18
 1288 04e9 06       		.uleb128 0x6
 1289 04ea 5E030000 		.4byte	.LASF83
 1290 04ee 0C       		.byte	0xc
 1291 04ef D3       		.byte	0xd3
 1292 04f0 89040000 		.4byte	0x489
 1293 04f4 1C       		.byte	0x1c
 1294 04f5 06       		.uleb128 0x6
 1295 04f6 A1080000 		.4byte	.LASF84
 1296 04fa 0C       		.byte	0xc
 1297 04fb D4       		.byte	0xd4
 1298 04fc 89040000 		.4byte	0x489
 1299 0500 20       		.byte	0x20
 1300 0501 07       		.uleb128 0x7
 1301 0502 48545200 		.ascii	"HTR\000"
 1302 0506 0C       		.byte	0xc
 1303 0507 D5       		.byte	0xd5
 1304 0508 89040000 		.4byte	0x489
 1305 050c 24       		.byte	0x24
 1306 050d 07       		.uleb128 0x7
 1307 050e 4C545200 		.ascii	"LTR\000"
 1308 0512 0C       		.byte	0xc
 1309 0513 D6       		.byte	0xd6
 1310 0514 89040000 		.4byte	0x489
 1311 0518 28       		.byte	0x28
ARM GAS  /tmp/ccxER8tB.s 			page 24


 1312 0519 06       		.uleb128 0x6
 1313 051a 6D000000 		.4byte	.LASF85
 1314 051e 0C       		.byte	0xc
 1315 051f D7       		.byte	0xd7
 1316 0520 89040000 		.4byte	0x489
 1317 0524 2C       		.byte	0x2c
 1318 0525 06       		.uleb128 0x6
 1319 0526 72000000 		.4byte	.LASF86
 1320 052a 0C       		.byte	0xc
 1321 052b D8       		.byte	0xd8
 1322 052c 89040000 		.4byte	0x489
 1323 0530 30       		.byte	0x30
 1324 0531 06       		.uleb128 0x6
 1325 0532 77000000 		.4byte	.LASF87
 1326 0536 0C       		.byte	0xc
 1327 0537 D9       		.byte	0xd9
 1328 0538 89040000 		.4byte	0x489
 1329 053c 34       		.byte	0x34
 1330 053d 06       		.uleb128 0x6
 1331 053e D9080000 		.4byte	.LASF88
 1332 0542 0C       		.byte	0xc
 1333 0543 DA       		.byte	0xda
 1334 0544 89040000 		.4byte	0x489
 1335 0548 38       		.byte	0x38
 1336 0549 06       		.uleb128 0x6
 1337 054a C5080000 		.4byte	.LASF89
 1338 054e 0C       		.byte	0xc
 1339 054f DB       		.byte	0xdb
 1340 0550 89040000 		.4byte	0x489
 1341 0554 3C       		.byte	0x3c
 1342 0555 06       		.uleb128 0x6
 1343 0556 CA080000 		.4byte	.LASF90
 1344 055a 0C       		.byte	0xc
 1345 055b DC       		.byte	0xdc
 1346 055c 89040000 		.4byte	0x489
 1347 0560 40       		.byte	0x40
 1348 0561 06       		.uleb128 0x6
 1349 0562 CF080000 		.4byte	.LASF91
 1350 0566 0C       		.byte	0xc
 1351 0567 DD       		.byte	0xdd
 1352 0568 89040000 		.4byte	0x489
 1353 056c 44       		.byte	0x44
 1354 056d 06       		.uleb128 0x6
 1355 056e D4080000 		.4byte	.LASF92
 1356 0572 0C       		.byte	0xc
 1357 0573 DE       		.byte	0xde
 1358 0574 89040000 		.4byte	0x489
 1359 0578 48       		.byte	0x48
 1360 0579 07       		.uleb128 0x7
 1361 057a 445200   		.ascii	"DR\000"
 1362 057d 0C       		.byte	0xc
 1363 057e DF       		.byte	0xdf
 1364 057f 89040000 		.4byte	0x489
 1365 0583 4C       		.byte	0x4c
 1366 0584 00       		.byte	0
 1367 0585 03       		.uleb128 0x3
 1368 0586 52030000 		.4byte	.LASF93
ARM GAS  /tmp/ccxER8tB.s 			page 25


 1369 058a 0C       		.byte	0xc
 1370 058b E0       		.byte	0xe0
 1371 058c 8E040000 		.4byte	0x48e
 1372 0590 11       		.uleb128 0x11
 1373 0591 18       		.byte	0x18
 1374 0592 0C       		.byte	0xc
 1375 0593 7101     		.2byte	0x171
 1376 0595 E7050000 		.4byte	0x5e7
 1377 0599 08       		.uleb128 0x8
 1378 059a 435200   		.ascii	"CR\000"
 1379 059d 0C       		.byte	0xc
 1380 059e 7301     		.2byte	0x173
 1381 05a0 89040000 		.4byte	0x489
 1382 05a4 00       		.byte	0
 1383 05a5 09       		.uleb128 0x9
 1384 05a6 B7090000 		.4byte	.LASF94
 1385 05aa 0C       		.byte	0xc
 1386 05ab 7401     		.2byte	0x174
 1387 05ad 89040000 		.4byte	0x489
 1388 05b1 04       		.byte	0x4
 1389 05b2 08       		.uleb128 0x8
 1390 05b3 50415200 		.ascii	"PAR\000"
 1391 05b7 0C       		.byte	0xc
 1392 05b8 7501     		.2byte	0x175
 1393 05ba 89040000 		.4byte	0x489
 1394 05be 08       		.byte	0x8
 1395 05bf 09       		.uleb128 0x9
 1396 05c0 4F080000 		.4byte	.LASF95
 1397 05c4 0C       		.byte	0xc
 1398 05c5 7601     		.2byte	0x176
 1399 05c7 89040000 		.4byte	0x489
 1400 05cb 0C       		.byte	0xc
 1401 05cc 09       		.uleb128 0x9
 1402 05cd 00000000 		.4byte	.LASF96
 1403 05d1 0C       		.byte	0xc
 1404 05d2 7701     		.2byte	0x177
 1405 05d4 89040000 		.4byte	0x489
 1406 05d8 10       		.byte	0x10
 1407 05d9 08       		.uleb128 0x8
 1408 05da 46435200 		.ascii	"FCR\000"
 1409 05de 0C       		.byte	0xc
 1410 05df 7801     		.2byte	0x178
 1411 05e1 89040000 		.4byte	0x489
 1412 05e5 14       		.byte	0x14
 1413 05e6 00       		.byte	0
 1414 05e7 12       		.uleb128 0x12
 1415 05e8 87050000 		.4byte	.LASF97
 1416 05ec 0C       		.byte	0xc
 1417 05ed 7901     		.2byte	0x179
 1418 05ef 90050000 		.4byte	0x590
 1419 05f3 03       		.uleb128 0x3
 1420 05f4 8F010000 		.4byte	.LASF98
 1421 05f8 0D       		.byte	0xd
 1422 05f9 65       		.byte	0x65
 1423 05fa 37030000 		.4byte	0x337
 1424 05fe 03       		.uleb128 0x3
 1425 05ff D8020000 		.4byte	.LASF99
ARM GAS  /tmp/ccxER8tB.s 			page 26


 1426 0603 0D       		.byte	0xd
 1427 0604 6D       		.byte	0x6d
 1428 0605 E0000000 		.4byte	0xe0
 1429 0609 05       		.uleb128 0x5
 1430 060a 0F090000 		.4byte	.LASF100
 1431 060e 04       		.byte	0x4
 1432 060f 0D       		.byte	0xd
 1433 0610 89       		.byte	0x89
 1434 0611 21060000 		.4byte	0x621
 1435 0615 07       		.uleb128 0x7
 1436 0616 737000   		.ascii	"sp\000"
 1437 0619 0D       		.byte	0xd
 1438 061a 8A       		.byte	0x8a
 1439 061b 6D070000 		.4byte	0x76d
 1440 061f 00       		.byte	0
 1441 0620 00       		.byte	0
 1442 0621 0B       		.uleb128 0xb
 1443 0622 0D060000 		.4byte	.LASF101
 1444 0626 64       		.byte	0x64
 1445 0627 0E       		.byte	0xe
 1446 0628 5901     		.2byte	0x159
 1447 062a 6D070000 		.4byte	0x76d
 1448 062e 08       		.uleb128 0x8
 1449 062f 73313600 		.ascii	"s16\000"
 1450 0633 0E       		.byte	0xe
 1451 0634 5B01     		.2byte	0x15b
 1452 0636 F3050000 		.4byte	0x5f3
 1453 063a 00       		.byte	0
 1454 063b 08       		.uleb128 0x8
 1455 063c 73313700 		.ascii	"s17\000"
 1456 0640 0E       		.byte	0xe
 1457 0641 5C01     		.2byte	0x15c
 1458 0643 F3050000 		.4byte	0x5f3
 1459 0647 04       		.byte	0x4
 1460 0648 08       		.uleb128 0x8
 1461 0649 73313800 		.ascii	"s18\000"
 1462 064d 0E       		.byte	0xe
 1463 064e 5D01     		.2byte	0x15d
 1464 0650 F3050000 		.4byte	0x5f3
 1465 0654 08       		.byte	0x8
 1466 0655 08       		.uleb128 0x8
 1467 0656 73313900 		.ascii	"s19\000"
 1468 065a 0E       		.byte	0xe
 1469 065b 5E01     		.2byte	0x15e
 1470 065d F3050000 		.4byte	0x5f3
 1471 0661 0C       		.byte	0xc
 1472 0662 08       		.uleb128 0x8
 1473 0663 73323000 		.ascii	"s20\000"
 1474 0667 0E       		.byte	0xe
 1475 0668 5F01     		.2byte	0x15f
 1476 066a F3050000 		.4byte	0x5f3
 1477 066e 10       		.byte	0x10
 1478 066f 08       		.uleb128 0x8
 1479 0670 73323100 		.ascii	"s21\000"
 1480 0674 0E       		.byte	0xe
 1481 0675 6001     		.2byte	0x160
 1482 0677 F3050000 		.4byte	0x5f3
ARM GAS  /tmp/ccxER8tB.s 			page 27


 1483 067b 14       		.byte	0x14
 1484 067c 08       		.uleb128 0x8
 1485 067d 73323200 		.ascii	"s22\000"
 1486 0681 0E       		.byte	0xe
 1487 0682 6101     		.2byte	0x161
 1488 0684 F3050000 		.4byte	0x5f3
 1489 0688 18       		.byte	0x18
 1490 0689 08       		.uleb128 0x8
 1491 068a 73323300 		.ascii	"s23\000"
 1492 068e 0E       		.byte	0xe
 1493 068f 6201     		.2byte	0x162
 1494 0691 F3050000 		.4byte	0x5f3
 1495 0695 1C       		.byte	0x1c
 1496 0696 08       		.uleb128 0x8
 1497 0697 73323400 		.ascii	"s24\000"
 1498 069b 0E       		.byte	0xe
 1499 069c 6301     		.2byte	0x163
 1500 069e F3050000 		.4byte	0x5f3
 1501 06a2 20       		.byte	0x20
 1502 06a3 08       		.uleb128 0x8
 1503 06a4 73323500 		.ascii	"s25\000"
 1504 06a8 0E       		.byte	0xe
 1505 06a9 6401     		.2byte	0x164
 1506 06ab F3050000 		.4byte	0x5f3
 1507 06af 24       		.byte	0x24
 1508 06b0 08       		.uleb128 0x8
 1509 06b1 73323600 		.ascii	"s26\000"
 1510 06b5 0E       		.byte	0xe
 1511 06b6 6501     		.2byte	0x165
 1512 06b8 F3050000 		.4byte	0x5f3
 1513 06bc 28       		.byte	0x28
 1514 06bd 08       		.uleb128 0x8
 1515 06be 73323700 		.ascii	"s27\000"
 1516 06c2 0E       		.byte	0xe
 1517 06c3 6601     		.2byte	0x166
 1518 06c5 F3050000 		.4byte	0x5f3
 1519 06c9 2C       		.byte	0x2c
 1520 06ca 08       		.uleb128 0x8
 1521 06cb 73323800 		.ascii	"s28\000"
 1522 06cf 0E       		.byte	0xe
 1523 06d0 6701     		.2byte	0x167
 1524 06d2 F3050000 		.4byte	0x5f3
 1525 06d6 30       		.byte	0x30
 1526 06d7 08       		.uleb128 0x8
 1527 06d8 73323900 		.ascii	"s29\000"
 1528 06dc 0E       		.byte	0xe
 1529 06dd 6801     		.2byte	0x168
 1530 06df F3050000 		.4byte	0x5f3
 1531 06e3 34       		.byte	0x34
 1532 06e4 08       		.uleb128 0x8
 1533 06e5 73333000 		.ascii	"s30\000"
 1534 06e9 0E       		.byte	0xe
 1535 06ea 6901     		.2byte	0x169
 1536 06ec F3050000 		.4byte	0x5f3
 1537 06f0 38       		.byte	0x38
 1538 06f1 08       		.uleb128 0x8
 1539 06f2 73333100 		.ascii	"s31\000"
ARM GAS  /tmp/ccxER8tB.s 			page 28


 1540 06f6 0E       		.byte	0xe
 1541 06f7 6A01     		.2byte	0x16a
 1542 06f9 F3050000 		.4byte	0x5f3
 1543 06fd 3C       		.byte	0x3c
 1544 06fe 08       		.uleb128 0x8
 1545 06ff 723400   		.ascii	"r4\000"
 1546 0702 0E       		.byte	0xe
 1547 0703 6C01     		.2byte	0x16c
 1548 0705 F3050000 		.4byte	0x5f3
 1549 0709 40       		.byte	0x40
 1550 070a 08       		.uleb128 0x8
 1551 070b 723500   		.ascii	"r5\000"
 1552 070e 0E       		.byte	0xe
 1553 070f 6D01     		.2byte	0x16d
 1554 0711 F3050000 		.4byte	0x5f3
 1555 0715 44       		.byte	0x44
 1556 0716 08       		.uleb128 0x8
 1557 0717 723600   		.ascii	"r6\000"
 1558 071a 0E       		.byte	0xe
 1559 071b 6E01     		.2byte	0x16e
 1560 071d F3050000 		.4byte	0x5f3
 1561 0721 48       		.byte	0x48
 1562 0722 08       		.uleb128 0x8
 1563 0723 723700   		.ascii	"r7\000"
 1564 0726 0E       		.byte	0xe
 1565 0727 6F01     		.2byte	0x16f
 1566 0729 F3050000 		.4byte	0x5f3
 1567 072d 4C       		.byte	0x4c
 1568 072e 08       		.uleb128 0x8
 1569 072f 723800   		.ascii	"r8\000"
 1570 0732 0E       		.byte	0xe
 1571 0733 7001     		.2byte	0x170
 1572 0735 F3050000 		.4byte	0x5f3
 1573 0739 50       		.byte	0x50
 1574 073a 08       		.uleb128 0x8
 1575 073b 723900   		.ascii	"r9\000"
 1576 073e 0E       		.byte	0xe
 1577 073f 7101     		.2byte	0x171
 1578 0741 F3050000 		.4byte	0x5f3
 1579 0745 54       		.byte	0x54
 1580 0746 08       		.uleb128 0x8
 1581 0747 72313000 		.ascii	"r10\000"
 1582 074b 0E       		.byte	0xe
 1583 074c 7201     		.2byte	0x172
 1584 074e F3050000 		.4byte	0x5f3
 1585 0752 58       		.byte	0x58
 1586 0753 08       		.uleb128 0x8
 1587 0754 72313100 		.ascii	"r11\000"
 1588 0758 0E       		.byte	0xe
 1589 0759 7301     		.2byte	0x173
 1590 075b F3050000 		.4byte	0x5f3
 1591 075f 5C       		.byte	0x5c
 1592 0760 08       		.uleb128 0x8
 1593 0761 6C7200   		.ascii	"lr\000"
 1594 0764 0E       		.byte	0xe
 1595 0765 7401     		.2byte	0x174
 1596 0767 F3050000 		.4byte	0x5f3
ARM GAS  /tmp/ccxER8tB.s 			page 29


 1597 076b 60       		.byte	0x60
 1598 076c 00       		.byte	0
 1599 076d 0A       		.uleb128 0xa
 1600 076e 04       		.byte	0x4
 1601 076f 21060000 		.4byte	0x621
 1602 0773 10       		.uleb128 0x10
 1603 0774 04       		.byte	0x4
 1604 0775 0F       		.byte	0xf
 1605 0776 38       		.byte	0x38
 1606 0777 88070000 		.4byte	0x788
 1607 077b 06       		.uleb128 0x6
 1608 077c 59050000 		.4byte	.LASF102
 1609 0780 0F       		.byte	0xf
 1610 0781 3C       		.byte	0x3c
 1611 0782 EB000000 		.4byte	0xeb
 1612 0786 00       		.byte	0
 1613 0787 00       		.byte	0
 1614 0788 03       		.uleb128 0x3
 1615 0789 37080000 		.4byte	.LASF103
 1616 078d 0F       		.byte	0xf
 1617 078e 3D       		.byte	0x3d
 1618 078f 73070000 		.4byte	0x773
 1619 0793 10       		.uleb128 0x10
 1620 0794 18       		.byte	0x18
 1621 0795 0F       		.byte	0xf
 1622 0796 48       		.byte	0x48
 1623 0797 D6070000 		.4byte	0x7d6
 1624 079b 06       		.uleb128 0x6
 1625 079c 09080000 		.4byte	.LASF104
 1626 07a0 0F       		.byte	0xf
 1627 07a1 49       		.byte	0x49
 1628 07a2 EB000000 		.4byte	0xeb
 1629 07a6 00       		.byte	0
 1630 07a7 06       		.uleb128 0x6
 1631 07a8 25030000 		.4byte	.LASF105
 1632 07ac 0F       		.byte	0xf
 1633 07ad 4A       		.byte	0x4a
 1634 07ae EB000000 		.4byte	0xeb
 1635 07b2 04       		.byte	0x4
 1636 07b3 06       		.uleb128 0x6
 1637 07b4 CB090000 		.4byte	.LASF106
 1638 07b8 0F       		.byte	0xf
 1639 07b9 4B       		.byte	0x4b
 1640 07ba EB000000 		.4byte	0xeb
 1641 07be 08       		.byte	0x8
 1642 07bf 07       		.uleb128 0x7
 1643 07c0 6E00     		.ascii	"n\000"
 1644 07c2 0F       		.byte	0xf
 1645 07c3 4C       		.byte	0x4c
 1646 07c4 4E010000 		.4byte	0x14e
 1647 07c8 0C       		.byte	0xc
 1648 07c9 06       		.uleb128 0x6
 1649 07ca E3010000 		.4byte	.LASF107
 1650 07ce 0F       		.byte	0xf
 1651 07cf 4D       		.byte	0x4d
 1652 07d0 F6000000 		.4byte	0xf6
 1653 07d4 10       		.byte	0x10
ARM GAS  /tmp/ccxER8tB.s 			page 30


 1654 07d5 00       		.byte	0
 1655 07d6 03       		.uleb128 0x3
 1656 07d7 02050000 		.4byte	.LASF108
 1657 07db 0F       		.byte	0xf
 1658 07dc 4E       		.byte	0x4e
 1659 07dd 93070000 		.4byte	0x793
 1660 07e1 10       		.uleb128 0x10
 1661 07e2 38       		.byte	0x38
 1662 07e3 10       		.byte	0x10
 1663 07e4 38       		.byte	0x38
 1664 07e5 1A080000 		.4byte	0x81a
 1665 07e9 06       		.uleb128 0x6
 1666 07ea 6E040000 		.4byte	.LASF109
 1667 07ee 10       		.byte	0x10
 1668 07ef 39       		.byte	0x39
 1669 07f0 4E010000 		.4byte	0x14e
 1670 07f4 00       		.byte	0
 1671 07f5 06       		.uleb128 0x6
 1672 07f6 BF020000 		.4byte	.LASF110
 1673 07fa 10       		.byte	0x10
 1674 07fb 3A       		.byte	0x3a
 1675 07fc 4E010000 		.4byte	0x14e
 1676 0800 04       		.byte	0x4
 1677 0801 06       		.uleb128 0x6
 1678 0802 79030000 		.4byte	.LASF111
 1679 0806 10       		.byte	0x10
 1680 0807 3B       		.byte	0x3b
 1681 0808 D6070000 		.4byte	0x7d6
 1682 080c 08       		.byte	0x8
 1683 080d 06       		.uleb128 0x6
 1684 080e 15050000 		.4byte	.LASF112
 1685 0812 10       		.byte	0x10
 1686 0813 3D       		.byte	0x3d
 1687 0814 D6070000 		.4byte	0x7d6
 1688 0818 20       		.byte	0x20
 1689 0819 00       		.byte	0
 1690 081a 03       		.uleb128 0x3
 1691 081b 42050000 		.4byte	.LASF113
 1692 081f 10       		.byte	0x10
 1693 0820 3F       		.byte	0x3f
 1694 0821 E1070000 		.4byte	0x7e1
 1695 0825 13       		.uleb128 0x13
 1696 0826 04       		.byte	0x4
 1697 0827 0A       		.byte	0xa
 1698 0828 C6       		.byte	0xc6
 1699 0829 87080000 		.4byte	0x887
 1700 082d 14       		.uleb128 0x14
 1701 082e 4F090000 		.4byte	.LASF114
 1702 0832 0A       		.byte	0xa
 1703 0833 CD       		.byte	0xcd
 1704 0834 2D010000 		.4byte	0x12d
 1705 0838 14       		.uleb128 0x14
 1706 0839 2D010000 		.4byte	.LASF115
 1707 083d 0A       		.byte	0xa
 1708 083e D4       		.byte	0xd4
 1709 083f 2D010000 		.4byte	0x12d
 1710 0843 14       		.uleb128 0x14
ARM GAS  /tmp/ccxER8tB.s 			page 31


 1711 0844 B8020000 		.4byte	.LASF116
 1712 0848 0A       		.byte	0xa
 1713 0849 DB       		.byte	0xdb
 1714 084a 37030000 		.4byte	0x337
 1715 084e 14       		.uleb128 0x14
 1716 084f 40020000 		.4byte	.LASF117
 1717 0853 0A       		.byte	0xa
 1718 0854 E2       		.byte	0xe2
 1719 0855 87080000 		.4byte	0x887
 1720 0859 14       		.uleb128 0x14
 1721 085a 05060000 		.4byte	.LASF118
 1722 085e 0A       		.byte	0xa
 1723 085f E7       		.byte	0xe7
 1724 0860 2D010000 		.4byte	0x12d
 1725 0864 14       		.uleb128 0x14
 1726 0865 40000000 		.4byte	.LASF119
 1727 0869 0A       		.byte	0xa
 1728 086a F0       		.byte	0xf0
 1729 086b B2080000 		.4byte	0x8b2
 1730 086f 14       		.uleb128 0x14
 1731 0870 64030000 		.4byte	.LASF120
 1732 0874 0A       		.byte	0xa
 1733 0875 F9       		.byte	0xf9
 1734 0876 E9080000 		.4byte	0x8e9
 1735 087a 15       		.uleb128 0x15
 1736 087b FA010000 		.4byte	.LASF121
 1737 087f 0A       		.byte	0xa
 1738 0880 0101     		.2byte	0x101
 1739 0882 38010000 		.4byte	0x138
 1740 0886 00       		.byte	0
 1741 0887 0A       		.uleb128 0xa
 1742 0888 04       		.byte	0x4
 1743 0889 4F020000 		.4byte	0x24f
 1744 088d 05       		.uleb128 0x5
 1745 088e BE030000 		.4byte	.LASF122
 1746 0892 0C       		.byte	0xc
 1747 0893 11       		.byte	0x11
 1748 0894 34       		.byte	0x34
 1749 0895 B2080000 		.4byte	0x8b2
 1750 0899 06       		.uleb128 0x6
 1751 089a 98070000 		.4byte	.LASF32
 1752 089e 11       		.byte	0x11
 1753 089f 35       		.byte	0x35
 1754 08a0 84020000 		.4byte	0x284
 1755 08a4 00       		.byte	0
 1756 08a5 07       		.uleb128 0x7
 1757 08a6 636E7400 		.ascii	"cnt\000"
 1758 08aa 11       		.byte	0x11
 1759 08ab 37       		.byte	0x37
 1760 08ac 43010000 		.4byte	0x143
 1761 08b0 08       		.byte	0x8
 1762 08b1 00       		.byte	0
 1763 08b2 0A       		.uleb128 0xa
 1764 08b3 04       		.byte	0x4
 1765 08b4 8D080000 		.4byte	0x88d
 1766 08b8 05       		.uleb128 0x5
 1767 08b9 83080000 		.4byte	.LASF123
ARM GAS  /tmp/ccxER8tB.s 			page 32


 1768 08bd 10       		.byte	0x10
 1769 08be 12       		.byte	0x12
 1770 08bf 39       		.byte	0x39
 1771 08c0 E9080000 		.4byte	0x8e9
 1772 08c4 06       		.uleb128 0x6
 1773 08c5 98070000 		.4byte	.LASF32
 1774 08c9 12       		.byte	0x12
 1775 08ca 3A       		.byte	0x3a
 1776 08cb 84020000 		.4byte	0x284
 1777 08cf 00       		.byte	0
 1778 08d0 06       		.uleb128 0x6
 1779 08d1 51000000 		.4byte	.LASF124
 1780 08d5 12       		.byte	0x12
 1781 08d6 3C       		.byte	0x3c
 1782 08d7 5A020000 		.4byte	0x25a
 1783 08db 08       		.byte	0x8
 1784 08dc 06       		.uleb128 0x6
 1785 08dd C1090000 		.4byte	.LASF52
 1786 08e1 12       		.byte	0x12
 1787 08e2 3E       		.byte	0x3e
 1788 08e3 1D090000 		.4byte	0x91d
 1789 08e7 0C       		.byte	0xc
 1790 08e8 00       		.byte	0
 1791 08e9 0A       		.uleb128 0xa
 1792 08ea 04       		.byte	0x4
 1793 08eb B8080000 		.4byte	0x8b8
 1794 08ef 0A       		.uleb128 0xa
 1795 08f0 04       		.byte	0x4
 1796 08f1 FC080000 		.4byte	0x8fc
 1797 08f5 04       		.uleb128 0x4
 1798 08f6 01       		.byte	0x1
 1799 08f7 08       		.byte	0x8
 1800 08f8 A8020000 		.4byte	.LASF125
 1801 08fc 16       		.uleb128 0x16
 1802 08fd F5080000 		.4byte	0x8f5
 1803 0901 0A       		.uleb128 0xa
 1804 0902 04       		.byte	0x4
 1805 0903 FE050000 		.4byte	0x5fe
 1806 0907 0A       		.uleb128 0xa
 1807 0908 04       		.byte	0x4
 1808 0909 39030000 		.4byte	0x339
 1809 090d 0F       		.uleb128 0xf
 1810 090e EF080000 		.4byte	0x8ef
 1811 0912 03       		.uleb128 0x3
 1812 0913 FF080000 		.4byte	.LASF126
 1813 0917 12       		.byte	0x12
 1814 0918 34       		.byte	0x34
 1815 0919 B8080000 		.4byte	0x8b8
 1816 091d 0A       		.uleb128 0xa
 1817 091e 04       		.byte	0x4
 1818 091f 12090000 		.4byte	0x912
 1819 0923 04       		.uleb128 0x4
 1820 0924 01       		.byte	0x1
 1821 0925 02       		.byte	0x2
 1822 0926 96020000 		.4byte	.LASF127
 1823 092a 11       		.uleb128 0x11
 1824 092b 0C       		.byte	0xc
ARM GAS  /tmp/ccxER8tB.s 			page 33


 1825 092c 13       		.byte	0x13
 1826 092d A201     		.2byte	0x1a2
 1827 092f 82090000 		.4byte	0x982
 1828 0933 09       		.uleb128 0x9
 1829 0934 1E030000 		.4byte	.LASF128
 1830 0938 13       		.byte	0x13
 1831 0939 A301     		.2byte	0x1a3
 1832 093b 82090000 		.4byte	0x982
 1833 093f 00       		.byte	0
 1834 0940 09       		.uleb128 0x9
 1835 0941 BC090000 		.4byte	.LASF129
 1836 0945 13       		.byte	0x13
 1837 0946 A401     		.2byte	0x1a4
 1838 0948 88090000 		.4byte	0x988
 1839 094c 04       		.byte	0x4
 1840 094d 09       		.uleb128 0x9
 1841 094e 23080000 		.4byte	.LASF130
 1842 0952 13       		.byte	0x13
 1843 0953 A801     		.2byte	0x1a8
 1844 0955 B4000000 		.4byte	0xb4
 1845 0959 08       		.byte	0x8
 1846 095a 09       		.uleb128 0x9
 1847 095b 89010000 		.4byte	.LASF131
 1848 095f 13       		.byte	0x13
 1849 0960 AA01     		.2byte	0x1aa
 1850 0962 B4000000 		.4byte	0xb4
 1851 0966 09       		.byte	0x9
 1852 0967 09       		.uleb128 0x9
 1853 0968 35070000 		.4byte	.LASF132
 1854 096c 13       		.byte	0x13
 1855 096d AC01     		.2byte	0x1ac
 1856 096f B4000000 		.4byte	0xb4
 1857 0973 0A       		.byte	0xa
 1858 0974 09       		.uleb128 0x9
 1859 0975 C5070000 		.4byte	.LASF133
 1860 0979 13       		.byte	0x13
 1861 097a AD01     		.2byte	0x1ad
 1862 097c B4000000 		.4byte	0xb4
 1863 0980 0B       		.byte	0xb
 1864 0981 00       		.byte	0
 1865 0982 0A       		.uleb128 0xa
 1866 0983 04       		.byte	0x4
 1867 0984 E7050000 		.4byte	0x5e7
 1868 0988 0A       		.uleb128 0xa
 1869 0989 04       		.byte	0x4
 1870 098a 89040000 		.4byte	0x489
 1871 098e 12       		.uleb128 0x12
 1872 098f 05000000 		.4byte	.LASF134
 1873 0993 13       		.byte	0x13
 1874 0994 AE01     		.2byte	0x1ae
 1875 0996 2A090000 		.4byte	0x92a
 1876 099a 17       		.uleb128 0x17
 1877 099b 01       		.byte	0x1
 1878 099c 5E000000 		.4byte	0x5e
 1879 09a0 14       		.byte	0x14
 1880 09a1 46       		.byte	0x46
 1881 09a2 CB090000 		.4byte	0x9cb
ARM GAS  /tmp/ccxER8tB.s 			page 34


 1882 09a6 18       		.uleb128 0x18
 1883 09a7 72020000 		.4byte	.LASF135
 1884 09ab 00       		.byte	0
 1885 09ac 18       		.uleb128 0x18
 1886 09ad 29080000 		.4byte	.LASF136
 1887 09b1 01       		.byte	0x1
 1888 09b2 18       		.uleb128 0x18
 1889 09b3 8C020000 		.4byte	.LASF137
 1890 09b7 02       		.byte	0x2
 1891 09b8 18       		.uleb128 0x18
 1892 09b9 0C070000 		.4byte	.LASF138
 1893 09bd 03       		.byte	0x3
 1894 09be 18       		.uleb128 0x18
 1895 09bf 45040000 		.4byte	.LASF139
 1896 09c3 04       		.byte	0x4
 1897 09c4 18       		.uleb128 0x18
 1898 09c5 C8020000 		.4byte	.LASF140
 1899 09c9 05       		.byte	0x5
 1900 09ca 00       		.byte	0
 1901 09cb 03       		.uleb128 0x3
 1902 09cc 84000000 		.4byte	.LASF141
 1903 09d0 14       		.byte	0x14
 1904 09d1 4D       		.byte	0x4d
 1905 09d2 9A090000 		.4byte	0x99a
 1906 09d6 03       		.uleb128 0x3
 1907 09d7 7C070000 		.4byte	.LASF142
 1908 09db 14       		.byte	0x14
 1909 09dc 52       		.byte	0x52
 1910 09dd E1090000 		.4byte	0x9e1
 1911 09e1 05       		.uleb128 0x5
 1912 09e2 FD060000 		.4byte	.LASF143
 1913 09e6 24       		.byte	0x24
 1914 09e7 14       		.byte	0x14
 1915 09e8 9F       		.byte	0x9f
 1916 09e9 5A0A0000 		.4byte	0xa5a
 1917 09ed 06       		.uleb128 0x6
 1918 09ee EC000000 		.4byte	.LASF38
 1919 09f2 14       		.byte	0x14
 1920 09f3 A3       		.byte	0xa3
 1921 09f4 CB090000 		.4byte	0x9cb
 1922 09f8 00       		.byte	0
 1923 09f9 06       		.uleb128 0x6
 1924 09fa E5000000 		.4byte	.LASF144
 1925 09fe 14       		.byte	0x14
 1926 09ff A7       		.byte	0xa7
 1927 0a00 B90B0000 		.4byte	0xbb9
 1928 0a04 04       		.byte	0x4
 1929 0a05 06       		.uleb128 0x6
 1930 0a06 2B030000 		.4byte	.LASF145
 1931 0a0a 14       		.byte	0x14
 1932 0a0b AB       		.byte	0xab
 1933 0a0c C40B0000 		.4byte	0xbc4
 1934 0a10 08       		.byte	0x8
 1935 0a11 06       		.uleb128 0x6
 1936 0a12 E7040000 		.4byte	.LASF146
 1937 0a16 14       		.byte	0x14
 1938 0a17 AF       		.byte	0xaf
ARM GAS  /tmp/ccxER8tB.s 			page 35


 1939 0a18 2C000000 		.4byte	0x2c
 1940 0a1c 0C       		.byte	0xc
 1941 0a1d 06       		.uleb128 0x6
 1942 0a1e 32080000 		.4byte	.LASF147
 1943 0a22 14       		.byte	0x14
 1944 0a23 B3       		.byte	0xb3
 1945 0a24 CA0B0000 		.4byte	0xbca
 1946 0a28 10       		.byte	0x10
 1947 0a29 06       		.uleb128 0x6
 1948 0a2a 48080000 		.4byte	.LASF148
 1949 0a2e 14       		.byte	0x14
 1950 0a2f B8       		.byte	0xb8
 1951 0a30 4F020000 		.4byte	0x24f
 1952 0a34 14       		.byte	0x14
 1953 0a35 07       		.uleb128 0x7
 1954 0a36 61646300 		.ascii	"adc\000"
 1955 0a3a 14       		.byte	0x14
 1956 0a3b C4       		.byte	0xc4
 1957 0a3c D50B0000 		.4byte	0xbd5
 1958 0a40 18       		.byte	0x18
 1959 0a41 06       		.uleb128 0x6
 1960 0a42 B7030000 		.4byte	.LASF149
 1961 0a46 14       		.byte	0x14
 1962 0a47 C4       		.byte	0xc4
 1963 0a48 DB0B0000 		.4byte	0xbdb
 1964 0a4c 1C       		.byte	0x1c
 1965 0a4d 06       		.uleb128 0x6
 1966 0a4e FA040000 		.4byte	.LASF150
 1967 0a52 14       		.byte	0x14
 1968 0a53 C4       		.byte	0xc4
 1969 0a54 D5000000 		.4byte	0xd5
 1970 0a58 20       		.byte	0x20
 1971 0a59 00       		.byte	0
 1972 0a5a 03       		.uleb128 0x3
 1973 0a5b D0090000 		.4byte	.LASF151
 1974 0a5f 14       		.byte	0x14
 1975 0a60 57       		.byte	0x57
 1976 0a61 650A0000 		.4byte	0xa65
 1977 0a65 05       		.uleb128 0x5
 1978 0a66 60050000 		.4byte	.LASF152
 1979 0a6a 04       		.byte	0x4
 1980 0a6b 14       		.byte	0x14
 1981 0a6c 97       		.byte	0x97
 1982 0a6d 7E0A0000 		.4byte	0xa7e
 1983 0a71 06       		.uleb128 0x6
 1984 0a72 23080000 		.4byte	.LASF130
 1985 0a76 14       		.byte	0x14
 1986 0a77 99       		.byte	0x99
 1987 0a78 D5000000 		.4byte	0xd5
 1988 0a7c 00       		.byte	0
 1989 0a7d 00       		.byte	0
 1990 0a7e 03       		.uleb128 0x3
 1991 0a7f 32040000 		.4byte	.LASF153
 1992 0a83 14       		.byte	0x14
 1993 0a84 61       		.byte	0x61
 1994 0a85 890A0000 		.4byte	0xa89
 1995 0a89 05       		.uleb128 0x5
ARM GAS  /tmp/ccxER8tB.s 			page 36


 1996 0a8a 91090000 		.4byte	.LASF154
 1997 0a8e 2C       		.byte	0x2c
 1998 0a8f 14       		.byte	0x14
 1999 0a90 7F       		.byte	0x7f
 2000 0a91 320B0000 		.4byte	0xb32
 2001 0a95 06       		.uleb128 0x6
 2002 0a96 E8020000 		.4byte	.LASF155
 2003 0a9a 14       		.byte	0x14
 2004 0a9b 83       		.byte	0x83
 2005 0a9c 23090000 		.4byte	0x923
 2006 0aa0 00       		.byte	0
 2007 0aa1 06       		.uleb128 0x6
 2008 0aa2 35050000 		.4byte	.LASF156
 2009 0aa6 14       		.byte	0x14
 2010 0aa7 87       		.byte	0x87
 2011 0aa8 3E0B0000 		.4byte	0xb3e
 2012 0aac 02       		.byte	0x2
 2013 0aad 06       		.uleb128 0x6
 2014 0aae 26010000 		.4byte	.LASF157
 2015 0ab2 14       		.byte	0x14
 2016 0ab3 8B       		.byte	0x8b
 2017 0ab4 760B0000 		.4byte	0xb76
 2018 0ab8 04       		.byte	0x4
 2019 0ab9 06       		.uleb128 0x6
 2020 0aba F8000000 		.4byte	.LASF158
 2021 0abe 14       		.byte	0x14
 2022 0abf 8F       		.byte	0x8f
 2023 0ac0 980B0000 		.4byte	0xb98
 2024 0ac4 08       		.byte	0x8
 2025 0ac5 07       		.uleb128 0x7
 2026 0ac6 63723100 		.ascii	"cr1\000"
 2027 0aca 14       		.byte	0x14
 2028 0acb 91       		.byte	0x91
 2029 0acc D5000000 		.4byte	0xd5
 2030 0ad0 0C       		.byte	0xc
 2031 0ad1 07       		.uleb128 0x7
 2032 0ad2 63723200 		.ascii	"cr2\000"
 2033 0ad6 14       		.byte	0x14
 2034 0ad7 91       		.byte	0x91
 2035 0ad8 D5000000 		.4byte	0xd5
 2036 0adc 10       		.byte	0x10
 2037 0add 06       		.uleb128 0x6
 2038 0ade 62040000 		.4byte	.LASF159
 2039 0ae2 14       		.byte	0x14
 2040 0ae3 91       		.byte	0x91
 2041 0ae4 D5000000 		.4byte	0xd5
 2042 0ae8 14       		.byte	0x14
 2043 0ae9 06       		.uleb128 0x6
 2044 0aea 68040000 		.4byte	.LASF160
 2045 0aee 14       		.byte	0x14
 2046 0aef 91       		.byte	0x91
 2047 0af0 D5000000 		.4byte	0xd5
 2048 0af4 18       		.byte	0x18
 2049 0af5 07       		.uleb128 0x7
 2050 0af6 68747200 		.ascii	"htr\000"
 2051 0afa 14       		.byte	0x14
 2052 0afb 91       		.byte	0x91
ARM GAS  /tmp/ccxER8tB.s 			page 37


 2053 0afc BF000000 		.4byte	0xbf
 2054 0b00 1C       		.byte	0x1c
 2055 0b01 07       		.uleb128 0x7
 2056 0b02 6C747200 		.ascii	"ltr\000"
 2057 0b06 14       		.byte	0x14
 2058 0b07 91       		.byte	0x91
 2059 0b08 BF000000 		.4byte	0xbf
 2060 0b0c 1E       		.byte	0x1e
 2061 0b0d 06       		.uleb128 0x6
 2062 0b0e 1F000000 		.4byte	.LASF161
 2063 0b12 14       		.byte	0x14
 2064 0b13 91       		.byte	0x91
 2065 0b14 D5000000 		.4byte	0xd5
 2066 0b18 20       		.byte	0x20
 2067 0b19 06       		.uleb128 0x6
 2068 0b1a 24000000 		.4byte	.LASF162
 2069 0b1e 14       		.byte	0x14
 2070 0b1f 91       		.byte	0x91
 2071 0b20 D5000000 		.4byte	0xd5
 2072 0b24 24       		.byte	0x24
 2073 0b25 06       		.uleb128 0x6
 2074 0b26 E3020000 		.4byte	.LASF163
 2075 0b2a 14       		.byte	0x14
 2076 0b2b 91       		.byte	0x91
 2077 0b2c D5000000 		.4byte	0xd5
 2078 0b30 28       		.byte	0x28
 2079 0b31 00       		.byte	0
 2080 0b32 12       		.uleb128 0x12
 2081 0b33 9C020000 		.4byte	.LASF164
 2082 0b37 15       		.byte	0x15
 2083 0b38 3201     		.2byte	0x132
 2084 0b3a BF000000 		.4byte	0xbf
 2085 0b3e 12       		.uleb128 0x12
 2086 0b3f 8D040000 		.4byte	.LASF165
 2087 0b43 15       		.byte	0x15
 2088 0b44 3701     		.2byte	0x137
 2089 0b46 BF000000 		.4byte	0xbf
 2090 0b4a 19       		.uleb128 0x19
 2091 0b4b 01       		.byte	0x1
 2092 0b4c 5E000000 		.4byte	0x5e
 2093 0b50 15       		.byte	0x15
 2094 0b51 3E01     		.2byte	0x13e
 2095 0b53 6A0B0000 		.4byte	0xb6a
 2096 0b57 18       		.uleb128 0x18
 2097 0b58 0B030000 		.4byte	.LASF166
 2098 0b5c 00       		.byte	0
 2099 0b5d 18       		.uleb128 0x18
 2100 0b5e DF070000 		.4byte	.LASF167
 2101 0b62 01       		.byte	0x1
 2102 0b63 18       		.uleb128 0x18
 2103 0b64 33030000 		.4byte	.LASF168
 2104 0b68 02       		.byte	0x2
 2105 0b69 00       		.byte	0
 2106 0b6a 12       		.uleb128 0x12
 2107 0b6b 67020000 		.4byte	.LASF169
 2108 0b6f 15       		.byte	0x15
 2109 0b70 4201     		.2byte	0x142
ARM GAS  /tmp/ccxER8tB.s 			page 38


 2110 0b72 4A0B0000 		.4byte	0xb4a
 2111 0b76 03       		.uleb128 0x3
 2112 0b77 5F000000 		.4byte	.LASF170
 2113 0b7b 14       		.byte	0x14
 2114 0b7c 6C       		.byte	0x6c
 2115 0b7d 810B0000 		.4byte	0xb81
 2116 0b81 0A       		.uleb128 0xa
 2117 0b82 04       		.byte	0x4
 2118 0b83 870B0000 		.4byte	0xb87
 2119 0b87 0C       		.uleb128 0xc
 2120 0b88 920B0000 		.4byte	0xb92
 2121 0b8c 0D       		.uleb128 0xd
 2122 0b8d 920B0000 		.4byte	0xb92
 2123 0b91 00       		.byte	0
 2124 0b92 0A       		.uleb128 0xa
 2125 0b93 04       		.byte	0x4
 2126 0b94 D6090000 		.4byte	0x9d6
 2127 0b98 03       		.uleb128 0x3
 2128 0b99 D4040000 		.4byte	.LASF171
 2129 0b9d 14       		.byte	0x14
 2130 0b9e 75       		.byte	0x75
 2131 0b9f A30B0000 		.4byte	0xba3
 2132 0ba3 0A       		.uleb128 0xa
 2133 0ba4 04       		.byte	0x4
 2134 0ba5 A90B0000 		.4byte	0xba9
 2135 0ba9 0C       		.uleb128 0xc
 2136 0baa B90B0000 		.4byte	0xbb9
 2137 0bae 0D       		.uleb128 0xd
 2138 0baf 920B0000 		.4byte	0xb92
 2139 0bb3 0D       		.uleb128 0xd
 2140 0bb4 6A0B0000 		.4byte	0xb6a
 2141 0bb8 00       		.byte	0
 2142 0bb9 0A       		.uleb128 0xa
 2143 0bba 04       		.byte	0x4
 2144 0bbb BF0B0000 		.4byte	0xbbf
 2145 0bbf 16       		.uleb128 0x16
 2146 0bc0 5A0A0000 		.4byte	0xa5a
 2147 0bc4 0A       		.uleb128 0xa
 2148 0bc5 04       		.byte	0x4
 2149 0bc6 320B0000 		.4byte	0xb32
 2150 0bca 0A       		.uleb128 0xa
 2151 0bcb 04       		.byte	0x4
 2152 0bcc D00B0000 		.4byte	0xbd0
 2153 0bd0 16       		.uleb128 0x16
 2154 0bd1 7E0A0000 		.4byte	0xa7e
 2155 0bd5 0A       		.uleb128 0xa
 2156 0bd6 04       		.byte	0x4
 2157 0bd7 85050000 		.4byte	0x585
 2158 0bdb 0A       		.uleb128 0xa
 2159 0bdc 04       		.byte	0x4
 2160 0bdd E10B0000 		.4byte	0xbe1
 2161 0be1 16       		.uleb128 0x16
 2162 0be2 8E090000 		.4byte	0x98e
 2163 0be6 1A       		.uleb128 0x1a
 2164 0be7 FB070000 		.4byte	.LASF178
 2165 0beb 02       		.byte	0x2
 2166 0bec EB01     		.2byte	0x1eb
ARM GAS  /tmp/ccxER8tB.s 			page 39


 2167 0bee 03       		.byte	0x3
 2168 0bef 000C0000 		.4byte	0xc00
 2169 0bf3 1B       		.uleb128 0x1b
 2170 0bf4 2A040000 		.4byte	.LASF176
 2171 0bf8 02       		.byte	0x2
 2172 0bf9 EB01     		.2byte	0x1eb
 2173 0bfb D5000000 		.4byte	0xd5
 2174 0bff 00       		.byte	0
 2175 0c00 1C       		.uleb128 0x1c
 2176 0c01 59080000 		.4byte	.LASF172
 2177 0c05 0E       		.byte	0xe
 2178 0c06 5A02     		.2byte	0x25a
 2179 0c08 03       		.byte	0x3
 2180 0c09 1C       		.uleb128 0x1c
 2181 0c0a 5B010000 		.4byte	.LASF173
 2182 0c0e 0E       		.byte	0xe
 2183 0c0f 7202     		.2byte	0x272
 2184 0c11 03       		.byte	0x3
 2185 0c12 1C       		.uleb128 0x1c
 2186 0c13 06010000 		.4byte	.LASF174
 2187 0c17 04       		.byte	0x4
 2188 0c18 0802     		.2byte	0x208
 2189 0c1a 03       		.byte	0x3
 2190 0c1b 1C       		.uleb128 0x1c
 2191 0c1c D7010000 		.4byte	.LASF175
 2192 0c20 04       		.byte	0x4
 2193 0c21 FD01     		.2byte	0x1fd
 2194 0c23 03       		.byte	0x3
 2195 0c24 1D       		.uleb128 0x1d
 2196 0c25 F1020000 		.4byte	.LASF185
 2197 0c29 01       		.byte	0x1
 2198 0c2a AF       		.byte	0xaf
 2199 0c2b 01       		.byte	0x1
 2200 0c2c 6A0C0000 		.4byte	0xc6a
 2201 0c30 1E       		.uleb128 0x1e
 2202 0c31 CF040000 		.4byte	.LASF177
 2203 0c35 01       		.byte	0x1
 2204 0c36 AF       		.byte	0xaf
 2205 0c37 920B0000 		.4byte	0xb92
 2206 0c3b 1E       		.uleb128 0x1e
 2207 0c3c 32080000 		.4byte	.LASF147
 2208 0c40 01       		.byte	0x1
 2209 0c41 B0       		.byte	0xb0
 2210 0c42 CA0B0000 		.4byte	0xbca
 2211 0c46 1E       		.uleb128 0x1e
 2212 0c47 2B030000 		.4byte	.LASF145
 2213 0c4b 01       		.byte	0x1
 2214 0c4c B1       		.byte	0xb1
 2215 0c4d C40B0000 		.4byte	0xbc4
 2216 0c51 1E       		.uleb128 0x1e
 2217 0c52 E7040000 		.4byte	.LASF146
 2218 0c56 01       		.byte	0x1
 2219 0c57 B2       		.byte	0xb2
 2220 0c58 2C000000 		.4byte	0x2c
 2221 0c5c 1F       		.uleb128 0x1f
 2222 0c5d C9000000 		.4byte	.LASF184
 2223 0c61 7A0C0000 		.4byte	0xc7a
ARM GAS  /tmp/ccxER8tB.s 			page 40


 2224 0c65 F1020000 		.4byte	.LASF185
 2225 0c69 00       		.byte	0
 2226 0c6a 20       		.uleb128 0x20
 2227 0c6b FC080000 		.4byte	0x8fc
 2228 0c6f 7A0C0000 		.4byte	0xc7a
 2229 0c73 21       		.uleb128 0x21
 2230 0c74 82040000 		.4byte	0x482
 2231 0c78 13       		.byte	0x13
 2232 0c79 00       		.byte	0
 2233 0c7a 16       		.uleb128 0x16
 2234 0c7b 6A0C0000 		.4byte	0xc6a
 2235 0c7f 1A       		.uleb128 0x1a
 2236 0c80 36010000 		.4byte	.LASF179
 2237 0c84 04       		.byte	0x4
 2238 0c85 1403     		.2byte	0x314
 2239 0c87 03       		.byte	0x3
 2240 0c88 A50C0000 		.4byte	0xca5
 2241 0c8c 22       		.uleb128 0x22
 2242 0c8d 74727000 		.ascii	"trp\000"
 2243 0c91 04       		.byte	0x4
 2244 0c92 1403     		.2byte	0x314
 2245 0c94 87080000 		.4byte	0x887
 2246 0c98 22       		.uleb128 0x22
 2247 0c99 6D736700 		.ascii	"msg\000"
 2248 0c9d 04       		.byte	0x4
 2249 0c9e 1403     		.2byte	0x314
 2250 0ca0 2D010000 		.4byte	0x12d
 2251 0ca4 00       		.byte	0
 2252 0ca5 1A       		.uleb128 0x1a
 2253 0ca6 14010000 		.4byte	.LASF180
 2254 0caa 04       		.byte	0x4
 2255 0cab 0503     		.2byte	0x305
 2256 0cad 03       		.byte	0x3
 2257 0cae CB0C0000 		.4byte	0xccb
 2258 0cb2 22       		.uleb128 0x22
 2259 0cb3 74727000 		.ascii	"trp\000"
 2260 0cb7 04       		.byte	0x4
 2261 0cb8 0503     		.2byte	0x305
 2262 0cba 87080000 		.4byte	0x887
 2263 0cbe 22       		.uleb128 0x22
 2264 0cbf 6D736700 		.ascii	"msg\000"
 2265 0cc3 04       		.byte	0x4
 2266 0cc4 0503     		.2byte	0x305
 2267 0cc6 2D010000 		.4byte	0x12d
 2268 0cca 00       		.byte	0
 2269 0ccb 23       		.uleb128 0x23
 2270 0ccc 4A030000 		.4byte	.LASF181
 2271 0cd0 01       		.byte	0x1
 2272 0cd1 38       		.byte	0x38
 2273 0cd2 00000000 		.4byte	.LFB323
 2274 0cd6 04000000 		.4byte	.LFE323-.LFB323
 2275 0cda 01       		.uleb128 0x1
 2276 0cdb 9C       		.byte	0x9c
 2277 0cdc EA0C0000 		.4byte	0xcea
 2278 0ce0 24       		.uleb128 0x24
 2279 0ce1 04000000 		.4byte	.LVL0
 2280 0ce5 45150000 		.4byte	0x1545
ARM GAS  /tmp/ccxER8tB.s 			page 41


 2281 0ce9 00       		.byte	0
 2282 0cea 23       		.uleb128 0x23
 2283 0ceb B7080000 		.4byte	.LASF182
 2284 0cef 01       		.byte	0x1
 2285 0cf0 44       		.byte	0x44
 2286 0cf1 00000000 		.4byte	.LFB324
 2287 0cf5 12000000 		.4byte	.LFE324-.LFB324
 2288 0cf9 01       		.uleb128 0x1
 2289 0cfa 9C       		.byte	0x9c
 2290 0cfb 0D0D0000 		.4byte	0xd0d
 2291 0cff 25       		.uleb128 0x25
 2292 0d00 CF040000 		.4byte	.LASF177
 2293 0d04 01       		.byte	0x1
 2294 0d05 44       		.byte	0x44
 2295 0d06 920B0000 		.4byte	0xb92
 2296 0d0a 01       		.uleb128 0x1
 2297 0d0b 50       		.byte	0x50
 2298 0d0c 00       		.byte	0
 2299 0d0d 1A       		.uleb128 0x1a
 2300 0d0e 8F030000 		.4byte	.LASF183
 2301 0d12 03       		.byte	0x3
 2302 0d13 6D01     		.2byte	0x16d
 2303 0d15 03       		.byte	0x3
 2304 0d16 280D0000 		.4byte	0xd28
 2305 0d1a 1F       		.uleb128 0x1f
 2306 0d1b C9000000 		.4byte	.LASF184
 2307 0d1f 380D0000 		.4byte	0xd38
 2308 0d23 8F030000 		.4byte	.LASF183
 2309 0d27 00       		.byte	0
 2310 0d28 20       		.uleb128 0x20
 2311 0d29 FC080000 		.4byte	0x8fc
 2312 0d2d 380D0000 		.4byte	0xd38
 2313 0d31 21       		.uleb128 0x21
 2314 0d32 82040000 		.4byte	0x482
 2315 0d36 0B       		.byte	0xb
 2316 0d37 00       		.byte	0
 2317 0d38 16       		.uleb128 0x16
 2318 0d39 280D0000 		.4byte	0xd28
 2319 0d3d 1C       		.uleb128 0x1c
 2320 0d3e AD030000 		.4byte	.LASF186
 2321 0d42 03       		.byte	0x3
 2322 0d43 6101     		.2byte	0x161
 2323 0d45 03       		.byte	0x3
 2324 0d46 23       		.uleb128 0x23
 2325 0d47 75090000 		.4byte	.LASF187
 2326 0d4b 01       		.byte	0x1
 2327 0d4c 5F       		.byte	0x5f
 2328 0d4d 00000000 		.4byte	.LFB325
 2329 0d51 28000000 		.4byte	.LFE325-.LFB325
 2330 0d55 01       		.uleb128 0x1
 2331 0d56 9C       		.byte	0x9c
 2332 0d57 5C0E0000 		.4byte	0xe5c
 2333 0d5b 26       		.uleb128 0x26
 2334 0d5c CF040000 		.4byte	.LASF177
 2335 0d60 01       		.byte	0x1
 2336 0d61 5F       		.byte	0x5f
 2337 0d62 920B0000 		.4byte	0xb92
ARM GAS  /tmp/ccxER8tB.s 			page 42


 2338 0d66 00000000 		.4byte	.LLST0
 2339 0d6a 26       		.uleb128 0x26
 2340 0d6b E5000000 		.4byte	.LASF144
 2341 0d6f 01       		.byte	0x1
 2342 0d70 5F       		.byte	0x5f
 2343 0d71 B90B0000 		.4byte	0xbb9
 2344 0d75 1E000000 		.4byte	.LLST1
 2345 0d79 27       		.uleb128 0x27
 2346 0d7a C9000000 		.4byte	.LASF184
 2347 0d7e 6C0E0000 		.4byte	0xe6c
 2348 0d82 28       		.uleb128 0x28
 2349 0d83 1B0C0000 		.4byte	0xc1b
 2350 0d87 06000000 		.4byte	.LBB56
 2351 0d8b 0A000000 		.4byte	.LBE56-.LBB56
 2352 0d8f 01       		.byte	0x1
 2353 0d90 63       		.byte	0x63
 2354 0d91 DF0D0000 		.4byte	0xddf
 2355 0d95 29       		.uleb128 0x29
 2356 0d96 3D0D0000 		.4byte	0xd3d
 2357 0d9a 06000000 		.4byte	.LBB57
 2358 0d9e 0A000000 		.4byte	.LBE57-.LBB57
 2359 0da2 04       		.byte	0x4
 2360 0da3 FF01     		.2byte	0x1ff
 2361 0da5 2A       		.uleb128 0x2a
 2362 0da6 000C0000 		.4byte	0xc00
 2363 0daa 06000000 		.4byte	.LBB59
 2364 0dae 06000000 		.4byte	.LBE59-.LBB59
 2365 0db2 03       		.byte	0x3
 2366 0db3 6301     		.2byte	0x163
 2367 0db5 D40D0000 		.4byte	0xdd4
 2368 0db9 29       		.uleb128 0x29
 2369 0dba E60B0000 		.4byte	0xbe6
 2370 0dbe 06000000 		.4byte	.LBB60
 2371 0dc2 06000000 		.4byte	.LBE60-.LBB60
 2372 0dc6 0E       		.byte	0xe
 2373 0dc7 6202     		.2byte	0x262
 2374 0dc9 2B       		.uleb128 0x2b
 2375 0dca F30B0000 		.4byte	0xbf3
 2376 0dce 3C000000 		.4byte	.LLST2
 2377 0dd2 00       		.byte	0
 2378 0dd3 00       		.byte	0
 2379 0dd4 2C       		.uleb128 0x2c
 2380 0dd5 10000000 		.4byte	.LVL4
 2381 0dd9 51150000 		.4byte	0x1551
 2382 0ddd 00       		.byte	0
 2383 0dde 00       		.byte	0
 2384 0ddf 28       		.uleb128 0x28
 2385 0de0 120C0000 		.4byte	0xc12
 2386 0de4 1C000000 		.4byte	.LBB62
 2387 0de8 0C000000 		.4byte	.LBE62-.LBB62
 2388 0dec 01       		.byte	0x1
 2389 0ded 69       		.byte	0x69
 2390 0dee 4B0E0000 		.4byte	0xe4b
 2391 0df2 29       		.uleb128 0x29
 2392 0df3 0D0D0000 		.4byte	0xd0d
 2393 0df7 1C000000 		.4byte	.LBB63
 2394 0dfb 0C000000 		.4byte	.LBE63-.LBB63
ARM GAS  /tmp/ccxER8tB.s 			page 43


 2395 0dff 04       		.byte	0x4
 2396 0e00 0A02     		.2byte	0x20a
 2397 0e02 2D       		.uleb128 0x2d
 2398 0e03 1C000000 		.4byte	.LBB64
 2399 0e07 0C000000 		.4byte	.LBE64-.LBB64
 2400 0e0b 2E       		.uleb128 0x2e
 2401 0e0c 1A0D0000 		.4byte	0xd1a
 2402 0e10 2A       		.uleb128 0x2a
 2403 0e11 090C0000 		.4byte	0xc09
 2404 0e15 20000000 		.4byte	.LBB65
 2405 0e19 08000000 		.4byte	.LBE65-.LBB65
 2406 0e1d 03       		.byte	0x3
 2407 0e1e 7A01     		.2byte	0x17a
 2408 0e20 3F0E0000 		.4byte	0xe3f
 2409 0e24 29       		.uleb128 0x29
 2410 0e25 E60B0000 		.4byte	0xbe6
 2411 0e29 20000000 		.4byte	.LBB66
 2412 0e2d 08000000 		.4byte	.LBE66-.LBB66
 2413 0e31 0E       		.byte	0xe
 2414 0e32 7502     		.2byte	0x275
 2415 0e34 2B       		.uleb128 0x2b
 2416 0e35 F30B0000 		.4byte	0xbf3
 2417 0e39 51000000 		.4byte	.LLST3
 2418 0e3d 00       		.byte	0
 2419 0e3e 00       		.byte	0
 2420 0e3f 2C       		.uleb128 0x2c
 2421 0e40 20000000 		.4byte	.LVL6
 2422 0e44 5C150000 		.4byte	0x155c
 2423 0e48 00       		.byte	0
 2424 0e49 00       		.byte	0
 2425 0e4a 00       		.byte	0
 2426 0e4b 2F       		.uleb128 0x2f
 2427 0e4c 18000000 		.4byte	.LVL5
 2428 0e50 67150000 		.4byte	0x1567
 2429 0e54 30       		.uleb128 0x30
 2430 0e55 01       		.uleb128 0x1
 2431 0e56 50       		.byte	0x50
 2432 0e57 02       		.uleb128 0x2
 2433 0e58 74       		.byte	0x74
 2434 0e59 00       		.sleb128 0
 2435 0e5a 00       		.byte	0
 2436 0e5b 00       		.byte	0
 2437 0e5c 20       		.uleb128 0x20
 2438 0e5d FC080000 		.4byte	0x8fc
 2439 0e61 6C0E0000 		.4byte	0xe6c
 2440 0e65 21       		.uleb128 0x21
 2441 0e66 82040000 		.4byte	0x482
 2442 0e6a 08       		.byte	0x8
 2443 0e6b 00       		.byte	0
 2444 0e6c 16       		.uleb128 0x16
 2445 0e6d 5C0E0000 		.4byte	0xe5c
 2446 0e71 23       		.uleb128 0x23
 2447 0e72 63080000 		.4byte	.LASF188
 2448 0e76 01       		.byte	0x1
 2449 0e77 73       		.byte	0x73
 2450 0e78 00000000 		.4byte	.LFB326
 2451 0e7c 26000000 		.4byte	.LFE326-.LFB326
ARM GAS  /tmp/ccxER8tB.s 			page 44


 2452 0e80 01       		.uleb128 0x1
 2453 0e81 9C       		.byte	0x9c
 2454 0e82 780F0000 		.4byte	0xf78
 2455 0e86 26       		.uleb128 0x26
 2456 0e87 CF040000 		.4byte	.LASF177
 2457 0e8b 01       		.byte	0x1
 2458 0e8c 73       		.byte	0x73
 2459 0e8d 920B0000 		.4byte	0xb92
 2460 0e91 65000000 		.4byte	.LLST4
 2461 0e95 27       		.uleb128 0x27
 2462 0e96 C9000000 		.4byte	.LASF184
 2463 0e9a 880F0000 		.4byte	0xf88
 2464 0e9e 28       		.uleb128 0x28
 2465 0e9f 1B0C0000 		.4byte	0xc1b
 2466 0ea3 04000000 		.4byte	.LBB82
 2467 0ea7 0A000000 		.4byte	.LBE82-.LBB82
 2468 0eab 01       		.byte	0x1
 2469 0eac 77       		.byte	0x77
 2470 0ead FB0E0000 		.4byte	0xefb
 2471 0eb1 29       		.uleb128 0x29
 2472 0eb2 3D0D0000 		.4byte	0xd3d
 2473 0eb6 04000000 		.4byte	.LBB83
 2474 0eba 0A000000 		.4byte	.LBE83-.LBB83
 2475 0ebe 04       		.byte	0x4
 2476 0ebf FF01     		.2byte	0x1ff
 2477 0ec1 2A       		.uleb128 0x2a
 2478 0ec2 000C0000 		.4byte	0xc00
 2479 0ec6 04000000 		.4byte	.LBB85
 2480 0eca 06000000 		.4byte	.LBE85-.LBB85
 2481 0ece 03       		.byte	0x3
 2482 0ecf 6301     		.2byte	0x163
 2483 0ed1 F00E0000 		.4byte	0xef0
 2484 0ed5 29       		.uleb128 0x29
 2485 0ed6 E60B0000 		.4byte	0xbe6
 2486 0eda 04000000 		.4byte	.LBB86
 2487 0ede 06000000 		.4byte	.LBE86-.LBB86
 2488 0ee2 0E       		.byte	0xe
 2489 0ee3 6202     		.2byte	0x262
 2490 0ee5 2B       		.uleb128 0x2b
 2491 0ee6 F30B0000 		.4byte	0xbf3
 2492 0eea 83000000 		.4byte	.LLST5
 2493 0eee 00       		.byte	0
 2494 0eef 00       		.byte	0
 2495 0ef0 2C       		.uleb128 0x2c
 2496 0ef1 0E000000 		.4byte	.LVL10
 2497 0ef5 51150000 		.4byte	0x1551
 2498 0ef9 00       		.byte	0
 2499 0efa 00       		.byte	0
 2500 0efb 28       		.uleb128 0x28
 2501 0efc 120C0000 		.4byte	0xc12
 2502 0f00 1C000000 		.4byte	.LBB88
 2503 0f04 0A000000 		.4byte	.LBE88-.LBB88
 2504 0f08 01       		.byte	0x1
 2505 0f09 80       		.byte	0x80
 2506 0f0a 670F0000 		.4byte	0xf67
 2507 0f0e 29       		.uleb128 0x29
 2508 0f0f 0D0D0000 		.4byte	0xd0d
ARM GAS  /tmp/ccxER8tB.s 			page 45


 2509 0f13 1C000000 		.4byte	.LBB89
 2510 0f17 0A000000 		.4byte	.LBE89-.LBB89
 2511 0f1b 04       		.byte	0x4
 2512 0f1c 0A02     		.2byte	0x20a
 2513 0f1e 2D       		.uleb128 0x2d
 2514 0f1f 1C000000 		.4byte	.LBB90
 2515 0f23 0A000000 		.4byte	.LBE90-.LBB90
 2516 0f27 2E       		.uleb128 0x2e
 2517 0f28 1A0D0000 		.4byte	0xd1a
 2518 0f2c 2A       		.uleb128 0x2a
 2519 0f2d 090C0000 		.4byte	0xc09
 2520 0f31 20000000 		.4byte	.LBB91
 2521 0f35 06000000 		.4byte	.LBE91-.LBB91
 2522 0f39 03       		.byte	0x3
 2523 0f3a 7A01     		.2byte	0x17a
 2524 0f3c 5B0F0000 		.4byte	0xf5b
 2525 0f40 29       		.uleb128 0x29
 2526 0f41 E60B0000 		.4byte	0xbe6
 2527 0f45 20000000 		.4byte	.LBB92
 2528 0f49 06000000 		.4byte	.LBE92-.LBB92
 2529 0f4d 0E       		.byte	0xe
 2530 0f4e 7502     		.2byte	0x275
 2531 0f50 2B       		.uleb128 0x2b
 2532 0f51 F30B0000 		.4byte	0xbf3
 2533 0f55 98000000 		.4byte	.LLST6
 2534 0f59 00       		.byte	0
 2535 0f5a 00       		.byte	0
 2536 0f5b 2C       		.uleb128 0x2c
 2537 0f5c 20000000 		.4byte	.LVL12
 2538 0f60 5C150000 		.4byte	0x155c
 2539 0f64 00       		.byte	0
 2540 0f65 00       		.byte	0
 2541 0f66 00       		.byte	0
 2542 0f67 2F       		.uleb128 0x2f
 2543 0f68 14000000 		.4byte	.LVL11
 2544 0f6c 73150000 		.4byte	0x1573
 2545 0f70 30       		.uleb128 0x30
 2546 0f71 01       		.uleb128 0x1
 2547 0f72 50       		.byte	0x50
 2548 0f73 02       		.uleb128 0x2
 2549 0f74 74       		.byte	0x74
 2550 0f75 00       		.sleb128 0
 2551 0f76 00       		.byte	0
 2552 0f77 00       		.byte	0
 2553 0f78 20       		.uleb128 0x20
 2554 0f79 FC080000 		.4byte	0x8fc
 2555 0f7d 880F0000 		.4byte	0xf88
 2556 0f81 21       		.uleb128 0x21
 2557 0f82 82040000 		.4byte	0x482
 2558 0f86 07       		.byte	0x7
 2559 0f87 00       		.byte	0
 2560 0f88 16       		.uleb128 0x16
 2561 0f89 780F0000 		.4byte	0xf78
 2562 0f8d 23       		.uleb128 0x23
 2563 0f8e 7E090000 		.4byte	.LASF189
 2564 0f92 01       		.byte	0x1
 2565 0f93 93       		.byte	0x93
ARM GAS  /tmp/ccxER8tB.s 			page 46


 2566 0f94 00000000 		.4byte	.LFB327
 2567 0f98 30000000 		.4byte	.LFE327-.LFB327
 2568 0f9c 01       		.uleb128 0x1
 2569 0f9d 9C       		.byte	0x9c
 2570 0f9e FB100000 		.4byte	0x10fb
 2571 0fa2 26       		.uleb128 0x26
 2572 0fa3 CF040000 		.4byte	.LASF177
 2573 0fa7 01       		.byte	0x1
 2574 0fa8 93       		.byte	0x93
 2575 0fa9 920B0000 		.4byte	0xb92
 2576 0fad AC000000 		.4byte	.LLST7
 2577 0fb1 26       		.uleb128 0x26
 2578 0fb2 32080000 		.4byte	.LASF147
 2579 0fb6 01       		.byte	0x1
 2580 0fb7 94       		.byte	0x94
 2581 0fb8 CA0B0000 		.4byte	0xbca
 2582 0fbc CA000000 		.4byte	.LLST8
 2583 0fc0 26       		.uleb128 0x26
 2584 0fc1 2B030000 		.4byte	.LASF145
 2585 0fc5 01       		.byte	0x1
 2586 0fc6 95       		.byte	0x95
 2587 0fc7 C40B0000 		.4byte	0xbc4
 2588 0fcb E8000000 		.4byte	.LLST9
 2589 0fcf 26       		.uleb128 0x26
 2590 0fd0 E7040000 		.4byte	.LASF146
 2591 0fd4 01       		.byte	0x1
 2592 0fd5 96       		.byte	0x96
 2593 0fd6 2C000000 		.4byte	0x2c
 2594 0fda 06010000 		.4byte	.LLST10
 2595 0fde 28       		.uleb128 0x28
 2596 0fdf 1B0C0000 		.4byte	0xc1b
 2597 0fe3 0A000000 		.4byte	.LBB110
 2598 0fe7 0A000000 		.4byte	.LBE110-.LBB110
 2599 0feb 01       		.byte	0x1
 2600 0fec 98       		.byte	0x98
 2601 0fed 3B100000 		.4byte	0x103b
 2602 0ff1 29       		.uleb128 0x29
 2603 0ff2 3D0D0000 		.4byte	0xd3d
 2604 0ff6 0A000000 		.4byte	.LBB111
 2605 0ffa 0A000000 		.4byte	.LBE111-.LBB111
 2606 0ffe 04       		.byte	0x4
 2607 0fff FF01     		.2byte	0x1ff
 2608 1001 2A       		.uleb128 0x2a
 2609 1002 000C0000 		.4byte	0xc00
 2610 1006 0A000000 		.4byte	.LBB113
 2611 100a 06000000 		.4byte	.LBE113-.LBB113
 2612 100e 03       		.byte	0x3
 2613 100f 6301     		.2byte	0x163
 2614 1011 30100000 		.4byte	0x1030
 2615 1015 29       		.uleb128 0x29
 2616 1016 E60B0000 		.4byte	0xbe6
 2617 101a 0A000000 		.4byte	.LBB114
 2618 101e 06000000 		.4byte	.LBE114-.LBB114
 2619 1022 0E       		.byte	0xe
 2620 1023 6202     		.2byte	0x262
 2621 1025 2B       		.uleb128 0x2b
 2622 1026 F30B0000 		.4byte	0xbf3
ARM GAS  /tmp/ccxER8tB.s 			page 47


 2623 102a 24010000 		.4byte	.LLST11
 2624 102e 00       		.byte	0
 2625 102f 00       		.byte	0
 2626 1030 2C       		.uleb128 0x2c
 2627 1031 14000000 		.4byte	.LVL17
 2628 1035 51150000 		.4byte	0x1551
 2629 1039 00       		.byte	0
 2630 103a 00       		.byte	0
 2631 103b 28       		.uleb128 0x28
 2632 103c 240C0000 		.4byte	0xc24
 2633 1040 14000000 		.4byte	.LBB116
 2634 1044 10000000 		.4byte	.LBE116-.LBB116
 2635 1048 01       		.byte	0x1
 2636 1049 99       		.byte	0x99
 2637 104a 92100000 		.4byte	0x1092
 2638 104e 2B       		.uleb128 0x2b
 2639 104f 510C0000 		.4byte	0xc51
 2640 1053 39010000 		.4byte	.LLST12
 2641 1057 2B       		.uleb128 0x2b
 2642 1058 460C0000 		.4byte	0xc46
 2643 105c 4C010000 		.4byte	.LLST13
 2644 1060 2B       		.uleb128 0x2b
 2645 1061 3B0C0000 		.4byte	0xc3b
 2646 1065 5F010000 		.4byte	.LLST14
 2647 1069 2B       		.uleb128 0x2b
 2648 106a 300C0000 		.4byte	0xc30
 2649 106e 72010000 		.4byte	.LLST15
 2650 1072 2D       		.uleb128 0x2d
 2651 1073 14000000 		.4byte	.LBB117
 2652 1077 10000000 		.4byte	.LBE117-.LBB117
 2653 107b 2E       		.uleb128 0x2e
 2654 107c 5C0C0000 		.4byte	0xc5c
 2655 1080 2F       		.uleb128 0x2f
 2656 1081 24000000 		.4byte	.LVL18
 2657 1085 7F150000 		.4byte	0x157f
 2658 1089 30       		.uleb128 0x30
 2659 108a 01       		.uleb128 0x1
 2660 108b 50       		.byte	0x50
 2661 108c 02       		.uleb128 0x2
 2662 108d 74       		.byte	0x74
 2663 108e 00       		.sleb128 0
 2664 108f 00       		.byte	0
 2665 1090 00       		.byte	0
 2666 1091 00       		.byte	0
 2667 1092 31       		.uleb128 0x31
 2668 1093 120C0000 		.4byte	0xc12
 2669 1097 24000000 		.4byte	.LBB118
 2670 109b 0C000000 		.4byte	.LBE118-.LBB118
 2671 109f 01       		.byte	0x1
 2672 10a0 9A       		.byte	0x9a
 2673 10a1 29       		.uleb128 0x29
 2674 10a2 0D0D0000 		.4byte	0xd0d
 2675 10a6 24000000 		.4byte	.LBB119
 2676 10aa 0C000000 		.4byte	.LBE119-.LBB119
 2677 10ae 04       		.byte	0x4
 2678 10af 0A02     		.2byte	0x20a
 2679 10b1 2D       		.uleb128 0x2d
ARM GAS  /tmp/ccxER8tB.s 			page 48


 2680 10b2 24000000 		.4byte	.LBB120
 2681 10b6 0C000000 		.4byte	.LBE120-.LBB120
 2682 10ba 2E       		.uleb128 0x2e
 2683 10bb 1A0D0000 		.4byte	0xd1a
 2684 10bf 2A       		.uleb128 0x2a
 2685 10c0 090C0000 		.4byte	0xc09
 2686 10c4 28000000 		.4byte	.LBB121
 2687 10c8 08000000 		.4byte	.LBE121-.LBB121
 2688 10cc 03       		.byte	0x3
 2689 10cd 7A01     		.2byte	0x17a
 2690 10cf EE100000 		.4byte	0x10ee
 2691 10d3 29       		.uleb128 0x29
 2692 10d4 E60B0000 		.4byte	0xbe6
 2693 10d8 28000000 		.4byte	.LBB122
 2694 10dc 08000000 		.4byte	.LBE122-.LBB122
 2695 10e0 0E       		.byte	0xe
 2696 10e1 7502     		.2byte	0x275
 2697 10e3 2B       		.uleb128 0x2b
 2698 10e4 F30B0000 		.4byte	0xbf3
 2699 10e8 85010000 		.4byte	.LLST16
 2700 10ec 00       		.byte	0
 2701 10ed 00       		.byte	0
 2702 10ee 2C       		.uleb128 0x2c
 2703 10ef 28000000 		.4byte	.LVL19
 2704 10f3 5C150000 		.4byte	0x155c
 2705 10f7 00       		.byte	0
 2706 10f8 00       		.byte	0
 2707 10f9 00       		.byte	0
 2708 10fa 00       		.byte	0
 2709 10fb 32       		.uleb128 0x32
 2710 10fc 240C0000 		.4byte	0xc24
 2711 1100 00000000 		.4byte	.LFB328
 2712 1104 14000000 		.4byte	.LFE328-.LFB328
 2713 1108 01       		.uleb128 0x1
 2714 1109 9C       		.byte	0x9c
 2715 110a 49110000 		.4byte	0x1149
 2716 110e 2B       		.uleb128 0x2b
 2717 110f 300C0000 		.4byte	0xc30
 2718 1113 99010000 		.4byte	.LLST17
 2719 1117 2B       		.uleb128 0x2b
 2720 1118 3B0C0000 		.4byte	0xc3b
 2721 111c BA010000 		.4byte	.LLST18
 2722 1120 2B       		.uleb128 0x2b
 2723 1121 460C0000 		.4byte	0xc46
 2724 1125 DB010000 		.4byte	.LLST19
 2725 1129 2B       		.uleb128 0x2b
 2726 112a 510C0000 		.4byte	0xc51
 2727 112e FC010000 		.4byte	.LLST20
 2728 1132 2E       		.uleb128 0x2e
 2729 1133 5C0C0000 		.4byte	0xc5c
 2730 1137 33       		.uleb128 0x33
 2731 1138 14000000 		.4byte	.LVL23
 2732 113c 7F150000 		.4byte	0x157f
 2733 1140 30       		.uleb128 0x30
 2734 1141 01       		.uleb128 0x1
 2735 1142 50       		.byte	0x50
 2736 1143 03       		.uleb128 0x3
ARM GAS  /tmp/ccxER8tB.s 			page 49


 2737 1144 F3       		.byte	0xf3
 2738 1145 01       		.uleb128 0x1
 2739 1146 50       		.byte	0x50
 2740 1147 00       		.byte	0
 2741 1148 00       		.byte	0
 2742 1149 23       		.uleb128 0x23
 2743 114a ED080000 		.4byte	.LASF190
 2744 114e 01       		.byte	0x1
 2745 114f CC       		.byte	0xcc
 2746 1150 00000000 		.4byte	.LFB329
 2747 1154 3A000000 		.4byte	.LFE329-.LFB329
 2748 1158 01       		.uleb128 0x1
 2749 1159 9C       		.byte	0x9c
 2750 115a 8C120000 		.4byte	0x128c
 2751 115e 26       		.uleb128 0x26
 2752 115f CF040000 		.4byte	.LASF177
 2753 1163 01       		.byte	0x1
 2754 1164 CC       		.byte	0xcc
 2755 1165 920B0000 		.4byte	0xb92
 2756 1169 29020000 		.4byte	.LLST21
 2757 116d 27       		.uleb128 0x27
 2758 116e C9000000 		.4byte	.LASF184
 2759 1172 9C120000 		.4byte	0x129c
 2760 1176 34       		.uleb128 0x34
 2761 1177 1B0C0000 		.4byte	0xc1b
 2762 117b 02000000 		.4byte	.LBB140
 2763 117f 00000000 		.4byte	.Ldebug_ranges0+0
 2764 1183 01       		.byte	0x1
 2765 1184 D0       		.byte	0xd0
 2766 1185 D3110000 		.4byte	0x11d3
 2767 1189 35       		.uleb128 0x35
 2768 118a 3D0D0000 		.4byte	0xd3d
 2769 118e 02000000 		.4byte	.LBB141
 2770 1192 00000000 		.4byte	.Ldebug_ranges0+0
 2771 1196 04       		.byte	0x4
 2772 1197 FF01     		.2byte	0x1ff
 2773 1199 36       		.uleb128 0x36
 2774 119a 000C0000 		.4byte	0xc00
 2775 119e 02000000 		.4byte	.LBB143
 2776 11a2 18000000 		.4byte	.Ldebug_ranges0+0x18
 2777 11a6 03       		.byte	0x3
 2778 11a7 6301     		.2byte	0x163
 2779 11a9 C8110000 		.4byte	0x11c8
 2780 11ad 35       		.uleb128 0x35
 2781 11ae E60B0000 		.4byte	0xbe6
 2782 11b2 02000000 		.4byte	.LBB144
 2783 11b6 18000000 		.4byte	.Ldebug_ranges0+0x18
 2784 11ba 0E       		.byte	0xe
 2785 11bb 6202     		.2byte	0x262
 2786 11bd 2B       		.uleb128 0x2b
 2787 11be F30B0000 		.4byte	0xbf3
 2788 11c2 47020000 		.4byte	.LLST22
 2789 11c6 00       		.byte	0
 2790 11c7 00       		.byte	0
 2791 11c8 2C       		.uleb128 0x2c
 2792 11c9 0E000000 		.4byte	.LVL26
 2793 11cd 51150000 		.4byte	0x1551
ARM GAS  /tmp/ccxER8tB.s 			page 50


 2794 11d1 00       		.byte	0
 2795 11d2 00       		.byte	0
 2796 11d3 28       		.uleb128 0x28
 2797 11d4 7F0C0000 		.4byte	0xc7f
 2798 11d8 26000000 		.4byte	.LBB152
 2799 11dc 08000000 		.4byte	.LBE152-.LBB152
 2800 11e0 01       		.byte	0x1
 2801 11e1 D7       		.byte	0xd7
 2802 11e2 0F120000 		.4byte	0x120f
 2803 11e6 2B       		.uleb128 0x2b
 2804 11e7 980C0000 		.4byte	0xc98
 2805 11eb 5C020000 		.4byte	.LLST23
 2806 11ef 2B       		.uleb128 0x2b
 2807 11f0 8C0C0000 		.4byte	0xc8c
 2808 11f4 71020000 		.4byte	.LLST24
 2809 11f8 2F       		.uleb128 0x2f
 2810 11f9 2E000000 		.4byte	.LVL29
 2811 11fd 8B150000 		.4byte	0x158b
 2812 1201 30       		.uleb128 0x30
 2813 1202 01       		.uleb128 0x1
 2814 1203 50       		.byte	0x50
 2815 1204 02       		.uleb128 0x2
 2816 1205 74       		.byte	0x74
 2817 1206 14       		.sleb128 20
 2818 1207 30       		.uleb128 0x30
 2819 1208 01       		.uleb128 0x1
 2820 1209 51       		.byte	0x51
 2821 120a 02       		.uleb128 0x2
 2822 120b 09       		.byte	0x9
 2823 120c FE       		.byte	0xfe
 2824 120d 00       		.byte	0
 2825 120e 00       		.byte	0
 2826 120f 28       		.uleb128 0x28
 2827 1210 120C0000 		.4byte	0xc12
 2828 1214 2E000000 		.4byte	.LBB154
 2829 1218 0C000000 		.4byte	.LBE154-.LBB154
 2830 121c 01       		.byte	0x1
 2831 121d D9       		.byte	0xd9
 2832 121e 7B120000 		.4byte	0x127b
 2833 1222 29       		.uleb128 0x29
 2834 1223 0D0D0000 		.4byte	0xd0d
 2835 1227 2E000000 		.4byte	.LBB155
 2836 122b 0C000000 		.4byte	.LBE155-.LBB155
 2837 122f 04       		.byte	0x4
 2838 1230 0A02     		.2byte	0x20a
 2839 1232 2D       		.uleb128 0x2d
 2840 1233 2E000000 		.4byte	.LBB156
 2841 1237 0C000000 		.4byte	.LBE156-.LBB156
 2842 123b 2E       		.uleb128 0x2e
 2843 123c 1A0D0000 		.4byte	0xd1a
 2844 1240 2A       		.uleb128 0x2a
 2845 1241 090C0000 		.4byte	0xc09
 2846 1245 32000000 		.4byte	.LBB157
 2847 1249 08000000 		.4byte	.LBE157-.LBB157
 2848 124d 03       		.byte	0x3
 2849 124e 7A01     		.2byte	0x17a
 2850 1250 6F120000 		.4byte	0x126f
ARM GAS  /tmp/ccxER8tB.s 			page 51


 2851 1254 29       		.uleb128 0x29
 2852 1255 E60B0000 		.4byte	0xbe6
 2853 1259 32000000 		.4byte	.LBB158
 2854 125d 08000000 		.4byte	.LBE158-.LBB158
 2855 1261 0E       		.byte	0xe
 2856 1262 7502     		.2byte	0x275
 2857 1264 2B       		.uleb128 0x2b
 2858 1265 F30B0000 		.4byte	0xbf3
 2859 1269 86020000 		.4byte	.LLST25
 2860 126d 00       		.byte	0
 2861 126e 00       		.byte	0
 2862 126f 2C       		.uleb128 0x2c
 2863 1270 32000000 		.4byte	.LVL30
 2864 1274 5C150000 		.4byte	0x155c
 2865 1278 00       		.byte	0
 2866 1279 00       		.byte	0
 2867 127a 00       		.byte	0
 2868 127b 2F       		.uleb128 0x2f
 2869 127c 1A000000 		.4byte	.LVL27
 2870 1280 96150000 		.4byte	0x1596
 2871 1284 30       		.uleb128 0x30
 2872 1285 01       		.uleb128 0x1
 2873 1286 50       		.byte	0x50
 2874 1287 02       		.uleb128 0x2
 2875 1288 74       		.byte	0x74
 2876 1289 00       		.sleb128 0
 2877 128a 00       		.byte	0
 2878 128b 00       		.byte	0
 2879 128c 20       		.uleb128 0x20
 2880 128d FC080000 		.4byte	0x8fc
 2881 1291 9C120000 		.4byte	0x129c
 2882 1295 21       		.uleb128 0x21
 2883 1296 82040000 		.4byte	0x482
 2884 129a 11       		.byte	0x11
 2885 129b 00       		.byte	0
 2886 129c 16       		.uleb128 0x16
 2887 129d 8C120000 		.4byte	0x128c
 2888 12a1 23       		.uleb128 0x23
 2889 12a2 CC070000 		.4byte	.LASF191
 2890 12a6 01       		.byte	0x1
 2891 12a7 E6       		.byte	0xe6
 2892 12a8 00000000 		.4byte	.LFB330
 2893 12ac 28000000 		.4byte	.LFE330-.LFB330
 2894 12b0 01       		.uleb128 0x1
 2895 12b1 9C       		.byte	0x9c
 2896 12b2 1E130000 		.4byte	0x131e
 2897 12b6 26       		.uleb128 0x26
 2898 12b7 CF040000 		.4byte	.LASF177
 2899 12bb 01       		.byte	0x1
 2900 12bc E6       		.byte	0xe6
 2901 12bd 920B0000 		.4byte	0xb92
 2902 12c1 9A020000 		.4byte	.LLST26
 2903 12c5 27       		.uleb128 0x27
 2904 12c6 C9000000 		.4byte	.LASF184
 2905 12ca 2E130000 		.4byte	0x132e
 2906 12ce 34       		.uleb128 0x34
 2907 12cf A50C0000 		.4byte	0xca5
ARM GAS  /tmp/ccxER8tB.s 			page 52


 2908 12d3 1A000000 		.4byte	.LBB160
 2909 12d7 30000000 		.4byte	.Ldebug_ranges0+0x30
 2910 12db 01       		.byte	0x1
 2911 12dc F3       		.byte	0xf3
 2912 12dd 0D130000 		.4byte	0x130d
 2913 12e1 2B       		.uleb128 0x2b
 2914 12e2 BE0C0000 		.4byte	0xcbe
 2915 12e6 DE020000 		.4byte	.LLST27
 2916 12ea 2B       		.uleb128 0x2b
 2917 12eb B20C0000 		.4byte	0xcb2
 2918 12ef F3020000 		.4byte	.LLST28
 2919 12f3 33       		.uleb128 0x33
 2920 12f4 26000000 		.4byte	.LVL36
 2921 12f8 A2150000 		.4byte	0x15a2
 2922 12fc 30       		.uleb128 0x30
 2923 12fd 01       		.uleb128 0x1
 2924 12fe 50       		.byte	0x50
 2925 12ff 05       		.uleb128 0x5
 2926 1300 F3       		.byte	0xf3
 2927 1301 01       		.uleb128 0x1
 2928 1302 50       		.byte	0x50
 2929 1303 23       		.byte	0x23
 2930 1304 14       		.uleb128 0x14
 2931 1305 30       		.uleb128 0x30
 2932 1306 01       		.uleb128 0x1
 2933 1307 51       		.byte	0x51
 2934 1308 02       		.uleb128 0x2
 2935 1309 09       		.byte	0x9
 2936 130a FE       		.byte	0xfe
 2937 130b 00       		.byte	0
 2938 130c 00       		.byte	0
 2939 130d 2F       		.uleb128 0x2f
 2940 130e 0E000000 		.4byte	.LVL33
 2941 1312 96150000 		.4byte	0x1596
 2942 1316 30       		.uleb128 0x30
 2943 1317 01       		.uleb128 0x1
 2944 1318 50       		.byte	0x50
 2945 1319 02       		.uleb128 0x2
 2946 131a 74       		.byte	0x74
 2947 131b 00       		.sleb128 0
 2948 131c 00       		.byte	0
 2949 131d 00       		.byte	0
 2950 131e 20       		.uleb128 0x20
 2951 131f FC080000 		.4byte	0x8fc
 2952 1323 2E130000 		.4byte	0x132e
 2953 1327 21       		.uleb128 0x21
 2954 1328 82040000 		.4byte	0x482
 2955 132c 12       		.byte	0x12
 2956 132d 00       		.byte	0
 2957 132e 16       		.uleb128 0x16
 2958 132f 1E130000 		.4byte	0x131e
 2959 1333 37       		.uleb128 0x37
 2960 1334 D2000000 		.4byte	.LASF206
 2961 1338 04       		.byte	0x4
 2962 1339 DD02     		.2byte	0x2dd
 2963 133b 2D010000 		.4byte	0x12d
 2964 133f 03       		.byte	0x3
ARM GAS  /tmp/ccxER8tB.s 			page 53


 2965 1340 51130000 		.4byte	0x1351
 2966 1344 22       		.uleb128 0x22
 2967 1345 74727000 		.ascii	"trp\000"
 2968 1349 04       		.byte	0x4
 2969 134a DD02     		.2byte	0x2dd
 2970 134c 87080000 		.4byte	0x887
 2971 1350 00       		.byte	0
 2972 1351 38       		.uleb128 0x38
 2973 1352 1C090000 		.4byte	.LASF207
 2974 1356 01       		.byte	0x1
 2975 1357 0F01     		.2byte	0x10f
 2976 1359 2D010000 		.4byte	0x12d
 2977 135d 00000000 		.4byte	.LFB331
 2978 1361 40000000 		.4byte	.LFE331-.LFB331
 2979 1365 01       		.uleb128 0x1
 2980 1366 9C       		.byte	0x9c
 2981 1367 14150000 		.4byte	0x1514
 2982 136b 39       		.uleb128 0x39
 2983 136c CF040000 		.4byte	.LASF177
 2984 1370 01       		.byte	0x1
 2985 1371 0F01     		.2byte	0x10f
 2986 1373 920B0000 		.4byte	0xb92
 2987 1377 23030000 		.4byte	.LLST29
 2988 137b 39       		.uleb128 0x39
 2989 137c 32080000 		.4byte	.LASF147
 2990 1380 01       		.byte	0x1
 2991 1381 1001     		.2byte	0x110
 2992 1383 CA0B0000 		.4byte	0xbca
 2993 1387 4F030000 		.4byte	.LLST30
 2994 138b 39       		.uleb128 0x39
 2995 138c 2B030000 		.4byte	.LASF145
 2996 1390 01       		.byte	0x1
 2997 1391 1101     		.2byte	0x111
 2998 1393 C40B0000 		.4byte	0xbc4
 2999 1397 6D030000 		.4byte	.LLST31
 3000 139b 39       		.uleb128 0x39
 3001 139c E7040000 		.4byte	.LASF146
 3002 13a0 01       		.byte	0x1
 3003 13a1 1201     		.2byte	0x112
 3004 13a3 2C000000 		.4byte	0x2c
 3005 13a7 8B030000 		.4byte	.LLST32
 3006 13ab 3A       		.uleb128 0x3a
 3007 13ac 6D736700 		.ascii	"msg\000"
 3008 13b0 01       		.byte	0x1
 3009 13b1 1301     		.2byte	0x113
 3010 13b3 2D010000 		.4byte	0x12d
 3011 13b7 27       		.uleb128 0x27
 3012 13b8 C9000000 		.4byte	.LASF184
 3013 13bc 24150000 		.4byte	0x1524
 3014 13c0 2A       		.uleb128 0x2a
 3015 13c1 1B0C0000 		.4byte	0xc1b
 3016 13c5 0A000000 		.4byte	.LBB182
 3017 13c9 0A000000 		.4byte	.LBE182-.LBB182
 3018 13cd 01       		.byte	0x1
 3019 13ce 1501     		.2byte	0x115
 3020 13d0 1E140000 		.4byte	0x141e
 3021 13d4 29       		.uleb128 0x29
ARM GAS  /tmp/ccxER8tB.s 			page 54


 3022 13d5 3D0D0000 		.4byte	0xd3d
 3023 13d9 0A000000 		.4byte	.LBB183
 3024 13dd 0A000000 		.4byte	.LBE183-.LBB183
 3025 13e1 04       		.byte	0x4
 3026 13e2 FF01     		.2byte	0x1ff
 3027 13e4 2A       		.uleb128 0x2a
 3028 13e5 000C0000 		.4byte	0xc00
 3029 13e9 0A000000 		.4byte	.LBB185
 3030 13ed 06000000 		.4byte	.LBE185-.LBB185
 3031 13f1 03       		.byte	0x3
 3032 13f2 6301     		.2byte	0x163
 3033 13f4 13140000 		.4byte	0x1413
 3034 13f8 29       		.uleb128 0x29
 3035 13f9 E60B0000 		.4byte	0xbe6
 3036 13fd 0A000000 		.4byte	.LBB186
 3037 1401 06000000 		.4byte	.LBE186-.LBB186
 3038 1405 0E       		.byte	0xe
 3039 1406 6202     		.2byte	0x262
 3040 1408 2B       		.uleb128 0x2b
 3041 1409 F30B0000 		.4byte	0xbf3
 3042 140d A9030000 		.4byte	.LLST33
 3043 1411 00       		.byte	0
 3044 1412 00       		.byte	0
 3045 1413 2C       		.uleb128 0x2c
 3046 1414 14000000 		.4byte	.LVL40
 3047 1418 51150000 		.4byte	0x1551
 3048 141c 00       		.byte	0
 3049 141d 00       		.byte	0
 3050 141e 2A       		.uleb128 0x2a
 3051 141f 240C0000 		.4byte	0xc24
 3052 1423 14000000 		.4byte	.LBB188
 3053 1427 10000000 		.4byte	.LBE188-.LBB188
 3054 142b 01       		.byte	0x1
 3055 142c 1701     		.2byte	0x117
 3056 142e 76140000 		.4byte	0x1476
 3057 1432 2B       		.uleb128 0x2b
 3058 1433 510C0000 		.4byte	0xc51
 3059 1437 BE030000 		.4byte	.LLST34
 3060 143b 2B       		.uleb128 0x2b
 3061 143c 460C0000 		.4byte	0xc46
 3062 1440 D1030000 		.4byte	.LLST35
 3063 1444 2B       		.uleb128 0x2b
 3064 1445 3B0C0000 		.4byte	0xc3b
 3065 1449 E4030000 		.4byte	.LLST36
 3066 144d 2B       		.uleb128 0x2b
 3067 144e 300C0000 		.4byte	0xc30
 3068 1452 F7030000 		.4byte	.LLST37
 3069 1456 2D       		.uleb128 0x2d
 3070 1457 14000000 		.4byte	.LBB189
 3071 145b 10000000 		.4byte	.LBE189-.LBB189
 3072 145f 2E       		.uleb128 0x2e
 3073 1460 5C0C0000 		.4byte	0xc5c
 3074 1464 2F       		.uleb128 0x2f
 3075 1465 24000000 		.4byte	.LVL41
 3076 1469 7F150000 		.4byte	0x157f
 3077 146d 30       		.uleb128 0x30
 3078 146e 01       		.uleb128 0x1
ARM GAS  /tmp/ccxER8tB.s 			page 55


 3079 146f 50       		.byte	0x50
 3080 1470 02       		.uleb128 0x2
 3081 1471 74       		.byte	0x74
 3082 1472 00       		.sleb128 0
 3083 1473 00       		.byte	0
 3084 1474 00       		.byte	0
 3085 1475 00       		.byte	0
 3086 1476 2A       		.uleb128 0x2a
 3087 1477 33130000 		.4byte	0x1333
 3088 147b 24000000 		.4byte	.LBB190
 3089 147f 0E000000 		.4byte	.LBE190-.LBB190
 3090 1483 01       		.byte	0x1
 3091 1484 1801     		.2byte	0x118
 3092 1486 AA140000 		.4byte	0x14aa
 3093 148a 2B       		.uleb128 0x2b
 3094 148b 44130000 		.4byte	0x1344
 3095 148f 0A040000 		.4byte	.LLST38
 3096 1493 2F       		.uleb128 0x2f
 3097 1494 30000000 		.4byte	.LVL43
 3098 1498 AD150000 		.4byte	0x15ad
 3099 149c 30       		.uleb128 0x30
 3100 149d 01       		.uleb128 0x1
 3101 149e 50       		.byte	0x50
 3102 149f 02       		.uleb128 0x2
 3103 14a0 74       		.byte	0x74
 3104 14a1 14       		.sleb128 20
 3105 14a2 30       		.uleb128 0x30
 3106 14a3 01       		.uleb128 0x1
 3107 14a4 51       		.byte	0x51
 3108 14a5 02       		.uleb128 0x2
 3109 14a6 09       		.byte	0x9
 3110 14a7 FF       		.byte	0xff
 3111 14a8 00       		.byte	0
 3112 14a9 00       		.byte	0
 3113 14aa 29       		.uleb128 0x29
 3114 14ab 120C0000 		.4byte	0xc12
 3115 14af 32000000 		.4byte	.LBB192
 3116 14b3 0A000000 		.4byte	.LBE192-.LBB192
 3117 14b7 01       		.byte	0x1
 3118 14b8 1901     		.2byte	0x119
 3119 14ba 29       		.uleb128 0x29
 3120 14bb 0D0D0000 		.4byte	0xd0d
 3121 14bf 32000000 		.4byte	.LBB193
 3122 14c3 0A000000 		.4byte	.LBE193-.LBB193
 3123 14c7 04       		.byte	0x4
 3124 14c8 0A02     		.2byte	0x20a
 3125 14ca 2D       		.uleb128 0x2d
 3126 14cb 32000000 		.4byte	.LBB194
 3127 14cf 0A000000 		.4byte	.LBE194-.LBB194
 3128 14d3 2E       		.uleb128 0x2e
 3129 14d4 1A0D0000 		.4byte	0xd1a
 3130 14d8 2A       		.uleb128 0x2a
 3131 14d9 090C0000 		.4byte	0xc09
 3132 14dd 36000000 		.4byte	.LBB195
 3133 14e1 06000000 		.4byte	.LBE195-.LBB195
 3134 14e5 03       		.byte	0x3
 3135 14e6 7A01     		.2byte	0x17a
ARM GAS  /tmp/ccxER8tB.s 			page 56


 3136 14e8 07150000 		.4byte	0x1507
 3137 14ec 29       		.uleb128 0x29
 3138 14ed E60B0000 		.4byte	0xbe6
 3139 14f1 36000000 		.4byte	.LBB196
 3140 14f5 06000000 		.4byte	.LBE196-.LBB196
 3141 14f9 0E       		.byte	0xe
 3142 14fa 7502     		.2byte	0x275
 3143 14fc 2B       		.uleb128 0x2b
 3144 14fd F30B0000 		.4byte	0xbf3
 3145 1501 37040000 		.4byte	.LLST39
 3146 1505 00       		.byte	0
 3147 1506 00       		.byte	0
 3148 1507 2C       		.uleb128 0x2c
 3149 1508 36000000 		.4byte	.LVL45
 3150 150c 5C150000 		.4byte	0x155c
 3151 1510 00       		.byte	0
 3152 1511 00       		.byte	0
 3153 1512 00       		.byte	0
 3154 1513 00       		.byte	0
 3155 1514 20       		.uleb128 0x20
 3156 1515 FC080000 		.4byte	0x8fc
 3157 1519 24150000 		.4byte	0x1524
 3158 151d 21       		.uleb128 0x21
 3159 151e 82040000 		.4byte	0x482
 3160 1522 0A       		.byte	0xa
 3161 1523 00       		.byte	0
 3162 1524 16       		.uleb128 0x16
 3163 1525 14150000 		.4byte	0x1514
 3164 1529 3B       		.uleb128 0x3b
 3165 152a ED040000 		.4byte	.LASF192
 3166 152e 17       		.byte	0x17
 3167 152f 0408     		.2byte	0x804
 3168 1531 35150000 		.4byte	0x1535
 3169 1535 0F       		.uleb128 0xf
 3170 1536 CA000000 		.4byte	0xca
 3171 153a 3C       		.uleb128 0x3c
 3172 153b 636800   		.ascii	"ch\000"
 3173 153e 0A       		.byte	0xa
 3174 153f C701     		.2byte	0x1c7
 3175 1541 06040000 		.4byte	0x406
 3176 1545 3D       		.uleb128 0x3d
 3177 1546 86070000 		.4byte	.LASF193
 3178 154a 86070000 		.4byte	.LASF193
 3179 154e 15       		.byte	0x15
 3180 154f D901     		.2byte	0x1d9
 3181 1551 3E       		.uleb128 0x3e
 3182 1552 A7070000 		.4byte	.LASF194
 3183 1556 A7070000 		.4byte	.LASF194
 3184 155a 10       		.byte	0x10
 3185 155b 4F       		.byte	0x4f
 3186 155c 3E       		.uleb128 0x3e
 3187 155d BA010000 		.4byte	.LASF195
 3188 1561 BA010000 		.4byte	.LASF195
 3189 1565 10       		.byte	0x10
 3190 1566 50       		.byte	0x50
 3191 1567 3D       		.uleb128 0x3d
 3192 1568 32000000 		.4byte	.LASF196
ARM GAS  /tmp/ccxER8tB.s 			page 57


 3193 156c 32000000 		.4byte	.LASF196
 3194 1570 15       		.byte	0x15
 3195 1571 DA01     		.2byte	0x1da
 3196 1573 3D       		.uleb128 0x3d
 3197 1574 98010000 		.4byte	.LASF197
 3198 1578 98010000 		.4byte	.LASF197
 3199 157c 15       		.byte	0x15
 3200 157d DB01     		.2byte	0x1db
 3201 157f 3D       		.uleb128 0x3d
 3202 1580 74040000 		.4byte	.LASF198
 3203 1584 74040000 		.4byte	.LASF198
 3204 1588 15       		.byte	0x15
 3205 1589 DC01     		.2byte	0x1dc
 3206 158b 3E       		.uleb128 0x3e
 3207 158c A5000000 		.4byte	.LASF199
 3208 1590 A5000000 		.4byte	.LASF199
 3209 1594 16       		.byte	0x16
 3210 1595 F8       		.byte	0xf8
 3211 1596 3D       		.uleb128 0x3d
 3212 1597 6F050000 		.4byte	.LASF200
 3213 159b 6F050000 		.4byte	.LASF200
 3214 159f 15       		.byte	0x15
 3215 15a0 DD01     		.2byte	0x1dd
 3216 15a2 3E       		.uleb128 0x3e
 3217 15a3 8F000000 		.4byte	.LASF201
 3218 15a7 8F000000 		.4byte	.LASF201
 3219 15ab 16       		.byte	0x16
 3220 15ac F7       		.byte	0xf7
 3221 15ad 3E       		.uleb128 0x3e
 3222 15ae A5010000 		.4byte	.LASF202
 3223 15b2 A5010000 		.4byte	.LASF202
 3224 15b6 16       		.byte	0x16
 3225 15b7 F6       		.byte	0xf6
 3226 15b8 00       		.byte	0
 3227              		.section	.debug_abbrev,"",%progbits
 3228              	.Ldebug_abbrev0:
 3229 0000 01       		.uleb128 0x1
 3230 0001 11       		.uleb128 0x11
 3231 0002 01       		.byte	0x1
 3232 0003 25       		.uleb128 0x25
 3233 0004 0E       		.uleb128 0xe
 3234 0005 13       		.uleb128 0x13
 3235 0006 0B       		.uleb128 0xb
 3236 0007 03       		.uleb128 0x3
 3237 0008 0E       		.uleb128 0xe
 3238 0009 1B       		.uleb128 0x1b
 3239 000a 0E       		.uleb128 0xe
 3240 000b 55       		.uleb128 0x55
 3241 000c 17       		.uleb128 0x17
 3242 000d 11       		.uleb128 0x11
 3243 000e 01       		.uleb128 0x1
 3244 000f 10       		.uleb128 0x10
 3245 0010 17       		.uleb128 0x17
 3246 0011 00       		.byte	0
 3247 0012 00       		.byte	0
 3248 0013 02       		.uleb128 0x2
 3249 0014 24       		.uleb128 0x24
ARM GAS  /tmp/ccxER8tB.s 			page 58


 3250 0015 00       		.byte	0
 3251 0016 0B       		.uleb128 0xb
 3252 0017 0B       		.uleb128 0xb
 3253 0018 3E       		.uleb128 0x3e
 3254 0019 0B       		.uleb128 0xb
 3255 001a 03       		.uleb128 0x3
 3256 001b 08       		.uleb128 0x8
 3257 001c 00       		.byte	0
 3258 001d 00       		.byte	0
 3259 001e 03       		.uleb128 0x3
 3260 001f 16       		.uleb128 0x16
 3261 0020 00       		.byte	0
 3262 0021 03       		.uleb128 0x3
 3263 0022 0E       		.uleb128 0xe
 3264 0023 3A       		.uleb128 0x3a
 3265 0024 0B       		.uleb128 0xb
 3266 0025 3B       		.uleb128 0x3b
 3267 0026 0B       		.uleb128 0xb
 3268 0027 49       		.uleb128 0x49
 3269 0028 13       		.uleb128 0x13
 3270 0029 00       		.byte	0
 3271 002a 00       		.byte	0
 3272 002b 04       		.uleb128 0x4
 3273 002c 24       		.uleb128 0x24
 3274 002d 00       		.byte	0
 3275 002e 0B       		.uleb128 0xb
 3276 002f 0B       		.uleb128 0xb
 3277 0030 3E       		.uleb128 0x3e
 3278 0031 0B       		.uleb128 0xb
 3279 0032 03       		.uleb128 0x3
 3280 0033 0E       		.uleb128 0xe
 3281 0034 00       		.byte	0
 3282 0035 00       		.byte	0
 3283 0036 05       		.uleb128 0x5
 3284 0037 13       		.uleb128 0x13
 3285 0038 01       		.byte	0x1
 3286 0039 03       		.uleb128 0x3
 3287 003a 0E       		.uleb128 0xe
 3288 003b 0B       		.uleb128 0xb
 3289 003c 0B       		.uleb128 0xb
 3290 003d 3A       		.uleb128 0x3a
 3291 003e 0B       		.uleb128 0xb
 3292 003f 3B       		.uleb128 0x3b
 3293 0040 0B       		.uleb128 0xb
 3294 0041 01       		.uleb128 0x1
 3295 0042 13       		.uleb128 0x13
 3296 0043 00       		.byte	0
 3297 0044 00       		.byte	0
 3298 0045 06       		.uleb128 0x6
 3299 0046 0D       		.uleb128 0xd
 3300 0047 00       		.byte	0
 3301 0048 03       		.uleb128 0x3
 3302 0049 0E       		.uleb128 0xe
 3303 004a 3A       		.uleb128 0x3a
 3304 004b 0B       		.uleb128 0xb
 3305 004c 3B       		.uleb128 0x3b
 3306 004d 0B       		.uleb128 0xb
ARM GAS  /tmp/ccxER8tB.s 			page 59


 3307 004e 49       		.uleb128 0x49
 3308 004f 13       		.uleb128 0x13
 3309 0050 38       		.uleb128 0x38
 3310 0051 0B       		.uleb128 0xb
 3311 0052 00       		.byte	0
 3312 0053 00       		.byte	0
 3313 0054 07       		.uleb128 0x7
 3314 0055 0D       		.uleb128 0xd
 3315 0056 00       		.byte	0
 3316 0057 03       		.uleb128 0x3
 3317 0058 08       		.uleb128 0x8
 3318 0059 3A       		.uleb128 0x3a
 3319 005a 0B       		.uleb128 0xb
 3320 005b 3B       		.uleb128 0x3b
 3321 005c 0B       		.uleb128 0xb
 3322 005d 49       		.uleb128 0x49
 3323 005e 13       		.uleb128 0x13
 3324 005f 38       		.uleb128 0x38
 3325 0060 0B       		.uleb128 0xb
 3326 0061 00       		.byte	0
 3327 0062 00       		.byte	0
 3328 0063 08       		.uleb128 0x8
 3329 0064 0D       		.uleb128 0xd
 3330 0065 00       		.byte	0
 3331 0066 03       		.uleb128 0x3
 3332 0067 08       		.uleb128 0x8
 3333 0068 3A       		.uleb128 0x3a
 3334 0069 0B       		.uleb128 0xb
 3335 006a 3B       		.uleb128 0x3b
 3336 006b 05       		.uleb128 0x5
 3337 006c 49       		.uleb128 0x49
 3338 006d 13       		.uleb128 0x13
 3339 006e 38       		.uleb128 0x38
 3340 006f 0B       		.uleb128 0xb
 3341 0070 00       		.byte	0
 3342 0071 00       		.byte	0
 3343 0072 09       		.uleb128 0x9
 3344 0073 0D       		.uleb128 0xd
 3345 0074 00       		.byte	0
 3346 0075 03       		.uleb128 0x3
 3347 0076 0E       		.uleb128 0xe
 3348 0077 3A       		.uleb128 0x3a
 3349 0078 0B       		.uleb128 0xb
 3350 0079 3B       		.uleb128 0x3b
 3351 007a 05       		.uleb128 0x5
 3352 007b 49       		.uleb128 0x49
 3353 007c 13       		.uleb128 0x13
 3354 007d 38       		.uleb128 0x38
 3355 007e 0B       		.uleb128 0xb
 3356 007f 00       		.byte	0
 3357 0080 00       		.byte	0
 3358 0081 0A       		.uleb128 0xa
 3359 0082 0F       		.uleb128 0xf
 3360 0083 00       		.byte	0
 3361 0084 0B       		.uleb128 0xb
 3362 0085 0B       		.uleb128 0xb
 3363 0086 49       		.uleb128 0x49
ARM GAS  /tmp/ccxER8tB.s 			page 60


 3364 0087 13       		.uleb128 0x13
 3365 0088 00       		.byte	0
 3366 0089 00       		.byte	0
 3367 008a 0B       		.uleb128 0xb
 3368 008b 13       		.uleb128 0x13
 3369 008c 01       		.byte	0x1
 3370 008d 03       		.uleb128 0x3
 3371 008e 0E       		.uleb128 0xe
 3372 008f 0B       		.uleb128 0xb
 3373 0090 0B       		.uleb128 0xb
 3374 0091 3A       		.uleb128 0x3a
 3375 0092 0B       		.uleb128 0xb
 3376 0093 3B       		.uleb128 0x3b
 3377 0094 05       		.uleb128 0x5
 3378 0095 01       		.uleb128 0x1
 3379 0096 13       		.uleb128 0x13
 3380 0097 00       		.byte	0
 3381 0098 00       		.byte	0
 3382 0099 0C       		.uleb128 0xc
 3383 009a 15       		.uleb128 0x15
 3384 009b 01       		.byte	0x1
 3385 009c 27       		.uleb128 0x27
 3386 009d 19       		.uleb128 0x19
 3387 009e 01       		.uleb128 0x1
 3388 009f 13       		.uleb128 0x13
 3389 00a0 00       		.byte	0
 3390 00a1 00       		.byte	0
 3391 00a2 0D       		.uleb128 0xd
 3392 00a3 05       		.uleb128 0x5
 3393 00a4 00       		.byte	0
 3394 00a5 49       		.uleb128 0x49
 3395 00a6 13       		.uleb128 0x13
 3396 00a7 00       		.byte	0
 3397 00a8 00       		.byte	0
 3398 00a9 0E       		.uleb128 0xe
 3399 00aa 0F       		.uleb128 0xf
 3400 00ab 00       		.byte	0
 3401 00ac 0B       		.uleb128 0xb
 3402 00ad 0B       		.uleb128 0xb
 3403 00ae 00       		.byte	0
 3404 00af 00       		.byte	0
 3405 00b0 0F       		.uleb128 0xf
 3406 00b1 35       		.uleb128 0x35
 3407 00b2 00       		.byte	0
 3408 00b3 49       		.uleb128 0x49
 3409 00b4 13       		.uleb128 0x13
 3410 00b5 00       		.byte	0
 3411 00b6 00       		.byte	0
 3412 00b7 10       		.uleb128 0x10
 3413 00b8 13       		.uleb128 0x13
 3414 00b9 01       		.byte	0x1
 3415 00ba 0B       		.uleb128 0xb
 3416 00bb 0B       		.uleb128 0xb
 3417 00bc 3A       		.uleb128 0x3a
 3418 00bd 0B       		.uleb128 0xb
 3419 00be 3B       		.uleb128 0x3b
 3420 00bf 0B       		.uleb128 0xb
ARM GAS  /tmp/ccxER8tB.s 			page 61


 3421 00c0 01       		.uleb128 0x1
 3422 00c1 13       		.uleb128 0x13
 3423 00c2 00       		.byte	0
 3424 00c3 00       		.byte	0
 3425 00c4 11       		.uleb128 0x11
 3426 00c5 13       		.uleb128 0x13
 3427 00c6 01       		.byte	0x1
 3428 00c7 0B       		.uleb128 0xb
 3429 00c8 0B       		.uleb128 0xb
 3430 00c9 3A       		.uleb128 0x3a
 3431 00ca 0B       		.uleb128 0xb
 3432 00cb 3B       		.uleb128 0x3b
 3433 00cc 05       		.uleb128 0x5
 3434 00cd 01       		.uleb128 0x1
 3435 00ce 13       		.uleb128 0x13
 3436 00cf 00       		.byte	0
 3437 00d0 00       		.byte	0
 3438 00d1 12       		.uleb128 0x12
 3439 00d2 16       		.uleb128 0x16
 3440 00d3 00       		.byte	0
 3441 00d4 03       		.uleb128 0x3
 3442 00d5 0E       		.uleb128 0xe
 3443 00d6 3A       		.uleb128 0x3a
 3444 00d7 0B       		.uleb128 0xb
 3445 00d8 3B       		.uleb128 0x3b
 3446 00d9 05       		.uleb128 0x5
 3447 00da 49       		.uleb128 0x49
 3448 00db 13       		.uleb128 0x13
 3449 00dc 00       		.byte	0
 3450 00dd 00       		.byte	0
 3451 00de 13       		.uleb128 0x13
 3452 00df 17       		.uleb128 0x17
 3453 00e0 01       		.byte	0x1
 3454 00e1 0B       		.uleb128 0xb
 3455 00e2 0B       		.uleb128 0xb
 3456 00e3 3A       		.uleb128 0x3a
 3457 00e4 0B       		.uleb128 0xb
 3458 00e5 3B       		.uleb128 0x3b
 3459 00e6 0B       		.uleb128 0xb
 3460 00e7 01       		.uleb128 0x1
 3461 00e8 13       		.uleb128 0x13
 3462 00e9 00       		.byte	0
 3463 00ea 00       		.byte	0
 3464 00eb 14       		.uleb128 0x14
 3465 00ec 0D       		.uleb128 0xd
 3466 00ed 00       		.byte	0
 3467 00ee 03       		.uleb128 0x3
 3468 00ef 0E       		.uleb128 0xe
 3469 00f0 3A       		.uleb128 0x3a
 3470 00f1 0B       		.uleb128 0xb
 3471 00f2 3B       		.uleb128 0x3b
 3472 00f3 0B       		.uleb128 0xb
 3473 00f4 49       		.uleb128 0x49
 3474 00f5 13       		.uleb128 0x13
 3475 00f6 00       		.byte	0
 3476 00f7 00       		.byte	0
 3477 00f8 15       		.uleb128 0x15
ARM GAS  /tmp/ccxER8tB.s 			page 62


 3478 00f9 0D       		.uleb128 0xd
 3479 00fa 00       		.byte	0
 3480 00fb 03       		.uleb128 0x3
 3481 00fc 0E       		.uleb128 0xe
 3482 00fd 3A       		.uleb128 0x3a
 3483 00fe 0B       		.uleb128 0xb
 3484 00ff 3B       		.uleb128 0x3b
 3485 0100 05       		.uleb128 0x5
 3486 0101 49       		.uleb128 0x49
 3487 0102 13       		.uleb128 0x13
 3488 0103 00       		.byte	0
 3489 0104 00       		.byte	0
 3490 0105 16       		.uleb128 0x16
 3491 0106 26       		.uleb128 0x26
 3492 0107 00       		.byte	0
 3493 0108 49       		.uleb128 0x49
 3494 0109 13       		.uleb128 0x13
 3495 010a 00       		.byte	0
 3496 010b 00       		.byte	0
 3497 010c 17       		.uleb128 0x17
 3498 010d 04       		.uleb128 0x4
 3499 010e 01       		.byte	0x1
 3500 010f 0B       		.uleb128 0xb
 3501 0110 0B       		.uleb128 0xb
 3502 0111 49       		.uleb128 0x49
 3503 0112 13       		.uleb128 0x13
 3504 0113 3A       		.uleb128 0x3a
 3505 0114 0B       		.uleb128 0xb
 3506 0115 3B       		.uleb128 0x3b
 3507 0116 0B       		.uleb128 0xb
 3508 0117 01       		.uleb128 0x1
 3509 0118 13       		.uleb128 0x13
 3510 0119 00       		.byte	0
 3511 011a 00       		.byte	0
 3512 011b 18       		.uleb128 0x18
 3513 011c 28       		.uleb128 0x28
 3514 011d 00       		.byte	0
 3515 011e 03       		.uleb128 0x3
 3516 011f 0E       		.uleb128 0xe
 3517 0120 1C       		.uleb128 0x1c
 3518 0121 0B       		.uleb128 0xb
 3519 0122 00       		.byte	0
 3520 0123 00       		.byte	0
 3521 0124 19       		.uleb128 0x19
 3522 0125 04       		.uleb128 0x4
 3523 0126 01       		.byte	0x1
 3524 0127 0B       		.uleb128 0xb
 3525 0128 0B       		.uleb128 0xb
 3526 0129 49       		.uleb128 0x49
 3527 012a 13       		.uleb128 0x13
 3528 012b 3A       		.uleb128 0x3a
 3529 012c 0B       		.uleb128 0xb
 3530 012d 3B       		.uleb128 0x3b
 3531 012e 05       		.uleb128 0x5
 3532 012f 01       		.uleb128 0x1
 3533 0130 13       		.uleb128 0x13
 3534 0131 00       		.byte	0
ARM GAS  /tmp/ccxER8tB.s 			page 63


 3535 0132 00       		.byte	0
 3536 0133 1A       		.uleb128 0x1a
 3537 0134 2E       		.uleb128 0x2e
 3538 0135 01       		.byte	0x1
 3539 0136 03       		.uleb128 0x3
 3540 0137 0E       		.uleb128 0xe
 3541 0138 3A       		.uleb128 0x3a
 3542 0139 0B       		.uleb128 0xb
 3543 013a 3B       		.uleb128 0x3b
 3544 013b 05       		.uleb128 0x5
 3545 013c 27       		.uleb128 0x27
 3546 013d 19       		.uleb128 0x19
 3547 013e 20       		.uleb128 0x20
 3548 013f 0B       		.uleb128 0xb
 3549 0140 01       		.uleb128 0x1
 3550 0141 13       		.uleb128 0x13
 3551 0142 00       		.byte	0
 3552 0143 00       		.byte	0
 3553 0144 1B       		.uleb128 0x1b
 3554 0145 05       		.uleb128 0x5
 3555 0146 00       		.byte	0
 3556 0147 03       		.uleb128 0x3
 3557 0148 0E       		.uleb128 0xe
 3558 0149 3A       		.uleb128 0x3a
 3559 014a 0B       		.uleb128 0xb
 3560 014b 3B       		.uleb128 0x3b
 3561 014c 05       		.uleb128 0x5
 3562 014d 49       		.uleb128 0x49
 3563 014e 13       		.uleb128 0x13
 3564 014f 00       		.byte	0
 3565 0150 00       		.byte	0
 3566 0151 1C       		.uleb128 0x1c
 3567 0152 2E       		.uleb128 0x2e
 3568 0153 00       		.byte	0
 3569 0154 03       		.uleb128 0x3
 3570 0155 0E       		.uleb128 0xe
 3571 0156 3A       		.uleb128 0x3a
 3572 0157 0B       		.uleb128 0xb
 3573 0158 3B       		.uleb128 0x3b
 3574 0159 05       		.uleb128 0x5
 3575 015a 27       		.uleb128 0x27
 3576 015b 19       		.uleb128 0x19
 3577 015c 20       		.uleb128 0x20
 3578 015d 0B       		.uleb128 0xb
 3579 015e 00       		.byte	0
 3580 015f 00       		.byte	0
 3581 0160 1D       		.uleb128 0x1d
 3582 0161 2E       		.uleb128 0x2e
 3583 0162 01       		.byte	0x1
 3584 0163 3F       		.uleb128 0x3f
 3585 0164 19       		.uleb128 0x19
 3586 0165 03       		.uleb128 0x3
 3587 0166 0E       		.uleb128 0xe
 3588 0167 3A       		.uleb128 0x3a
 3589 0168 0B       		.uleb128 0xb
 3590 0169 3B       		.uleb128 0x3b
 3591 016a 0B       		.uleb128 0xb
ARM GAS  /tmp/ccxER8tB.s 			page 64


 3592 016b 27       		.uleb128 0x27
 3593 016c 19       		.uleb128 0x19
 3594 016d 20       		.uleb128 0x20
 3595 016e 0B       		.uleb128 0xb
 3596 016f 01       		.uleb128 0x1
 3597 0170 13       		.uleb128 0x13
 3598 0171 00       		.byte	0
 3599 0172 00       		.byte	0
 3600 0173 1E       		.uleb128 0x1e
 3601 0174 05       		.uleb128 0x5
 3602 0175 00       		.byte	0
 3603 0176 03       		.uleb128 0x3
 3604 0177 0E       		.uleb128 0xe
 3605 0178 3A       		.uleb128 0x3a
 3606 0179 0B       		.uleb128 0xb
 3607 017a 3B       		.uleb128 0x3b
 3608 017b 0B       		.uleb128 0xb
 3609 017c 49       		.uleb128 0x49
 3610 017d 13       		.uleb128 0x13
 3611 017e 00       		.byte	0
 3612 017f 00       		.byte	0
 3613 0180 1F       		.uleb128 0x1f
 3614 0181 34       		.uleb128 0x34
 3615 0182 00       		.byte	0
 3616 0183 03       		.uleb128 0x3
 3617 0184 0E       		.uleb128 0xe
 3618 0185 49       		.uleb128 0x49
 3619 0186 13       		.uleb128 0x13
 3620 0187 34       		.uleb128 0x34
 3621 0188 19       		.uleb128 0x19
 3622 0189 1C       		.uleb128 0x1c
 3623 018a 0E       		.uleb128 0xe
 3624 018b 00       		.byte	0
 3625 018c 00       		.byte	0
 3626 018d 20       		.uleb128 0x20
 3627 018e 01       		.uleb128 0x1
 3628 018f 01       		.byte	0x1
 3629 0190 49       		.uleb128 0x49
 3630 0191 13       		.uleb128 0x13
 3631 0192 01       		.uleb128 0x1
 3632 0193 13       		.uleb128 0x13
 3633 0194 00       		.byte	0
 3634 0195 00       		.byte	0
 3635 0196 21       		.uleb128 0x21
 3636 0197 21       		.uleb128 0x21
 3637 0198 00       		.byte	0
 3638 0199 49       		.uleb128 0x49
 3639 019a 13       		.uleb128 0x13
 3640 019b 2F       		.uleb128 0x2f
 3641 019c 0B       		.uleb128 0xb
 3642 019d 00       		.byte	0
 3643 019e 00       		.byte	0
 3644 019f 22       		.uleb128 0x22
 3645 01a0 05       		.uleb128 0x5
 3646 01a1 00       		.byte	0
 3647 01a2 03       		.uleb128 0x3
 3648 01a3 08       		.uleb128 0x8
ARM GAS  /tmp/ccxER8tB.s 			page 65


 3649 01a4 3A       		.uleb128 0x3a
 3650 01a5 0B       		.uleb128 0xb
 3651 01a6 3B       		.uleb128 0x3b
 3652 01a7 05       		.uleb128 0x5
 3653 01a8 49       		.uleb128 0x49
 3654 01a9 13       		.uleb128 0x13
 3655 01aa 00       		.byte	0
 3656 01ab 00       		.byte	0
 3657 01ac 23       		.uleb128 0x23
 3658 01ad 2E       		.uleb128 0x2e
 3659 01ae 01       		.byte	0x1
 3660 01af 3F       		.uleb128 0x3f
 3661 01b0 19       		.uleb128 0x19
 3662 01b1 03       		.uleb128 0x3
 3663 01b2 0E       		.uleb128 0xe
 3664 01b3 3A       		.uleb128 0x3a
 3665 01b4 0B       		.uleb128 0xb
 3666 01b5 3B       		.uleb128 0x3b
 3667 01b6 0B       		.uleb128 0xb
 3668 01b7 27       		.uleb128 0x27
 3669 01b8 19       		.uleb128 0x19
 3670 01b9 11       		.uleb128 0x11
 3671 01ba 01       		.uleb128 0x1
 3672 01bb 12       		.uleb128 0x12
 3673 01bc 06       		.uleb128 0x6
 3674 01bd 40       		.uleb128 0x40
 3675 01be 18       		.uleb128 0x18
 3676 01bf 9742     		.uleb128 0x2117
 3677 01c1 19       		.uleb128 0x19
 3678 01c2 01       		.uleb128 0x1
 3679 01c3 13       		.uleb128 0x13
 3680 01c4 00       		.byte	0
 3681 01c5 00       		.byte	0
 3682 01c6 24       		.uleb128 0x24
 3683 01c7 898201   		.uleb128 0x4109
 3684 01ca 00       		.byte	0
 3685 01cb 11       		.uleb128 0x11
 3686 01cc 01       		.uleb128 0x1
 3687 01cd 9542     		.uleb128 0x2115
 3688 01cf 19       		.uleb128 0x19
 3689 01d0 31       		.uleb128 0x31
 3690 01d1 13       		.uleb128 0x13
 3691 01d2 00       		.byte	0
 3692 01d3 00       		.byte	0
 3693 01d4 25       		.uleb128 0x25
 3694 01d5 05       		.uleb128 0x5
 3695 01d6 00       		.byte	0
 3696 01d7 03       		.uleb128 0x3
 3697 01d8 0E       		.uleb128 0xe
 3698 01d9 3A       		.uleb128 0x3a
 3699 01da 0B       		.uleb128 0xb
 3700 01db 3B       		.uleb128 0x3b
 3701 01dc 0B       		.uleb128 0xb
 3702 01dd 49       		.uleb128 0x49
 3703 01de 13       		.uleb128 0x13
 3704 01df 02       		.uleb128 0x2
 3705 01e0 18       		.uleb128 0x18
ARM GAS  /tmp/ccxER8tB.s 			page 66


 3706 01e1 00       		.byte	0
 3707 01e2 00       		.byte	0
 3708 01e3 26       		.uleb128 0x26
 3709 01e4 05       		.uleb128 0x5
 3710 01e5 00       		.byte	0
 3711 01e6 03       		.uleb128 0x3
 3712 01e7 0E       		.uleb128 0xe
 3713 01e8 3A       		.uleb128 0x3a
 3714 01e9 0B       		.uleb128 0xb
 3715 01ea 3B       		.uleb128 0x3b
 3716 01eb 0B       		.uleb128 0xb
 3717 01ec 49       		.uleb128 0x49
 3718 01ed 13       		.uleb128 0x13
 3719 01ee 02       		.uleb128 0x2
 3720 01ef 17       		.uleb128 0x17
 3721 01f0 00       		.byte	0
 3722 01f1 00       		.byte	0
 3723 01f2 27       		.uleb128 0x27
 3724 01f3 34       		.uleb128 0x34
 3725 01f4 00       		.byte	0
 3726 01f5 03       		.uleb128 0x3
 3727 01f6 0E       		.uleb128 0xe
 3728 01f7 49       		.uleb128 0x49
 3729 01f8 13       		.uleb128 0x13
 3730 01f9 34       		.uleb128 0x34
 3731 01fa 19       		.uleb128 0x19
 3732 01fb 00       		.byte	0
 3733 01fc 00       		.byte	0
 3734 01fd 28       		.uleb128 0x28
 3735 01fe 1D       		.uleb128 0x1d
 3736 01ff 01       		.byte	0x1
 3737 0200 31       		.uleb128 0x31
 3738 0201 13       		.uleb128 0x13
 3739 0202 11       		.uleb128 0x11
 3740 0203 01       		.uleb128 0x1
 3741 0204 12       		.uleb128 0x12
 3742 0205 06       		.uleb128 0x6
 3743 0206 58       		.uleb128 0x58
 3744 0207 0B       		.uleb128 0xb
 3745 0208 59       		.uleb128 0x59
 3746 0209 0B       		.uleb128 0xb
 3747 020a 01       		.uleb128 0x1
 3748 020b 13       		.uleb128 0x13
 3749 020c 00       		.byte	0
 3750 020d 00       		.byte	0
 3751 020e 29       		.uleb128 0x29
 3752 020f 1D       		.uleb128 0x1d
 3753 0210 01       		.byte	0x1
 3754 0211 31       		.uleb128 0x31
 3755 0212 13       		.uleb128 0x13
 3756 0213 11       		.uleb128 0x11
 3757 0214 01       		.uleb128 0x1
 3758 0215 12       		.uleb128 0x12
 3759 0216 06       		.uleb128 0x6
 3760 0217 58       		.uleb128 0x58
 3761 0218 0B       		.uleb128 0xb
 3762 0219 59       		.uleb128 0x59
ARM GAS  /tmp/ccxER8tB.s 			page 67


 3763 021a 05       		.uleb128 0x5
 3764 021b 00       		.byte	0
 3765 021c 00       		.byte	0
 3766 021d 2A       		.uleb128 0x2a
 3767 021e 1D       		.uleb128 0x1d
 3768 021f 01       		.byte	0x1
 3769 0220 31       		.uleb128 0x31
 3770 0221 13       		.uleb128 0x13
 3771 0222 11       		.uleb128 0x11
 3772 0223 01       		.uleb128 0x1
 3773 0224 12       		.uleb128 0x12
 3774 0225 06       		.uleb128 0x6
 3775 0226 58       		.uleb128 0x58
 3776 0227 0B       		.uleb128 0xb
 3777 0228 59       		.uleb128 0x59
 3778 0229 05       		.uleb128 0x5
 3779 022a 01       		.uleb128 0x1
 3780 022b 13       		.uleb128 0x13
 3781 022c 00       		.byte	0
 3782 022d 00       		.byte	0
 3783 022e 2B       		.uleb128 0x2b
 3784 022f 05       		.uleb128 0x5
 3785 0230 00       		.byte	0
 3786 0231 31       		.uleb128 0x31
 3787 0232 13       		.uleb128 0x13
 3788 0233 02       		.uleb128 0x2
 3789 0234 17       		.uleb128 0x17
 3790 0235 00       		.byte	0
 3791 0236 00       		.byte	0
 3792 0237 2C       		.uleb128 0x2c
 3793 0238 898201   		.uleb128 0x4109
 3794 023b 00       		.byte	0
 3795 023c 11       		.uleb128 0x11
 3796 023d 01       		.uleb128 0x1
 3797 023e 31       		.uleb128 0x31
 3798 023f 13       		.uleb128 0x13
 3799 0240 00       		.byte	0
 3800 0241 00       		.byte	0
 3801 0242 2D       		.uleb128 0x2d
 3802 0243 0B       		.uleb128 0xb
 3803 0244 01       		.byte	0x1
 3804 0245 11       		.uleb128 0x11
 3805 0246 01       		.uleb128 0x1
 3806 0247 12       		.uleb128 0x12
 3807 0248 06       		.uleb128 0x6
 3808 0249 00       		.byte	0
 3809 024a 00       		.byte	0
 3810 024b 2E       		.uleb128 0x2e
 3811 024c 34       		.uleb128 0x34
 3812 024d 00       		.byte	0
 3813 024e 31       		.uleb128 0x31
 3814 024f 13       		.uleb128 0x13
 3815 0250 00       		.byte	0
 3816 0251 00       		.byte	0
 3817 0252 2F       		.uleb128 0x2f
 3818 0253 898201   		.uleb128 0x4109
 3819 0256 01       		.byte	0x1
ARM GAS  /tmp/ccxER8tB.s 			page 68


 3820 0257 11       		.uleb128 0x11
 3821 0258 01       		.uleb128 0x1
 3822 0259 31       		.uleb128 0x31
 3823 025a 13       		.uleb128 0x13
 3824 025b 00       		.byte	0
 3825 025c 00       		.byte	0
 3826 025d 30       		.uleb128 0x30
 3827 025e 8A8201   		.uleb128 0x410a
 3828 0261 00       		.byte	0
 3829 0262 02       		.uleb128 0x2
 3830 0263 18       		.uleb128 0x18
 3831 0264 9142     		.uleb128 0x2111
 3832 0266 18       		.uleb128 0x18
 3833 0267 00       		.byte	0
 3834 0268 00       		.byte	0
 3835 0269 31       		.uleb128 0x31
 3836 026a 1D       		.uleb128 0x1d
 3837 026b 01       		.byte	0x1
 3838 026c 31       		.uleb128 0x31
 3839 026d 13       		.uleb128 0x13
 3840 026e 11       		.uleb128 0x11
 3841 026f 01       		.uleb128 0x1
 3842 0270 12       		.uleb128 0x12
 3843 0271 06       		.uleb128 0x6
 3844 0272 58       		.uleb128 0x58
 3845 0273 0B       		.uleb128 0xb
 3846 0274 59       		.uleb128 0x59
 3847 0275 0B       		.uleb128 0xb
 3848 0276 00       		.byte	0
 3849 0277 00       		.byte	0
 3850 0278 32       		.uleb128 0x32
 3851 0279 2E       		.uleb128 0x2e
 3852 027a 01       		.byte	0x1
 3853 027b 31       		.uleb128 0x31
 3854 027c 13       		.uleb128 0x13
 3855 027d 11       		.uleb128 0x11
 3856 027e 01       		.uleb128 0x1
 3857 027f 12       		.uleb128 0x12
 3858 0280 06       		.uleb128 0x6
 3859 0281 40       		.uleb128 0x40
 3860 0282 18       		.uleb128 0x18
 3861 0283 9742     		.uleb128 0x2117
 3862 0285 19       		.uleb128 0x19
 3863 0286 01       		.uleb128 0x1
 3864 0287 13       		.uleb128 0x13
 3865 0288 00       		.byte	0
 3866 0289 00       		.byte	0
 3867 028a 33       		.uleb128 0x33
 3868 028b 898201   		.uleb128 0x4109
 3869 028e 01       		.byte	0x1
 3870 028f 11       		.uleb128 0x11
 3871 0290 01       		.uleb128 0x1
 3872 0291 9542     		.uleb128 0x2115
 3873 0293 19       		.uleb128 0x19
 3874 0294 31       		.uleb128 0x31
 3875 0295 13       		.uleb128 0x13
 3876 0296 00       		.byte	0
ARM GAS  /tmp/ccxER8tB.s 			page 69


 3877 0297 00       		.byte	0
 3878 0298 34       		.uleb128 0x34
 3879 0299 1D       		.uleb128 0x1d
 3880 029a 01       		.byte	0x1
 3881 029b 31       		.uleb128 0x31
 3882 029c 13       		.uleb128 0x13
 3883 029d 52       		.uleb128 0x52
 3884 029e 01       		.uleb128 0x1
 3885 029f 55       		.uleb128 0x55
 3886 02a0 17       		.uleb128 0x17
 3887 02a1 58       		.uleb128 0x58
 3888 02a2 0B       		.uleb128 0xb
 3889 02a3 59       		.uleb128 0x59
 3890 02a4 0B       		.uleb128 0xb
 3891 02a5 01       		.uleb128 0x1
 3892 02a6 13       		.uleb128 0x13
 3893 02a7 00       		.byte	0
 3894 02a8 00       		.byte	0
 3895 02a9 35       		.uleb128 0x35
 3896 02aa 1D       		.uleb128 0x1d
 3897 02ab 01       		.byte	0x1
 3898 02ac 31       		.uleb128 0x31
 3899 02ad 13       		.uleb128 0x13
 3900 02ae 52       		.uleb128 0x52
 3901 02af 01       		.uleb128 0x1
 3902 02b0 55       		.uleb128 0x55
 3903 02b1 17       		.uleb128 0x17
 3904 02b2 58       		.uleb128 0x58
 3905 02b3 0B       		.uleb128 0xb
 3906 02b4 59       		.uleb128 0x59
 3907 02b5 05       		.uleb128 0x5
 3908 02b6 00       		.byte	0
 3909 02b7 00       		.byte	0
 3910 02b8 36       		.uleb128 0x36
 3911 02b9 1D       		.uleb128 0x1d
 3912 02ba 01       		.byte	0x1
 3913 02bb 31       		.uleb128 0x31
 3914 02bc 13       		.uleb128 0x13
 3915 02bd 52       		.uleb128 0x52
 3916 02be 01       		.uleb128 0x1
 3917 02bf 55       		.uleb128 0x55
 3918 02c0 17       		.uleb128 0x17
 3919 02c1 58       		.uleb128 0x58
 3920 02c2 0B       		.uleb128 0xb
 3921 02c3 59       		.uleb128 0x59
 3922 02c4 05       		.uleb128 0x5
 3923 02c5 01       		.uleb128 0x1
 3924 02c6 13       		.uleb128 0x13
 3925 02c7 00       		.byte	0
 3926 02c8 00       		.byte	0
 3927 02c9 37       		.uleb128 0x37
 3928 02ca 2E       		.uleb128 0x2e
 3929 02cb 01       		.byte	0x1
 3930 02cc 03       		.uleb128 0x3
 3931 02cd 0E       		.uleb128 0xe
 3932 02ce 3A       		.uleb128 0x3a
 3933 02cf 0B       		.uleb128 0xb
ARM GAS  /tmp/ccxER8tB.s 			page 70


 3934 02d0 3B       		.uleb128 0x3b
 3935 02d1 05       		.uleb128 0x5
 3936 02d2 27       		.uleb128 0x27
 3937 02d3 19       		.uleb128 0x19
 3938 02d4 49       		.uleb128 0x49
 3939 02d5 13       		.uleb128 0x13
 3940 02d6 20       		.uleb128 0x20
 3941 02d7 0B       		.uleb128 0xb
 3942 02d8 01       		.uleb128 0x1
 3943 02d9 13       		.uleb128 0x13
 3944 02da 00       		.byte	0
 3945 02db 00       		.byte	0
 3946 02dc 38       		.uleb128 0x38
 3947 02dd 2E       		.uleb128 0x2e
 3948 02de 01       		.byte	0x1
 3949 02df 3F       		.uleb128 0x3f
 3950 02e0 19       		.uleb128 0x19
 3951 02e1 03       		.uleb128 0x3
 3952 02e2 0E       		.uleb128 0xe
 3953 02e3 3A       		.uleb128 0x3a
 3954 02e4 0B       		.uleb128 0xb
 3955 02e5 3B       		.uleb128 0x3b
 3956 02e6 05       		.uleb128 0x5
 3957 02e7 27       		.uleb128 0x27
 3958 02e8 19       		.uleb128 0x19
 3959 02e9 49       		.uleb128 0x49
 3960 02ea 13       		.uleb128 0x13
 3961 02eb 11       		.uleb128 0x11
 3962 02ec 01       		.uleb128 0x1
 3963 02ed 12       		.uleb128 0x12
 3964 02ee 06       		.uleb128 0x6
 3965 02ef 40       		.uleb128 0x40
 3966 02f0 18       		.uleb128 0x18
 3967 02f1 9742     		.uleb128 0x2117
 3968 02f3 19       		.uleb128 0x19
 3969 02f4 01       		.uleb128 0x1
 3970 02f5 13       		.uleb128 0x13
 3971 02f6 00       		.byte	0
 3972 02f7 00       		.byte	0
 3973 02f8 39       		.uleb128 0x39
 3974 02f9 05       		.uleb128 0x5
 3975 02fa 00       		.byte	0
 3976 02fb 03       		.uleb128 0x3
 3977 02fc 0E       		.uleb128 0xe
 3978 02fd 3A       		.uleb128 0x3a
 3979 02fe 0B       		.uleb128 0xb
 3980 02ff 3B       		.uleb128 0x3b
 3981 0300 05       		.uleb128 0x5
 3982 0301 49       		.uleb128 0x49
 3983 0302 13       		.uleb128 0x13
 3984 0303 02       		.uleb128 0x2
 3985 0304 17       		.uleb128 0x17
 3986 0305 00       		.byte	0
 3987 0306 00       		.byte	0
 3988 0307 3A       		.uleb128 0x3a
 3989 0308 34       		.uleb128 0x34
 3990 0309 00       		.byte	0
ARM GAS  /tmp/ccxER8tB.s 			page 71


 3991 030a 03       		.uleb128 0x3
 3992 030b 08       		.uleb128 0x8
 3993 030c 3A       		.uleb128 0x3a
 3994 030d 0B       		.uleb128 0xb
 3995 030e 3B       		.uleb128 0x3b
 3996 030f 05       		.uleb128 0x5
 3997 0310 49       		.uleb128 0x49
 3998 0311 13       		.uleb128 0x13
 3999 0312 00       		.byte	0
 4000 0313 00       		.byte	0
 4001 0314 3B       		.uleb128 0x3b
 4002 0315 34       		.uleb128 0x34
 4003 0316 00       		.byte	0
 4004 0317 03       		.uleb128 0x3
 4005 0318 0E       		.uleb128 0xe
 4006 0319 3A       		.uleb128 0x3a
 4007 031a 0B       		.uleb128 0xb
 4008 031b 3B       		.uleb128 0x3b
 4009 031c 05       		.uleb128 0x5
 4010 031d 49       		.uleb128 0x49
 4011 031e 13       		.uleb128 0x13
 4012 031f 3F       		.uleb128 0x3f
 4013 0320 19       		.uleb128 0x19
 4014 0321 3C       		.uleb128 0x3c
 4015 0322 19       		.uleb128 0x19
 4016 0323 00       		.byte	0
 4017 0324 00       		.byte	0
 4018 0325 3C       		.uleb128 0x3c
 4019 0326 34       		.uleb128 0x34
 4020 0327 00       		.byte	0
 4021 0328 03       		.uleb128 0x3
 4022 0329 08       		.uleb128 0x8
 4023 032a 3A       		.uleb128 0x3a
 4024 032b 0B       		.uleb128 0xb
 4025 032c 3B       		.uleb128 0x3b
 4026 032d 05       		.uleb128 0x5
 4027 032e 49       		.uleb128 0x49
 4028 032f 13       		.uleb128 0x13
 4029 0330 3F       		.uleb128 0x3f
 4030 0331 19       		.uleb128 0x19
 4031 0332 3C       		.uleb128 0x3c
 4032 0333 19       		.uleb128 0x19
 4033 0334 00       		.byte	0
 4034 0335 00       		.byte	0
 4035 0336 3D       		.uleb128 0x3d
 4036 0337 2E       		.uleb128 0x2e
 4037 0338 00       		.byte	0
 4038 0339 3F       		.uleb128 0x3f
 4039 033a 19       		.uleb128 0x19
 4040 033b 3C       		.uleb128 0x3c
 4041 033c 19       		.uleb128 0x19
 4042 033d 6E       		.uleb128 0x6e
 4043 033e 0E       		.uleb128 0xe
 4044 033f 03       		.uleb128 0x3
 4045 0340 0E       		.uleb128 0xe
 4046 0341 3A       		.uleb128 0x3a
 4047 0342 0B       		.uleb128 0xb
ARM GAS  /tmp/ccxER8tB.s 			page 72


 4048 0343 3B       		.uleb128 0x3b
 4049 0344 05       		.uleb128 0x5
 4050 0345 00       		.byte	0
 4051 0346 00       		.byte	0
 4052 0347 3E       		.uleb128 0x3e
 4053 0348 2E       		.uleb128 0x2e
 4054 0349 00       		.byte	0
 4055 034a 3F       		.uleb128 0x3f
 4056 034b 19       		.uleb128 0x19
 4057 034c 3C       		.uleb128 0x3c
 4058 034d 19       		.uleb128 0x19
 4059 034e 6E       		.uleb128 0x6e
 4060 034f 0E       		.uleb128 0xe
 4061 0350 03       		.uleb128 0x3
 4062 0351 0E       		.uleb128 0xe
 4063 0352 3A       		.uleb128 0x3a
 4064 0353 0B       		.uleb128 0xb
 4065 0354 3B       		.uleb128 0x3b
 4066 0355 0B       		.uleb128 0xb
 4067 0356 00       		.byte	0
 4068 0357 00       		.byte	0
 4069 0358 00       		.byte	0
 4070              		.section	.debug_loc,"",%progbits
 4071              	.Ldebug_loc0:
 4072              	.LLST0:
 4073 0000 00000000 		.4byte	.LVL2
 4074 0004 0F000000 		.4byte	.LVL4-1
 4075 0008 0100     		.2byte	0x1
 4076 000a 50       		.byte	0x50
 4077 000b 0F000000 		.4byte	.LVL4-1
 4078 000f 28000000 		.4byte	.LFE325
 4079 0013 0100     		.2byte	0x1
 4080 0015 54       		.byte	0x54
 4081 0016 00000000 		.4byte	0
 4082 001a 00000000 		.4byte	0
 4083              	.LLST1:
 4084 001e 00000000 		.4byte	.LVL2
 4085 0022 0F000000 		.4byte	.LVL4-1
 4086 0026 0100     		.2byte	0x1
 4087 0028 51       		.byte	0x51
 4088 0029 0F000000 		.4byte	.LVL4-1
 4089 002d 28000000 		.4byte	.LFE325
 4090 0031 0100     		.2byte	0x1
 4091 0033 55       		.byte	0x55
 4092 0034 00000000 		.4byte	0
 4093 0038 00000000 		.4byte	0
 4094              	.LLST2:
 4095 003c 00000000 		.4byte	.LVL2
 4096 0040 0C000000 		.4byte	.LVL3
 4097 0044 0300     		.2byte	0x3
 4098 0046 08       		.byte	0x8
 4099 0047 20       		.byte	0x20
 4100 0048 9F       		.byte	0x9f
 4101 0049 00000000 		.4byte	0
 4102 004d 00000000 		.4byte	0
 4103              	.LLST3:
 4104 0051 20000000 		.4byte	.LVL6
ARM GAS  /tmp/ccxER8tB.s 			page 73


 4105 0055 26000000 		.4byte	.LVL7
 4106 0059 0200     		.2byte	0x2
 4107 005b 30       		.byte	0x30
 4108 005c 9F       		.byte	0x9f
 4109 005d 00000000 		.4byte	0
 4110 0061 00000000 		.4byte	0
 4111              	.LLST4:
 4112 0065 00000000 		.4byte	.LVL8
 4113 0069 0D000000 		.4byte	.LVL10-1
 4114 006d 0100     		.2byte	0x1
 4115 006f 50       		.byte	0x50
 4116 0070 0D000000 		.4byte	.LVL10-1
 4117 0074 26000000 		.4byte	.LFE326
 4118 0078 0100     		.2byte	0x1
 4119 007a 54       		.byte	0x54
 4120 007b 00000000 		.4byte	0
 4121 007f 00000000 		.4byte	0
 4122              	.LLST5:
 4123 0083 00000000 		.4byte	.LVL8
 4124 0087 0A000000 		.4byte	.LVL9
 4125 008b 0300     		.2byte	0x3
 4126 008d 08       		.byte	0x8
 4127 008e 20       		.byte	0x20
 4128 008f 9F       		.byte	0x9f
 4129 0090 00000000 		.4byte	0
 4130 0094 00000000 		.4byte	0
 4131              	.LLST6:
 4132 0098 20000000 		.4byte	.LVL12
 4133 009c 24000000 		.4byte	.LVL13
 4134 00a0 0200     		.2byte	0x2
 4135 00a2 30       		.byte	0x30
 4136 00a3 9F       		.byte	0x9f
 4137 00a4 00000000 		.4byte	0
 4138 00a8 00000000 		.4byte	0
 4139              	.LLST7:
 4140 00ac 00000000 		.4byte	.LVL14
 4141 00b0 13000000 		.4byte	.LVL17-1
 4142 00b4 0100     		.2byte	0x1
 4143 00b6 50       		.byte	0x50
 4144 00b7 13000000 		.4byte	.LVL17-1
 4145 00bb 30000000 		.4byte	.LFE327
 4146 00bf 0100     		.2byte	0x1
 4147 00c1 54       		.byte	0x54
 4148 00c2 00000000 		.4byte	0
 4149 00c6 00000000 		.4byte	0
 4150              	.LLST8:
 4151 00ca 00000000 		.4byte	.LVL14
 4152 00ce 13000000 		.4byte	.LVL17-1
 4153 00d2 0100     		.2byte	0x1
 4154 00d4 51       		.byte	0x51
 4155 00d5 13000000 		.4byte	.LVL17-1
 4156 00d9 30000000 		.4byte	.LFE327
 4157 00dd 0100     		.2byte	0x1
 4158 00df 55       		.byte	0x55
 4159 00e0 00000000 		.4byte	0
 4160 00e4 00000000 		.4byte	0
 4161              	.LLST9:
ARM GAS  /tmp/ccxER8tB.s 			page 74


 4162 00e8 00000000 		.4byte	.LVL14
 4163 00ec 13000000 		.4byte	.LVL17-1
 4164 00f0 0100     		.2byte	0x1
 4165 00f2 52       		.byte	0x52
 4166 00f3 13000000 		.4byte	.LVL17-1
 4167 00f7 30000000 		.4byte	.LFE327
 4168 00fb 0100     		.2byte	0x1
 4169 00fd 57       		.byte	0x57
 4170 00fe 00000000 		.4byte	0
 4171 0102 00000000 		.4byte	0
 4172              	.LLST10:
 4173 0106 00000000 		.4byte	.LVL14
 4174 010a 0C000000 		.4byte	.LVL15
 4175 010e 0100     		.2byte	0x1
 4176 0110 53       		.byte	0x53
 4177 0111 0C000000 		.4byte	.LVL15
 4178 0115 30000000 		.4byte	.LFE327
 4179 0119 0100     		.2byte	0x1
 4180 011b 56       		.byte	0x56
 4181 011c 00000000 		.4byte	0
 4182 0120 00000000 		.4byte	0
 4183              	.LLST11:
 4184 0124 00000000 		.4byte	.LVL14
 4185 0128 10000000 		.4byte	.LVL16
 4186 012c 0300     		.2byte	0x3
 4187 012e 08       		.byte	0x8
 4188 012f 20       		.byte	0x20
 4189 0130 9F       		.byte	0x9f
 4190 0131 00000000 		.4byte	0
 4191 0135 00000000 		.4byte	0
 4192              	.LLST12:
 4193 0139 14000000 		.4byte	.LVL17
 4194 013d 24000000 		.4byte	.LVL18
 4195 0141 0100     		.2byte	0x1
 4196 0143 56       		.byte	0x56
 4197 0144 00000000 		.4byte	0
 4198 0148 00000000 		.4byte	0
 4199              	.LLST13:
 4200 014c 14000000 		.4byte	.LVL17
 4201 0150 24000000 		.4byte	.LVL18
 4202 0154 0100     		.2byte	0x1
 4203 0156 57       		.byte	0x57
 4204 0157 00000000 		.4byte	0
 4205 015b 00000000 		.4byte	0
 4206              	.LLST14:
 4207 015f 14000000 		.4byte	.LVL17
 4208 0163 24000000 		.4byte	.LVL18
 4209 0167 0100     		.2byte	0x1
 4210 0169 55       		.byte	0x55
 4211 016a 00000000 		.4byte	0
 4212 016e 00000000 		.4byte	0
 4213              	.LLST15:
 4214 0172 14000000 		.4byte	.LVL17
 4215 0176 24000000 		.4byte	.LVL18
 4216 017a 0100     		.2byte	0x1
 4217 017c 54       		.byte	0x54
 4218 017d 00000000 		.4byte	0
ARM GAS  /tmp/ccxER8tB.s 			page 75


 4219 0181 00000000 		.4byte	0
 4220              	.LLST16:
 4221 0185 28000000 		.4byte	.LVL19
 4222 0189 2E000000 		.4byte	.LVL20
 4223 018d 0200     		.2byte	0x2
 4224 018f 30       		.byte	0x30
 4225 0190 9F       		.byte	0x9f
 4226 0191 00000000 		.4byte	0
 4227 0195 00000000 		.4byte	0
 4228              	.LLST17:
 4229 0199 00000000 		.4byte	.LVL21
 4230 019d 13000000 		.4byte	.LVL23-1
 4231 01a1 0100     		.2byte	0x1
 4232 01a3 50       		.byte	0x50
 4233 01a4 13000000 		.4byte	.LVL23-1
 4234 01a8 14000000 		.4byte	.LFE328
 4235 01ac 0400     		.2byte	0x4
 4236 01ae F3       		.byte	0xf3
 4237 01af 01       		.uleb128 0x1
 4238 01b0 50       		.byte	0x50
 4239 01b1 9F       		.byte	0x9f
 4240 01b2 00000000 		.4byte	0
 4241 01b6 00000000 		.4byte	0
 4242              	.LLST18:
 4243 01ba 00000000 		.4byte	.LVL21
 4244 01be 13000000 		.4byte	.LVL23-1
 4245 01c2 0100     		.2byte	0x1
 4246 01c4 51       		.byte	0x51
 4247 01c5 13000000 		.4byte	.LVL23-1
 4248 01c9 14000000 		.4byte	.LFE328
 4249 01cd 0400     		.2byte	0x4
 4250 01cf F3       		.byte	0xf3
 4251 01d0 01       		.uleb128 0x1
 4252 01d1 51       		.byte	0x51
 4253 01d2 9F       		.byte	0x9f
 4254 01d3 00000000 		.4byte	0
 4255 01d7 00000000 		.4byte	0
 4256              	.LLST19:
 4257 01db 00000000 		.4byte	.LVL21
 4258 01df 13000000 		.4byte	.LVL23-1
 4259 01e3 0100     		.2byte	0x1
 4260 01e5 52       		.byte	0x52
 4261 01e6 13000000 		.4byte	.LVL23-1
 4262 01ea 14000000 		.4byte	.LFE328
 4263 01ee 0400     		.2byte	0x4
 4264 01f0 F3       		.byte	0xf3
 4265 01f1 01       		.uleb128 0x1
 4266 01f2 52       		.byte	0x52
 4267 01f3 9F       		.byte	0x9f
 4268 01f4 00000000 		.4byte	0
 4269 01f8 00000000 		.4byte	0
 4270              	.LLST20:
 4271 01fc 00000000 		.4byte	.LVL21
 4272 0200 06000000 		.4byte	.LVL22
 4273 0204 0100     		.2byte	0x1
 4274 0206 53       		.byte	0x53
 4275 0207 06000000 		.4byte	.LVL22
ARM GAS  /tmp/ccxER8tB.s 			page 76


 4276 020b 13000000 		.4byte	.LVL23-1
 4277 020f 0200     		.2byte	0x2
 4278 0211 70       		.byte	0x70
 4279 0212 0C       		.sleb128 12
 4280 0213 13000000 		.4byte	.LVL23-1
 4281 0217 14000000 		.4byte	.LFE328
 4282 021b 0400     		.2byte	0x4
 4283 021d F3       		.byte	0xf3
 4284 021e 01       		.uleb128 0x1
 4285 021f 53       		.byte	0x53
 4286 0220 9F       		.byte	0x9f
 4287 0221 00000000 		.4byte	0
 4288 0225 00000000 		.4byte	0
 4289              	.LLST21:
 4290 0229 00000000 		.4byte	.LVL24
 4291 022d 0D000000 		.4byte	.LVL26-1
 4292 0231 0100     		.2byte	0x1
 4293 0233 50       		.byte	0x50
 4294 0234 0D000000 		.4byte	.LVL26-1
 4295 0238 3A000000 		.4byte	.LFE329
 4296 023c 0100     		.2byte	0x1
 4297 023e 54       		.byte	0x54
 4298 023f 00000000 		.4byte	0
 4299 0243 00000000 		.4byte	0
 4300              	.LLST22:
 4301 0247 00000000 		.4byte	.LVL24
 4302 024b 0A000000 		.4byte	.LVL25
 4303 024f 0300     		.2byte	0x3
 4304 0251 08       		.byte	0x8
 4305 0252 20       		.byte	0x20
 4306 0253 9F       		.byte	0x9f
 4307 0254 00000000 		.4byte	0
 4308 0258 00000000 		.4byte	0
 4309              	.LLST23:
 4310 025c 26000000 		.4byte	.LVL28
 4311 0260 2E000000 		.4byte	.LVL29
 4312 0264 0300     		.2byte	0x3
 4313 0266 09       		.byte	0x9
 4314 0267 FE       		.byte	0xfe
 4315 0268 9F       		.byte	0x9f
 4316 0269 00000000 		.4byte	0
 4317 026d 00000000 		.4byte	0
 4318              	.LLST24:
 4319 0271 26000000 		.4byte	.LVL28
 4320 0275 2E000000 		.4byte	.LVL29
 4321 0279 0300     		.2byte	0x3
 4322 027b 74       		.byte	0x74
 4323 027c 14       		.sleb128 20
 4324 027d 9F       		.byte	0x9f
 4325 027e 00000000 		.4byte	0
 4326 0282 00000000 		.4byte	0
 4327              	.LLST25:
 4328 0286 32000000 		.4byte	.LVL30
 4329 028a 38000000 		.4byte	.LVL31
 4330 028e 0200     		.2byte	0x2
 4331 0290 30       		.byte	0x30
 4332 0291 9F       		.byte	0x9f
ARM GAS  /tmp/ccxER8tB.s 			page 77


 4333 0292 00000000 		.4byte	0
 4334 0296 00000000 		.4byte	0
 4335              	.LLST26:
 4336 029a 00000000 		.4byte	.LVL32
 4337 029e 0D000000 		.4byte	.LVL33-1
 4338 02a2 0100     		.2byte	0x1
 4339 02a4 50       		.byte	0x50
 4340 02a5 0D000000 		.4byte	.LVL33-1
 4341 02a9 22000000 		.4byte	.LVL35
 4342 02ad 0100     		.2byte	0x1
 4343 02af 54       		.byte	0x54
 4344 02b0 22000000 		.4byte	.LVL35
 4345 02b4 25000000 		.4byte	.LVL36-1
 4346 02b8 0300     		.2byte	0x3
 4347 02ba 70       		.byte	0x70
 4348 02bb 6C       		.sleb128 -20
 4349 02bc 9F       		.byte	0x9f
 4350 02bd 25000000 		.4byte	.LVL36-1
 4351 02c1 26000000 		.4byte	.LVL36
 4352 02c5 0400     		.2byte	0x4
 4353 02c7 F3       		.byte	0xf3
 4354 02c8 01       		.uleb128 0x1
 4355 02c9 50       		.byte	0x50
 4356 02ca 9F       		.byte	0x9f
 4357 02cb 26000000 		.4byte	.LVL36
 4358 02cf 28000000 		.4byte	.LFE330
 4359 02d3 0100     		.2byte	0x1
 4360 02d5 50       		.byte	0x50
 4361 02d6 00000000 		.4byte	0
 4362 02da 00000000 		.4byte	0
 4363              	.LLST27:
 4364 02de 1A000000 		.4byte	.LVL34
 4365 02e2 26000000 		.4byte	.LVL36
 4366 02e6 0300     		.2byte	0x3
 4367 02e8 09       		.byte	0x9
 4368 02e9 FE       		.byte	0xfe
 4369 02ea 9F       		.byte	0x9f
 4370 02eb 00000000 		.4byte	0
 4371 02ef 00000000 		.4byte	0
 4372              	.LLST28:
 4373 02f3 1A000000 		.4byte	.LVL34
 4374 02f7 22000000 		.4byte	.LVL35
 4375 02fb 0300     		.2byte	0x3
 4376 02fd 74       		.byte	0x74
 4377 02fe 14       		.sleb128 20
 4378 02ff 9F       		.byte	0x9f
 4379 0300 22000000 		.4byte	.LVL35
 4380 0304 25000000 		.4byte	.LVL36-1
 4381 0308 0100     		.2byte	0x1
 4382 030a 50       		.byte	0x50
 4383 030b 25000000 		.4byte	.LVL36-1
 4384 030f 26000000 		.4byte	.LVL36
 4385 0313 0600     		.2byte	0x6
 4386 0315 F3       		.byte	0xf3
 4387 0316 01       		.uleb128 0x1
 4388 0317 50       		.byte	0x50
 4389 0318 23       		.byte	0x23
ARM GAS  /tmp/ccxER8tB.s 			page 78


 4390 0319 14       		.uleb128 0x14
 4391 031a 9F       		.byte	0x9f
 4392 031b 00000000 		.4byte	0
 4393 031f 00000000 		.4byte	0
 4394              	.LLST29:
 4395 0323 00000000 		.4byte	.LVL37
 4396 0327 13000000 		.4byte	.LVL40-1
 4397 032b 0100     		.2byte	0x1
 4398 032d 50       		.byte	0x50
 4399 032e 13000000 		.4byte	.LVL40-1
 4400 0332 32000000 		.4byte	.LVL44
 4401 0336 0100     		.2byte	0x1
 4402 0338 54       		.byte	0x54
 4403 0339 32000000 		.4byte	.LVL44
 4404 033d 40000000 		.4byte	.LFE331
 4405 0341 0400     		.2byte	0x4
 4406 0343 F3       		.byte	0xf3
 4407 0344 01       		.uleb128 0x1
 4408 0345 50       		.byte	0x50
 4409 0346 9F       		.byte	0x9f
 4410 0347 00000000 		.4byte	0
 4411 034b 00000000 		.4byte	0
 4412              	.LLST30:
 4413 034f 00000000 		.4byte	.LVL37
 4414 0353 13000000 		.4byte	.LVL40-1
 4415 0357 0100     		.2byte	0x1
 4416 0359 51       		.byte	0x51
 4417 035a 13000000 		.4byte	.LVL40-1
 4418 035e 40000000 		.4byte	.LFE331
 4419 0362 0100     		.2byte	0x1
 4420 0364 55       		.byte	0x55
 4421 0365 00000000 		.4byte	0
 4422 0369 00000000 		.4byte	0
 4423              	.LLST31:
 4424 036d 00000000 		.4byte	.LVL37
 4425 0371 13000000 		.4byte	.LVL40-1
 4426 0375 0100     		.2byte	0x1
 4427 0377 52       		.byte	0x52
 4428 0378 13000000 		.4byte	.LVL40-1
 4429 037c 40000000 		.4byte	.LFE331
 4430 0380 0100     		.2byte	0x1
 4431 0382 57       		.byte	0x57
 4432 0383 00000000 		.4byte	0
 4433 0387 00000000 		.4byte	0
 4434              	.LLST32:
 4435 038b 00000000 		.4byte	.LVL37
 4436 038f 0C000000 		.4byte	.LVL38
 4437 0393 0100     		.2byte	0x1
 4438 0395 53       		.byte	0x53
 4439 0396 0C000000 		.4byte	.LVL38
 4440 039a 40000000 		.4byte	.LFE331
 4441 039e 0100     		.2byte	0x1
 4442 03a0 56       		.byte	0x56
 4443 03a1 00000000 		.4byte	0
 4444 03a5 00000000 		.4byte	0
 4445              	.LLST33:
 4446 03a9 00000000 		.4byte	.LVL37
ARM GAS  /tmp/ccxER8tB.s 			page 79


 4447 03ad 10000000 		.4byte	.LVL39
 4448 03b1 0300     		.2byte	0x3
 4449 03b3 08       		.byte	0x8
 4450 03b4 20       		.byte	0x20
 4451 03b5 9F       		.byte	0x9f
 4452 03b6 00000000 		.4byte	0
 4453 03ba 00000000 		.4byte	0
 4454              	.LLST34:
 4455 03be 14000000 		.4byte	.LVL40
 4456 03c2 24000000 		.4byte	.LVL41
 4457 03c6 0100     		.2byte	0x1
 4458 03c8 56       		.byte	0x56
 4459 03c9 00000000 		.4byte	0
 4460 03cd 00000000 		.4byte	0
 4461              	.LLST35:
 4462 03d1 14000000 		.4byte	.LVL40
 4463 03d5 24000000 		.4byte	.LVL41
 4464 03d9 0100     		.2byte	0x1
 4465 03db 57       		.byte	0x57
 4466 03dc 00000000 		.4byte	0
 4467 03e0 00000000 		.4byte	0
 4468              	.LLST36:
 4469 03e4 14000000 		.4byte	.LVL40
 4470 03e8 24000000 		.4byte	.LVL41
 4471 03ec 0100     		.2byte	0x1
 4472 03ee 55       		.byte	0x55
 4473 03ef 00000000 		.4byte	0
 4474 03f3 00000000 		.4byte	0
 4475              	.LLST37:
 4476 03f7 14000000 		.4byte	.LVL40
 4477 03fb 24000000 		.4byte	.LVL41
 4478 03ff 0100     		.2byte	0x1
 4479 0401 54       		.byte	0x54
 4480 0402 00000000 		.4byte	0
 4481 0406 00000000 		.4byte	0
 4482              	.LLST38:
 4483 040a 24000000 		.4byte	.LVL41
 4484 040e 2C000000 		.4byte	.LVL42
 4485 0412 0300     		.2byte	0x3
 4486 0414 74       		.byte	0x74
 4487 0415 14       		.sleb128 20
 4488 0416 9F       		.byte	0x9f
 4489 0417 2C000000 		.4byte	.LVL42
 4490 041b 2F000000 		.4byte	.LVL43-1
 4491 041f 0100     		.2byte	0x1
 4492 0421 50       		.byte	0x50
 4493 0422 2F000000 		.4byte	.LVL43-1
 4494 0426 32000000 		.4byte	.LVL44
 4495 042a 0300     		.2byte	0x3
 4496 042c 74       		.byte	0x74
 4497 042d 14       		.sleb128 20
 4498 042e 9F       		.byte	0x9f
 4499 042f 00000000 		.4byte	0
 4500 0433 00000000 		.4byte	0
 4501              	.LLST39:
 4502 0437 36000000 		.4byte	.LVL45
 4503 043b 3C000000 		.4byte	.LVL46
ARM GAS  /tmp/ccxER8tB.s 			page 80


 4504 043f 0200     		.2byte	0x2
 4505 0441 30       		.byte	0x30
 4506 0442 9F       		.byte	0x9f
 4507 0443 00000000 		.4byte	0
 4508 0447 00000000 		.4byte	0
 4509              		.section	.debug_aranges,"",%progbits
 4510 0000 5C000000 		.4byte	0x5c
 4511 0004 0200     		.2byte	0x2
 4512 0006 00000000 		.4byte	.Ldebug_info0
 4513 000a 04       		.byte	0x4
 4514 000b 00       		.byte	0
 4515 000c 0000     		.2byte	0
 4516 000e 0000     		.2byte	0
 4517 0010 00000000 		.4byte	.LFB323
 4518 0014 04000000 		.4byte	.LFE323-.LFB323
 4519 0018 00000000 		.4byte	.LFB324
 4520 001c 12000000 		.4byte	.LFE324-.LFB324
 4521 0020 00000000 		.4byte	.LFB325
 4522 0024 28000000 		.4byte	.LFE325-.LFB325
 4523 0028 00000000 		.4byte	.LFB326
 4524 002c 26000000 		.4byte	.LFE326-.LFB326
 4525 0030 00000000 		.4byte	.LFB327
 4526 0034 30000000 		.4byte	.LFE327-.LFB327
 4527 0038 00000000 		.4byte	.LFB328
 4528 003c 14000000 		.4byte	.LFE328-.LFB328
 4529 0040 00000000 		.4byte	.LFB329
 4530 0044 3A000000 		.4byte	.LFE329-.LFB329
 4531 0048 00000000 		.4byte	.LFB330
 4532 004c 28000000 		.4byte	.LFE330-.LFB330
 4533 0050 00000000 		.4byte	.LFB331
 4534 0054 40000000 		.4byte	.LFE331-.LFB331
 4535 0058 00000000 		.4byte	0
 4536 005c 00000000 		.4byte	0
 4537              		.section	.debug_ranges,"",%progbits
 4538              	.Ldebug_ranges0:
 4539 0000 02000000 		.4byte	.LBB140
 4540 0004 04000000 		.4byte	.LBE140
 4541 0008 06000000 		.4byte	.LBB151
 4542 000c 0E000000 		.4byte	.LBE151
 4543 0010 00000000 		.4byte	0
 4544 0014 00000000 		.4byte	0
 4545 0018 02000000 		.4byte	.LBB143
 4546 001c 04000000 		.4byte	.LBE143
 4547 0020 06000000 		.4byte	.LBB148
 4548 0024 0A000000 		.4byte	.LBE148
 4549 0028 00000000 		.4byte	0
 4550 002c 00000000 		.4byte	0
 4551 0030 1A000000 		.4byte	.LBB160
 4552 0034 1E000000 		.4byte	.LBE160
 4553 0038 22000000 		.4byte	.LBB163
 4554 003c 28000000 		.4byte	.LBE163
 4555 0040 00000000 		.4byte	0
 4556 0044 00000000 		.4byte	0
 4557 0048 00000000 		.4byte	.LFB323
 4558 004c 04000000 		.4byte	.LFE323
 4559 0050 00000000 		.4byte	.LFB324
 4560 0054 12000000 		.4byte	.LFE324
ARM GAS  /tmp/ccxER8tB.s 			page 81


 4561 0058 00000000 		.4byte	.LFB325
 4562 005c 28000000 		.4byte	.LFE325
 4563 0060 00000000 		.4byte	.LFB326
 4564 0064 26000000 		.4byte	.LFE326
 4565 0068 00000000 		.4byte	.LFB327
 4566 006c 30000000 		.4byte	.LFE327
 4567 0070 00000000 		.4byte	.LFB328
 4568 0074 14000000 		.4byte	.LFE328
 4569 0078 00000000 		.4byte	.LFB329
 4570 007c 3A000000 		.4byte	.LFE329
 4571 0080 00000000 		.4byte	.LFB330
 4572 0084 28000000 		.4byte	.LFE330
 4573 0088 00000000 		.4byte	.LFB331
 4574 008c 40000000 		.4byte	.LFE331
 4575 0090 00000000 		.4byte	0
 4576 0094 00000000 		.4byte	0
 4577              		.section	.debug_line,"",%progbits
 4578              	.Ldebug_line0:
 4579 0000 03050000 		.section	.debug_str,"MS",%progbits,1
 4579      02007003 
 4579      00000201 
 4579      FB0E0D00 
 4579      01010101 
 4580              	.LASF96:
 4581 0000 4D314152 		.ascii	"M1AR\000"
 4581      00
 4582              	.LASF134:
 4583 0005 73746D33 		.ascii	"stm32_dma_stream_t\000"
 4583      325F646D 
 4583      615F7374 
 4583      7265616D 
 4583      5F7400
 4584              	.LASF4:
 4585 0018 73697A65 		.ascii	"size_t\000"
 4585      5F7400
 4586              	.LASF161:
 4587 001f 73717231 		.ascii	"sqr1\000"
 4587      00
 4588              	.LASF162:
 4589 0024 73717232 		.ascii	"sqr2\000"
 4589      00
 4590              	.LASF78:
 4591 0029 73697A65 		.ascii	"sizetype\000"
 4591      74797065 
 4591      00
 4592              	.LASF196:
 4593 0032 6164635F 		.ascii	"adc_lld_start\000"
 4593      6C6C645F 
 4593      73746172 
 4593      7400
 4594              	.LASF119:
 4595 0040 77747365 		.ascii	"wtsemp\000"
 4595      6D7000
 4596              	.LASF76:
 4597 0047 73797374 		.ascii	"systime_t\000"
 4597      696D655F 
 4597      7400
ARM GAS  /tmp/ccxER8tB.s 			page 82


 4598              	.LASF124:
 4599 0051 6F776E65 		.ascii	"owner\000"
 4599      7200
 4600              	.LASF26:
 4601 0057 74707269 		.ascii	"tprio_t\000"
 4601      6F5F7400 
 4602              	.LASF170:
 4603 005f 61646363 		.ascii	"adccallback_t\000"
 4603      616C6C62 
 4603      61636B5F 
 4603      7400
 4604              	.LASF85:
 4605 006d 53515231 		.ascii	"SQR1\000"
 4605      00
 4606              	.LASF86:
 4607 0072 53515232 		.ascii	"SQR2\000"
 4607      00
 4608              	.LASF87:
 4609 0077 53515233 		.ascii	"SQR3\000"
 4609      00
 4610              	.LASF18:
 4611 007c 696E7433 		.ascii	"int32_t\000"
 4611      325F7400 
 4612              	.LASF141:
 4613 0084 61646373 		.ascii	"adcstate_t\000"
 4613      74617465 
 4613      5F7400
 4614              	.LASF201:
 4615 008f 63685468 		.ascii	"chThdResumeI\000"
 4615      64526573 
 4615      756D6549 
 4615      00
 4616              	.LASF59:
 4617 009c 76746675 		.ascii	"vtfunc_t\000"
 4617      6E635F74 
 4617      00
 4618              	.LASF199:
 4619 00a5 63685468 		.ascii	"chThdResumeS\000"
 4619      64526573 
 4619      756D6553 
 4619      00
 4620              	.LASF65:
 4621 00b2 63685F76 		.ascii	"ch_virtual_timers_list\000"
 4621      69727475 
 4621      616C5F74 
 4621      696D6572 
 4621      735F6C69 
 4622              	.LASF184:
 4623 00c9 5F5F6675 		.ascii	"__func__\000"
 4623      6E635F5F 
 4623      00
 4624              	.LASF206:
 4625 00d2 6F73616C 		.ascii	"osalThreadSuspendS\000"
 4625      54687265 
 4625      61645375 
 4625      7370656E 
 4625      645300
ARM GAS  /tmp/ccxER8tB.s 			page 83


 4626              	.LASF144:
 4627 00e5 636F6E66 		.ascii	"config\000"
 4627      696700
 4628              	.LASF38:
 4629 00ec 73746174 		.ascii	"state\000"
 4629      6500
 4630              	.LASF47:
 4631 00f2 73746174 		.ascii	"stats\000"
 4631      7300
 4632              	.LASF158:
 4633 00f8 6572726F 		.ascii	"error_cb\000"
 4633      725F6362 
 4633      00
 4634              	.LASF33:
 4635 0101 7072696F 		.ascii	"prio\000"
 4635      00
 4636              	.LASF174:
 4637 0106 6F73616C 		.ascii	"osalSysUnlock\000"
 4637      53797355 
 4637      6E6C6F63 
 4637      6B00
 4638              	.LASF180:
 4639 0114 6F73616C 		.ascii	"osalThreadResumeI\000"
 4639      54687265 
 4639      61645265 
 4639      73756D65 
 4639      4900
 4640              	.LASF157:
 4641 0126 656E645F 		.ascii	"end_cb\000"
 4641      636200
 4642              	.LASF115:
 4643 012d 65786974 		.ascii	"exitcode\000"
 4643      636F6465 
 4643      00
 4644              	.LASF179:
 4645 0136 6F73616C 		.ascii	"osalThreadResumeS\000"
 4645      54687265 
 4645      61645265 
 4645      73756D65 
 4645      5300
 4646              	.LASF5:
 4647 0148 5F5F7569 		.ascii	"__uint8_t\000"
 4647      6E74385F 
 4647      7400
 4648              	.LASF11:
 4649 0152 6C6F6E67 		.ascii	"long int\000"
 4649      20696E74 
 4649      00
 4650              	.LASF173:
 4651 015b 706F7274 		.ascii	"port_unlock\000"
 4651      5F756E6C 
 4651      6F636B00 
 4652              	.LASF24:
 4653 0167 74737461 		.ascii	"tstate_t\000"
 4653      74655F74 
 4653      00
 4654              	.LASF22:
ARM GAS  /tmp/ccxER8tB.s 			page 84


 4655 0170 72747469 		.ascii	"rttime_t\000"
 4655      6D655F74 
 4655      00
 4656              	.LASF53:
 4657 0179 74687265 		.ascii	"threads_queue_t\000"
 4657      6164735F 
 4657      71756575 
 4657      655F7400 
 4658              	.LASF131:
 4659 0189 73686966 		.ascii	"shift\000"
 4659      7400
 4660              	.LASF98:
 4661 018f 72656761 		.ascii	"regarm_t\000"
 4661      726D5F74 
 4661      00
 4662              	.LASF197:
 4663 0198 6164635F 		.ascii	"adc_lld_stop\000"
 4663      6C6C645F 
 4663      73746F70 
 4663      00
 4664              	.LASF202:
 4665 01a5 63685468 		.ascii	"chThdSuspendTimeoutS\000"
 4665      64537573 
 4665      70656E64 
 4665      54696D65 
 4665      6F757453 
 4666              	.LASF195:
 4667 01ba 5F737461 		.ascii	"_stats_stop_measure_crit_thd\000"
 4667      74735F73 
 4667      746F705F 
 4667      6D656173 
 4667      7572655F 
 4668              	.LASF175:
 4669 01d7 6F73616C 		.ascii	"osalSysLock\000"
 4669      5379734C 
 4669      6F636B00 
 4670              	.LASF107:
 4671 01e3 63756D75 		.ascii	"cumulative\000"
 4671      6C617469 
 4671      766500
 4672              	.LASF3:
 4673 01ee 7369676E 		.ascii	"signed char\000"
 4673      65642063 
 4673      68617200 
 4674              	.LASF121:
 4675 01fa 65776D61 		.ascii	"ewmask\000"
 4675      736B00
 4676              	.LASF16:
 4677 0201 75696E74 		.ascii	"uint8_t\000"
 4677      385F7400 
 4678              	.LASF204:
 4679 0209 2E2E2F2E 		.ascii	"../../modules/ChibiOS/os/hal/src/hal_adc.c\000"
 4679      2E2F6D6F 
 4679      64756C65 
 4679      732F4368 
 4679      6962694F 
 4680              	.LASF28:
ARM GAS  /tmp/ccxER8tB.s 			page 85


 4681 0234 6576656E 		.ascii	"eventmask_t\000"
 4681      746D6173 
 4681      6B5F7400 
 4682              	.LASF117:
 4683 0240 77747472 		.ascii	"wttrp\000"
 4683      7000
 4684              	.LASF6:
 4685 0246 756E7369 		.ascii	"unsigned char\000"
 4685      676E6564 
 4685      20636861 
 4685      7200
 4686              	.LASF66:
 4687 0254 6C617374 		.ascii	"lasttime\000"
 4687      74696D65 
 4687      00
 4688              	.LASF69:
 4689 025d 70616E69 		.ascii	"panic_msg\000"
 4689      635F6D73 
 4689      6700
 4690              	.LASF169:
 4691 0267 61646365 		.ascii	"adcerror_t\000"
 4691      72726F72 
 4691      5F7400
 4692              	.LASF135:
 4693 0272 4144435F 		.ascii	"ADC_UNINIT\000"
 4693      554E494E 
 4693      495400
 4694              	.LASF67:
 4695 027d 73797374 		.ascii	"system_debug_t\000"
 4695      656D5F64 
 4695      65627567 
 4695      5F7400
 4696              	.LASF137:
 4697 028c 4144435F 		.ascii	"ADC_READY\000"
 4697      52454144 
 4697      5900
 4698              	.LASF127:
 4699 0296 5F426F6F 		.ascii	"_Bool\000"
 4699      6C00
 4700              	.LASF164:
 4701 029c 61646373 		.ascii	"adcsample_t\000"
 4701      616D706C 
 4701      655F7400 
 4702              	.LASF125:
 4703 02a8 63686172 		.ascii	"char\000"
 4703      00
 4704              	.LASF8:
 4705 02ad 5F5F7569 		.ascii	"__uint16_t\000"
 4705      6E743136 
 4705      5F7400
 4706              	.LASF116:
 4707 02b8 77746F62 		.ascii	"wtobjp\000"
 4707      6A7000
 4708              	.LASF110:
 4709 02bf 6E5F6374 		.ascii	"n_ctxswc\000"
 4709      78737763 
 4709      00
ARM GAS  /tmp/ccxER8tB.s 			page 86


 4710              	.LASF140:
 4711 02c8 4144435F 		.ascii	"ADC_ERROR\000"
 4711      4552524F 
 4711      5200
 4712              	.LASF39:
 4713 02d2 666C6167 		.ascii	"flags\000"
 4713      7300
 4714              	.LASF99:
 4715 02d8 73746B61 		.ascii	"stkalign_t\000"
 4715      6C69676E 
 4715      5F7400
 4716              	.LASF163:
 4717 02e3 73717233 		.ascii	"sqr3\000"
 4717      00
 4718              	.LASF155:
 4719 02e8 63697263 		.ascii	"circular\000"
 4719      756C6172 
 4719      00
 4720              	.LASF185:
 4721 02f1 61646353 		.ascii	"adcStartConversionI\000"
 4721      74617274 
 4721      436F6E76 
 4721      65727369 
 4721      6F6E4900 
 4722              	.LASF46:
 4723 0305 6D706F6F 		.ascii	"mpool\000"
 4723      6C00
 4724              	.LASF166:
 4725 030b 4144435F 		.ascii	"ADC_ERR_DMAFAILURE\000"
 4725      4552525F 
 4725      444D4146 
 4725      41494C55 
 4725      524500
 4726              	.LASF128:
 4727 031e 73747265 		.ascii	"stream\000"
 4727      616D00
 4728              	.LASF105:
 4729 0325 776F7273 		.ascii	"worst\000"
 4729      7400
 4730              	.LASF145:
 4731 032b 73616D70 		.ascii	"samples\000"
 4731      6C657300 
 4732              	.LASF168:
 4733 0333 4144435F 		.ascii	"ADC_ERR_WATCHDOG\000"
 4733      4552525F 
 4733      57415443 
 4733      48444F47 
 4733      00
 4734              	.LASF29:
 4735 0344 636E745F 		.ascii	"cnt_t\000"
 4735      7400
 4736              	.LASF181:
 4737 034a 61646349 		.ascii	"adcInit\000"
 4737      6E697400 
 4738              	.LASF93:
 4739 0352 4144435F 		.ascii	"ADC_TypeDef\000"
 4739      54797065 
ARM GAS  /tmp/ccxER8tB.s 			page 87


 4739      44656600 
 4740              	.LASF83:
 4741 035e 4A4F4652 		.ascii	"JOFR3\000"
 4741      3300
 4742              	.LASF120:
 4743 0364 77746D74 		.ascii	"wtmtxp\000"
 4743      787000
 4744              	.LASF57:
 4745 036b 63685F72 		.ascii	"ch_ready_list\000"
 4745      65616479 
 4745      5F6C6973 
 4745      7400
 4746              	.LASF111:
 4747 0379 6D5F6372 		.ascii	"m_crit_thd\000"
 4747      69745F74 
 4747      686400
 4748              	.LASF14:
 4749 0384 5F5F7569 		.ascii	"__uint64_t\000"
 4749      6E743634 
 4749      5F7400
 4750              	.LASF183:
 4751 038f 63685379 		.ascii	"chSysUnlock\000"
 4751      73556E6C 
 4751      6F636B00 
 4752              	.LASF13:
 4753 039b 6C6F6E67 		.ascii	"long unsigned int\000"
 4753      20756E73 
 4753      69676E65 
 4753      6420696E 
 4753      7400
 4754              	.LASF186:
 4755 03ad 63685379 		.ascii	"chSysLock\000"
 4755      734C6F63 
 4755      6B00
 4756              	.LASF149:
 4757 03b7 646D6173 		.ascii	"dmastp\000"
 4757      747000
 4758              	.LASF122:
 4759 03be 63685F73 		.ascii	"ch_semaphore\000"
 4759      656D6170 
 4759      686F7265 
 4759      00
 4760              	.LASF50:
 4761 03cb 63685F74 		.ascii	"ch_thread\000"
 4761      68726561 
 4761      6400
 4762              	.LASF64:
 4763 03d5 76697274 		.ascii	"virtual_timers_list_t\000"
 4763      75616C5F 
 4763      74696D65 
 4763      72735F6C 
 4763      6973745F 
 4764              	.LASF79:
 4765 03eb 534D5052 		.ascii	"SMPR1\000"
 4765      3100
 4766              	.LASF80:
 4767 03f1 534D5052 		.ascii	"SMPR2\000"
ARM GAS  /tmp/ccxER8tB.s 			page 88


 4767      3200
 4768              	.LASF60:
 4769 03f7 76697274 		.ascii	"virtual_timer_t\000"
 4769      75616C5F 
 4769      74696D65 
 4769      725F7400 
 4770              	.LASF56:
 4771 0407 72656164 		.ascii	"ready_list_t\000"
 4771      795F6C69 
 4771      73745F74 
 4771      00
 4772              	.LASF35:
 4773 0414 6F6C6465 		.ascii	"older\000"
 4773      7200
 4774              	.LASF45:
 4775 041a 7265616C 		.ascii	"realprio\000"
 4775      7072696F 
 4775      00
 4776              	.LASF30:
 4777 0423 75636E74 		.ascii	"ucnt_t\000"
 4777      5F7400
 4778              	.LASF176:
 4779 042a 62617365 		.ascii	"basePri\000"
 4779      50726900 
 4780              	.LASF153:
 4781 0432 41444343 		.ascii	"ADCConversionGroup\000"
 4781      6F6E7665 
 4781      7273696F 
 4781      6E47726F 
 4781      757000
 4782              	.LASF139:
 4783 0445 4144435F 		.ascii	"ADC_COMPLETE\000"
 4783      434F4D50 
 4783      4C455445 
 4783      00
 4784              	.LASF51:
 4785 0452 63685F74 		.ascii	"ch_threads_list\000"
 4785      68726561 
 4785      64735F6C 
 4785      69737400 
 4786              	.LASF159:
 4787 0462 736D7072 		.ascii	"smpr1\000"
 4787      3100
 4788              	.LASF160:
 4789 0468 736D7072 		.ascii	"smpr2\000"
 4789      3200
 4790              	.LASF109:
 4791 046e 6E5F6972 		.ascii	"n_irq\000"
 4791      7100
 4792              	.LASF198:
 4793 0474 6164635F 		.ascii	"adc_lld_start_conversion\000"
 4793      6C6C645F 
 4793      73746172 
 4793      745F636F 
 4793      6E766572 
 4794              	.LASF165:
 4795 048d 6164635F 		.ascii	"adc_channels_num_t\000"
ARM GAS  /tmp/ccxER8tB.s 			page 89


 4795      6368616E 
 4795      6E656C73 
 4795      5F6E756D 
 4795      5F7400
 4796              	.LASF12:
 4797 04a0 5F5F7569 		.ascii	"__uint32_t\000"
 4797      6E743332 
 4797      5F7400
 4798              	.LASF44:
 4799 04ab 6D74786C 		.ascii	"mtxlist\000"
 4799      69737400 
 4800              	.LASF1:
 4801 04b3 6C6F6E67 		.ascii	"long long int\000"
 4801      206C6F6E 
 4801      6720696E 
 4801      7400
 4802              	.LASF77:
 4803 04c1 73797369 		.ascii	"sysinterval_t\000"
 4803      6E746572 
 4803      76616C5F 
 4803      7400
 4804              	.LASF177:
 4805 04cf 61646370 		.ascii	"adcp\000"
 4805      00
 4806              	.LASF171:
 4807 04d4 61646365 		.ascii	"adcerrorcallback_t\000"
 4807      72726F72 
 4807      63616C6C 
 4807      6261636B 
 4807      5F7400
 4808              	.LASF146:
 4809 04e7 64657074 		.ascii	"depth\000"
 4809      6800
 4810              	.LASF192:
 4811 04ed 49544D5F 		.ascii	"ITM_RxBuffer\000"
 4811      52784275 
 4811      66666572 
 4811      00
 4812              	.LASF150:
 4813 04fa 646D616D 		.ascii	"dmamode\000"
 4813      6F646500 
 4814              	.LASF108:
 4815 0502 74696D65 		.ascii	"time_measurement_t\000"
 4815      5F6D6561 
 4815      73757265 
 4815      6D656E74 
 4815      5F7400
 4816              	.LASF112:
 4817 0515 6D5F6372 		.ascii	"m_crit_isr\000"
 4817      69745F69 
 4817      737200
 4818              	.LASF0:
 4819 0520 756E7369 		.ascii	"unsigned int\000"
 4819      676E6564 
 4819      20696E74 
 4819      00
 4820              	.LASF21:
ARM GAS  /tmp/ccxER8tB.s 			page 90


 4821 052d 7274636E 		.ascii	"rtcnt_t\000"
 4821      745F7400 
 4822              	.LASF156:
 4823 0535 6E756D5F 		.ascii	"num_channels\000"
 4823      6368616E 
 4823      6E656C73 
 4823      00
 4824              	.LASF113:
 4825 0542 6B65726E 		.ascii	"kernel_stats_t\000"
 4825      656C5F73 
 4825      74617473 
 4825      5F7400
 4826              	.LASF58:
 4827 0551 63757272 		.ascii	"current\000"
 4827      656E7400 
 4828              	.LASF102:
 4829 0559 6F666673 		.ascii	"offset\000"
 4829      657400
 4830              	.LASF152:
 4831 0560 68616C5F 		.ascii	"hal_adc_config\000"
 4831      6164635F 
 4831      636F6E66 
 4831      696700
 4832              	.LASF200:
 4833 056f 6164635F 		.ascii	"adc_lld_stop_conversion\000"
 4833      6C6C645F 
 4833      73746F70 
 4833      5F636F6E 
 4833      76657273 
 4834              	.LASF97:
 4835 0587 444D415F 		.ascii	"DMA_Stream_TypeDef\000"
 4835      53747265 
 4835      616D5F54 
 4835      79706544 
 4835      656600
 4836              	.LASF205:
 4837 059a 2F686F6D 		.ascii	"/home/user/csse4011/project/4011-surfbee/ardupilot/"
 4837      652F7573 
 4837      65722F63 
 4837      73736534 
 4837      3031312F 
 4838 05cd 6275696C 		.ascii	"build/stm32l475\000"
 4838      642F7374 
 4838      6D33326C 
 4838      34373500 
 4839              	.LASF31:
 4840 05dd 74687265 		.ascii	"thread_t\000"
 4840      61645F74 
 4840      00
 4841              	.LASF2:
 4842 05e6 6C6F6E67 		.ascii	"long double\000"
 4842      20646F75 
 4842      626C6500 
 4843              	.LASF48:
 4844 05f2 74687265 		.ascii	"thread_reference_t\000"
 4844      61645F72 
 4844      65666572 
ARM GAS  /tmp/ccxER8tB.s 			page 91


 4844      656E6365 
 4844      5F7400
 4845              	.LASF118:
 4846 0605 73656E74 		.ascii	"sentmsg\000"
 4846      6D736700 
 4847              	.LASF101:
 4848 060d 706F7274 		.ascii	"port_intctx\000"
 4848      5F696E74 
 4848      63747800 
 4849              	.LASF203:
 4850 0619 474E5520 		.ascii	"GNU C11 5.4.1 20160919 -mcpu=cortex-m4 -mfloat-abi="
 4850      43313120 
 4850      352E342E 
 4850      31203230 
 4850      31363039 
 4851 064c 68617264 		.ascii	"hard -mfpu=fpv4-sp-d16 -mno-thumb-interwork -mthumb"
 4851      202D6D66 
 4851      70753D66 
 4851      7076342D 
 4851      73702D64 
 4852 067f 202D6720 		.ascii	" -g -Os -fomit-frame-pointer -falign-functions=16 -"
 4852      2D4F7320 
 4852      2D666F6D 
 4852      69742D66 
 4852      72616D65 
 4853 06b2 6666756E 		.ascii	"ffunction-sections -fdata-sections -fno-common -fsi"
 4853      6374696F 
 4853      6E2D7365 
 4853      6374696F 
 4853      6E73202D 
 4854 06e5 6E676C65 		.ascii	"ngle-precision-constant\000"
 4854      2D707265 
 4854      63697369 
 4854      6F6E2D63 
 4854      6F6E7374 
 4855              	.LASF143:
 4856 06fd 68616C5F 		.ascii	"hal_adc_driver\000"
 4856      6164635F 
 4856      64726976 
 4856      657200
 4857              	.LASF138:
 4858 070c 4144435F 		.ascii	"ADC_ACTIVE\000"
 4858      41435449 
 4858      564500
 4859              	.LASF61:
 4860 0717 63685F76 		.ascii	"ch_virtual_timer\000"
 4860      69727475 
 4860      616C5F74 
 4860      696D6572 
 4860      00
 4861              	.LASF75:
 4862 0728 6B65726E 		.ascii	"kernel_stats\000"
 4862      656C5F73 
 4862      74617473 
 4862      00
 4863              	.LASF132:
 4864 0735 73656C66 		.ascii	"selfindex\000"
ARM GAS  /tmp/ccxER8tB.s 			page 92


 4864      696E6465 
 4864      7800
 4865              	.LASF15:
 4866 073f 6C6F6E67 		.ascii	"long long unsigned int\000"
 4866      206C6F6E 
 4866      6720756E 
 4866      7369676E 
 4866      65642069 
 4867              	.LASF17:
 4868 0756 75696E74 		.ascii	"uint16_t\000"
 4868      31365F74 
 4868      00
 4869              	.LASF27:
 4870 075f 6D73675F 		.ascii	"msg_t\000"
 4870      7400
 4871              	.LASF54:
 4872 0765 63685F74 		.ascii	"ch_threads_queue\000"
 4872      68726561 
 4872      64735F71 
 4872      75657565 
 4872      00
 4873              	.LASF62:
 4874 0776 64656C74 		.ascii	"delta\000"
 4874      6100
 4875              	.LASF142:
 4876 077c 41444344 		.ascii	"ADCDriver\000"
 4876      72697665 
 4876      7200
 4877              	.LASF193:
 4878 0786 6164635F 		.ascii	"adc_lld_init\000"
 4878      6C6C645F 
 4878      696E6974 
 4878      00
 4879              	.LASF40:
 4880 0793 72656673 		.ascii	"refs\000"
 4880      00
 4881              	.LASF32:
 4882 0798 71756575 		.ascii	"queue\000"
 4882      6500
 4883              	.LASF43:
 4884 079e 6570656E 		.ascii	"epending\000"
 4884      64696E67 
 4884      00
 4885              	.LASF194:
 4886 07a7 5F737461 		.ascii	"_stats_start_measure_crit_thd\000"
 4886      74735F73 
 4886      74617274 
 4886      5F6D6561 
 4886      73757265 
 4887              	.LASF133:
 4888 07c5 76656374 		.ascii	"vector\000"
 4888      6F7200
 4889              	.LASF191:
 4890 07cc 61646353 		.ascii	"adcStopConversionI\000"
 4890      746F7043 
 4890      6F6E7665 
 4890      7273696F 
ARM GAS  /tmp/ccxER8tB.s 			page 93


 4890      6E4900
 4891              	.LASF167:
 4892 07df 4144435F 		.ascii	"ADC_ERR_OVERFLOW\000"
 4892      4552525F 
 4892      4F564552 
 4892      464C4F57 
 4892      00
 4893              	.LASF74:
 4894 07f0 6D61696E 		.ascii	"mainthread\000"
 4894      74687265 
 4894      616400
 4895              	.LASF178:
 4896 07fb 5F5F7365 		.ascii	"__set_BASEPRI\000"
 4896      745F4241 
 4896      53455052 
 4896      4900
 4897              	.LASF104:
 4898 0809 62657374 		.ascii	"best\000"
 4898      00
 4899              	.LASF37:
 4900 080e 77616261 		.ascii	"wabase\000"
 4900      736500
 4901              	.LASF72:
 4902 0815 726C6973 		.ascii	"rlist\000"
 4902      7400
 4903              	.LASF23:
 4904 081b 746D6F64 		.ascii	"tmode_t\000"
 4904      655F7400 
 4905              	.LASF130:
 4906 0823 64756D6D 		.ascii	"dummy\000"
 4906      7900
 4907              	.LASF136:
 4908 0829 4144435F 		.ascii	"ADC_STOP\000"
 4908      53544F50 
 4908      00
 4909              	.LASF147:
 4910 0832 67727070 		.ascii	"grpp\000"
 4910      00
 4911              	.LASF103:
 4912 0837 746D5F63 		.ascii	"tm_calibration_t\000"
 4912      616C6962 
 4912      72617469 
 4912      6F6E5F74 
 4912      00
 4913              	.LASF148:
 4914 0848 74687265 		.ascii	"thread\000"
 4914      616400
 4915              	.LASF95:
 4916 084f 4D304152 		.ascii	"M0AR\000"
 4916      00
 4917              	.LASF36:
 4918 0854 6E616D65 		.ascii	"name\000"
 4918      00
 4919              	.LASF172:
 4920 0859 706F7274 		.ascii	"port_lock\000"
 4920      5F6C6F63 
 4920      6B00
ARM GAS  /tmp/ccxER8tB.s 			page 94


 4921              	.LASF188:
 4922 0863 61646353 		.ascii	"adcStop\000"
 4922      746F7000 
 4923              	.LASF7:
 4924 086b 73686F72 		.ascii	"short int\000"
 4924      7420696E 
 4924      7400
 4925              	.LASF20:
 4926 0875 75696E74 		.ascii	"uint64_t\000"
 4926      36345F74 
 4926      00
 4927              	.LASF63:
 4928 087e 66756E63 		.ascii	"func\000"
 4928      00
 4929              	.LASF123:
 4930 0883 63685F6D 		.ascii	"ch_mutex\000"
 4930      75746578 
 4930      00
 4931              	.LASF81:
 4932 088c 4A4F4652 		.ascii	"JOFR1\000"
 4932      3100
 4933              	.LASF82:
 4934 0892 4A4F4652 		.ascii	"JOFR2\000"
 4934      3200
 4935              	.LASF42:
 4936 0898 6D736771 		.ascii	"msgqueue\000"
 4936      75657565 
 4936      00
 4937              	.LASF84:
 4938 08a1 4A4F4652 		.ascii	"JOFR4\000"
 4938      3400
 4939              	.LASF68:
 4940 08a7 63685F73 		.ascii	"ch_system_debug\000"
 4940      79737465 
 4940      6D5F6465 
 4940      62756700 
 4941              	.LASF182:
 4942 08b7 6164634F 		.ascii	"adcObjectInit\000"
 4942      626A6563 
 4942      74496E69 
 4942      7400
 4943              	.LASF89:
 4944 08c5 4A445231 		.ascii	"JDR1\000"
 4944      00
 4945              	.LASF90:
 4946 08ca 4A445232 		.ascii	"JDR2\000"
 4946      00
 4947              	.LASF91:
 4948 08cf 4A445233 		.ascii	"JDR3\000"
 4948      00
 4949              	.LASF92:
 4950 08d4 4A445234 		.ascii	"JDR4\000"
 4950      00
 4951              	.LASF88:
 4952 08d9 4A535152 		.ascii	"JSQR\000"
 4952      00
 4953              	.LASF73:
ARM GAS  /tmp/ccxER8tB.s 			page 95


 4954 08de 76746C69 		.ascii	"vtlist\000"
 4954      737400
 4955              	.LASF41:
 4956 08e5 77616974 		.ascii	"waiting\000"
 4956      696E6700 
 4957              	.LASF190:
 4958 08ed 61646353 		.ascii	"adcStopConversion\000"
 4958      746F7043 
 4958      6F6E7665 
 4958      7273696F 
 4958      6E00
 4959              	.LASF126:
 4960 08ff 6D757465 		.ascii	"mutex_t\000"
 4960      785F7400 
 4961              	.LASF25:
 4962 0907 74726566 		.ascii	"trefs_t\000"
 4962      735F7400 
 4963              	.LASF100:
 4964 090f 706F7274 		.ascii	"port_context\000"
 4964      5F636F6E 
 4964      74657874 
 4964      00
 4965              	.LASF207:
 4966 091c 61646343 		.ascii	"adcConvert\000"
 4966      6F6E7665 
 4966      727400
 4967              	.LASF49:
 4968 0927 74687265 		.ascii	"threads_list_t\000"
 4968      6164735F 
 4968      6C697374 
 4968      5F7400
 4969              	.LASF71:
 4970 0936 63685F73 		.ascii	"ch_system\000"
 4970      79737465 
 4970      6D00
 4971              	.LASF34:
 4972 0940 6E657765 		.ascii	"newer\000"
 4972      7200
 4973              	.LASF19:
 4974 0946 75696E74 		.ascii	"uint32_t\000"
 4974      33325F74 
 4974      00
 4975              	.LASF114:
 4976 094f 7264796D 		.ascii	"rdymsg\000"
 4976      736700
 4977              	.LASF9:
 4978 0956 73686F72 		.ascii	"short unsigned int\000"
 4978      7420756E 
 4978      7369676E 
 4978      65642069 
 4978      6E7400
 4979              	.LASF70:
 4980 0969 63685F73 		.ascii	"ch_system_t\000"
 4980      79737465 
 4980      6D5F7400 
 4981              	.LASF187:
 4982 0975 61646353 		.ascii	"adcStart\000"
ARM GAS  /tmp/ccxER8tB.s 			page 96


 4982      74617274 
 4982      00
 4983              	.LASF189:
 4984 097e 61646353 		.ascii	"adcStartConversion\000"
 4984      74617274 
 4984      436F6E76 
 4984      65727369 
 4984      6F6E00
 4985              	.LASF154:
 4986 0991 68616C5F 		.ascii	"hal_adc_configuration_group\000"
 4986      6164635F 
 4986      636F6E66 
 4986      69677572 
 4986      6174696F 
 4987              	.LASF10:
 4988 09ad 5F5F696E 		.ascii	"__int32_t\000"
 4988      7433325F 
 4988      7400
 4989              	.LASF94:
 4990 09b7 4E445452 		.ascii	"NDTR\000"
 4990      00
 4991              	.LASF129:
 4992 09bc 69666372 		.ascii	"ifcr\000"
 4992      00
 4993              	.LASF52:
 4994 09c1 6E657874 		.ascii	"next\000"
 4994      00
 4995              	.LASF55:
 4996 09c6 70726576 		.ascii	"prev\000"
 4996      00
 4997              	.LASF106:
 4998 09cb 6C617374 		.ascii	"last\000"
 4998      00
 4999              	.LASF151:
 5000 09d0 41444343 		.ascii	"ADCConfig\000"
 5000      6F6E6669 
 5000      6700
 5001              		.ident	"GCC: (15:5.4.1+svn241155-1) 5.4.1 20160919"
ARM GAS  /tmp/ccxER8tB.s 			page 97


DEFINED SYMBOLS
                            *ABS*:0000000000000000 hal_adc.c
     /tmp/ccxER8tB.s:22     .text.adcInit:0000000000000000 $t
     /tmp/ccxER8tB.s:27     .text.adcInit:0000000000000000 adcInit
     /tmp/ccxER8tB.s:42     .text.adcObjectInit:0000000000000000 $t
     /tmp/ccxER8tB.s:47     .text.adcObjectInit:0000000000000000 adcObjectInit
     /tmp/ccxER8tB.s:74     .text.adcStart:0000000000000000 $t
     /tmp/ccxER8tB.s:79     .text.adcStart:0000000000000000 adcStart
     /tmp/ccxER8tB.s:160    .text.adcStop:0000000000000000 $t
     /tmp/ccxER8tB.s:165    .text.adcStop:0000000000000000 adcStop
     /tmp/ccxER8tB.s:244    .text.adcStartConversion:0000000000000000 $t
     /tmp/ccxER8tB.s:249    .text.adcStartConversion:0000000000000000 adcStartConversion
     /tmp/ccxER8tB.s:341    .text.adcStartConversionI:0000000000000000 $t
     /tmp/ccxER8tB.s:346    .text.adcStartConversionI:0000000000000000 adcStartConversionI
     /tmp/ccxER8tB.s:379    .text.adcStopConversion:0000000000000000 $t
     /tmp/ccxER8tB.s:384    .text.adcStopConversion:0000000000000000 adcStopConversion
     /tmp/ccxER8tB.s:491    .text.adcStopConversionI:0000000000000000 $t
     /tmp/ccxER8tB.s:496    .text.adcStopConversionI:0000000000000000 adcStopConversionI
     /tmp/ccxER8tB.s:555    .text.adcConvert:0000000000000000 $t
     /tmp/ccxER8tB.s:560    .text.adcConvert:0000000000000000 adcConvert
                     .debug_frame:0000000000000010 $d

UNDEFINED SYMBOLS
adc_lld_init
_stats_start_measure_crit_thd
adc_lld_start
_stats_stop_measure_crit_thd
adc_lld_stop
adc_lld_start_conversion
adc_lld_stop_conversion
chThdResumeS
chThdResumeI
chThdSuspendTimeoutS
