ARM GAS  /tmp/ccBouUBx.s 			page 1


   1              		.syntax unified
   2              		.cpu cortex-m4
   3              		.eabi_attribute 27, 1
   4              		.eabi_attribute 28, 1
   5              		.fpu fpv4-sp-d16
   6              		.eabi_attribute 20, 1
   7              		.eabi_attribute 21, 1
   8              		.eabi_attribute 23, 3
   9              		.eabi_attribute 24, 1
  10              		.eabi_attribute 25, 1
  11              		.eabi_attribute 26, 1
  12              		.eabi_attribute 30, 4
  13              		.eabi_attribute 34, 1
  14              		.eabi_attribute 18, 4
  15              		.thumb
  16              		.syntax unified
  17              		.file	"hal_usb_lld.c"
  18              		.text
  19              	.Ltext0:
  20              		.cfi_sections	.debug_frame
  21              		.section	.text.otg_disable_ep,"ax",%progbits
  22              		.align	1
  23              		.thumb
  24              		.thumb_func
  25              		.type	otg_disable_ep, %function
  26              	otg_disable_ep:
  27              	.LFB324:
  28              		.file 1 "../../modules/ChibiOS/os/hal/ports/STM32/LLD/OTGv1/hal_usb_lld.c"
  29              		.loc 1 154 0
  30              		.cfi_startproc
  31              		@ args = 0, pretend = 0, frame = 0
  32              		@ frame_needed = 0, uses_anonymous_args = 0
  33              	.LVL0:
  34              		.loc 1 158 0
  35 0000 836D     		ldr	r3, [r0, #88]
  36              		.loc 1 154 0
  37 0002 30B5     		push	{r4, r5, lr}
  38              		.cfi_def_cfa_offset 12
  39              		.cfi_offset 4, -12
  40              		.cfi_offset 5, -8
  41              		.cfi_offset 14, -4
  42              		.loc 1 158 0
  43 0004 0022     		movs	r2, #0
  44 0006 9D68     		ldr	r5, [r3, #8]
  45              		.loc 1 155 0
  46 0008 446D     		ldr	r4, [r0, #84]
  47              	.LVL1:
  48              		.loc 1 159 0
  49 000a 1146     		mov	r1, r2
  50              		.loc 1 161 0
  51 000c 4FF0FF30 		mov	r0, #-1
  52              	.LVL2:
  53              	.L2:
  54 0010 04EB4213 		add	r3, r4, r2, lsl #5
  55              		.loc 1 158 0 discriminator 3
  56 0014 0132     		adds	r2, r2, #1
  57              	.LVL3:
ARM GAS  /tmp/ccBouUBx.s 			page 2


  58 0016 9542     		cmp	r5, r2
  59              		.loc 1 159 0 discriminator 3
  60 0018 C3F80019 		str	r1, [r3, #2304]
  61              		.loc 1 160 0 discriminator 3
  62 001c C3F81019 		str	r1, [r3, #2320]
  63              		.loc 1 161 0 discriminator 3
  64 0020 C3F80809 		str	r0, [r3, #2312]
  65              		.loc 1 163 0 discriminator 3
  66 0024 C3F8001B 		str	r1, [r3, #2816]
  67              		.loc 1 164 0 discriminator 3
  68 0028 C3F8101B 		str	r1, [r3, #2832]
  69              		.loc 1 165 0 discriminator 3
  70 002c C3F8080B 		str	r0, [r3, #2824]
  71              		.loc 1 158 0 discriminator 3
  72 0030 EED2     		bcs	.L2
  73              		.loc 1 167 0
  74 0032 4FF00113 		mov	r3, #65537
  75 0036 C4F81C38 		str	r3, [r4, #2076]
  76 003a 30BD     		pop	{r4, r5, pc}
  77              		.cfi_endproc
  78              	.LFE324:
  79              		.size	otg_disable_ep, .-otg_disable_ep
  80              		.section	.text.otg_txfifo_flush.isra.1,"ax",%progbits
  81              		.align	1
  82              		.thumb
  83              		.thumb_func
  84              		.type	otg_txfifo_flush.isra.1, %function
  85              	otg_txfifo_flush.isra.1:
  86              	.LFB356:
  87              		.loc 1 180 0
  88              		.cfi_startproc
  89              		@ args = 0, pretend = 0, frame = 0
  90              		@ frame_needed = 0, uses_anonymous_args = 0
  91              		@ link register save eliminated.
  92              	.LVL4:
  93              		.loc 1 183 0
  94 0000 8901     		lsls	r1, r1, #6
  95              	.LVL5:
  96 0002 41F02001 		orr	r1, r1, #32
  97 0006 0161     		str	r1, [r0, #16]
  98              	.L6:
  99              		.loc 1 184 0
 100 0008 0369     		ldr	r3, [r0, #16]
 101 000a 9B06     		lsls	r3, r3, #26
 102 000c FCD4     		bmi	.L6
 103              	.LVL6:
 104              	.LBB69:
 105              	.LBB70:
 106              		.file 2 "../../modules/ChibiOS/os/hal/osal/rt/osal.h"
 107              		.loc 2 591 0
 108 000e 1220     		movs	r0, #18
 109              	.LVL7:
 110 0010 FFF7FEBF 		b	chSysPolledDelayX
 111              	.LVL8:
 112              	.LBE70:
 113              	.LBE69:
 114              		.cfi_endproc
ARM GAS  /tmp/ccBouUBx.s 			page 3


 115              	.LFE356:
 116              		.size	otg_txfifo_flush.isra.1, .-otg_txfifo_flush.isra.1
 117              		.section	.text.otg_txfifo_handler.constprop.9,"ax",%progbits
 118              		.align	1
 119              		.thumb
 120              		.thumb_func
 121              		.type	otg_txfifo_handler.constprop.9, %function
 122              	otg_txfifo_handler.constprop.9:
 123              	.LFB360:
 124              		.loc 1 324 0
 125              		.cfi_startproc
 126              		@ args = 0, pretend = 0, frame = 0
 127              		@ frame_needed = 0, uses_anonymous_args = 0
 128              	.LVL9:
 129              	.LBB74:
 130              		.loc 1 331 0
 131 0000 204B     		ldr	r3, .L16
 132 0002 03EB8002 		add	r2, r3, r0, lsl #2
 133              	.LBE74:
 134              		.loc 1 324 0
 135 0006 2DE9F047 		push	{r4, r5, r6, r7, r8, r9, r10, lr}
 136              		.cfi_def_cfa_offset 32
 137              		.cfi_offset 4, -32
 138              		.cfi_offset 5, -28
 139              		.cfi_offset 6, -24
 140              		.cfi_offset 7, -20
 141              		.cfi_offset 8, -16
 142              		.cfi_offset 9, -12
 143              		.cfi_offset 10, -8
 144              		.cfi_offset 14, -4
 145              	.LBB77:
 146              		.loc 1 331 0
 147 000a D2F80CE0 		ldr	lr, [r2, #12]
 148              		.loc 1 345 0
 149 000e 5C6D     		ldr	r4, [r3, #84]
 150              		.loc 1 331 0
 151 0010 DEF81420 		ldr	r2, [lr, #20]
 152              		.loc 1 351 0
 153 0014 461C     		adds	r6, r0, #1
 154              		.loc 1 331 0
 155 0016 D2F800C0 		ldr	ip, [r2]
 156              		.loc 1 351 0
 157 001a 04EB0636 		add	r6, r4, r6, lsl #12
 158              		.loc 1 345 0
 159 001e 04EB4018 		add	r8, r4, r0, lsl #5
 160              	.L13:
 161              		.loc 1 331 0
 162 0022 5568     		ldr	r5, [r2, #4]
 163 0024 6545     		cmp	r5, ip
 164 0026 0BD3     		bcc	.L9
 165              		.loc 1 333 0
 166 0028 D4F83428 		ldr	r2, [r4, #2100]
 167 002c 0123     		movs	r3, #1
 168 002e 03FA00F0 		lsl	r0, r3, r0
 169              	.LVL10:
 170 0032 22EA0000 		bic	r0, r2, r0
 171 0036 C4F83408 		str	r0, [r4, #2100]
ARM GAS  /tmp/ccBouUBx.s 			page 4


 172              		.loc 1 335 0
 173 003a 1846     		mov	r0, r3
 174 003c BDE8F087 		pop	{r4, r5, r6, r7, r8, r9, r10, pc}
 175              	.LVL11:
 176              	.L9:
 177              		.loc 1 340 0
 178 0040 BEF81010 		ldrh	r1, [lr, #16]
 179              		.loc 1 339 0
 180 0044 C5EB0C03 		rsb	r3, r5, ip
 181 0048 8B42     		cmp	r3, r1
 182 004a 28BF     		it	cs
 183 004c 0B46     		movcs	r3, r1
 184              	.LVL12:
 185              		.loc 1 345 0
 186 004e D8F81819 		ldr	r1, [r8, #2328]
 187 0052 89B2     		uxth	r1, r1
 188 0054 B3EB810F 		cmp	r3, r1, lsl #2
 189 0058 10D8     		bhi	.L14
 190              		.loc 1 351 0
 191 005a 9168     		ldr	r1, [r2, #8]
 192              	.LVL13:
 193 005c 1F46     		mov	r7, r3
 194 005e A1F10409 		sub	r9, r1, #4
 195              	.LVL14:
 196              	.L12:
 197              	.LBB75:
 198              	.LBB76:
 199              		.loc 1 236 0
 200 0062 59F804AF 		ldr	r10, [r9, #4]!
 201              	.LVL15:
 202 0066 C6F800A0 		str	r10, [r6]
 203              		.loc 1 237 0
 204 006a 042F     		cmp	r7, #4
 205 006c 01D9     		bls	.L11
 206              		.loc 1 240 0
 207 006e 043F     		subs	r7, r7, #4
 208              	.LVL16:
 209 0070 F7E7     		b	.L12
 210              	.LVL17:
 211              	.L11:
 212              	.LBE76:
 213              	.LBE75:
 214              		.loc 1 354 0
 215 0072 1944     		add	r1, r1, r3
 216              		.loc 1 355 0
 217 0074 2B44     		add	r3, r3, r5
 218              	.LVL18:
 219              		.loc 1 354 0
 220 0076 9160     		str	r1, [r2, #8]
 221              		.loc 1 355 0
 222 0078 5360     		str	r3, [r2, #4]
 223 007a D2E7     		b	.L13
 224              	.LVL19:
 225              	.L14:
 226              		.loc 1 346 0
 227 007c 0020     		movs	r0, #0
 228              	.LVL20:
ARM GAS  /tmp/ccBouUBx.s 			page 5


 229              	.LBE77:
 230              		.loc 1 360 0
 231 007e BDE8F087 		pop	{r4, r5, r6, r7, r8, r9, r10, pc}
 232              	.L17:
 233 0082 00BF     		.align	2
 234              	.L16:
 235 0084 00000000 		.word	.LANCHOR0
 236              		.cfi_endproc
 237              	.LFE360:
 238              		.size	otg_txfifo_handler.constprop.9, .-otg_txfifo_handler.constprop.9
 239              		.section	.text.usb_lld_init,"ax",%progbits
 240              		.align	1
 241              		.global	usb_lld_init
 242              		.thumb
 243              		.thumb_func
 244              		.type	usb_lld_init, %function
 245              	usb_lld_init:
 246              	.LFB339:
 247              		.loc 1 709 0
 248              		.cfi_startproc
 249              		@ args = 0, pretend = 0, frame = 0
 250              		@ frame_needed = 0, uses_anonymous_args = 0
 251 0000 10B5     		push	{r4, lr}
 252              		.cfi_def_cfa_offset 8
 253              		.cfi_offset 4, -8
 254              		.cfi_offset 14, -4
 255              		.loc 1 713 0
 256 0002 054C     		ldr	r4, .L19
 257 0004 2046     		mov	r0, r4
 258 0006 FFF7FEFF 		bl	usbObjectInit
 259              	.LVL21:
 260              		.loc 1 714 0
 261 000a 4FF0A043 		mov	r3, #1342177280
 262 000e 6365     		str	r3, [r4, #84]
 263              		.loc 1 715 0
 264 0010 024B     		ldr	r3, .L19+4
 265 0012 A365     		str	r3, [r4, #88]
 266 0014 10BD     		pop	{r4, pc}
 267              	.L20:
 268 0016 00BF     		.align	2
 269              	.L19:
 270 0018 00000000 		.word	.LANCHOR0
 271 001c 00000000 		.word	.LANCHOR1
 272              		.cfi_endproc
 273              	.LFE339:
 274              		.size	usb_lld_init, .-usb_lld_init
 275              		.section	.text.usb_lld_start,"ax",%progbits
 276              		.align	1
 277              		.global	usb_lld_start
 278              		.thumb
 279              		.thumb_func
 280              		.type	usb_lld_start, %function
 281              	usb_lld_start:
 282              	.LFB340:
 283              		.loc 1 736 0
 284              		.cfi_startproc
 285              		@ args = 0, pretend = 0, frame = 0
ARM GAS  /tmp/ccBouUBx.s 			page 6


 286              		@ frame_needed = 0, uses_anonymous_args = 0
 287              	.LVL22:
 288              		.loc 1 739 0
 289 0000 0378     		ldrb	r3, [r0]	@ zero_extendqisi2
 290 0002 012B     		cmp	r3, #1
 291              		.loc 1 736 0
 292 0004 70B5     		push	{r4, r5, r6, lr}
 293              		.cfi_def_cfa_offset 16
 294              		.cfi_offset 4, -16
 295              		.cfi_offset 5, -12
 296              		.cfi_offset 6, -8
 297              		.cfi_offset 14, -4
 298              		.loc 1 736 0
 299 0006 0546     		mov	r5, r0
 300              		.loc 1 739 0
 301 0008 52D1     		bne	.L21
 302              		.loc 1 743 0
 303 000a 2A4B     		ldr	r3, .L33
 304              		.loc 1 737 0
 305 000c 446D     		ldr	r4, [r0, #84]
 306              		.loc 1 743 0
 307 000e 9842     		cmp	r0, r3
 308 0010 1BD1     		bne	.L23
 309              		.loc 1 745 0
 310 0012 294B     		ldr	r3, .L33+4
 311 0014 5A6B     		ldr	r2, [r3, #52]
 312 0016 42F08002 		orr	r2, r2, #128
 313 001a 5A63     		str	r2, [r3, #52]
 314              	.LVL23:
 315 001c 5A6D     		ldr	r2, [r3, #84]
 316 001e 42F08002 		orr	r2, r2, #128
 317 0022 5A65     		str	r2, [r3, #84]
 318 0024 5A6D     		ldr	r2, [r3, #84]
 319              		.loc 1 746 0
 320 0026 5A69     		ldr	r2, [r3, #20]
 321 0028 42F08002 		orr	r2, r2, #128
 322 002c 5A61     		str	r2, [r3, #20]
 323 002e 5A69     		ldr	r2, [r3, #20]
 324 0030 22F08002 		bic	r2, r2, #128
 325 0034 5A61     		str	r2, [r3, #20]
 326              		.loc 1 749 0
 327 0036 0E21     		movs	r1, #14
 328 0038 4320     		movs	r0, #67
 329              	.LVL24:
 330              		.loc 1 746 0
 331 003a 5B69     		ldr	r3, [r3, #20]
 332              		.loc 1 749 0
 333 003c FFF7FEFF 		bl	nvicEnableVector
 334              	.LVL25:
 335              		.loc 1 754 0
 336 0040 1E4B     		ldr	r3, .L33+8
 337 0042 E360     		str	r3, [r4, #12]
 338              		.loc 1 758 0
 339 0044 1E4B     		ldr	r3, .L33+12
 340 0046 C4F80038 		str	r3, [r4, #2048]
 341              	.L23:
 342              		.loc 1 808 0
ARM GAS  /tmp/ccBouUBx.s 			page 7


 343 004a 0023     		movs	r3, #0
 344 004c C4F8003E 		str	r3, [r4, #3584]
 345              		.loc 1 811 0
 346 0050 C023     		movs	r3, #192
 347 0052 2360     		str	r3, [r4]
 348 0054 6E6D     		ldr	r6, [r5, #84]
 349              	.LVL26:
 350              		.loc 1 826 0
 351 0056 4FF45023 		mov	r3, #851968
 352 005a A363     		str	r3, [r4, #56]
 353              	.L24:
 354              	.LBB84:
 355              	.LBB85:
 356              		.loc 1 138 0
 357 005c 3369     		ldr	r3, [r6, #16]
 358 005e 002B     		cmp	r3, #0
 359 0060 FCDA     		bge	.L24
 360              		.loc 1 142 0
 361 0062 0123     		movs	r3, #1
 362 0064 3361     		str	r3, [r6, #16]
 363              	.LVL27:
 364              	.LBB86:
 365              	.LBB87:
 366              		.loc 2 591 0
 367 0066 0C20     		movs	r0, #12
 368 0068 FFF7FEFF 		bl	chSysPolledDelayX
 369              	.LVL28:
 370              	.L25:
 371              	.LBE87:
 372              	.LBE86:
 373              		.loc 1 144 0
 374 006c 3369     		ldr	r3, [r6, #16]
 375 006e DB07     		lsls	r3, r3, #31
 376 0070 FCD4     		bmi	.L25
 377              	.LVL29:
 378              	.LBB88:
 379              	.LBB89:
 380              		.loc 2 591 0
 381 0072 1220     		movs	r0, #18
 382 0074 FFF7FEFF 		bl	chSysPolledDelayX
 383              	.LVL30:
 384              	.L26:
 385              	.LBE89:
 386              	.LBE88:
 387              		.loc 1 150 0
 388 0078 3369     		ldr	r3, [r6, #16]
 389 007a 002B     		cmp	r3, #0
 390 007c FCDA     		bge	.L26
 391              	.LVL31:
 392              	.LBE85:
 393              	.LBE84:
 394              		.loc 1 833 0
 395 007e 0026     		movs	r6, #0
 396 0080 A660     		str	r6, [r4, #8]
 397              		.loc 1 836 0
 398 0082 2846     		mov	r0, r5
 399 0084 FFF7FEFF 		bl	otg_disable_ep
ARM GAS  /tmp/ccBouUBx.s 			page 8


 400              	.LVL32:
 401              		.loc 1 843 0
 402 0088 6B68     		ldr	r3, [r5, #4]
 403              		.loc 1 840 0
 404 008a C4F81068 		str	r6, [r4, #2064]
 405              		.loc 1 843 0
 406 008e DB68     		ldr	r3, [r3, #12]
 407              		.loc 1 841 0
 408 0090 C4F81468 		str	r6, [r4, #2068]
 409              		.loc 1 842 0
 410 0094 C4F81C68 		str	r6, [r4, #2076]
 411              		.loc 1 843 0
 412 0098 0BB9     		cbnz	r3, .L27
 413              		.loc 1 844 0
 414 009a 0A4B     		ldr	r3, .L33+16
 415 009c 00E0     		b	.L32
 416              	.L27:
 417              		.loc 1 848 0
 418 009e 0A4B     		ldr	r3, .L33+20
 419              	.L32:
 420 00a0 A361     		str	r3, [r4, #24]
 421              		.loc 1 854 0
 422 00a2 4FF0FF33 		mov	r3, #-1
 423 00a6 6361     		str	r3, [r4, #20]
 424              		.loc 1 857 0
 425 00a8 A368     		ldr	r3, [r4, #8]
 426 00aa 43F00103 		orr	r3, r3, #1
 427 00ae A360     		str	r3, [r4, #8]
 428              	.LVL33:
 429              	.L21:
 430 00b0 70BD     		pop	{r4, r5, r6, pc}
 431              	.LVL34:
 432              	.L34:
 433 00b2 00BF     		.align	2
 434              	.L33:
 435 00b4 00000000 		.word	.LANCHOR0
 436 00b8 00380240 		.word	1073887232
 437 00bc 40140040 		.word	1073747008
 438 00c0 03002002 		.word	35651587
 439 00c4 003C30C0 		.word	-1070580736
 440 00c8 083C30C0 		.word	-1070580728
 441              		.cfi_endproc
 442              	.LFE340:
 443              		.size	usb_lld_start, .-usb_lld_start
 444              		.section	.text.usb_lld_stop,"ax",%progbits
 445              		.align	1
 446              		.global	usb_lld_stop
 447              		.thumb
 448              		.thumb_func
 449              		.type	usb_lld_stop, %function
 450              	usb_lld_stop:
 451              	.LFB341:
 452              		.loc 1 868 0
 453              		.cfi_startproc
 454              		@ args = 0, pretend = 0, frame = 0
 455              		@ frame_needed = 0, uses_anonymous_args = 0
 456              	.LVL35:
ARM GAS  /tmp/ccBouUBx.s 			page 9


 457 0000 38B5     		push	{r3, r4, r5, lr}
 458              		.cfi_def_cfa_offset 16
 459              		.cfi_offset 3, -16
 460              		.cfi_offset 4, -12
 461              		.cfi_offset 5, -8
 462              		.cfi_offset 14, -4
 463              		.loc 1 872 0
 464 0002 0378     		ldrb	r3, [r0]	@ zero_extendqisi2
 465 0004 012B     		cmp	r3, #1
 466              		.loc 1 868 0
 467 0006 0446     		mov	r4, r0
 468              		.loc 1 872 0
 469 0008 17D0     		beq	.L35
 470              		.loc 1 869 0
 471 000a 456D     		ldr	r5, [r0, #84]
 472              		.loc 1 876 0
 473 000c FFF7FEFF 		bl	otg_disable_ep
 474              	.LVL36:
 475              		.loc 1 878 0
 476 0010 0023     		movs	r3, #0
 477 0012 C5F81C38 		str	r3, [r5, #2076]
 478              		.loc 1 879 0
 479 0016 AB60     		str	r3, [r5, #8]
 480              		.loc 1 880 0
 481 0018 AB63     		str	r3, [r5, #56]
 482              		.loc 1 883 0
 483 001a 084B     		ldr	r3, .L39
 484 001c 9C42     		cmp	r4, r3
 485 001e 0CD1     		bne	.L35
 486              		.loc 1 884 0
 487 0020 4320     		movs	r0, #67
 488 0022 FFF7FEFF 		bl	nvicDisableVector
 489              	.LVL37:
 490              		.loc 1 885 0
 491 0026 064B     		ldr	r3, .L39+4
 492 0028 5A6B     		ldr	r2, [r3, #52]
 493 002a 22F08002 		bic	r2, r2, #128
 494 002e 5A63     		str	r2, [r3, #52]
 495 0030 5A6D     		ldr	r2, [r3, #84]
 496 0032 22F08002 		bic	r2, r2, #128
 497 0036 5A65     		str	r2, [r3, #84]
 498 0038 5B6D     		ldr	r3, [r3, #84]
 499              	.L35:
 500 003a 38BD     		pop	{r3, r4, r5, pc}
 501              	.LVL38:
 502              	.L40:
 503              		.align	2
 504              	.L39:
 505 003c 00000000 		.word	.LANCHOR0
 506 0040 00380240 		.word	1073887232
 507              		.cfi_endproc
 508              	.LFE341:
 509              		.size	usb_lld_stop, .-usb_lld_stop
 510              		.section	.text.usb_lld_reset,"ax",%progbits
 511              		.align	1
 512              		.global	usb_lld_reset
 513              		.thumb
ARM GAS  /tmp/ccBouUBx.s 			page 10


 514              		.thumb_func
 515              		.type	usb_lld_reset, %function
 516              	usb_lld_reset:
 517              	.LFB342:
 518              		.loc 1 908 0
 519              		.cfi_startproc
 520              		@ args = 0, pretend = 0, frame = 0
 521              		@ frame_needed = 0, uses_anonymous_args = 0
 522              	.LVL39:
 523 0000 F8B5     		push	{r3, r4, r5, r6, r7, lr}
 524              		.cfi_def_cfa_offset 24
 525              		.cfi_offset 3, -24
 526              		.cfi_offset 4, -20
 527              		.cfi_offset 5, -16
 528              		.cfi_offset 6, -12
 529              		.cfi_offset 7, -8
 530              		.cfi_offset 14, -4
 531              		.loc 1 910 0
 532 0002 446D     		ldr	r4, [r0, #84]
 533              	.LVL40:
 534              		.loc 1 908 0
 535 0004 0546     		mov	r5, r0
 536              		.loc 1 913 0
 537 0006 0021     		movs	r1, #0
 538 0008 2046     		mov	r0, r4
 539              	.LVL41:
 540 000a FFF7FEFF 		bl	otg_txfifo_flush.isra.1
 541              	.LVL42:
 542              		.loc 1 920 0
 543 000e A96D     		ldr	r1, [r5, #88]
 544              		.loc 1 916 0
 545 0010 0023     		movs	r3, #0
 546              		.loc 1 917 0
 547 0012 4FF00112 		mov	r2, #65537
 548              		.loc 1 920 0
 549 0016 8F68     		ldr	r7, [r1, #8]
 550              		.loc 1 916 0
 551 0018 C4F83438 		str	r3, [r4, #2100]
 552              		.loc 1 921 0
 553 001c 4FF00066 		mov	r6, #134217728
 554              		.loc 1 917 0
 555 0020 C4F81C28 		str	r2, [r4, #2076]
 556              	.LVL43:
 557              		.loc 1 923 0
 558 0024 4FF0FF30 		mov	r0, #-1
 559              	.LVL44:
 560              	.L42:
 561 0028 04EB4312 		add	r2, r4, r3, lsl #5
 562              		.loc 1 920 0 discriminator 3
 563 002c 0133     		adds	r3, r3, #1
 564              	.LVL45:
 565 002e 9F42     		cmp	r7, r3
 566              		.loc 1 921 0 discriminator 3
 567 0030 C2F80069 		str	r6, [r2, #2304]
 568              		.loc 1 922 0 discriminator 3
 569 0034 C2F8006B 		str	r6, [r2, #2816]
 570              		.loc 1 923 0 discriminator 3
ARM GAS  /tmp/ccBouUBx.s 			page 11


 571 0038 C2F80809 		str	r0, [r2, #2312]
 572              		.loc 1 924 0 discriminator 3
 573 003c C2F8080B 		str	r0, [r2, #2824]
 574              		.loc 1 920 0 discriminator 3
 575 0040 F2D2     		bcs	.L42
 576              	.LVL46:
 577              	.LBB98:
 578              	.LBB99:
 579              		.loc 1 199 0
 580 0042 0B68     		ldr	r3, [r1]
 581              	.LVL47:
 582 0044 6A6D     		ldr	r2, [r5, #84]
 583 0046 EB65     		str	r3, [r5, #92]
 584              	.LVL48:
 585              	.LBE99:
 586              	.LBE98:
 587              		.loc 1 931 0
 588 0048 6362     		str	r3, [r4, #36]
 589              	.LBB100:
 590              	.LBB101:
 591              		.loc 1 173 0
 592 004a 1023     		movs	r3, #16
 593 004c 1361     		str	r3, [r2, #16]
 594              	.L43:
 595              		.loc 1 174 0
 596 004e 1369     		ldr	r3, [r2, #16]
 597 0050 13F01006 		ands	r6, r3, #16
 598 0054 FBD1     		bne	.L43
 599              	.LVL49:
 600              	.LBB102:
 601              	.LBB103:
 602              		.loc 2 591 0
 603 0056 1220     		movs	r0, #18
 604 0058 FFF7FEFF 		bl	chSysPolledDelayX
 605              	.LVL50:
 606              	.LBE103:
 607              	.LBE102:
 608              	.LBE101:
 609              	.LBE100:
 610              		.loc 1 935 0
 611 005c D4F80038 		ldr	r3, [r4, #2048]
 612 0060 23F4FE63 		bic	r3, r3, #2032
 613 0064 C4F80038 		str	r3, [r4, #2048]
 614              		.loc 1 938 0
 615 0068 A369     		ldr	r3, [r4, #24]
 616 006a 43F44023 		orr	r3, r3, #786432
 617 006e 43F01003 		orr	r3, r3, #16
 618 0072 A361     		str	r3, [r4, #24]
 619              		.loc 1 939 0
 620 0074 0923     		movs	r3, #9
 621 0076 C4F81038 		str	r3, [r4, #2064]
 622              		.loc 1 940 0
 623 007a C4F81438 		str	r3, [r4, #2068]
 624              		.loc 1 943 0
 625 007e 0A4B     		ldr	r3, .L46
 626 0080 EB60     		str	r3, [r5, #12]
 627              		.loc 1 944 0
ARM GAS  /tmp/ccBouUBx.s 			page 12


 628 0082 4FF0C043 		mov	r3, #1610612736
 629 0086 C4F8103B 		str	r3, [r4, #2832]
 630              		.loc 1 945 0
 631 008a 084B     		ldr	r3, .L46+4
 632 008c C4F8003B 		str	r3, [r4, #2816]
 633              		.loc 1 947 0
 634 0090 C4F81069 		str	r6, [r4, #2320]
 635              		.loc 1 948 0
 636 0094 C4F80039 		str	r3, [r4, #2304]
 637              	.LVL51:
 638              	.LBB104:
 639              	.LBB105:
 640              		.loc 1 213 0
 641 0098 EB6D     		ldr	r3, [r5, #92]
 642              	.LVL52:
 643              		.loc 1 214 0
 644 009a 03F11002 		add	r2, r3, #16
 645              	.LBE105:
 646              	.LBE104:
 647              		.loc 1 950 0
 648 009e 43F48013 		orr	r3, r3, #1048576
 649              	.LVL53:
 650              	.LBB107:
 651              	.LBB106:
 652              		.loc 1 214 0
 653 00a2 EA65     		str	r2, [r5, #92]
 654              	.LVL54:
 655              	.LBE106:
 656              	.LBE107:
 657              		.loc 1 950 0
 658 00a4 A362     		str	r3, [r4, #40]
 659 00a6 F8BD     		pop	{r3, r4, r5, r6, r7, pc}
 660              	.LVL55:
 661              	.L47:
 662              		.align	2
 663              	.L46:
 664 00a8 00000000 		.word	.LANCHOR2
 665 00ac 40800010 		.word	268468288
 666              		.cfi_endproc
 667              	.LFE342:
 668              		.size	usb_lld_reset, .-usb_lld_reset
 669              		.section	.text.usb_lld_set_address,"ax",%progbits
 670              		.align	1
 671              		.global	usb_lld_set_address
 672              		.thumb
 673              		.thumb_func
 674              		.type	usb_lld_set_address, %function
 675              	usb_lld_set_address:
 676              	.LFB343:
 677              		.loc 1 962 0
 678              		.cfi_startproc
 679              		@ args = 0, pretend = 0, frame = 0
 680              		@ frame_needed = 0, uses_anonymous_args = 0
 681              		@ link register save eliminated.
 682              	.LVL56:
 683              		.loc 1 963 0
 684 0000 426D     		ldr	r2, [r0, #84]
ARM GAS  /tmp/ccBouUBx.s 			page 13


 685              	.LVL57:
 686              		.loc 1 965 0
 687 0002 90F84E10 		ldrb	r1, [r0, #78]	@ zero_extendqisi2
 688 0006 D2F80038 		ldr	r3, [r2, #2048]
 689 000a 23F4FE63 		bic	r3, r3, #2032
 690 000e 43EA0113 		orr	r3, r3, r1, lsl #4
 691 0012 C2F80038 		str	r3, [r2, #2048]
 692 0016 7047     		bx	lr
 693              		.cfi_endproc
 694              	.LFE343:
 695              		.size	usb_lld_set_address, .-usb_lld_set_address
 696              		.section	.text.usb_lld_init_endpoint,"ax",%progbits
 697              		.align	1
 698              		.global	usb_lld_init_endpoint
 699              		.thumb
 700              		.thumb_func
 701              		.type	usb_lld_init_endpoint, %function
 702              	usb_lld_init_endpoint:
 703              	.LFB344:
 704              		.loc 1 976 0
 705              		.cfi_startproc
 706              		@ args = 0, pretend = 0, frame = 0
 707              		@ frame_needed = 0, uses_anonymous_args = 0
 708              	.LVL58:
 709 0000 2DE9F041 		push	{r4, r5, r6, r7, r8, lr}
 710              		.cfi_def_cfa_offset 24
 711              		.cfi_offset 4, -24
 712              		.cfi_offset 5, -20
 713              		.cfi_offset 6, -16
 714              		.cfi_offset 7, -12
 715              		.cfi_offset 8, -8
 716              		.cfi_offset 14, -4
 717 0004 0FB2     		sxth	r7, r1
 718 0006 00EB8708 		add	r8, r0, r7, lsl #2
 719              		.loc 1 976 0
 720 000a 0D46     		mov	r5, r1
 721              		.loc 1 981 0
 722 000c D8F80C10 		ldr	r1, [r8, #12]
 723              	.LVL59:
 724 0010 0E68     		ldr	r6, [r1]
 725 0012 06F00303 		and	r3, r6, #3
 726 0016 022B     		cmp	r3, #2
 727 0018 07D0     		beq	.L51
 728 001a 032B     		cmp	r3, #3
 729 001c 07D0     		beq	.L52
 730              		.loc 1 983 0
 731 001e 3F4A     		ldr	r2, .L62
 732 0020 3F4E     		ldr	r6, .L62+4
 733 0022 012B     		cmp	r3, #1
 734 0024 18BF     		it	ne
 735 0026 1646     		movne	r6, r2
 736 0028 02E0     		b	.L53
 737              	.L51:
 738              	.LVL60:
 739              		.loc 1 989 0
 740 002a 3E4E     		ldr	r6, .L62+8
 741              		.loc 1 990 0
ARM GAS  /tmp/ccBouUBx.s 			page 14


 742 002c 00E0     		b	.L53
 743              	.LVL61:
 744              	.L52:
 745              		.loc 1 992 0
 746 002e 3E4E     		ldr	r6, .L62+12
 747              	.LVL62:
 748              	.L53:
 749              		.loc 1 978 0
 750 0030 446D     		ldr	r4, [r0, #84]
 751              	.LVL63:
 752              		.loc 1 999 0
 753 0032 6A01     		lsls	r2, r5, #5
 754 0034 A318     		adds	r3, r4, r2
 755 0036 4FF0000E 		mov	lr, #0
 756 003a C3F810EB 		str	lr, [r3, #2832]
 757              	.LVL64:
 758              		.loc 1 1000 0
 759 003e 8B69     		ldr	r3, [r1, #24]
 760 0040 05F1100C 		add	ip, r5, #16
 761 0044 8BB1     		cbz	r3, .L54
 762              		.loc 1 1001 0
 763 0046 B1F812E0 		ldrh	lr, [r1, #18]
 764 004a 05F15803 		add	r3, r5, #88
 765 004e 5B01     		lsls	r3, r3, #5
 766 0050 4EEA060E 		orr	lr, lr, r6
 767 0054 44F803E0 		str	lr, [r4, r3]
 768              		.loc 1 1002 0
 769 0058 4FF0010E 		mov	lr, #1
 770 005c D4F81C38 		ldr	r3, [r4, #2076]
 771 0060 0EFA0CFE 		lsl	lr, lr, ip
 772 0064 4EEA0303 		orr	r3, lr, r3
 773 0068 0FE0     		b	.L60
 774              	.L54:
 775 006a 04EB471E 		add	lr, r4, r7, lsl #5
 776              		.loc 1 1005 0
 777 006e DEF8003B 		ldr	r3, [lr, #2816]
 778 0072 23F40043 		bic	r3, r3, #32768
 779 0076 CEF8003B 		str	r3, [lr, #2816]
 780              		.loc 1 1006 0
 781 007a D4F81C38 		ldr	r3, [r4, #2076]
 782 007e 4FF0010E 		mov	lr, #1
 783 0082 0EFA0CFE 		lsl	lr, lr, ip
 784 0086 23EA0E03 		bic	r3, r3, lr
 785              	.L60:
 786              		.loc 1 1010 0
 787 008a 2244     		add	r2, r2, r4
 788              		.loc 1 1006 0
 789 008c C4F81C38 		str	r3, [r4, #2076]
 790              		.loc 1 1010 0
 791 0090 0023     		movs	r3, #0
 792 0092 C2F81039 		str	r3, [r2, #2320]
 793              		.loc 1 1011 0
 794 0096 4B69     		ldr	r3, [r1, #20]
 795 0098 05F13F02 		add	r2, r5, #63
 796 009c 13B3     		cbz	r3, .L56
 797              		.loc 1 1013 0
 798 009e 0B8A     		ldrh	r3, [r1, #16]
ARM GAS  /tmp/ccBouUBx.s 			page 15


 799              		.loc 1 1014 0
 800 00a0 898B     		ldrh	r1, [r1, #28]
 801              		.loc 1 1013 0
 802 00a2 9B08     		lsrs	r3, r3, #2
 803              	.LVL65:
 804              		.loc 1 1014 0
 805 00a4 0129     		cmp	r1, #1
 806              		.loc 1 1015 0
 807 00a6 88BF     		it	hi
 808 00a8 4B43     		mulhi	r3, r1, r3
 809              	.LVL66:
 810              	.LBB108:
 811              	.LBB109:
 812              		.loc 1 213 0
 813 00aa C16D     		ldr	r1, [r0, #92]
 814              	.LVL67:
 815              	.LBE109:
 816              	.LBE108:
 817              		.loc 1 1016 0
 818 00ac 04EB8202 		add	r2, r4, r2, lsl #2
 819              	.LBB112:
 820              	.LBB110:
 821              		.loc 1 214 0
 822 00b0 5F18     		adds	r7, r3, r1
 823              	.LBE110:
 824              	.LBE112:
 825              		.loc 1 1016 0
 826 00b2 41EA0343 		orr	r3, r1, r3, lsl #16
 827              	.LVL68:
 828              	.LBB113:
 829              	.LBB111:
 830              		.loc 1 214 0
 831 00b6 C765     		str	r7, [r0, #92]
 832              	.LVL69:
 833              	.LBE111:
 834              	.LBE113:
 835              		.loc 1 1018 0
 836 00b8 2946     		mov	r1, r5
 837              		.loc 1 1016 0
 838 00ba 5360     		str	r3, [r2, #4]
 839              		.loc 1 1018 0
 840 00bc 2046     		mov	r0, r4
 841              	.LVL70:
 842 00be FFF7FEFF 		bl	otg_txfifo_flush.isra.1
 843              	.LVL71:
 844              		.loc 1 1022 0
 845 00c2 D8F80C30 		ldr	r3, [r8, #12]
 846              		.loc 1 1021 0
 847 00c6 1B8A     		ldrh	r3, [r3, #16]
 848 00c8 43EA8553 		orr	r3, r3, r5, lsl #22
 849 00cc 1E43     		orrs	r6, r6, r3
 850              	.LVL72:
 851              		.loc 1 1020 0
 852 00ce 05F14803 		add	r3, r5, #72
 853 00d2 5B01     		lsls	r3, r3, #5
 854              		.loc 1 1023 0
 855 00d4 0122     		movs	r2, #1
ARM GAS  /tmp/ccBouUBx.s 			page 16


 856              		.loc 1 1020 0
 857 00d6 E650     		str	r6, [r4, r3]
 858              		.loc 1 1023 0
 859 00d8 D4F81C38 		ldr	r3, [r4, #2076]
 860 00dc 02FA05F5 		lsl	r5, r2, r5
 861 00e0 1D43     		orrs	r5, r5, r3
 862 00e2 16E0     		b	.L61
 863              	.LVL73:
 864              	.L56:
 865              		.loc 1 1026 0
 866 00e4 04EB8202 		add	r2, r4, r2, lsl #2
 867 00e8 104B     		ldr	r3, .L62+16
 868 00ea 5360     		str	r3, [r2, #4]
 869              		.loc 1 1027 0
 870 00ec 2946     		mov	r1, r5
 871 00ee 2046     		mov	r0, r4
 872              	.LVL74:
 873 00f0 FFF7FEFF 		bl	otg_txfifo_flush.isra.1
 874              	.LVL75:
 875 00f4 04EB4713 		add	r3, r4, r7, lsl #5
 876              		.loc 1 1028 0
 877 00f8 D3F80029 		ldr	r2, [r3, #2304]
 878 00fc 22F40042 		bic	r2, r2, #32768
 879 0100 C3F80029 		str	r2, [r3, #2304]
 880              		.loc 1 1029 0
 881 0104 D4F81C38 		ldr	r3, [r4, #2076]
 882 0108 0122     		movs	r2, #1
 883 010a 02FA05F5 		lsl	r5, r2, r5
 884 010e 23EA0505 		bic	r5, r3, r5
 885              	.LVL76:
 886              	.L61:
 887 0112 C4F81C58 		str	r5, [r4, #2076]
 888 0116 BDE8F081 		pop	{r4, r5, r6, r7, r8, pc}
 889              	.L63:
 890 011a 00BF     		.align	2
 891              	.L62:
 892 011c 00800010 		.word	268468224
 893 0120 00800410 		.word	268730368
 894 0124 00800810 		.word	268992512
 895 0128 00800C10 		.word	269254656
 896 012c 00040002 		.word	33555456
 897              		.cfi_endproc
 898              	.LFE344:
 899              		.size	usb_lld_init_endpoint, .-usb_lld_init_endpoint
 900              		.section	.text.usb_lld_disable_endpoints,"ax",%progbits
 901              		.align	1
 902              		.global	usb_lld_disable_endpoints
 903              		.thumb
 904              		.thumb_func
 905              		.type	usb_lld_disable_endpoints, %function
 906              	usb_lld_disable_endpoints:
 907              	.LFB345:
 908              		.loc 1 1040 0
 909              		.cfi_startproc
 910              		@ args = 0, pretend = 0, frame = 0
 911              		@ frame_needed = 0, uses_anonymous_args = 0
 912              		@ link register save eliminated.
ARM GAS  /tmp/ccBouUBx.s 			page 17


 913              	.LVL77:
 914              	.LBB114:
 915              	.LBB115:
 916              		.loc 1 199 0
 917 0000 826D     		ldr	r2, [r0, #88]
 918 0002 1268     		ldr	r2, [r2]
 919 0004 C265     		str	r2, [r0, #92]
 920              	.LVL78:
 921              	.LBE115:
 922              	.LBE114:
 923              		.loc 1 1046 0
 924 0006 FFF7FEBF 		b	otg_disable_ep
 925              	.LVL79:
 926              		.cfi_endproc
 927              	.LFE345:
 928              		.size	usb_lld_disable_endpoints, .-usb_lld_disable_endpoints
 929              		.section	.text.usb_lld_get_status_out,"ax",%progbits
 930              		.align	1
 931              		.global	usb_lld_get_status_out
 932              		.thumb
 933              		.thumb_func
 934              		.type	usb_lld_get_status_out, %function
 935              	usb_lld_get_status_out:
 936              	.LFB346:
 937              		.loc 1 1061 0
 938              		.cfi_startproc
 939              		@ args = 0, pretend = 0, frame = 0
 940              		@ frame_needed = 0, uses_anonymous_args = 0
 941              		@ link register save eliminated.
 942              	.LVL80:
 943              		.loc 1 1066 0
 944 0000 5831     		adds	r1, r1, #88
 945              	.LVL81:
 946 0002 436D     		ldr	r3, [r0, #84]
 947 0004 4901     		lsls	r1, r1, #5
 948 0006 5B58     		ldr	r3, [r3, r1]
 949              	.LVL82:
 950              		.loc 1 1067 0
 951 0008 13F40040 		ands	r0, r3, #32768
 952              	.LVL83:
 953 000c 04D0     		beq	.L66
 954              		.loc 1 1069 0
 955 000e 13F4001F 		tst	r3, #2097152
 956              		.loc 1 1071 0
 957 0012 14BF     		ite	ne
 958 0014 0120     		movne	r0, #1
 959 0016 0220     		moveq	r0, #2
 960              	.L66:
 961              		.loc 1 1072 0
 962 0018 7047     		bx	lr
 963              		.cfi_endproc
 964              	.LFE346:
 965              		.size	usb_lld_get_status_out, .-usb_lld_get_status_out
 966              		.section	.text.usb_lld_get_status_in,"ax",%progbits
 967              		.align	1
 968              		.global	usb_lld_get_status_in
 969              		.thumb
ARM GAS  /tmp/ccBouUBx.s 			page 18


 970              		.thumb_func
 971              		.type	usb_lld_get_status_in, %function
 972              	usb_lld_get_status_in:
 973              	.LFB347:
 974              		.loc 1 1086 0
 975              		.cfi_startproc
 976              		@ args = 0, pretend = 0, frame = 0
 977              		@ frame_needed = 0, uses_anonymous_args = 0
 978              		@ link register save eliminated.
 979              	.LVL84:
 980              		.loc 1 1091 0
 981 0000 4831     		adds	r1, r1, #72
 982              	.LVL85:
 983 0002 436D     		ldr	r3, [r0, #84]
 984 0004 4901     		lsls	r1, r1, #5
 985 0006 5B58     		ldr	r3, [r3, r1]
 986              	.LVL86:
 987              		.loc 1 1092 0
 988 0008 13F40040 		ands	r0, r3, #32768
 989              	.LVL87:
 990 000c 04D0     		beq	.L70
 991              		.loc 1 1094 0
 992 000e 13F4001F 		tst	r3, #2097152
 993              		.loc 1 1096 0
 994 0012 14BF     		ite	ne
 995 0014 0120     		movne	r0, #1
 996 0016 0220     		moveq	r0, #2
 997              	.L70:
 998              		.loc 1 1097 0
 999 0018 7047     		bx	lr
 1000              		.cfi_endproc
 1001              	.LFE347:
 1002              		.size	usb_lld_get_status_in, .-usb_lld_get_status_in
 1003              		.section	.text.usb_lld_read_setup,"ax",%progbits
 1004              		.align	1
 1005              		.global	usb_lld_read_setup
 1006              		.thumb
 1007              		.thumb_func
 1008              		.type	usb_lld_read_setup, %function
 1009              	usb_lld_read_setup:
 1010              	.LFB348:
 1011              		.loc 1 1113 0
 1012              		.cfi_startproc
 1013              		@ args = 0, pretend = 0, frame = 0
 1014              		@ frame_needed = 0, uses_anonymous_args = 0
 1015              		@ link register save eliminated.
 1016              	.LVL88:
 1017              		.loc 1 1115 0
 1018 0000 00EB8101 		add	r1, r0, r1, lsl #2
 1019              	.LVL89:
 1020 0004 CB68     		ldr	r3, [r1, #12]
 1021 0006 196A     		ldr	r1, [r3, #32]
 1022 0008 0B68     		ldr	r3, [r1]	@ unaligned
 1023 000a 1360     		str	r3, [r2]	@ unaligned
 1024 000c 4B68     		ldr	r3, [r1, #4]	@ unaligned
 1025 000e 5360     		str	r3, [r2, #4]	@ unaligned
 1026 0010 7047     		bx	lr
ARM GAS  /tmp/ccBouUBx.s 			page 19


 1027              		.cfi_endproc
 1028              	.LFE348:
 1029              		.size	usb_lld_read_setup, .-usb_lld_read_setup
 1030              		.section	.text.usb_lld_start_out,"ax",%progbits
 1031              		.align	1
 1032              		.global	usb_lld_start_out
 1033              		.thumb
 1034              		.thumb_func
 1035              		.type	usb_lld_start_out, %function
 1036              	usb_lld_start_out:
 1037              	.LFB349:
 1038              		.loc 1 1126 0
 1039              		.cfi_startproc
 1040              		@ args = 0, pretend = 0, frame = 0
 1041              		@ frame_needed = 0, uses_anonymous_args = 0
 1042              	.LVL90:
 1043              		.loc 1 1128 0
 1044 0000 00EB8103 		add	r3, r0, r1, lsl #2
 1045              		.loc 1 1126 0
 1046 0004 30B5     		push	{r4, r5, lr}
 1047              		.cfi_def_cfa_offset 12
 1048              		.cfi_offset 4, -12
 1049              		.cfi_offset 5, -8
 1050              		.cfi_offset 14, -4
 1051              		.loc 1 1128 0
 1052 0006 DD68     		ldr	r5, [r3, #12]
 1053 0008 AA69     		ldr	r2, [r5, #24]
 1054              	.LVL91:
 1055              		.loc 1 1131 0
 1056 000a 1368     		ldr	r3, [r2]
 1057 000c D360     		str	r3, [r2, #12]
 1058              		.loc 1 1132 0
 1059 000e 19B9     		cbnz	r1, .L75
 1060              		.loc 1 1132 0 is_stmt 0 discriminator 1
 1061 0010 402B     		cmp	r3, #64
 1062              		.loc 1 1133 0 is_stmt 1 discriminator 1
 1063 0012 84BF     		itt	hi
 1064 0014 4023     		movhi	r3, #64
 1065 0016 1360     		strhi	r3, [r2]
 1066              	.L75:
 1067              		.loc 1 1140 0
 1068 0018 1468     		ldr	r4, [r2]
 1069 001a 6B8A     		ldrh	r3, [r5, #18]
 1070              		.loc 1 1145 0
 1071 001c 426D     		ldr	r2, [r0, #84]
 1072              	.LVL92:
 1073              		.loc 1 1140 0
 1074 001e 013C     		subs	r4, r4, #1
 1075 0020 1C44     		add	r4, r4, r3
 1076 0022 B4FBF3F4 		udiv	r4, r4, r3
 1077              	.LVL93:
 1078              		.loc 1 1145 0
 1079 0026 6343     		muls	r3, r4, r3
 1080              	.LVL94:
 1081 0028 0333     		adds	r3, r3, #3
 1082 002a 23F00303 		bic	r3, r3, #3
 1083              	.LVL95:
ARM GAS  /tmp/ccBouUBx.s 			page 20


 1084 002e 02EB4110 		add	r0, r2, r1, lsl #5
 1085              	.LVL96:
 1086 0032 43EAC443 		orr	r3, r3, r4, lsl #19
 1087              	.LVL97:
 1088 0036 43F0C043 		orr	r3, r3, #1610612736
 1089 003a C0F8103B 		str	r3, [r0, #2832]
 1090              		.loc 1 1149 0
 1091 003e 2B68     		ldr	r3, [r5]
 1092 0040 03F00303 		and	r3, r3, #3
 1093 0044 012B     		cmp	r3, #1
 1094 0046 09B2     		sxth	r1, r1
 1095              	.LVL98:
 1096 0048 0ED1     		bne	.L76
 1097              		.loc 1 1151 0
 1098 004a D2F80838 		ldr	r3, [r2, #2056]
 1099 004e 02EB4110 		add	r0, r2, r1, lsl #5
 1100 0052 13F4807F 		tst	r3, #256
 1101              		.loc 1 1152 0
 1102 0056 D0F8003B 		ldr	r3, [r0, #2816]
 1103 005a 14BF     		ite	ne
 1104 005c 43F08053 		orrne	r3, r3, #268435456
 1105              		.loc 1 1154 0
 1106 0060 43F00053 		orreq	r3, r3, #536870912
 1107 0064 C0F8003B 		str	r3, [r0, #2816]
 1108              	.L76:
 1109 0068 02EB4112 		add	r2, r2, r1, lsl #5
 1110              		.loc 1 1158 0
 1111 006c D2F8003B 		ldr	r3, [r2, #2816]
 1112 0070 43F00443 		orr	r3, r3, #-2080374784
 1113 0074 C2F8003B 		str	r3, [r2, #2816]
 1114 0078 30BD     		pop	{r4, r5, pc}
 1115              		.cfi_endproc
 1116              	.LFE349:
 1117              		.size	usb_lld_start_out, .-usb_lld_start_out
 1118              		.section	.text.otg_epout_handler.constprop.7,"ax",%progbits
 1119              		.align	1
 1120              		.thumb
 1121              		.thumb_func
 1122              		.type	otg_epout_handler.constprop.7, %function
 1123              	otg_epout_handler.constprop.7:
 1124              	.LFB362:
 1125              		.loc 1 413 0
 1126              		.cfi_startproc
 1127              		@ args = 0, pretend = 0, frame = 0
 1128              		@ frame_needed = 0, uses_anonymous_args = 0
 1129              	.LVL99:
 1130 0000 2DE9F041 		push	{r4, r5, r6, r7, r8, lr}
 1131              		.cfi_def_cfa_offset 24
 1132              		.cfi_offset 4, -24
 1133              		.cfi_offset 5, -20
 1134              		.cfi_offset 6, -16
 1135              		.cfi_offset 7, -12
 1136              		.cfi_offset 8, -8
 1137              		.cfi_offset 14, -4
 1138              		.loc 1 414 0
 1139 0004 264D     		ldr	r5, .L97
 1140 0006 6E6D     		ldr	r6, [r5, #84]
ARM GAS  /tmp/ccBouUBx.s 			page 21


 1141              	.LVL100:
 1142              		.loc 1 415 0
 1143 0008 06EB4013 		add	r3, r6, r0, lsl #5
 1144              		.loc 1 413 0
 1145 000c 0446     		mov	r4, r0
 1146              		.loc 1 415 0
 1147 000e D3F8087B 		ldr	r7, [r3, #2824]
 1148              	.LVL101:
 1149              		.loc 1 418 0
 1150 0012 C3F8087B 		str	r7, [r3, #2824]
 1151              		.loc 1 420 0
 1152 0016 3807     		lsls	r0, r7, #28
 1153              	.LVL102:
 1154 0018 0AD5     		bpl	.L80
 1155 001a D6F81438 		ldr	r3, [r6, #2068]
 1156 001e 1907     		lsls	r1, r3, #28
 1157 0020 06D5     		bpl	.L80
 1158              		.loc 1 423 0
 1159 0022 05EB8403 		add	r3, r5, r4, lsl #2
 1160 0026 2146     		mov	r1, r4
 1161 0028 DB68     		ldr	r3, [r3, #12]
 1162 002a 2846     		mov	r0, r5
 1163 002c 5B68     		ldr	r3, [r3, #4]
 1164 002e 9847     		blx	r3
 1165              	.LVL103:
 1166              	.L80:
 1167              		.loc 1 426 0
 1168 0030 FA07     		lsls	r2, r7, #31
 1169 0032 33D5     		bpl	.L79
 1170 0034 D6F81438 		ldr	r3, [r6, #2068]
 1171 0038 DB07     		lsls	r3, r3, #31
 1172 003a 2FD5     		bpl	.L79
 1173              	.LBB133:
 1174              		.loc 1 430 0
 1175 003c 05EB8403 		add	r3, r5, r4, lsl #2
 1176 0040 D968     		ldr	r1, [r3, #12]
 1177              	.LVL104:
 1178              		.loc 1 433 0
 1179 0042 ECB9     		cbnz	r4, .L84
 1180              		.loc 1 430 0
 1181 0044 8B69     		ldr	r3, [r1, #24]
 1182              		.loc 1 447 0
 1183 0046 4A8A     		ldrh	r2, [r1, #18]
 1184 0048 5E68     		ldr	r6, [r3, #4]
 1185              	.LVL105:
 1186 004a B6FBF2F0 		udiv	r0, r6, r2
 1187 004e 02FB1062 		mls	r2, r2, r0, r6
 1188 0052 AAB9     		cbnz	r2, .L84
 1189              		.loc 1 448 0
 1190 0054 1868     		ldr	r0, [r3]
 1191 0056 DA68     		ldr	r2, [r3, #12]
 1192              		.loc 1 447 0
 1193 0058 9042     		cmp	r0, r2
 1194 005a 11D2     		bcs	.L84
 1195              		.loc 1 449 0
 1196 005c 121A     		subs	r2, r2, r0
 1197              		.loc 1 450 0
ARM GAS  /tmp/ccBouUBx.s 			page 22


 1198 005e 83E81400 		stmia	r3, {r2, r4}
 1199              	.LVL106:
 1200              	.LBB134:
 1201              	.LBB135:
 1202              	.LBB136:
 1203              	.LBB137:
 1204              	.LBB138:
 1205              	.LBB139:
 1206              	.LBB140:
 1207              		.file 3 "../../modules/ChibiOS/os/common/ext/ARM/CMSIS/Core/Include/cmsis_gcc.h"
 1208              		.loc 3 493 0
 1209 0062 2023     		movs	r3, #32
 1210              	.LVL107:
 1211              		.syntax unified
 1212              	@ 493 "../../modules/ChibiOS/os/common/ext/ARM/CMSIS/Core/Include/cmsis_gcc.h" 1
 1213 0064 83F31188 		MSR basepri, r3
 1214              	@ 0 "" 2
 1215              	.LVL108:
 1216              		.thumb
 1217              		.syntax unified
 1218              	.LBE140:
 1219              	.LBE139:
 1220              	.LBE138:
 1221              	.LBE137:
 1222              		.file 4 "../../modules/ChibiOS/os/rt/include/chsys.h"
 1223              		.loc 4 396 0
 1224 0068 FFF7FEFF 		bl	_stats_start_measure_crit_isr
 1225              	.LVL109:
 1226              	.LBE136:
 1227              	.LBE135:
 1228              	.LBE134:
 1229              		.loc 1 452 0
 1230 006c 2146     		mov	r1, r4
 1231 006e 0C48     		ldr	r0, .L97
 1232 0070 FFF7FEFF 		bl	usb_lld_start_out
 1233              	.LVL110:
 1234              	.LBB141:
 1235              	.LBB142:
 1236              	.LBB143:
 1237              		.loc 4 416 0
 1238 0074 FFF7FEFF 		bl	_stats_stop_measure_crit_isr
 1239              	.LVL111:
 1240              	.LBB144:
 1241              	.LBB145:
 1242              	.LBB146:
 1243              	.LBB147:
 1244              		.loc 3 493 0
 1245              		.syntax unified
 1246              	@ 493 "../../modules/ChibiOS/os/common/ext/ARM/CMSIS/Core/Include/cmsis_gcc.h" 1
 1247 0078 84F31188 		MSR basepri, r4
 1248              	@ 0 "" 2
 1249              	.LVL112:
 1250              		.thumb
 1251              		.syntax unified
 1252 007c BDE8F081 		pop	{r4, r5, r6, r7, r8, pc}
 1253              	.LVL113:
 1254              	.L84:
ARM GAS  /tmp/ccBouUBx.s 			page 23


 1255              	.LBE147:
 1256              	.LBE146:
 1257              	.LBE145:
 1258              	.LBE144:
 1259              	.LBE143:
 1260              	.LBE142:
 1261              	.LBE141:
 1262              		.loc 1 459 0
 1263 0080 0123     		movs	r3, #1
 1264 0082 03FA04F2 		lsl	r2, r3, r4
 1265 0086 6B89     		ldrh	r3, [r5, #10]
 1266 0088 23EA0203 		bic	r3, r3, r2
 1267 008c 6B81     		strh	r3, [r5, #10]	@ movhi
 1268 008e CB68     		ldr	r3, [r1, #12]
 1269 0090 23B1     		cbz	r3, .L79
 1270 0092 2146     		mov	r1, r4
 1271              	.LVL114:
 1272 0094 0248     		ldr	r0, .L97
 1273              	.LBE133:
 1274              		.loc 1 461 0
 1275 0096 BDE8F041 		pop	{r4, r5, r6, r7, r8, lr}
 1276              		.cfi_remember_state
 1277              		.cfi_restore 14
 1278              		.cfi_restore 8
 1279              		.cfi_restore 7
 1280              		.cfi_restore 6
 1281              		.cfi_restore 5
 1282              		.cfi_restore 4
 1283              		.cfi_def_cfa_offset 0
 1284              	.LVL115:
 1285              	.LBB148:
 1286              		.loc 1 459 0
 1287 009a 1847     		bx	r3	@ indirect register sibling call
 1288              	.LVL116:
 1289              	.L79:
 1290              		.cfi_restore_state
 1291 009c BDE8F081 		pop	{r4, r5, r6, r7, r8, pc}
 1292              	.LVL117:
 1293              	.L98:
 1294              		.align	2
 1295              	.L97:
 1296 00a0 00000000 		.word	.LANCHOR0
 1297              	.LBE148:
 1298              		.cfi_endproc
 1299              	.LFE362:
 1300              		.size	otg_epout_handler.constprop.7, .-otg_epout_handler.constprop.7
 1301              		.section	.text.usb_lld_start_in,"ax",%progbits
 1302              		.align	1
 1303              		.global	usb_lld_start_in
 1304              		.thumb
 1305              		.thumb_func
 1306              		.type	usb_lld_start_in, %function
 1307              	usb_lld_start_in:
 1308              	.LFB350:
 1309              		.loc 1 1169 0
 1310              		.cfi_startproc
 1311              		@ args = 0, pretend = 0, frame = 0
ARM GAS  /tmp/ccBouUBx.s 			page 24


 1312              		@ frame_needed = 0, uses_anonymous_args = 0
 1313              	.LVL118:
 1314              		.loc 1 1170 0
 1315 0000 00EB8103 		add	r3, r0, r1, lsl #2
 1316              		.loc 1 1169 0
 1317 0004 70B5     		push	{r4, r5, r6, lr}
 1318              		.cfi_def_cfa_offset 16
 1319              		.cfi_offset 4, -16
 1320              		.cfi_offset 5, -12
 1321              		.cfi_offset 6, -8
 1322              		.cfi_offset 14, -4
 1323              		.loc 1 1170 0
 1324 0006 DD68     		ldr	r5, [r3, #12]
 1325 0008 436D     		ldr	r3, [r0, #84]
 1326 000a 6C69     		ldr	r4, [r5, #20]
 1327              	.LVL119:
 1328              		.loc 1 1173 0
 1329 000c 2668     		ldr	r6, [r4]
 1330 000e E660     		str	r6, [r4, #12]
 1331 0010 4A01     		lsls	r2, r1, #5
 1332              		.loc 1 1174 0
 1333 0012 1EB9     		cbnz	r6, .L100
 1334              		.loc 1 1176 0
 1335 0014 1A44     		add	r2, r2, r3
 1336 0016 4FF40020 		mov	r0, #524288
 1337              	.LVL120:
 1338 001a 0FE0     		b	.L105
 1339              	.LVL121:
 1340              	.L100:
 1341              	.LBB149:
 1342              		.loc 1 1179 0
 1343 001c 19B9     		cbnz	r1, .L102
 1344              		.loc 1 1179 0 is_stmt 0 discriminator 1
 1345 001e 402E     		cmp	r6, #64
 1346              		.loc 1 1180 0 is_stmt 1 discriminator 1
 1347 0020 84BF     		itt	hi
 1348 0022 4020     		movhi	r0, #64
 1349              	.LVL122:
 1350 0024 2060     		strhi	r0, [r4]
 1351              	.L102:
 1352              		.loc 1 1183 0
 1353 0026 2068     		ldr	r0, [r4]
 1354 0028 2E8A     		ldrh	r6, [r5, #16]
 1355              	.LVL123:
 1356              		.loc 1 1186 0
 1357 002a 441E     		subs	r4, r0, #1
 1358              	.LVL124:
 1359 002c 40F00050 		orr	r0, r0, #536870912
 1360              	.LVL125:
 1361 0030 3444     		add	r4, r4, r6
 1362 0032 1A44     		add	r2, r2, r3
 1363 0034 B4FBF6F4 		udiv	r4, r4, r6
 1364 0038 40EAC440 		orr	r0, r0, r4, lsl #19
 1365              	.LVL126:
 1366              	.L105:
 1367 003c C2F81009 		str	r0, [r2, #2320]
 1368              	.LBE149:
ARM GAS  /tmp/ccBouUBx.s 			page 25


 1369              		.loc 1 1191 0
 1370 0040 2A68     		ldr	r2, [r5]
 1371 0042 02F00302 		and	r2, r2, #3
 1372 0046 012A     		cmp	r2, #1
 1373 0048 0AB2     		sxth	r2, r1
 1374 004a 0ED1     		bne	.L103
 1375              		.loc 1 1193 0
 1376 004c D3F80808 		ldr	r0, [r3, #2056]
 1377 0050 03EB4214 		add	r4, r3, r2, lsl #5
 1378 0054 10F4807F 		tst	r0, #256
 1379              		.loc 1 1194 0
 1380 0058 D4F80009 		ldr	r0, [r4, #2304]
 1381 005c 14BF     		ite	ne
 1382 005e 40F08050 		orrne	r0, r0, #268435456
 1383              		.loc 1 1196 0
 1384 0062 40F00050 		orreq	r0, r0, #536870912
 1385 0066 C4F80009 		str	r0, [r4, #2304]
 1386              	.L103:
 1387 006a 03EB4212 		add	r2, r3, r2, lsl #5
 1388              		.loc 1 1200 0
 1389 006e D2F80009 		ldr	r0, [r2, #2304]
 1390 0072 40F00440 		orr	r0, r0, #-2080374784
 1391 0076 C2F80009 		str	r0, [r2, #2304]
 1392              		.loc 1 1201 0
 1393 007a D3F83428 		ldr	r2, [r3, #2100]
 1394 007e 0120     		movs	r0, #1
 1395 0080 00FA01F1 		lsl	r1, r0, r1
 1396              	.LVL127:
 1397 0084 1143     		orrs	r1, r1, r2
 1398 0086 C3F83418 		str	r1, [r3, #2100]
 1399 008a 70BD     		pop	{r4, r5, r6, pc}
 1400              		.cfi_endproc
 1401              	.LFE350:
 1402              		.size	usb_lld_start_in, .-usb_lld_start_in
 1403              		.section	.text.otg_epin_handler.constprop.8,"ax",%progbits
 1404              		.align	1
 1405              		.thumb
 1406              		.thumb_func
 1407              		.type	otg_epin_handler.constprop.8, %function
 1408              	otg_epin_handler.constprop.8:
 1409              	.LFB361:
 1410              		.loc 1 370 0
 1411              		.cfi_startproc
 1412              		@ args = 0, pretend = 0, frame = 0
 1413              		@ frame_needed = 0, uses_anonymous_args = 0
 1414              	.LVL128:
 1415 0000 2DE9F041 		push	{r4, r5, r6, r7, r8, lr}
 1416              		.cfi_def_cfa_offset 24
 1417              		.cfi_offset 4, -24
 1418              		.cfi_offset 5, -20
 1419              		.cfi_offset 6, -16
 1420              		.cfi_offset 7, -12
 1421              		.cfi_offset 8, -8
 1422              		.cfi_offset 14, -4
 1423              		.loc 1 371 0
 1424 0004 224D     		ldr	r5, .L125
 1425 0006 6E6D     		ldr	r6, [r5, #84]
ARM GAS  /tmp/ccBouUBx.s 			page 26


 1426              	.LVL129:
 1427              		.loc 1 372 0
 1428 0008 06EB4013 		add	r3, r6, r0, lsl #5
 1429              		.loc 1 370 0
 1430 000c 0446     		mov	r4, r0
 1431              		.loc 1 372 0
 1432 000e D3F80879 		ldr	r7, [r3, #2312]
 1433              	.LVL130:
 1434              		.loc 1 374 0
 1435 0012 C3F80879 		str	r7, [r3, #2312]
 1436              		.loc 1 379 0
 1437 0016 F907     		lsls	r1, r7, #31
 1438 0018 2BD5     		bpl	.L109
 1439 001a D6F81038 		ldr	r3, [r6, #2064]
 1440 001e DA07     		lsls	r2, r3, #31
 1441 0020 27D5     		bpl	.L109
 1442              	.LBB167:
 1443              		.loc 1 381 0
 1444 0022 05EB8003 		add	r3, r5, r0, lsl #2
 1445 0026 D968     		ldr	r1, [r3, #12]
 1446 0028 4B69     		ldr	r3, [r1, #20]
 1447              	.LVL131:
 1448              		.loc 1 383 0
 1449 002a 1868     		ldr	r0, [r3]
 1450              	.LVL132:
 1451 002c DA68     		ldr	r2, [r3, #12]
 1452 002e 9042     		cmp	r0, r2
 1453 0030 13D2     		bcs	.L111
 1454              		.loc 1 387 0
 1455 0032 121A     		subs	r2, r2, r0
 1456              		.loc 1 388 0
 1457 0034 4FF00008 		mov	r8, #0
 1458              		.loc 1 387 0
 1459 0038 1A60     		str	r2, [r3]
 1460              		.loc 1 388 0
 1461 003a C3F80480 		str	r8, [r3, #4]
 1462              	.LVL133:
 1463              	.LBB168:
 1464              	.LBB169:
 1465              	.LBB170:
 1466              	.LBB171:
 1467              	.LBB172:
 1468              	.LBB173:
 1469              	.LBB174:
 1470              		.loc 3 493 0
 1471 003e 2023     		movs	r3, #32
 1472              	.LVL134:
 1473              		.syntax unified
 1474              	@ 493 "../../modules/ChibiOS/os/common/ext/ARM/CMSIS/Core/Include/cmsis_gcc.h" 1
 1475 0040 83F31188 		MSR basepri, r3
 1476              	@ 0 "" 2
 1477              	.LVL135:
 1478              		.thumb
 1479              		.syntax unified
 1480              	.LBE174:
 1481              	.LBE173:
 1482              	.LBE172:
ARM GAS  /tmp/ccBouUBx.s 			page 27


 1483              	.LBE171:
 1484              		.loc 4 396 0
 1485 0044 FFF7FEFF 		bl	_stats_start_measure_crit_isr
 1486              	.LVL136:
 1487              	.LBE170:
 1488              	.LBE169:
 1489              	.LBE168:
 1490              		.loc 1 390 0
 1491 0048 2146     		mov	r1, r4
 1492 004a 2846     		mov	r0, r5
 1493 004c FFF7FEFF 		bl	usb_lld_start_in
 1494              	.LVL137:
 1495              	.LBB175:
 1496              	.LBB176:
 1497              	.LBB177:
 1498              		.loc 4 416 0
 1499 0050 FFF7FEFF 		bl	_stats_stop_measure_crit_isr
 1500              	.LVL138:
 1501              	.LBB178:
 1502              	.LBB179:
 1503              	.LBB180:
 1504              	.LBB181:
 1505              		.loc 3 493 0
 1506              		.syntax unified
 1507              	@ 493 "../../modules/ChibiOS/os/common/ext/ARM/CMSIS/Core/Include/cmsis_gcc.h" 1
 1508 0054 88F31188 		MSR basepri, r8
 1509              	@ 0 "" 2
 1510              	.LVL139:
 1511              		.thumb
 1512              		.syntax unified
 1513 0058 0BE0     		b	.L109
 1514              	.LVL140:
 1515              	.L111:
 1516              	.LBE181:
 1517              	.LBE180:
 1518              	.LBE179:
 1519              	.LBE178:
 1520              	.LBE177:
 1521              	.LBE176:
 1522              	.LBE175:
 1523              		.loc 1 395 0
 1524 005a 0123     		movs	r3, #1
 1525              	.LVL141:
 1526 005c 03FA04F2 		lsl	r2, r3, r4
 1527 0060 2B89     		ldrh	r3, [r5, #8]
 1528 0062 23EA0203 		bic	r3, r3, r2
 1529 0066 2B81     		strh	r3, [r5, #8]	@ movhi
 1530 0068 8B68     		ldr	r3, [r1, #8]
 1531 006a 13B1     		cbz	r3, .L109
 1532 006c 2146     		mov	r1, r4
 1533              	.LVL142:
 1534 006e 2846     		mov	r0, r5
 1535 0070 9847     		blx	r3
 1536              	.LVL143:
 1537              	.L109:
 1538              	.LBE167:
 1539              		.loc 1 398 0
ARM GAS  /tmp/ccBouUBx.s 			page 28


 1540 0072 3B06     		lsls	r3, r7, #24
 1541 0074 0AD5     		bpl	.L107
 1542              		.loc 1 399 0
 1543 0076 D6F83428 		ldr	r2, [r6, #2100]
 1544              		.loc 1 398 0
 1545 007a 0123     		movs	r3, #1
 1546 007c A340     		lsls	r3, r3, r4
 1547 007e 1342     		tst	r3, r2
 1548 0080 04D0     		beq	.L107
 1549              		.loc 1 401 0
 1550 0082 2046     		mov	r0, r4
 1551              		.loc 1 403 0
 1552 0084 BDE8F041 		pop	{r4, r5, r6, r7, r8, lr}
 1553              		.cfi_remember_state
 1554              		.cfi_restore 14
 1555              		.cfi_restore 8
 1556              		.cfi_restore 7
 1557              		.cfi_restore 6
 1558              		.cfi_restore 5
 1559              		.cfi_restore 4
 1560              		.cfi_def_cfa_offset 0
 1561              	.LVL144:
 1562              		.loc 1 401 0
 1563 0088 FFF7FEBF 		b	otg_txfifo_handler.constprop.9
 1564              	.LVL145:
 1565              	.L107:
 1566              		.cfi_restore_state
 1567 008c BDE8F081 		pop	{r4, r5, r6, r7, r8, pc}
 1568              	.LVL146:
 1569              	.L126:
 1570              		.align	2
 1571              	.L125:
 1572 0090 00000000 		.word	.LANCHOR0
 1573              		.cfi_endproc
 1574              	.LFE361:
 1575              		.size	otg_epin_handler.constprop.8, .-otg_epin_handler.constprop.8
 1576              		.section	.text.Vector14C,"ax",%progbits
 1577              		.align	1
 1578              		.global	Vector14C
 1579              		.thumb
 1580              		.thumb_func
 1581              		.type	Vector14C, %function
 1582              	Vector14C:
 1583              	.LFB338:
 1584              		.loc 1 674 0
 1585              		.cfi_startproc
 1586              		@ args = 0, pretend = 0, frame = 0
 1587              		@ frame_needed = 0, uses_anonymous_args = 0
 1588 0000 2DE9F047 		push	{r4, r5, r6, r7, r8, r9, r10, lr}
 1589              		.cfi_def_cfa_offset 32
 1590              		.cfi_offset 4, -32
 1591              		.cfi_offset 5, -28
 1592              		.cfi_offset 6, -24
 1593              		.cfi_offset 7, -20
 1594              		.cfi_offset 8, -16
 1595              		.cfi_offset 9, -12
 1596              		.cfi_offset 10, -8
ARM GAS  /tmp/ccBouUBx.s 			page 29


 1597              		.cfi_offset 14, -4
 1598              		.loc 1 676 0
 1599 0004 FFF7FEFF 		bl	_stats_increase_irq
 1600              	.LVL147:
 1601              	.LBB194:
 1602              	.LBB195:
 1603              		.loc 1 529 0
 1604 0008 9448     		ldr	r0, .L224
 1605 000a 446D     		ldr	r4, [r0, #84]
 1606              	.LVL148:
 1607              		.loc 1 532 0
 1608 000c 6569     		ldr	r5, [r4, #20]
 1609              	.LVL149:
 1610              		.loc 1 533 0
 1611 000e A369     		ldr	r3, [r4, #24]
 1612 0010 1D40     		ands	r5, r5, r3
 1613              	.LVL150:
 1614              		.loc 1 537 0
 1615 0012 15F4805F 		tst	r5, #4096
 1616              		.loc 1 534 0
 1617 0016 6561     		str	r5, [r4, #20]
 1618 0018 0646     		mov	r6, r0
 1619              		.loc 1 537 0
 1620 001a 02D0     		beq	.L128
 1621              		.loc 1 539 0
 1622 001c FFF7FEFF 		bl	_usb_reset
 1623              	.LVL151:
 1624 0020 17E1     		b	.L129
 1625              	.L128:
 1626              		.loc 1 546 0
 1627 0022 002D     		cmp	r5, #0
 1628 0024 12DA     		bge	.L130
 1629              		.loc 1 549 0
 1630 0026 D4F8003E 		ldr	r3, [r4, #3584]
 1631              		.loc 1 557 0
 1632 002a 8C48     		ldr	r0, .L224
 1633              		.loc 1 549 0
 1634 002c 9A07     		lsls	r2, r3, #30
 1635              		.loc 1 551 0
 1636 002e 1EBF     		ittt	ne
 1637 0030 D4F8003E 		ldrne	r3, [r4, #3584]
 1638 0034 23F00303 		bicne	r3, r3, #3
 1639 0038 C4F8003E 		strne	r3, [r4, #3584]
 1640              		.loc 1 555 0
 1641 003c D4F80438 		ldr	r3, [r4, #2052]
 1642 0040 23F00103 		bic	r3, r3, #1
 1643 0044 C4F80438 		str	r3, [r4, #2052]
 1644              		.loc 1 557 0
 1645 0048 FFF7FEFF 		bl	_usb_wakeup
 1646              	.LVL152:
 1647              	.L130:
 1648              		.loc 1 561 0
 1649 004c 2B05     		lsls	r3, r5, #20
 1650 004e 02D5     		bpl	.L132
 1651              		.loc 1 563 0
 1652 0050 8248     		ldr	r0, .L224
 1653 0052 FFF7FEFF 		bl	_usb_suspend
ARM GAS  /tmp/ccBouUBx.s 			page 30


 1654              	.LVL153:
 1655              	.L132:
 1656              		.loc 1 567 0
 1657 0056 AF04     		lsls	r7, r5, #18
 1658 0058 0CD5     		bpl	.L133
 1659              		.loc 1 569 0
 1660 005a D4F80838 		ldr	r3, [r4, #2056]
 1661 005e 13F0060F 		tst	r3, #6
 1662              		.loc 1 570 0
 1663 0062 E368     		ldr	r3, [r4, #12]
 1664 0064 23F47053 		bic	r3, r3, #15360
 1665 0068 0CBF     		ite	eq
 1666 006a 43F41053 		orreq	r3, r3, #9216
 1667              		.loc 1 574 0
 1668 006e 43F4A053 		orrne	r3, r3, #5120
 1669 0072 E360     		str	r3, [r4, #12]
 1670              	.L133:
 1671              		.loc 1 580 0
 1672 0074 2807     		lsls	r0, r5, #28
 1673 0076 04D5     		bpl	.L135
 1674              		.loc 1 581 0
 1675 0078 7368     		ldr	r3, [r6, #4]
 1676 007a DB68     		ldr	r3, [r3, #12]
 1677 007c 0BB1     		cbz	r3, .L135
 1678 007e 7748     		ldr	r0, .L224
 1679 0080 9847     		blx	r3
 1680              	.LVL154:
 1681              	.L135:
 1682              		.loc 1 585 0
 1683 0082 E902     		lsls	r1, r5, #11
 1684 0084 02D4     		bmi	.L136
 1685              	.L144:
 1686              		.loc 1 590 0
 1687 0086 AA02     		lsls	r2, r5, #10
 1688 0088 47D5     		bpl	.L138
 1689 008a 3AE0     		b	.L221
 1690              	.L136:
 1691              	.LVL155:
 1692              	.LBB196:
 1693              	.LBB197:
 1694              		.loc 1 472 0
 1695 008c D6F85490 		ldr	r9, [r6, #84]
 1696              	.LVL156:
 1697 0090 4FF00008 		mov	r8, #0
 1698              		.loc 1 487 0
 1699 0094 4FF0010A 		mov	r10, #1
 1700              	.LVL157:
 1701              	.L139:
 1702              		.loc 1 474 0
 1703 0098 B36D     		ldr	r3, [r6, #88]
 1704 009a 9B68     		ldr	r3, [r3, #8]
 1705 009c 5FFA88F7 		uxtb	r7, r8
 1706              	.LVL158:
 1707 00a0 BB42     		cmp	r3, r7
 1708 00a2 F0D3     		bcc	.L144
 1709 00a4 09EB4713 		add	r3, r9, r7, lsl #5
 1710              		.loc 1 475 0
ARM GAS  /tmp/ccBouUBx.s 			page 31


 1711 00a8 D3F80029 		ldr	r2, [r3, #2304]
 1712 00ac 02F44022 		and	r2, r2, #786432
 1713 00b0 B2F5802F 		cmp	r2, #262144
 1714 00b4 22D1     		bne	.L140
 1715              		.loc 1 476 0
 1716 00b6 D3F80029 		ldr	r2, [r3, #2304]
 1717              		.loc 1 475 0
 1718 00ba 002A     		cmp	r2, #0
 1719 00bc 1EDA     		bge	.L140
 1720              		.loc 1 479 0
 1721 00be D3F80029 		ldr	r2, [r3, #2304]
 1722 00c2 42F09042 		orr	r2, r2, #1207959552
 1723 00c6 C3F80029 		str	r2, [r3, #2304]
 1724              	.L141:
 1725              		.loc 1 480 0
 1726 00ca D3F80029 		ldr	r2, [r3, #2304]
 1727 00ce 002A     		cmp	r2, #0
 1728 00d0 FBDB     		blt	.L141
 1729              		.loc 1 484 0
 1730 00d2 3946     		mov	r1, r7
 1731 00d4 706D     		ldr	r0, [r6, #84]
 1732 00d6 FFF7FEFF 		bl	otg_txfifo_flush.isra.1
 1733              	.LVL159:
 1734              		.loc 1 487 0
 1735 00da 3289     		ldrh	r2, [r6, #8]
 1736 00dc 0AFA07F3 		lsl	r3, r10, r7
 1737 00e0 22EA0303 		bic	r3, r2, r3
 1738 00e4 3381     		strh	r3, [r6, #8]	@ movhi
 1739 00e6 06EB8703 		add	r3, r6, r7, lsl #2
 1740 00ea DB68     		ldr	r3, [r3, #12]
 1741 00ec 9B68     		ldr	r3, [r3, #8]
 1742 00ee 13B1     		cbz	r3, .L142
 1743 00f0 3946     		mov	r1, r7
 1744 00f2 5A48     		ldr	r0, .L224
 1745 00f4 9847     		blx	r3
 1746              	.LVL160:
 1747              	.L142:
 1748              		.loc 1 490 0
 1749 00f6 3846     		mov	r0, r7
 1750 00f8 FFF7FEFF 		bl	otg_txfifo_handler.constprop.9
 1751              	.LVL161:
 1752              	.L140:
 1753 00fc 08F10108 		add	r8, r8, #1
 1754              	.LVL162:
 1755 0100 CAE7     		b	.L139
 1756              	.LVL163:
 1757              	.L221:
 1758              	.LBE197:
 1759              	.LBE196:
 1760              	.LBB198:
 1761              	.LBB199:
 1762              		.loc 1 504 0
 1763 0102 D6F85490 		ldr	r9, [r6, #84]
 1764              	.LVL164:
 1765              		.loc 1 506 0
 1766 0106 DFF85481 		ldr	r8, .L224
 1767              		.loc 1 504 0
ARM GAS  /tmp/ccBouUBx.s 			page 32


 1768 010a 0027     		movs	r7, #0
 1769              		.loc 1 516 0
 1770 010c 4FF0010A 		mov	r10, #1
 1771              	.LVL165:
 1772              	.L147:
 1773              		.loc 1 506 0
 1774 0110 B36D     		ldr	r3, [r6, #88]
 1775 0112 9B68     		ldr	r3, [r3, #8]
 1776 0114 F9B2     		uxtb	r1, r7
 1777              	.LVL166:
 1778 0116 8B42     		cmp	r3, r1
 1779 0118 02D2     		bcs	.L151
 1780              	.LVL167:
 1781              	.L138:
 1782              	.LBE199:
 1783              	.LBE198:
 1784              		.loc 1 596 0
 1785 011a EB06     		lsls	r3, r5, #27
 1786 011c 6BD5     		bpl	.L152
 1787 011e 1DE0     		b	.L222
 1788              	.LVL168:
 1789              	.L151:
 1790 0120 09EB4112 		add	r2, r9, r1, lsl #5
 1791              	.LBB201:
 1792              	.LBB200:
 1793              		.loc 1 507 0
 1794 0124 D2F8003B 		ldr	r3, [r2, #2816]
 1795 0128 03F44023 		and	r3, r3, #786432
 1796 012c B3F5802F 		cmp	r3, #262144
 1797 0130 12D1     		bne	.L149
 1798              		.loc 1 508 0
 1799 0132 D2F8003B 		ldr	r3, [r2, #2816]
 1800              		.loc 1 507 0
 1801 0136 002B     		cmp	r3, #0
 1802 0138 0EDA     		bge	.L149
 1803              		.loc 1 516 0
 1804 013a B8F80A20 		ldrh	r2, [r8, #10]
 1805 013e 0AFA01F3 		lsl	r3, r10, r1
 1806 0142 22EA0303 		bic	r3, r2, r3
 1807 0146 A8F80A30 		strh	r3, [r8, #10]	@ movhi
 1808 014a 08EB8103 		add	r3, r8, r1, lsl #2
 1809 014e DB68     		ldr	r3, [r3, #12]
 1810 0150 DB68     		ldr	r3, [r3, #12]
 1811 0152 0BB1     		cbz	r3, .L149
 1812 0154 4148     		ldr	r0, .L224
 1813 0156 9847     		blx	r3
 1814              	.LVL169:
 1815              	.L149:
 1816 0158 0137     		adds	r7, r7, #1
 1817              	.LVL170:
 1818 015a D9E7     		b	.L147
 1819              	.LVL171:
 1820              	.L222:
 1821              	.LBE200:
 1822              	.LBE201:
 1823              	.LBB202:
 1824              	.LBB203:
ARM GAS  /tmp/ccBouUBx.s 			page 33


 1825              		.loc 1 285 0
 1826 015c 736D     		ldr	r3, [r6, #84]
 1827 015e 3F49     		ldr	r1, .L224
 1828 0160 186A     		ldr	r0, [r3, #32]
 1829              	.LVL172:
 1830              		.loc 1 288 0
 1831 0162 C0F30A12 		ubfx	r2, r0, #4, #11
 1832              	.LVL173:
 1833              		.loc 1 289 0
 1834 0166 00F00F07 		and	r7, r0, #15
 1835              	.LVL174:
 1836              		.loc 1 291 0
 1837 016a 00F4F010 		and	r0, r0, #1966080
 1838              	.LVL175:
 1839 016e B0F5802F 		cmp	r0, #262144
 1840 0172 18D0     		beq	.L153
 1841 0174 B0F5402F 		cmp	r0, #786432
 1842 0178 3DD1     		bne	.L152
 1843              		.loc 1 293 0
 1844 017a 01EB8701 		add	r1, r1, r7, lsl #2
 1845              	.LBB204:
 1846              	.LBB205:
 1847              		.loc 1 264 0
 1848 017e 03F58053 		add	r3, r3, #4096
 1849              	.LBE205:
 1850              	.LBE204:
 1851              		.loc 1 293 0
 1852 0182 C968     		ldr	r1, [r1, #12]
 1853 0184 0E6A     		ldr	r6, [r1, #32]
 1854              	.LVL176:
 1855              	.LBB207:
 1856              	.LBB206:
 1857              		.loc 1 260 0
 1858 0186 0021     		movs	r1, #0
 1859              		.loc 1 259 0
 1860 0188 0846     		mov	r0, r1
 1861              	.LVL177:
 1862              	.L155:
 1863              		.loc 1 262 0
 1864 018a 8A42     		cmp	r2, r1
 1865 018c 33D0     		beq	.L152
 1866              		.loc 1 263 0
 1867 018e 8F07     		lsls	r7, r1, #30
 1868              		.loc 1 264 0
 1869 0190 08BF     		it	eq
 1870 0192 1868     		ldreq	r0, [r3]
 1871              	.LVL178:
 1872              		.loc 1 266 0
 1873 0194 0729     		cmp	r1, #7
 1874              		.loc 1 267 0
 1875 0196 98BF     		it	ls
 1876 0198 3070     		strbls	r0, [r6]
 1877              		.loc 1 270 0
 1878 019a 01F10101 		add	r1, r1, #1
 1879              	.LVL179:
 1880              		.loc 1 268 0
 1881 019e 9CBF     		itt	ls
ARM GAS  /tmp/ccBouUBx.s 			page 34


 1882 01a0 000A     		lsrls	r0, r0, #8
 1883              	.LVL180:
 1884              		.loc 1 267 0
 1885 01a2 0136     		addls	r6, r6, #1
 1886              	.LVL181:
 1887 01a4 F1E7     		b	.L155
 1888              	.LVL182:
 1889              	.L153:
 1890              	.LBE206:
 1891              	.LBE207:
 1892              		.loc 1 300 0
 1893 01a6 B81C     		adds	r0, r7, #2
 1894 01a8 01EB8001 		add	r1, r1, r0, lsl #2
 1895              	.LBB208:
 1896              	.LBB209:
 1897              		.loc 1 264 0
 1898 01ac 03F58053 		add	r3, r3, #4096
 1899              	.LBE209:
 1900              	.LBE208:
 1901              		.loc 1 300 0
 1902 01b0 4968     		ldr	r1, [r1, #4]
 1903 01b2 8F69     		ldr	r7, [r1, #24]
 1904              	.LVL183:
 1905              		.loc 1 299 0
 1906 01b4 97E88210 		ldmia	r7, {r1, r7, ip}
 1907 01b8 C7EB010E 		rsb	lr, r7, r1
 1908              	.LVL184:
 1909              	.LBB211:
 1910              	.LBB210:
 1911              		.loc 1 260 0
 1912 01bc 0021     		movs	r1, #0
 1913              		.loc 1 259 0
 1914 01be 0F46     		mov	r7, r1
 1915              	.LVL185:
 1916              	.L159:
 1917              		.loc 1 262 0
 1918 01c0 8A42     		cmp	r2, r1
 1919 01c2 0ED0     		beq	.L223
 1920              		.loc 1 263 0
 1921 01c4 11F0030F 		tst	r1, #3
 1922              		.loc 1 264 0
 1923 01c8 08BF     		it	eq
 1924 01ca 1F68     		ldreq	r7, [r3]
 1925              	.LVL186:
 1926              		.loc 1 266 0
 1927 01cc 8E45     		cmp	lr, r1
 1928              		.loc 1 267 0
 1929 01ce 88BF     		it	hi
 1930 01d0 8CF80070 		strbhi	r7, [ip]
 1931              		.loc 1 270 0
 1932 01d4 01F10101 		add	r1, r1, #1
 1933              	.LVL187:
 1934              		.loc 1 268 0
 1935 01d8 84BF     		itt	hi
 1936 01da 3F0A     		lsrhi	r7, r7, #8
 1937              	.LVL188:
 1938              		.loc 1 267 0
ARM GAS  /tmp/ccBouUBx.s 			page 35


 1939 01dc 0CF1010C 		addhi	ip, ip, #1
 1940              	.LVL189:
 1941 01e0 EEE7     		b	.L159
 1942              	.L223:
 1943              	.LVL190:
 1944              	.LBE210:
 1945              	.LBE211:
 1946              		.loc 1 304 0
 1947 01e2 06EB8006 		add	r6, r6, r0, lsl #2
 1948 01e6 7368     		ldr	r3, [r6, #4]
 1949 01e8 9B69     		ldr	r3, [r3, #24]
 1950 01ea 9968     		ldr	r1, [r3, #8]
 1951 01ec 1144     		add	r1, r1, r2
 1952 01ee 9960     		str	r1, [r3, #8]
 1953              		.loc 1 305 0
 1954 01f0 5968     		ldr	r1, [r3, #4]
 1955 01f2 0A44     		add	r2, r2, r1
 1956              	.LVL191:
 1957 01f4 5A60     		str	r2, [r3, #4]
 1958              	.LVL192:
 1959              	.L152:
 1960              	.LBE203:
 1961              	.LBE202:
 1962              		.loc 1 602 0
 1963 01f6 2903     		lsls	r1, r5, #12
 1964              		.loc 1 601 0
 1965 01f8 D4F81848 		ldr	r4, [r4, #2072]
 1966              	.LVL193:
 1967              		.loc 1 602 0
 1968 01fc 13D5     		bpl	.L164
 1969              		.loc 1 603 0
 1970 01fe E203     		lsls	r2, r4, #15
 1971 0200 02D5     		bpl	.L165
 1972              		.loc 1 604 0
 1973 0202 0020     		movs	r0, #0
 1974 0204 FFF7FEFF 		bl	otg_epout_handler.constprop.7
 1975              	.LVL194:
 1976              	.L165:
 1977              		.loc 1 605 0
 1978 0208 A303     		lsls	r3, r4, #14
 1979 020a 02D5     		bpl	.L166
 1980              		.loc 1 606 0
 1981 020c 0120     		movs	r0, #1
 1982 020e FFF7FEFF 		bl	otg_epout_handler.constprop.7
 1983              	.LVL195:
 1984              	.L166:
 1985              		.loc 1 607 0
 1986 0212 6703     		lsls	r7, r4, #13
 1987 0214 02D5     		bpl	.L167
 1988              		.loc 1 608 0
 1989 0216 0220     		movs	r0, #2
 1990 0218 FFF7FEFF 		bl	otg_epout_handler.constprop.7
 1991              	.LVL196:
 1992              	.L167:
 1993              		.loc 1 609 0
 1994 021c 2603     		lsls	r6, r4, #12
 1995 021e 02D5     		bpl	.L164
ARM GAS  /tmp/ccBouUBx.s 			page 36


 1996              		.loc 1 610 0
 1997 0220 0320     		movs	r0, #3
 1998 0222 FFF7FEFF 		bl	otg_epout_handler.constprop.7
 1999              	.LVL197:
 2000              	.L164:
 2001              		.loc 1 632 0
 2002 0226 6D03     		lsls	r5, r5, #13
 2003              	.LVL198:
 2004 0228 13D5     		bpl	.L129
 2005              		.loc 1 633 0
 2006 022a E007     		lsls	r0, r4, #31
 2007 022c 02D5     		bpl	.L170
 2008              		.loc 1 634 0
 2009 022e 0020     		movs	r0, #0
 2010 0230 FFF7FEFF 		bl	otg_epin_handler.constprop.8
 2011              	.LVL199:
 2012              	.L170:
 2013              		.loc 1 635 0
 2014 0234 A107     		lsls	r1, r4, #30
 2015 0236 02D5     		bpl	.L171
 2016              		.loc 1 636 0
 2017 0238 0120     		movs	r0, #1
 2018 023a FFF7FEFF 		bl	otg_epin_handler.constprop.8
 2019              	.LVL200:
 2020              	.L171:
 2021              		.loc 1 637 0
 2022 023e 6207     		lsls	r2, r4, #29
 2023 0240 02D5     		bpl	.L172
 2024              		.loc 1 638 0
 2025 0242 0220     		movs	r0, #2
 2026 0244 FFF7FEFF 		bl	otg_epin_handler.constprop.8
 2027              	.LVL201:
 2028              	.L172:
 2029              		.loc 1 639 0
 2030 0248 2307     		lsls	r3, r4, #28
 2031 024a 02D5     		bpl	.L129
 2032              		.loc 1 640 0
 2033 024c 0320     		movs	r0, #3
 2034 024e FFF7FEFF 		bl	otg_epin_handler.constprop.8
 2035              	.LVL202:
 2036              	.L129:
 2037              	.LBE195:
 2038              	.LBE194:
 2039              		.loc 1 681 0
 2040 0252 BDE8F047 		pop	{r4, r5, r6, r7, r8, r9, r10, lr}
 2041              		.cfi_restore 14
 2042              		.cfi_restore 10
 2043              		.cfi_restore 9
 2044              		.cfi_restore 8
 2045              		.cfi_restore 7
 2046              		.cfi_restore 6
 2047              		.cfi_restore 5
 2048              		.cfi_restore 4
 2049              		.cfi_def_cfa_offset 0
 2050              		.loc 1 680 0
 2051 0256 FFF7FEBF 		b	_port_irq_epilogue
 2052              	.LVL203:
ARM GAS  /tmp/ccBouUBx.s 			page 37


 2053              	.L225:
 2054 025a 00BF     		.align	2
 2055              	.L224:
 2056 025c 00000000 		.word	.LANCHOR0
 2057              		.cfi_endproc
 2058              	.LFE338:
 2059              		.size	Vector14C, .-Vector14C
 2060              		.section	.text.usb_lld_stall_out,"ax",%progbits
 2061              		.align	1
 2062              		.global	usb_lld_stall_out
 2063              		.thumb
 2064              		.thumb_func
 2065              		.type	usb_lld_stall_out, %function
 2066              	usb_lld_stall_out:
 2067              	.LFB351:
 2068              		.loc 1 1212 0
 2069              		.cfi_startproc
 2070              		@ args = 0, pretend = 0, frame = 0
 2071              		@ frame_needed = 0, uses_anonymous_args = 0
 2072              		@ link register save eliminated.
 2073              	.LVL204:
 2074 0000 436D     		ldr	r3, [r0, #84]
 2075 0002 03EB4111 		add	r1, r3, r1, lsl #5
 2076              	.LVL205:
 2077              		.loc 1 1214 0
 2078 0006 D1F8003B 		ldr	r3, [r1, #2816]
 2079 000a 43F40013 		orr	r3, r3, #2097152
 2080 000e C1F8003B 		str	r3, [r1, #2816]
 2081 0012 7047     		bx	lr
 2082              		.cfi_endproc
 2083              	.LFE351:
 2084              		.size	usb_lld_stall_out, .-usb_lld_stall_out
 2085              		.section	.text.usb_lld_stall_in,"ax",%progbits
 2086              		.align	1
 2087              		.global	usb_lld_stall_in
 2088              		.thumb
 2089              		.thumb_func
 2090              		.type	usb_lld_stall_in, %function
 2091              	usb_lld_stall_in:
 2092              	.LFB352:
 2093              		.loc 1 1225 0
 2094              		.cfi_startproc
 2095              		@ args = 0, pretend = 0, frame = 0
 2096              		@ frame_needed = 0, uses_anonymous_args = 0
 2097              		@ link register save eliminated.
 2098              	.LVL206:
 2099 0000 436D     		ldr	r3, [r0, #84]
 2100 0002 03EB4111 		add	r1, r3, r1, lsl #5
 2101              	.LVL207:
 2102              		.loc 1 1227 0
 2103 0006 D1F80039 		ldr	r3, [r1, #2304]
 2104 000a 43F40013 		orr	r3, r3, #2097152
 2105 000e C1F80039 		str	r3, [r1, #2304]
 2106 0012 7047     		bx	lr
 2107              		.cfi_endproc
 2108              	.LFE352:
 2109              		.size	usb_lld_stall_in, .-usb_lld_stall_in
ARM GAS  /tmp/ccBouUBx.s 			page 38


 2110              		.section	.text.usb_lld_clear_out,"ax",%progbits
 2111              		.align	1
 2112              		.global	usb_lld_clear_out
 2113              		.thumb
 2114              		.thumb_func
 2115              		.type	usb_lld_clear_out, %function
 2116              	usb_lld_clear_out:
 2117              	.LFB353:
 2118              		.loc 1 1238 0
 2119              		.cfi_startproc
 2120              		@ args = 0, pretend = 0, frame = 0
 2121              		@ frame_needed = 0, uses_anonymous_args = 0
 2122              		@ link register save eliminated.
 2123              	.LVL208:
 2124 0000 436D     		ldr	r3, [r0, #84]
 2125 0002 03EB4111 		add	r1, r3, r1, lsl #5
 2126              	.LVL209:
 2127              		.loc 1 1240 0
 2128 0006 D1F8003B 		ldr	r3, [r1, #2816]
 2129 000a 23F40013 		bic	r3, r3, #2097152
 2130 000e C1F8003B 		str	r3, [r1, #2816]
 2131 0012 7047     		bx	lr
 2132              		.cfi_endproc
 2133              	.LFE353:
 2134              		.size	usb_lld_clear_out, .-usb_lld_clear_out
 2135              		.section	.text.usb_lld_clear_in,"ax",%progbits
 2136              		.align	1
 2137              		.global	usb_lld_clear_in
 2138              		.thumb
 2139              		.thumb_func
 2140              		.type	usb_lld_clear_in, %function
 2141              	usb_lld_clear_in:
 2142              	.LFB354:
 2143              		.loc 1 1251 0
 2144              		.cfi_startproc
 2145              		@ args = 0, pretend = 0, frame = 0
 2146              		@ frame_needed = 0, uses_anonymous_args = 0
 2147              		@ link register save eliminated.
 2148              	.LVL210:
 2149 0000 436D     		ldr	r3, [r0, #84]
 2150 0002 03EB4111 		add	r1, r3, r1, lsl #5
 2151              	.LVL211:
 2152              		.loc 1 1253 0
 2153 0006 D1F80039 		ldr	r3, [r1, #2304]
 2154 000a 23F40013 		bic	r3, r3, #2097152
 2155 000e C1F80039 		str	r3, [r1, #2304]
 2156 0012 7047     		bx	lr
 2157              		.cfi_endproc
 2158              	.LFE354:
 2159              		.size	usb_lld_clear_in, .-usb_lld_clear_in
 2160              		.global	USBD1
 2161              		.section	.rodata.fsparams,"a",%progbits
 2162              		.align	2
 2163              		.set	.LANCHOR1,. + 0
 2164              		.type	fsparams, %object
 2165              		.size	fsparams, 12
 2166              	fsparams:
ARM GAS  /tmp/ccBouUBx.s 			page 39


 2167 0000 80000000 		.word	128
 2168 0004 40010000 		.word	320
 2169 0008 03000000 		.word	3
 2170              		.section	.bss.USBD1,"aw",%nobits
 2171              		.align	2
 2172              		.set	.LANCHOR0,. + 0
 2173              		.type	USBD1, %object
 2174              		.size	USBD1, 96
 2175              	USBD1:
 2176 0000 00000000 		.space	96
 2176      00000000 
 2176      00000000 
 2176      00000000 
 2176      00000000 
 2177              		.section	.rodata.ep0config,"a",%progbits
 2178              		.align	2
 2179              		.set	.LANCHOR2,. + 0
 2180              		.type	ep0config, %object
 2181              		.size	ep0config, 36
 2182              	ep0config:
 2183 0000 00000000 		.word	0
 2184 0004 00000000 		.word	_usb_ep0setup
 2185 0008 00000000 		.word	_usb_ep0in
 2186 000c 00000000 		.word	_usb_ep0out
 2187 0010 4000     		.short	64
 2188 0012 4000     		.short	64
 2189 0014 00000000 		.word	ep0_state
 2190 0018 00000000 		.word	ep0_state
 2191 001c 0100     		.short	1
 2192 001e 0000     		.space	2
 2193 0020 00000000 		.word	ep0setup_buffer
 2194              		.section	.bss.ep0_state,"aw",%nobits
 2195              		.align	2
 2196              		.type	ep0_state, %object
 2197              		.size	ep0_state, 16
 2198              	ep0_state:
 2199 0000 00000000 		.space	16
 2199      00000000 
 2199      00000000 
 2199      00000000 
 2200              		.section	.bss.ep0setup_buffer,"aw",%nobits
 2201              		.type	ep0setup_buffer, %object
 2202              		.size	ep0setup_buffer, 8
 2203              	ep0setup_buffer:
 2204 0000 00000000 		.space	8
 2204      00000000 
 2205              		.text
 2206              	.Letext0:
 2207              		.file 5 "/usr/lib/gcc/arm-none-eabi/5.4.1/include/stddef.h"
 2208              		.file 6 "/usr/include/newlib/machine/_default_types.h"
 2209              		.file 7 "/usr/include/newlib/sys/_stdint.h"
 2210              		.file 8 "../../modules/ChibiOS/os/common/ports/ARMCMx/compilers/GCC/chtypes.h"
 2211              		.file 9 "../../modules/ChibiOS/os/rt/include/chsystypes.h"
 2212              		.file 10 "../../modules/ChibiOS/os/rt/include/chschd.h"
 2213              		.file 11 "../../modules/ChibiOS/os/rt/include/chtime.h"
 2214              		.file 12 "../../modules/ChibiOS/os/common/ext/ST/STM32F4xx/stm32f427xx.h"
 2215              		.file 13 "../../modules/ChibiOS/os/common/ports/ARMCMx/chcore.h"
ARM GAS  /tmp/ccBouUBx.s 			page 40


 2216              		.file 14 "../../modules/ChibiOS/os/common/ports/ARMCMx/chcore_v7m.h"
 2217              		.file 15 "../../modules/ChibiOS/os/rt/include/chtm.h"
 2218              		.file 16 "../../modules/ChibiOS/os/rt/include/chstats.h"
 2219              		.file 17 "../../modules/ChibiOS/os/rt/include/chsem.h"
 2220              		.file 18 "../../modules/ChibiOS/os/rt/include/chmtx.h"
 2221              		.file 19 "../../modules/ChibiOS/os/hal/include/hal_usb.h"
 2222              		.file 20 "../../modules/ChibiOS/os/hal/ports/STM32/LLD/OTGv1/hal_usb_lld.h"
 2223              		.file 21 "../../modules/ChibiOS/os/hal/ports/STM32/LLD/OTGv1/stm32_otg.h"
 2224              		.file 22 "../../modules/ChibiOS/os/common/ext/ARM/CMSIS/Core/Include/core_cm4.h"
 2225              		.file 23 "../../modules/ChibiOS/os/hal/ports/common/ARMCMx/nvic.h"