ARM GAS  /tmp/cc7gQbhQ.s 			page 1


   1              		.syntax unified
   2              		.cpu cortex-m4
   3              		.eabi_attribute 27, 1
   4              		.eabi_attribute 28, 1
   5              		.fpu fpv4-sp-d16
   6              		.eabi_attribute 20, 1
   7              		.eabi_attribute 21, 1
   8              		.eabi_attribute 23, 3
   9              		.eabi_attribute 24, 1
  10              		.eabi_attribute 25, 1
  11              		.eabi_attribute 26, 1
  12              		.eabi_attribute 30, 4
  13              		.eabi_attribute 34, 1
  14              		.eabi_attribute 18, 4
  15              		.thumb
  16              		.syntax unified
  17              		.file	"hal_pwm.c"
  18              		.text
  19              	.Ltext0:
  20              		.cfi_sections	.debug_frame
  21              		.section	.text.chSysLock,"ax",%progbits
  22              		.align	1
  23              		.thumb
  24              		.thumb_func
  25              		.type	chSysLock, %function
  26              	chSysLock:
  27              	.LFB184:
  28              		.file 1 "../../modules/ChibiOS/os/rt/include/chsys.h"
  29              		.loc 1 353 0
  30              		.cfi_startproc
  31              		@ args = 0, pretend = 0, frame = 0
  32              		@ frame_needed = 0, uses_anonymous_args = 0
  33              		@ link register save eliminated.
  34              	.LVL0:
  35              	.LBB50:
  36              	.LBB51:
  37              	.LBB52:
  38              		.file 2 "../../modules/ChibiOS/os/common/ext/ARM/CMSIS/Core/Include/cmsis_gcc.h"
  39              		.loc 2 493 0
  40 0000 2023     		movs	r3, #32
  41              		.syntax unified
  42              	@ 493 "../../modules/ChibiOS/os/common/ext/ARM/CMSIS/Core/Include/cmsis_gcc.h" 1
  43 0002 83F31188 		MSR basepri, r3
  44              	@ 0 "" 2
  45              	.LVL1:
  46              		.thumb
  47              		.syntax unified
  48              	.LBE52:
  49              	.LBE51:
  50              	.LBE50:
  51              		.loc 1 356 0
  52 0006 FFF7FEBF 		b	_stats_start_measure_crit_thd
  53              	.LVL2:
  54              		.cfi_endproc
  55              	.LFE184:
  56              		.size	chSysLock, .-chSysLock
  57              		.section	.text.chSysUnlock,"ax",%progbits
ARM GAS  /tmp/cc7gQbhQ.s 			page 2


  58              		.align	1
  59              		.thumb
  60              		.thumb_func
  61              		.type	chSysUnlock, %function
  62              	chSysUnlock:
  63              	.LFB185:
  64              		.loc 1 365 0
  65              		.cfi_startproc
  66              		@ args = 0, pretend = 0, frame = 0
  67              		@ frame_needed = 0, uses_anonymous_args = 0
  68 0000 08B5     		push	{r3, lr}
  69              		.cfi_def_cfa_offset 8
  70              		.cfi_offset 3, -8
  71              		.cfi_offset 14, -4
  72              		.loc 1 368 0
  73 0002 FFF7FEFF 		bl	_stats_stop_measure_crit_thd
  74              	.LVL3:
  75              	.LBB53:
  76              	.LBB54:
  77              	.LBB55:
  78              		.loc 2 493 0
  79 0006 0023     		movs	r3, #0
  80              		.syntax unified
  81              	@ 493 "../../modules/ChibiOS/os/common/ext/ARM/CMSIS/Core/Include/cmsis_gcc.h" 1
  82 0008 83F31188 		MSR basepri, r3
  83              	@ 0 "" 2
  84              	.LVL4:
  85              		.thumb
  86              		.syntax unified
  87 000c 08BD     		pop	{r3, pc}
  88              	.LBE55:
  89              	.LBE54:
  90              	.LBE53:
  91              		.cfi_endproc
  92              	.LFE185:
  93              		.size	chSysUnlock, .-chSysUnlock
  94              		.section	.text.pwmInit,"ax",%progbits
  95              		.align	1
  96              		.global	pwmInit
  97              		.thumb
  98              		.thumb_func
  99              		.type	pwmInit, %function
 100              	pwmInit:
 101              	.LFB323:
 102              		.file 3 "../../modules/ChibiOS/os/hal/src/hal_pwm.c"
 103              		.loc 3 56 0
 104              		.cfi_startproc
 105              		@ args = 0, pretend = 0, frame = 0
 106              		@ frame_needed = 0, uses_anonymous_args = 0
 107              		@ link register save eliminated.
 108              		.loc 3 58 0
 109 0000 FFF7FEBF 		b	pwm_lld_init
 110              	.LVL5:
 111              		.cfi_endproc
 112              	.LFE323:
 113              		.size	pwmInit, .-pwmInit
 114              		.section	.text.pwmObjectInit,"ax",%progbits
ARM GAS  /tmp/cc7gQbhQ.s 			page 3


 115              		.align	1
 116              		.global	pwmObjectInit
 117              		.thumb
 118              		.thumb_func
 119              		.type	pwmObjectInit, %function
 120              	pwmObjectInit:
 121              	.LFB324:
 122              		.loc 3 68 0
 123              		.cfi_startproc
 124              		@ args = 0, pretend = 0, frame = 0
 125              		@ frame_needed = 0, uses_anonymous_args = 0
 126              		@ link register save eliminated.
 127              	.LVL6:
 128              		.loc 3 70 0
 129 0000 0123     		movs	r3, #1
 130 0002 0370     		strb	r3, [r0]
 131              		.loc 3 71 0
 132 0004 0023     		movs	r3, #0
 133 0006 4360     		str	r3, [r0, #4]
 134              		.loc 3 72 0
 135 0008 C360     		str	r3, [r0, #12]
 136              		.loc 3 73 0
 137 000a 0374     		strb	r3, [r0, #16]
 138 000c 7047     		bx	lr
 139              		.cfi_endproc
 140              	.LFE324:
 141              		.size	pwmObjectInit, .-pwmObjectInit
 142              		.section	.text.pwmStart,"ax",%progbits
 143              		.align	1
 144              		.global	pwmStart
 145              		.thumb
 146              		.thumb_func
 147              		.type	pwmStart, %function
 148              	pwmStart:
 149              	.LFB325:
 150              		.loc 3 89 0
 151              		.cfi_startproc
 152              		@ args = 0, pretend = 0, frame = 0
 153              		@ frame_needed = 0, uses_anonymous_args = 0
 154              	.LVL7:
 155 0000 38B5     		push	{r3, r4, r5, lr}
 156              		.cfi_def_cfa_offset 16
 157              		.cfi_offset 3, -16
 158              		.cfi_offset 4, -12
 159              		.cfi_offset 5, -8
 160              		.cfi_offset 14, -4
 161              		.loc 3 89 0
 162 0002 0D46     		mov	r5, r1
 163 0004 0446     		mov	r4, r0
 164              	.LBB56:
 165              	.LBB57:
 166              		.file 4 "../../modules/ChibiOS/os/hal/osal/rt/osal.h"
 167              		.loc 4 511 0
 168 0006 FFF7FEFF 		bl	chSysLock
 169              	.LVL8:
 170              	.LBE57:
 171              	.LBE56:
ARM GAS  /tmp/cc7gQbhQ.s 			page 4


 172              		.loc 3 97 0
 173 000a 6B68     		ldr	r3, [r5, #4]
 174 000c A360     		str	r3, [r4, #8]
 175              		.loc 3 96 0
 176 000e 6560     		str	r5, [r4, #4]
 177              		.loc 3 98 0
 178 0010 2046     		mov	r0, r4
 179 0012 FFF7FEFF 		bl	pwm_lld_start
 180              	.LVL9:
 181              		.loc 3 99 0
 182 0016 0023     		movs	r3, #0
 183 0018 E360     		str	r3, [r4, #12]
 184              		.loc 3 100 0
 185 001a 0223     		movs	r3, #2
 186 001c 2370     		strb	r3, [r4]
 187              		.loc 3 102 0
 188 001e BDE83840 		pop	{r3, r4, r5, lr}
 189              		.cfi_restore 14
 190              		.cfi_restore 5
 191              		.cfi_restore 4
 192              		.cfi_restore 3
 193              		.cfi_def_cfa_offset 0
 194              	.LVL10:
 195              	.LBB58:
 196              	.LBB59:
 197              		.loc 4 522 0
 198 0022 FFF7FEBF 		b	chSysUnlock
 199              	.LVL11:
 200              	.LBE59:
 201              	.LBE58:
 202              		.cfi_endproc
 203              	.LFE325:
 204              		.size	pwmStart, .-pwmStart
 205              		.section	.text.pwmStop,"ax",%progbits
 206              		.align	1
 207              		.global	pwmStop
 208              		.thumb
 209              		.thumb_func
 210              		.type	pwmStop, %function
 211              	pwmStop:
 212              	.LFB326:
 213              		.loc 3 111 0
 214              		.cfi_startproc
 215              		@ args = 0, pretend = 0, frame = 0
 216              		@ frame_needed = 0, uses_anonymous_args = 0
 217              	.LVL12:
 218 0000 10B5     		push	{r4, lr}
 219              		.cfi_def_cfa_offset 8
 220              		.cfi_offset 4, -8
 221              		.cfi_offset 14, -4
 222              		.loc 3 111 0
 223 0002 0446     		mov	r4, r0
 224              	.LBB60:
 225              	.LBB61:
 226              		.loc 4 511 0
 227 0004 FFF7FEFF 		bl	chSysLock
 228              	.LVL13:
ARM GAS  /tmp/cc7gQbhQ.s 			page 5


 229              	.LBE61:
 230              	.LBE60:
 231              		.loc 3 120 0
 232 0008 2046     		mov	r0, r4
 233 000a FFF7FEFF 		bl	pwm_lld_stop
 234              	.LVL14:
 235              		.loc 3 121 0
 236 000e 0023     		movs	r3, #0
 237 0010 E360     		str	r3, [r4, #12]
 238              		.loc 3 122 0
 239 0012 6360     		str	r3, [r4, #4]
 240              		.loc 3 123 0
 241 0014 0123     		movs	r3, #1
 242 0016 2370     		strb	r3, [r4]
 243              		.loc 3 126 0
 244 0018 BDE81040 		pop	{r4, lr}
 245              		.cfi_restore 14
 246              		.cfi_restore 4
 247              		.cfi_def_cfa_offset 0
 248              	.LVL15:
 249              	.LBB62:
 250              	.LBB63:
 251              		.loc 4 522 0
 252 001c FFF7FEBF 		b	chSysUnlock
 253              	.LVL16:
 254              	.LBE63:
 255              	.LBE62:
 256              		.cfi_endproc
 257              	.LFE326:
 258              		.size	pwmStop, .-pwmStop
 259              		.section	.text.pwmChangePeriod,"ax",%progbits
 260              		.align	1
 261              		.global	pwmChangePeriod
 262              		.thumb
 263              		.thumb_func
 264              		.type	pwmChangePeriod, %function
 265              	pwmChangePeriod:
 266              	.LFB327:
 267              		.loc 3 143 0
 268              		.cfi_startproc
 269              		@ args = 0, pretend = 0, frame = 0
 270              		@ frame_needed = 0, uses_anonymous_args = 0
 271              	.LVL17:
 272 0000 38B5     		push	{r3, r4, r5, lr}
 273              		.cfi_def_cfa_offset 16
 274              		.cfi_offset 3, -16
 275              		.cfi_offset 4, -12
 276              		.cfi_offset 5, -8
 277              		.cfi_offset 14, -4
 278              		.loc 3 143 0
 279 0002 0546     		mov	r5, r0
 280 0004 0C46     		mov	r4, r1
 281              	.LBB64:
 282              	.LBB65:
 283              		.loc 4 511 0
 284 0006 FFF7FEFF 		bl	chSysLock
 285              	.LVL18:
ARM GAS  /tmp/cc7gQbhQ.s 			page 6


 286              	.LBE65:
 287              	.LBE64:
 288              		.loc 3 149 0
 289 000a AB69     		ldr	r3, [r5, #24]
 290 000c AC60     		str	r4, [r5, #8]
 291 000e 013C     		subs	r4, r4, #1
 292              	.LVL19:
 293 0010 DC62     		str	r4, [r3, #44]
 294              		.loc 3 151 0
 295 0012 BDE83840 		pop	{r3, r4, r5, lr}
 296              		.cfi_restore 14
 297              		.cfi_restore 5
 298              		.cfi_restore 4
 299              		.cfi_restore 3
 300              		.cfi_def_cfa_offset 0
 301              	.LVL20:
 302              	.LBB66:
 303              	.LBB67:
 304              		.loc 4 522 0
 305 0016 FFF7FEBF 		b	chSysUnlock
 306              	.LVL21:
 307              	.LBE67:
 308              	.LBE66:
 309              		.cfi_endproc
 310              	.LFE327:
 311              		.size	pwmChangePeriod, .-pwmChangePeriod
 312              		.section	.text.pwmEnableChannel,"ax",%progbits
 313              		.align	1
 314              		.global	pwmEnableChannel
 315              		.thumb
 316              		.thumb_func
 317              		.type	pwmEnableChannel, %function
 318              	pwmEnableChannel:
 319              	.LFB328:
 320              		.loc 3 169 0
 321              		.cfi_startproc
 322              		@ args = 0, pretend = 0, frame = 0
 323              		@ frame_needed = 0, uses_anonymous_args = 0
 324              	.LVL22:
 325 0000 70B5     		push	{r4, r5, r6, lr}
 326              		.cfi_def_cfa_offset 16
 327              		.cfi_offset 4, -16
 328              		.cfi_offset 5, -12
 329              		.cfi_offset 6, -8
 330              		.cfi_offset 14, -4
 331              		.loc 3 169 0
 332 0002 0446     		mov	r4, r0
 333 0004 0D46     		mov	r5, r1
 334 0006 1646     		mov	r6, r2
 335              	.LBB68:
 336              	.LBB69:
 337              		.loc 4 511 0
 338 0008 FFF7FEFF 		bl	chSysLock
 339              	.LVL23:
 340              	.LBE69:
 341              	.LBE68:
 342              		.loc 3 177 0
ARM GAS  /tmp/cc7gQbhQ.s 			page 7


 343 000c E268     		ldr	r2, [r4, #12]
 344 000e 0123     		movs	r3, #1
 345 0010 AB40     		lsls	r3, r3, r5
 346 0012 1343     		orrs	r3, r3, r2
 347 0014 E360     		str	r3, [r4, #12]
 348 0016 3246     		mov	r2, r6
 349 0018 2946     		mov	r1, r5
 350 001a 2046     		mov	r0, r4
 351 001c FFF7FEFF 		bl	pwm_lld_enable_channel
 352              	.LVL24:
 353              		.loc 3 180 0
 354 0020 BDE87040 		pop	{r4, r5, r6, lr}
 355              		.cfi_restore 14
 356              		.cfi_restore 6
 357              		.cfi_restore 5
 358              		.cfi_restore 4
 359              		.cfi_def_cfa_offset 0
 360              	.LVL25:
 361              	.LBB70:
 362              	.LBB71:
 363              		.loc 4 522 0
 364 0024 FFF7FEBF 		b	chSysUnlock
 365              	.LVL26:
 366              	.LBE71:
 367              	.LBE70:
 368              		.cfi_endproc
 369              	.LFE328:
 370              		.size	pwmEnableChannel, .-pwmEnableChannel
 371              		.section	.text.pwmDisableChannel,"ax",%progbits
 372              		.align	1
 373              		.global	pwmDisableChannel
 374              		.thumb
 375              		.thumb_func
 376              		.type	pwmDisableChannel, %function
 377              	pwmDisableChannel:
 378              	.LFB329:
 379              		.loc 3 196 0
 380              		.cfi_startproc
 381              		@ args = 0, pretend = 0, frame = 0
 382              		@ frame_needed = 0, uses_anonymous_args = 0
 383              	.LVL27:
 384 0000 38B5     		push	{r3, r4, r5, lr}
 385              		.cfi_def_cfa_offset 16
 386              		.cfi_offset 3, -16
 387              		.cfi_offset 4, -12
 388              		.cfi_offset 5, -8
 389              		.cfi_offset 14, -4
 390              		.loc 3 196 0
 391 0002 0446     		mov	r4, r0
 392 0004 0D46     		mov	r5, r1
 393              	.LBB72:
 394              	.LBB73:
 395              		.loc 4 511 0
 396 0006 FFF7FEFF 		bl	chSysLock
 397              	.LVL28:
 398              	.LBE73:
 399              	.LBE72:
ARM GAS  /tmp/cc7gQbhQ.s 			page 8


 400              		.loc 3 204 0
 401 000a 0123     		movs	r3, #1
 402 000c 03FA05F2 		lsl	r2, r3, r5
 403 0010 E368     		ldr	r3, [r4, #12]
 404 0012 23EA0203 		bic	r3, r3, r2
 405 0016 E360     		str	r3, [r4, #12]
 406 0018 2946     		mov	r1, r5
 407 001a 2046     		mov	r0, r4
 408 001c FFF7FEFF 		bl	pwm_lld_disable_channel
 409              	.LVL29:
 410              		.loc 3 207 0
 411 0020 BDE83840 		pop	{r3, r4, r5, lr}
 412              		.cfi_restore 14
 413              		.cfi_restore 5
 414              		.cfi_restore 4
 415              		.cfi_restore 3
 416              		.cfi_def_cfa_offset 0
 417              	.LVL30:
 418              	.LBB74:
 419              	.LBB75:
 420              		.loc 4 522 0
 421 0024 FFF7FEBF 		b	chSysUnlock
 422              	.LVL31:
 423              	.LBE75:
 424              	.LBE74:
 425              		.cfi_endproc
 426              	.LFE329:
 427              		.size	pwmDisableChannel, .-pwmDisableChannel
 428              		.section	.text.pwmEnablePeriodicNotification,"ax",%progbits
 429              		.align	1
 430              		.global	pwmEnablePeriodicNotification
 431              		.thumb
 432              		.thumb_func
 433              		.type	pwmEnablePeriodicNotification, %function
 434              	pwmEnablePeriodicNotification:
 435              	.LFB330:
 436              		.loc 3 218 0
 437              		.cfi_startproc
 438              		@ args = 0, pretend = 0, frame = 0
 439              		@ frame_needed = 0, uses_anonymous_args = 0
 440              	.LVL32:
 441 0000 10B5     		push	{r4, lr}
 442              		.cfi_def_cfa_offset 8
 443              		.cfi_offset 4, -8
 444              		.cfi_offset 14, -4
 445              		.loc 3 218 0
 446 0002 0446     		mov	r4, r0
 447              	.LBB76:
 448              	.LBB77:
 449              		.loc 4 511 0
 450 0004 FFF7FEFF 		bl	chSysLock
 451              	.LVL33:
 452              	.LBE77:
 453              	.LBE76:
 454              		.loc 3 227 0
 455 0008 2046     		mov	r0, r4
 456 000a FFF7FEFF 		bl	pwm_lld_enable_periodic_notification
ARM GAS  /tmp/cc7gQbhQ.s 			page 9


 457              	.LVL34:
 458              		.loc 3 230 0
 459 000e BDE81040 		pop	{r4, lr}
 460              		.cfi_restore 14
 461              		.cfi_restore 4
 462              		.cfi_def_cfa_offset 0
 463              	.LVL35:
 464              	.LBB78:
 465              	.LBB79:
 466              		.loc 4 522 0
 467 0012 FFF7FEBF 		b	chSysUnlock
 468              	.LVL36:
 469              	.LBE79:
 470              	.LBE78:
 471              		.cfi_endproc
 472              	.LFE330:
 473              		.size	pwmEnablePeriodicNotification, .-pwmEnablePeriodicNotification
 474              		.section	.text.pwmDisablePeriodicNotification,"ax",%progbits
 475              		.align	1
 476              		.global	pwmDisablePeriodicNotification
 477              		.thumb
 478              		.thumb_func
 479              		.type	pwmDisablePeriodicNotification, %function
 480              	pwmDisablePeriodicNotification:
 481              	.LFB331:
 482              		.loc 3 241 0
 483              		.cfi_startproc
 484              		@ args = 0, pretend = 0, frame = 0
 485              		@ frame_needed = 0, uses_anonymous_args = 0
 486              	.LVL37:
 487 0000 10B5     		push	{r4, lr}
 488              		.cfi_def_cfa_offset 8
 489              		.cfi_offset 4, -8
 490              		.cfi_offset 14, -4
 491              		.loc 3 241 0
 492 0002 0446     		mov	r4, r0
 493              	.LBB80:
 494              	.LBB81:
 495              		.loc 4 511 0
 496 0004 FFF7FEFF 		bl	chSysLock
 497              	.LVL38:
 498              	.LBE81:
 499              	.LBE80:
 500              		.loc 3 250 0
 501 0008 2046     		mov	r0, r4
 502 000a FFF7FEFF 		bl	pwm_lld_disable_periodic_notification
 503              	.LVL39:
 504              		.loc 3 253 0
 505 000e BDE81040 		pop	{r4, lr}
 506              		.cfi_restore 14
 507              		.cfi_restore 4
 508              		.cfi_def_cfa_offset 0
 509              	.LVL40:
 510              	.LBB82:
 511              	.LBB83:
 512              		.loc 4 522 0
 513 0012 FFF7FEBF 		b	chSysUnlock
ARM GAS  /tmp/cc7gQbhQ.s 			page 10


 514              	.LVL41:
 515              	.LBE83:
 516              	.LBE82:
 517              		.cfi_endproc
 518              	.LFE331:
 519              		.size	pwmDisablePeriodicNotification, .-pwmDisablePeriodicNotification
 520              		.section	.text.pwmEnableChannelNotification,"ax",%progbits
 521              		.align	1
 522              		.global	pwmEnableChannelNotification
 523              		.thumb
 524              		.thumb_func
 525              		.type	pwmEnableChannelNotification, %function
 526              	pwmEnableChannelNotification:
 527              	.LFB332:
 528              		.loc 3 266 0
 529              		.cfi_startproc
 530              		@ args = 0, pretend = 0, frame = 0
 531              		@ frame_needed = 0, uses_anonymous_args = 0
 532              	.LVL42:
 533 0000 38B5     		push	{r3, r4, r5, lr}
 534              		.cfi_def_cfa_offset 16
 535              		.cfi_offset 3, -16
 536              		.cfi_offset 4, -12
 537              		.cfi_offset 5, -8
 538              		.cfi_offset 14, -4
 539              		.loc 3 266 0
 540 0002 0446     		mov	r4, r0
 541 0004 0D46     		mov	r5, r1
 542              	.LBB84:
 543              	.LBB85:
 544              		.loc 4 511 0
 545 0006 FFF7FEFF 		bl	chSysLock
 546              	.LVL43:
 547              	.LBE85:
 548              	.LBE84:
 549              		.loc 3 278 0
 550 000a 2946     		mov	r1, r5
 551 000c 2046     		mov	r0, r4
 552 000e FFF7FEFF 		bl	pwm_lld_enable_channel_notification
 553              	.LVL44:
 554              		.loc 3 281 0
 555 0012 BDE83840 		pop	{r3, r4, r5, lr}
 556              		.cfi_restore 14
 557              		.cfi_restore 5
 558              		.cfi_restore 4
 559              		.cfi_restore 3
 560              		.cfi_def_cfa_offset 0
 561              	.LVL45:
 562              	.LBB86:
 563              	.LBB87:
 564              		.loc 4 522 0
 565 0016 FFF7FEBF 		b	chSysUnlock
 566              	.LVL46:
 567              	.LBE87:
 568              	.LBE86:
 569              		.cfi_endproc
 570              	.LFE332:
ARM GAS  /tmp/cc7gQbhQ.s 			page 11


 571              		.size	pwmEnableChannelNotification, .-pwmEnableChannelNotification
 572              		.section	.text.pwmDisableChannelNotification,"ax",%progbits
 573              		.align	1
 574              		.global	pwmDisableChannelNotification
 575              		.thumb
 576              		.thumb_func
 577              		.type	pwmDisableChannelNotification, %function
 578              	pwmDisableChannelNotification:
 579              	.LFB333:
 580              		.loc 3 294 0
 581              		.cfi_startproc
 582              		@ args = 0, pretend = 0, frame = 0
 583              		@ frame_needed = 0, uses_anonymous_args = 0
 584              	.LVL47:
 585 0000 38B5     		push	{r3, r4, r5, lr}
 586              		.cfi_def_cfa_offset 16
 587              		.cfi_offset 3, -16
 588              		.cfi_offset 4, -12
 589              		.cfi_offset 5, -8
 590              		.cfi_offset 14, -4
 591              		.loc 3 294 0
 592 0002 0446     		mov	r4, r0
 593 0004 0D46     		mov	r5, r1
 594              	.LBB88:
 595              	.LBB89:
 596              		.loc 4 511 0
 597 0006 FFF7FEFF 		bl	chSysLock
 598              	.LVL48:
 599              	.LBE89:
 600              	.LBE88:
 601              		.loc 3 306 0
 602 000a 2946     		mov	r1, r5
 603 000c 2046     		mov	r0, r4
 604 000e FFF7FEFF 		bl	pwm_lld_disable_channel_notification
 605              	.LVL49:
 606              		.loc 3 309 0
 607 0012 BDE83840 		pop	{r3, r4, r5, lr}
 608              		.cfi_restore 14
 609              		.cfi_restore 5
 610              		.cfi_restore 4
 611              		.cfi_restore 3
 612              		.cfi_def_cfa_offset 0
 613              	.LVL50:
 614              	.LBB90:
 615              	.LBB91:
 616              		.loc 4 522 0
 617 0016 FFF7FEBF 		b	chSysUnlock
 618              	.LVL51:
 619              	.LBE91:
 620              	.LBE90:
 621              		.cfi_endproc
 622              	.LFE333:
 623              		.size	pwmDisableChannelNotification, .-pwmDisableChannelNotification
 624              		.text
 625              	.Letext0:
 626              		.file 5 "/usr/include/newlib/machine/_default_types.h"
 627              		.file 6 "/usr/include/newlib/sys/_stdint.h"
ARM GAS  /tmp/cc7gQbhQ.s 			page 12


 628              		.file 7 "../../modules/ChibiOS/os/common/ports/ARMCMx/compilers/GCC/chtypes.h"
 629              		.file 8 "../../modules/ChibiOS/os/rt/include/chsystypes.h"
 630              		.file 9 "../../modules/ChibiOS/os/rt/include/chschd.h"
 631              		.file 10 "../../modules/ChibiOS/os/rt/include/chtime.h"
 632              		.file 11 "../../modules/ChibiOS/os/common/ports/ARMCMx/chcore.h"
 633              		.file 12 "../../modules/ChibiOS/os/common/ports/ARMCMx/chcore_v7m.h"
 634              		.file 13 "../../modules/ChibiOS/os/hal/ports/STM32/LLD/TIMv1/stm32_tim.h"
 635              		.file 14 "../../modules/ChibiOS/os/rt/include/chtm.h"
 636              		.file 15 "../../modules/ChibiOS/os/rt/include/chstats.h"
 637              		.file 16 "../../modules/ChibiOS/os/rt/include/chsem.h"
 638              		.file 17 "../../modules/ChibiOS/os/rt/include/chmtx.h"
 639              		.file 18 "../../modules/ChibiOS/os/hal/include/hal_pwm.h"
 640              		.file 19 "../../modules/ChibiOS/os/hal/ports/STM32/LLD/TIMv1/hal_pwm_lld.h"
 641              		.file 20 "../../modules/ChibiOS/os/common/ext/ARM/CMSIS/Core/Include/core_cm4.h"