ARM GAS  /tmp/ccitZc4x.s 			page 1


   1              		.syntax unified
   2              		.cpu cortex-m4
   3              		.eabi_attribute 27, 1
   4              		.eabi_attribute 28, 1
   5              		.fpu fpv4-sp-d16
   6              		.eabi_attribute 20, 1
   7              		.eabi_attribute 21, 1
   8              		.eabi_attribute 23, 3
   9              		.eabi_attribute 24, 1
  10              		.eabi_attribute 25, 1
  11              		.eabi_attribute 26, 1
  12              		.eabi_attribute 30, 4
  13              		.eabi_attribute 34, 1
  14              		.eabi_attribute 18, 4
  15              		.thumb
  16              		.syntax unified
  17              		.file	"hal_adc_lld.c"
  18              		.text
  19              	.Ltext0:
  20              		.cfi_sections	.debug_frame
  21              		.section	.text.adc_lld_init,"ax",%progbits
  22              		.align	1
  23              		.global	adc_lld_init
  24              		.thumb
  25              		.thumb_func
  26              		.type	adc_lld_init, %function
  27              	adc_lld_init:
  28              	.LFB325:
  29              		.file 1 "../../modules/ChibiOS/os/hal/ports/STM32/LLD/ADCv2/hal_adc_lld.c"
  30              		.loc 1 192 0
  31              		.cfi_startproc
  32              		@ args = 0, pretend = 0, frame = 0
  33              		@ frame_needed = 0, uses_anonymous_args = 0
  34 0000 10B5     		push	{r4, lr}
  35              		.cfi_def_cfa_offset 8
  36              		.cfi_offset 4, -8
  37              		.cfi_offset 14, -4
  38              		.loc 1 196 0
  39 0002 084C     		ldr	r4, .L2
  40 0004 2046     		mov	r0, r4
  41 0006 FFF7FEFF 		bl	adcObjectInit
  42              	.LVL0:
  43              		.loc 1 197 0
  44 000a 074B     		ldr	r3, .L2+4
  45 000c A361     		str	r3, [r4, #24]
  46              		.loc 1 198 0
  47 000e 0023     		movs	r3, #0
  48 0010 E361     		str	r3, [r4, #28]
  49              		.loc 1 199 0
  50 0012 064B     		ldr	r3, .L2+8
  51 0014 2362     		str	r3, [r4, #32]
  52              		.loc 1 235 0
  53 0016 0621     		movs	r1, #6
  54 0018 1220     		movs	r0, #18
  55              		.loc 1 236 0
  56 001a BDE81040 		pop	{r4, lr}
  57              		.cfi_restore 14
ARM GAS  /tmp/ccitZc4x.s 			page 2


  58              		.cfi_restore 4
  59              		.cfi_def_cfa_offset 0
  60              		.loc 1 235 0
  61 001e FFF7FEBF 		b	nvicEnableVector
  62              	.LVL1:
  63              	.L3:
  64 0022 00BF     		.align	2
  65              	.L2:
  66 0024 00000000 		.word	.LANCHOR0
  67 0028 00200140 		.word	1073815552
  68 002c 162C0200 		.word	142358
  69              		.cfi_endproc
  70              	.LFE325:
  71              		.size	adc_lld_init, .-adc_lld_init
  72              		.section	.text.adc_lld_start,"ax",%progbits
  73              		.align	1
  74              		.global	adc_lld_start
  75              		.thumb
  76              		.thumb_func
  77              		.type	adc_lld_start, %function
  78              	adc_lld_start:
  79              	.LFB326:
  80              		.loc 1 245 0
  81              		.cfi_startproc
  82              		@ args = 0, pretend = 0, frame = 0
  83              		@ frame_needed = 0, uses_anonymous_args = 0
  84              	.LVL2:
  85              		.loc 1 248 0
  86 0000 0378     		ldrb	r3, [r0]	@ zero_extendqisi2
  87 0002 012B     		cmp	r3, #1
  88              		.loc 1 245 0
  89 0004 10B5     		push	{r4, lr}
  90              		.cfi_def_cfa_offset 8
  91              		.cfi_offset 4, -8
  92              		.cfi_offset 14, -4
  93              		.loc 1 245 0
  94 0006 0446     		mov	r4, r0
  95              		.loc 1 248 0
  96 0008 23D1     		bne	.L4
  97              		.loc 1 250 0
  98 000a 124B     		ldr	r3, .L8
  99 000c 9842     		cmp	r0, r3
 100 000e 13D1     		bne	.L6
 101              		.loc 1 251 0
 102 0010 0346     		mov	r3, r0
 103 0012 114A     		ldr	r2, .L8+4
 104 0014 0621     		movs	r1, #6
 105 0016 0C20     		movs	r0, #12
 106              	.LVL3:
 107 0018 FFF7FEFF 		bl	dmaStreamAllocI
 108              	.LVL4:
 109              		.loc 1 256 0
 110 001c 0368     		ldr	r3, [r0]
 111 001e 0F4A     		ldr	r2, .L8+8
 112              		.loc 1 251 0
 113 0020 E061     		str	r0, [r4, #28]
 114              		.loc 1 256 0
ARM GAS  /tmp/ccitZc4x.s 			page 3


 115 0022 9A60     		str	r2, [r3, #8]
 116              		.loc 1 257 0
 117 0024 0E4B     		ldr	r3, .L8+12
 118 0026 5A6C     		ldr	r2, [r3, #68]
 119 0028 42F48072 		orr	r2, r2, #256
 120 002c 5A64     		str	r2, [r3, #68]
 121 002e 5A6E     		ldr	r2, [r3, #100]
 122 0030 42F48072 		orr	r2, r2, #256
 123 0034 5A66     		str	r2, [r3, #100]
 124 0036 5B6E     		ldr	r3, [r3, #100]
 125              	.L6:
 126              		.loc 1 287 0
 127 0038 0A4A     		ldr	r2, .L8+16
 128 003a 5368     		ldr	r3, [r2, #4]
 129 003c 03F44003 		and	r3, r3, #12582912
 130 0040 43F48033 		orr	r3, r3, #65536
 131 0044 5360     		str	r3, [r2, #4]
 132              		.loc 1 292 0
 133 0046 A369     		ldr	r3, [r4, #24]
 134 0048 0022     		movs	r2, #0
 135 004a 5A60     		str	r2, [r3, #4]
 136              		.loc 1 293 0
 137 004c 9A60     		str	r2, [r3, #8]
 138              		.loc 1 294 0
 139 004e 0122     		movs	r2, #1
 140 0050 9A60     		str	r2, [r3, #8]
 141              	.L4:
 142 0052 10BD     		pop	{r4, pc}
 143              	.LVL5:
 144              	.L9:
 145              		.align	2
 146              	.L8:
 147 0054 00000000 		.word	.LANCHOR0
 148 0058 00000000 		.word	adc_lld_serve_rx_interrupt
 149 005c 4C200140 		.word	1073815628
 150 0060 00380240 		.word	1073887232
 151 0064 00230140 		.word	1073816320
 152              		.cfi_endproc
 153              	.LFE326:
 154              		.size	adc_lld_start, .-adc_lld_start
 155              		.section	.text.adc_lld_stop,"ax",%progbits
 156              		.align	1
 157              		.global	adc_lld_stop
 158              		.thumb
 159              		.thumb_func
 160              		.type	adc_lld_stop, %function
 161              	adc_lld_stop:
 162              	.LFB327:
 163              		.loc 1 305 0
 164              		.cfi_startproc
 165              		@ args = 0, pretend = 0, frame = 0
 166              		@ frame_needed = 0, uses_anonymous_args = 0
 167              	.LVL6:
 168              		.loc 1 308 0
 169 0000 0378     		ldrb	r3, [r0]	@ zero_extendqisi2
 170 0002 022B     		cmp	r3, #2
 171              		.loc 1 305 0
ARM GAS  /tmp/ccitZc4x.s 			page 4


 172 0004 10B5     		push	{r4, lr}
 173              		.cfi_def_cfa_offset 8
 174              		.cfi_offset 4, -8
 175              		.cfi_offset 14, -4
 176              		.loc 1 305 0
 177 0006 0446     		mov	r4, r0
 178              		.loc 1 308 0
 179 0008 14D1     		bne	.L10
 180              		.loc 1 310 0
 181 000a C069     		ldr	r0, [r0, #28]
 182              	.LVL7:
 183 000c FFF7FEFF 		bl	dmaStreamFreeI
 184              	.LVL8:
 185              		.loc 1 313 0
 186 0010 A269     		ldr	r2, [r4, #24]
 187              		.loc 1 311 0
 188 0012 0023     		movs	r3, #0
 189 0014 E361     		str	r3, [r4, #28]
 190              		.loc 1 313 0
 191 0016 5360     		str	r3, [r2, #4]
 192              		.loc 1 314 0
 193 0018 9360     		str	r3, [r2, #8]
 194              		.loc 1 317 0
 195 001a 074B     		ldr	r3, .L14
 196 001c 9C42     		cmp	r4, r3
 197 001e 09D1     		bne	.L10
 198              		.loc 1 318 0
 199 0020 064B     		ldr	r3, .L14+4
 200 0022 5A6C     		ldr	r2, [r3, #68]
 201 0024 22F48072 		bic	r2, r2, #256
 202 0028 5A64     		str	r2, [r3, #68]
 203 002a 5A6E     		ldr	r2, [r3, #100]
 204 002c 22F48072 		bic	r2, r2, #256
 205 0030 5A66     		str	r2, [r3, #100]
 206 0032 5B6E     		ldr	r3, [r3, #100]
 207              	.L10:
 208 0034 10BD     		pop	{r4, pc}
 209              	.LVL9:
 210              	.L15:
 211 0036 00BF     		.align	2
 212              	.L14:
 213 0038 00000000 		.word	.LANCHOR0
 214 003c 00380240 		.word	1073887232
 215              		.cfi_endproc
 216              	.LFE327:
 217              		.size	adc_lld_stop, .-adc_lld_stop
 218              		.section	.text.adc_lld_start_conversion,"ax",%progbits
 219              		.align	1
 220              		.global	adc_lld_start_conversion
 221              		.thumb
 222              		.thumb_func
 223              		.type	adc_lld_start_conversion, %function
 224              	adc_lld_start_conversion:
 225              	.LFB328:
 226              		.loc 1 340 0
 227              		.cfi_startproc
 228              		@ args = 0, pretend = 0, frame = 0
ARM GAS  /tmp/ccitZc4x.s 			page 5


 229              		@ frame_needed = 0, uses_anonymous_args = 0
 230              	.LVL10:
 231              		.loc 1 343 0
 232 0000 0269     		ldr	r2, [r0, #16]
 233              	.LVL11:
 234              		.loc 1 346 0
 235 0002 016A     		ldr	r1, [r0, #32]
 236              	.LVL12:
 237              		.loc 1 347 0
 238 0004 1378     		ldrb	r3, [r2]	@ zero_extendqisi2
 239              		.loc 1 340 0
 240 0006 30B5     		push	{r4, r5, lr}
 241              		.cfi_def_cfa_offset 12
 242              		.cfi_offset 4, -12
 243              		.cfi_offset 5, -8
 244              		.cfi_offset 14, -4
 245 0008 C568     		ldr	r5, [r0, #12]
 246              		.loc 1 347 0
 247 000a 2BB1     		cbz	r3, .L17
 248              	.LVL13:
 249              		.loc 1 349 0
 250 000c 012D     		cmp	r5, #1
 251              		.loc 1 348 0
 252 000e 94BF     		ite	ls
 253 0010 41F48071 		orrls	r1, r1, #256
 254              	.LVL14:
 255              		.loc 1 352 0
 256 0014 41F48471 		orrhi	r1, r1, #264
 257              	.LVL15:
 258              	.L17:
 259              		.loc 1 355 0
 260 0018 C369     		ldr	r3, [r0, #28]
 261 001a 8468     		ldr	r4, [r0, #8]
 262 001c 1B68     		ldr	r3, [r3]
 263 001e DC60     		str	r4, [r3, #12]
 264              		.loc 1 356 0
 265 0020 5488     		ldrh	r4, [r2, #2]
 266 0022 6543     		muls	r5, r4, r5
 267 0024 5D60     		str	r5, [r3, #4]
 268              		.loc 1 358 0
 269 0026 1960     		str	r1, [r3]
 270              		.loc 1 359 0
 271 0028 1968     		ldr	r1, [r3]
 272              	.LVL16:
 273 002a 41F00101 		orr	r1, r1, #1
 274 002e 1960     		str	r1, [r3]
 275              	.LVL17:
 276              		.loc 1 362 0
 277 0030 8369     		ldr	r3, [r0, #24]
 278 0032 0021     		movs	r1, #0
 279 0034 1960     		str	r1, [r3]
 280              		.loc 1 363 0
 281 0036 5169     		ldr	r1, [r2, #20]
 282 0038 D960     		str	r1, [r3, #12]
 283              		.loc 1 364 0
 284 003a 9169     		ldr	r1, [r2, #24]
 285 003c 1961     		str	r1, [r3, #16]
ARM GAS  /tmp/ccitZc4x.s 			page 6


 286              		.loc 1 365 0
 287 003e 918B     		ldrh	r1, [r2, #28]
 288 0040 5962     		str	r1, [r3, #36]
 289              		.loc 1 366 0
 290 0042 D18B     		ldrh	r1, [r2, #30]
 291 0044 9962     		str	r1, [r3, #40]
 292              		.loc 1 367 0
 293 0046 116A     		ldr	r1, [r2, #32]
 294 0048 013C     		subs	r4, r4, #1
 295 004a 41EA0454 		orr	r4, r1, r4, lsl #20
 296              		.loc 1 368 0
 297 004e 516A     		ldr	r1, [r2, #36]
 298              		.loc 1 367 0
 299 0050 DC62     		str	r4, [r3, #44]
 300              		.loc 1 368 0
 301 0052 1963     		str	r1, [r3, #48]
 302              		.loc 1 369 0
 303 0054 916A     		ldr	r1, [r2, #40]
 304 0056 5963     		str	r1, [r3, #52]
 305              		.loc 1 372 0
 306 0058 D168     		ldr	r1, [r2, #12]
 307              		.loc 1 375 0
 308 005a 1269     		ldr	r2, [r2, #16]
 309              	.LVL18:
 310              		.loc 1 372 0
 311 005c 41F08061 		orr	r1, r1, #67108864
 312 0060 41F48071 		orr	r1, r1, #256
 313 0064 5960     		str	r1, [r3, #4]
 314              		.loc 1 379 0
 315 0066 5100     		lsls	r1, r2, #1
 316 0068 0DD5     		bpl	.L19
 317              		.loc 1 381 0
 318 006a 22F08041 		bic	r1, r2, #1073741824
 319 006e 21F00201 		bic	r1, r1, #2
 320 0072 41F44071 		orr	r1, r1, #768
 321 0076 41F00301 		orr	r1, r1, #3
 322              		.loc 1 384 0
 323 007a 42F44072 		orr	r2, r2, #768
 324              	.LVL19:
 325              		.loc 1 381 0
 326 007e 9960     		str	r1, [r3, #8]
 327              		.loc 1 384 0
 328 0080 42F00302 		orr	r2, r2, #3
 329 0084 03E0     		b	.L24
 330              	.LVL20:
 331              	.L19:
 332              		.loc 1 375 0
 333 0086 42F44072 		orr	r2, r2, #768
 334              	.LVL21:
 335 008a 42F00102 		orr	r2, r2, #1
 336              	.L24:
 337              		.loc 1 387 0
 338 008e 9A60     		str	r2, [r3, #8]
 339              	.LVL22:
 340 0090 30BD     		pop	{r4, r5, pc}
 341              		.cfi_endproc
 342              	.LFE328:
ARM GAS  /tmp/ccitZc4x.s 			page 7


 343              		.size	adc_lld_start_conversion, .-adc_lld_start_conversion
 344              		.section	.text.adc_lld_stop_conversion,"ax",%progbits
 345              		.align	1
 346              		.global	adc_lld_stop_conversion
 347              		.thumb
 348              		.thumb_func
 349              		.type	adc_lld_stop_conversion, %function
 350              	adc_lld_stop_conversion:
 351              	.LFB329:
 352              		.loc 1 397 0
 353              		.cfi_startproc
 354              		@ args = 0, pretend = 0, frame = 0
 355              		@ frame_needed = 0, uses_anonymous_args = 0
 356              	.LVL23:
 357              		.loc 1 399 0
 358 0000 C169     		ldr	r1, [r0, #28]
 359              		.loc 1 397 0
 360 0002 10B5     		push	{r4, lr}
 361              		.cfi_def_cfa_offset 8
 362              		.cfi_offset 4, -8
 363              		.cfi_offset 14, -4
 364              		.loc 1 399 0
 365 0004 0C68     		ldr	r4, [r1]
 366 0006 2368     		ldr	r3, [r4]
 367 0008 23F01F03 		bic	r3, r3, #31
 368 000c 2360     		str	r3, [r4]
 369              	.L26:
 370              		.loc 1 399 0 is_stmt 0 discriminator 2
 371 000e 2368     		ldr	r3, [r4]
 372 0010 13F00102 		ands	r2, r3, #1
 373 0014 FBD1     		bne	.L26
 374              		.loc 1 399 0 discriminator 3
 375 0016 4C68     		ldr	r4, [r1, #4]
 376 0018 497A     		ldrb	r1, [r1, #9]	@ zero_extendqisi2
 377 001a 3D23     		movs	r3, #61
 378 001c 8B40     		lsls	r3, r3, r1
 379 001e 2360     		str	r3, [r4]
 380              		.loc 1 400 0 is_stmt 1 discriminator 3
 381 0020 8369     		ldr	r3, [r0, #24]
 382 0022 5A60     		str	r2, [r3, #4]
 383              		.loc 1 402 0 discriminator 3
 384 0024 9A68     		ldr	r2, [r3, #8]
 385 0026 22F08042 		bic	r2, r2, #1073741824
 386 002a 9A60     		str	r2, [r3, #8]
 387              		.loc 1 403 0 discriminator 3
 388 002c 0122     		movs	r2, #1
 389 002e 9A60     		str	r2, [r3, #8]
 390 0030 10BD     		pop	{r4, pc}
 391              		.cfi_endproc
 392              	.LFE329:
 393              		.size	adc_lld_stop_conversion, .-adc_lld_stop_conversion
 394              		.section	.text.Vector88,"ax",%progbits
 395              		.align	1
 396              		.global	Vector88
 397              		.thumb
 398              		.thumb_func
 399              		.type	Vector88, %function
ARM GAS  /tmp/ccitZc4x.s 			page 8


 400              	Vector88:
 401              	.LFB324:
 402              		.loc 1 111 0
 403              		.cfi_startproc
 404              		@ args = 0, pretend = 0, frame = 0
 405              		@ frame_needed = 0, uses_anonymous_args = 0
 406 0000 70B5     		push	{r4, r5, r6, lr}
 407              		.cfi_def_cfa_offset 16
 408              		.cfi_offset 4, -16
 409              		.cfi_offset 5, -12
 410              		.cfi_offset 6, -8
 411              		.cfi_offset 14, -4
 412              		.loc 1 114 0
 413 0002 FFF7FEFF 		bl	_stats_increase_irq
 414              	.LVL24:
 415              		.loc 1 117 0
 416 0006 304B     		ldr	r3, .L52
 417 0008 1E68     		ldr	r6, [r3]
 418              	.LVL25:
 419              		.loc 1 118 0
 420 000a 0022     		movs	r2, #0
 421 000c 1A60     		str	r2, [r3]
 422              		.loc 1 121 0
 423 000e B206     		lsls	r2, r6, #26
 424 0010 2BD5     		bpl	.L29
 425              		.loc 1 121 0 is_stmt 0 discriminator 1
 426 0012 2E4D     		ldr	r5, .L52+4
 427 0014 EB69     		ldr	r3, [r5, #28]
 428 0016 1B68     		ldr	r3, [r3]
 429 0018 5B68     		ldr	r3, [r3, #4]
 430 001a 33B3     		cbz	r3, .L29
 431              		.loc 1 124 0 is_stmt 1
 432 001c 2B69     		ldr	r3, [r5, #16]
 433 001e 23B3     		cbz	r3, .L29
 434              		.loc 1 125 0
 435 0020 2846     		mov	r0, r5
 436 0022 FFF7FEFF 		bl	adc_lld_stop_conversion
 437              	.LVL26:
 438 0026 2B69     		ldr	r3, [r5, #16]
 439 0028 9B68     		ldr	r3, [r3, #8]
 440 002a 63B1     		cbz	r3, .L30
 441              		.loc 1 125 0 is_stmt 0 discriminator 1
 442 002c 0522     		movs	r2, #5
 443 002e 2A70     		strb	r2, [r5]
 444 0030 0121     		movs	r1, #1
 445 0032 2846     		mov	r0, r5
 446 0034 9847     		blx	r3
 447              	.LVL27:
 448 0036 2B78     		ldrb	r3, [r5]	@ zero_extendqisi2
 449 0038 052B     		cmp	r3, #5
 450 003a 04BF     		itt	eq
 451 003c 0223     		moveq	r3, #2
 452 003e 2B70     		strbeq	r3, [r5]
 453 0040 0023     		movs	r3, #0
 454 0042 2B61     		str	r3, [r5, #16]
 455 0044 02E0     		b	.L32
 456              	.L30:
ARM GAS  /tmp/ccitZc4x.s 			page 9


 457              		.loc 1 125 0 discriminator 2
 458 0046 0222     		movs	r2, #2
 459 0048 2A70     		strb	r2, [r5]
 460 004a 2B61     		str	r3, [r5, #16]
 461              	.L32:
 462              	.LVL28:
 463              	.LBB84:
 464              	.LBB85:
 465              	.LBB86:
 466              	.LBB87:
 467              	.LBB88:
 468              	.LBB89:
 469              	.LBB90:
 470              		.file 2 "../../modules/ChibiOS/os/common/ext/ARM/CMSIS/Core/Include/cmsis_gcc.h"
 471              		.loc 2 493 0 is_stmt 1 discriminator 7
 472 004c 2023     		movs	r3, #32
 473              		.syntax unified
 474              	@ 493 "../../modules/ChibiOS/os/common/ext/ARM/CMSIS/Core/Include/cmsis_gcc.h" 1
 475 004e 83F31188 		MSR basepri, r3
 476              	@ 0 "" 2
 477              	.LVL29:
 478              		.thumb
 479              		.syntax unified
 480              	.LBE90:
 481              	.LBE89:
 482              	.LBE88:
 483              	.LBE87:
 484              		.file 3 "../../modules/ChibiOS/os/rt/include/chsys.h"
 485              		.loc 3 396 0 discriminator 7
 486 0052 FFF7FEFF 		bl	_stats_start_measure_crit_isr
 487              	.LVL30:
 488              	.LBE86:
 489              	.LBE85:
 490              	.LBE84:
 491              	.LBB91:
 492              	.LBB92:
 493              		.file 4 "../../modules/ChibiOS/os/hal/osal/rt/osal.h"
 494              		.loc 4 775 0 discriminator 7
 495 0056 4FF0FF31 		mov	r1, #-1
 496 005a 1D48     		ldr	r0, .L52+8
 497 005c FFF7FEFF 		bl	chThdResumeI
 498              	.LVL31:
 499              	.LBE92:
 500              	.LBE91:
 501              	.LBB93:
 502              	.LBB94:
 503              	.LBB95:
 504              		.loc 3 416 0 discriminator 7
 505 0060 FFF7FEFF 		bl	_stats_stop_measure_crit_isr
 506              	.LVL32:
 507              	.LBB96:
 508              	.LBB97:
 509              	.LBB98:
 510              	.LBB99:
 511              		.loc 2 493 0 discriminator 7
 512 0064 0023     		movs	r3, #0
 513              		.syntax unified
ARM GAS  /tmp/ccitZc4x.s 			page 10


 514              	@ 493 "../../modules/ChibiOS/os/common/ext/ARM/CMSIS/Core/Include/cmsis_gcc.h" 1
 515 0066 83F31188 		MSR basepri, r3
 516              	@ 0 "" 2
 517              	.LVL33:
 518              		.thumb
 519              		.syntax unified
 520              	.L29:
 521              	.LBE99:
 522              	.LBE98:
 523              	.LBE97:
 524              	.LBE96:
 525              	.LBE95:
 526              	.LBE94:
 527              	.LBE93:
 528              		.loc 1 127 0
 529 006a F307     		lsls	r3, r6, #31
 530 006c 27D5     		bpl	.L33
 531              		.loc 1 128 0
 532 006e 174D     		ldr	r5, .L52+4
 533 0070 2B69     		ldr	r3, [r5, #16]
 534 0072 23B3     		cbz	r3, .L33
 535              		.loc 1 129 0
 536 0074 2846     		mov	r0, r5
 537 0076 FFF7FEFF 		bl	adc_lld_stop_conversion
 538              	.LVL34:
 539 007a 2B69     		ldr	r3, [r5, #16]
 540 007c 9B68     		ldr	r3, [r3, #8]
 541 007e 63B1     		cbz	r3, .L34
 542              		.loc 1 129 0 is_stmt 0 discriminator 1
 543 0080 0522     		movs	r2, #5
 544 0082 2A70     		strb	r2, [r5]
 545 0084 0221     		movs	r1, #2
 546 0086 2846     		mov	r0, r5
 547 0088 9847     		blx	r3
 548              	.LVL35:
 549 008a 2B78     		ldrb	r3, [r5]	@ zero_extendqisi2
 550 008c 052B     		cmp	r3, #5
 551 008e 04BF     		itt	eq
 552 0090 0223     		moveq	r3, #2
 553 0092 2B70     		strbeq	r3, [r5]
 554 0094 0023     		movs	r3, #0
 555 0096 2B61     		str	r3, [r5, #16]
 556 0098 02E0     		b	.L36
 557              	.L34:
 558              		.loc 1 129 0 discriminator 2
 559 009a 0222     		movs	r2, #2
 560 009c 2A70     		strb	r2, [r5]
 561 009e 2B61     		str	r3, [r5, #16]
 562              	.L36:
 563              	.LVL36:
 564              	.LBB100:
 565              	.LBB101:
 566              	.LBB102:
 567              	.LBB103:
 568              	.LBB104:
 569              	.LBB105:
 570              	.LBB106:
ARM GAS  /tmp/ccitZc4x.s 			page 11


 571              		.loc 2 493 0 is_stmt 1 discriminator 7
 572 00a0 2023     		movs	r3, #32
 573              		.syntax unified
 574              	@ 493 "../../modules/ChibiOS/os/common/ext/ARM/CMSIS/Core/Include/cmsis_gcc.h" 1
 575 00a2 83F31188 		MSR basepri, r3
 576              	@ 0 "" 2
 577              	.LVL37:
 578              		.thumb
 579              		.syntax unified
 580              	.LBE106:
 581              	.LBE105:
 582              	.LBE104:
 583              	.LBE103:
 584              		.loc 3 396 0 discriminator 7
 585 00a6 FFF7FEFF 		bl	_stats_start_measure_crit_isr
 586              	.LVL38:
 587              	.LBE102:
 588              	.LBE101:
 589              	.LBE100:
 590              	.LBB107:
 591              	.LBB108:
 592              		.loc 4 775 0 discriminator 7
 593 00aa 4FF0FF31 		mov	r1, #-1
 594 00ae 0848     		ldr	r0, .L52+8
 595 00b0 FFF7FEFF 		bl	chThdResumeI
 596              	.LVL39:
 597              	.LBE108:
 598              	.LBE107:
 599              	.LBB109:
 600              	.LBB110:
 601              	.LBB111:
 602              		.loc 3 416 0 discriminator 7
 603 00b4 FFF7FEFF 		bl	_stats_stop_measure_crit_isr
 604              	.LVL40:
 605              	.LBB112:
 606              	.LBB113:
 607              	.LBB114:
 608              	.LBB115:
 609              		.loc 2 493 0 discriminator 7
 610 00b8 0023     		movs	r3, #0
 611              		.syntax unified
 612              	@ 493 "../../modules/ChibiOS/os/common/ext/ARM/CMSIS/Core/Include/cmsis_gcc.h" 1
 613 00ba 83F31188 		MSR basepri, r3
 614              	@ 0 "" 2
 615              	.LVL41:
 616              		.thumb
 617              		.syntax unified
 618              	.L33:
 619              	.LBE115:
 620              	.LBE114:
 621              	.LBE113:
 622              	.LBE112:
 623              	.LBE111:
 624              	.LBE110:
 625              	.LBE109:
 626              		.loc 1 180 0
 627 00be BDE87040 		pop	{r4, r5, r6, lr}
ARM GAS  /tmp/ccitZc4x.s 			page 12


 628              		.cfi_restore 14
 629              		.cfi_restore 6
 630              		.cfi_restore 5
 631              		.cfi_restore 4
 632              		.cfi_def_cfa_offset 0
 633              	.LVL42:
 634              		.loc 1 179 0
 635 00c2 FFF7FEBF 		b	_port_irq_epilogue
 636              	.LVL43:
 637              	.L53:
 638 00c6 00BF     		.align	2
 639              	.L52:
 640 00c8 00200140 		.word	1073815552
 641 00cc 00000000 		.word	.LANCHOR0
 642 00d0 14000000 		.word	.LANCHOR0+20
 643              		.cfi_endproc
 644              	.LFE324:
 645              		.size	Vector88, .-Vector88
 646              		.section	.text.adc_lld_serve_rx_interrupt,"ax",%progbits
 647              		.align	1
 648              		.thumb
 649              		.thumb_func
 650              		.type	adc_lld_serve_rx_interrupt, %function
 651              	adc_lld_serve_rx_interrupt:
 652              	.LFB323:
 653              		.loc 1 75 0
 654              		.cfi_startproc
 655              		@ args = 0, pretend = 0, frame = 0
 656              		@ frame_needed = 0, uses_anonymous_args = 0
 657              	.LVL44:
 658              		.loc 1 78 0
 659 0000 11F00C0F 		tst	r1, #12
 660              		.loc 1 75 0
 661 0004 10B5     		push	{r4, lr}
 662              		.cfi_def_cfa_offset 8
 663              		.cfi_offset 4, -8
 664              		.cfi_offset 14, -4
 665              		.loc 1 75 0
 666 0006 0446     		mov	r4, r0
 667              		.loc 1 78 0
 668 0008 1AD0     		beq	.L55
 669              		.loc 1 81 0
 670 000a FFF7FEFF 		bl	adc_lld_stop_conversion
 671              	.LVL45:
 672 000e 0369     		ldr	r3, [r0, #16]
 673 0010 9B68     		ldr	r3, [r3, #8]
 674 0012 53B1     		cbz	r3, .L56
 675              		.loc 1 81 0 is_stmt 0 discriminator 1
 676 0014 0522     		movs	r2, #5
 677 0016 0270     		strb	r2, [r0]
 678 0018 0021     		movs	r1, #0
 679 001a 9847     		blx	r3
 680              	.LVL46:
 681 001c 2378     		ldrb	r3, [r4]	@ zero_extendqisi2
 682 001e 052B     		cmp	r3, #5
 683 0020 04BF     		itt	eq
 684 0022 0223     		moveq	r3, #2
ARM GAS  /tmp/ccitZc4x.s 			page 13


 685 0024 2370     		strbeq	r3, [r4]
 686 0026 0023     		movs	r3, #0
 687 0028 01E0     		b	.L78
 688              	.L56:
 689              		.loc 1 81 0 discriminator 2
 690 002a 0222     		movs	r2, #2
 691 002c 0270     		strb	r2, [r0]
 692              	.L78:
 693 002e 2361     		str	r3, [r4, #16]
 694              	.LVL47:
 695              	.LBB152:
 696              	.LBB153:
 697              	.LBB154:
 698              	.LBB155:
 699              	.LBB156:
 700              	.LBB157:
 701              	.LBB158:
 702              		.loc 2 493 0 is_stmt 1 discriminator 2
 703 0030 2023     		movs	r3, #32
 704              		.syntax unified
 705              	@ 493 "../../modules/ChibiOS/os/common/ext/ARM/CMSIS/Core/Include/cmsis_gcc.h" 1
 706 0032 83F31188 		MSR basepri, r3
 707              	@ 0 "" 2
 708              	.LVL48:
 709              		.thumb
 710              		.syntax unified
 711              	.LBE158:
 712              	.LBE157:
 713              	.LBE156:
 714              	.LBE155:
 715              		.loc 3 396 0 discriminator 2
 716 0036 FFF7FEFF 		bl	_stats_start_measure_crit_isr
 717              	.LVL49:
 718              	.LBE154:
 719              	.LBE153:
 720              	.LBE152:
 721              	.LBB159:
 722              	.LBB160:
 723              		.loc 4 775 0 discriminator 2
 724 003a 4FF0FF31 		mov	r1, #-1
 725 003e 26E0     		b	.L79
 726              	.LVL50:
 727              	.L55:
 728              	.LBE160:
 729              	.LBE159:
 730              		.loc 1 86 0
 731 0040 0369     		ldr	r3, [r0, #16]
 732 0042 002B     		cmp	r3, #0
 733 0044 34D0     		beq	.L54
 734              		.loc 1 88 0
 735 0046 8A06     		lsls	r2, r1, #26
 736 0048 2BD5     		bpl	.L61
 737              		.loc 1 90 0
 738 004a 1A78     		ldrb	r2, [r3]	@ zero_extendqisi2
 739 004c 52B1     		cbz	r2, .L62
 740              		.loc 1 90 0 is_stmt 0 discriminator 1
 741 004e 5B68     		ldr	r3, [r3, #4]
ARM GAS  /tmp/ccitZc4x.s 			page 14


 742 0050 73B3     		cbz	r3, .L54
 743              		.loc 1 90 0 discriminator 3
 744 0052 0422     		movs	r2, #4
 745 0054 0270     		strb	r2, [r0]
 746 0056 9847     		blx	r3
 747              	.LVL51:
 748 0058 2378     		ldrb	r3, [r4]	@ zero_extendqisi2
 749 005a 042B     		cmp	r3, #4
 750 005c 28D1     		bne	.L54
 751              		.loc 1 90 0 discriminator 4
 752 005e 0323     		movs	r3, #3
 753 0060 2370     		strb	r3, [r4]
 754 0062 10BD     		pop	{r4, pc}
 755              	.LVL52:
 756              	.L62:
 757              		.loc 1 90 0 discriminator 2
 758 0064 FFF7FEFF 		bl	adc_lld_stop_conversion
 759              	.LVL53:
 760 0068 0369     		ldr	r3, [r0, #16]
 761 006a 5B68     		ldr	r3, [r3, #4]
 762 006c 2BB1     		cbz	r3, .L64
 763              		.loc 1 90 0 discriminator 5
 764 006e 0422     		movs	r2, #4
 765 0070 0270     		strb	r2, [r0]
 766 0072 9847     		blx	r3
 767              	.LVL54:
 768 0074 2378     		ldrb	r3, [r4]	@ zero_extendqisi2
 769 0076 042B     		cmp	r3, #4
 770 0078 03D1     		bne	.L65
 771              	.L64:
 772              		.loc 1 90 0 discriminator 7
 773 007a 0223     		movs	r3, #2
 774 007c 2370     		strb	r3, [r4]
 775 007e 0023     		movs	r3, #0
 776 0080 2361     		str	r3, [r4, #16]
 777              	.L65:
 778              	.LVL55:
 779              	.LBB161:
 780              	.LBB162:
 781              	.LBB163:
 782              	.LBB164:
 783              	.LBB165:
 784              	.LBB166:
 785              	.LBB167:
 786              		.loc 2 493 0 is_stmt 1 discriminator 8
 787 0082 2023     		movs	r3, #32
 788              		.syntax unified
 789              	@ 493 "../../modules/ChibiOS/os/common/ext/ARM/CMSIS/Core/Include/cmsis_gcc.h" 1
 790 0084 83F31188 		MSR basepri, r3
 791              	@ 0 "" 2
 792              	.LVL56:
 793              		.thumb
 794              		.syntax unified
 795              	.LBE167:
 796              	.LBE166:
 797              	.LBE165:
 798              	.LBE164:
ARM GAS  /tmp/ccitZc4x.s 			page 15


 799              		.loc 3 396 0 discriminator 8
 800 0088 FFF7FEFF 		bl	_stats_start_measure_crit_isr
 801              	.LVL57:
 802              	.LBE163:
 803              	.LBE162:
 804              	.LBE161:
 805              	.LBB168:
 806              	.LBB169:
 807              		.loc 4 775 0 discriminator 8
 808 008c 0021     		movs	r1, #0
 809              	.LVL58:
 810              	.L79:
 811 008e 04F11400 		add	r0, r4, #20
 812 0092 FFF7FEFF 		bl	chThdResumeI
 813              	.LVL59:
 814              	.LBE169:
 815              	.LBE168:
 816              	.LBB170:
 817              	.LBB171:
 818              	.LBB172:
 819              		.loc 3 416 0 discriminator 8
 820 0096 FFF7FEFF 		bl	_stats_stop_measure_crit_isr
 821              	.LVL60:
 822              	.LBB173:
 823              	.LBB174:
 824              	.LBB175:
 825              	.LBB176:
 826              		.loc 2 493 0 discriminator 8
 827 009a 0023     		movs	r3, #0
 828              		.syntax unified
 829              	@ 493 "../../modules/ChibiOS/os/common/ext/ARM/CMSIS/Core/Include/cmsis_gcc.h" 1
 830 009c 83F31188 		MSR basepri, r3
 831              	@ 0 "" 2
 832              	.LVL61:
 833              		.thumb
 834              		.syntax unified
 835 00a0 10BD     		pop	{r4, pc}
 836              	.LVL62:
 837              	.L61:
 838              	.LBE176:
 839              	.LBE175:
 840              	.LBE174:
 841              	.LBE173:
 842              	.LBE172:
 843              	.LBE171:
 844              	.LBE170:
 845              		.loc 1 92 0
 846 00a2 CA06     		lsls	r2, r1, #27
 847 00a4 04D5     		bpl	.L54
 848              		.loc 1 94 0
 849 00a6 5B68     		ldr	r3, [r3, #4]
 850 00a8 13B1     		cbz	r3, .L54
 851              		.loc 1 98 0 discriminator 1
 852 00aa BDE81040 		pop	{r4, lr}
 853              		.cfi_remember_state
 854              		.cfi_restore 14
 855              		.cfi_restore 4
ARM GAS  /tmp/ccitZc4x.s 			page 16


 856              		.cfi_def_cfa_offset 0
 857              		.loc 1 94 0 discriminator 1
 858 00ae 1847     		bx	r3	@ indirect register sibling call
 859              	.LVL63:
 860              	.L54:
 861              		.cfi_restore_state
 862 00b0 10BD     		pop	{r4, pc}
 863              		.cfi_endproc
 864              	.LFE323:
 865              		.size	adc_lld_serve_rx_interrupt, .-adc_lld_serve_rx_interrupt
 866              		.section	.text.adcSTM32EnableTSVREFE,"ax",%progbits
 867              		.align	1
 868              		.global	adcSTM32EnableTSVREFE
 869              		.thumb
 870              		.thumb_func
 871              		.type	adcSTM32EnableTSVREFE, %function
 872              	adcSTM32EnableTSVREFE:
 873              	.LFB330:
 874              		.loc 1 412 0
 875              		.cfi_startproc
 876              		@ args = 0, pretend = 0, frame = 0
 877              		@ frame_needed = 0, uses_anonymous_args = 0
 878              		@ link register save eliminated.
 879              		.loc 1 414 0
 880 0000 024A     		ldr	r2, .L81
 881 0002 5368     		ldr	r3, [r2, #4]
 882 0004 43F40003 		orr	r3, r3, #8388608
 883 0008 5360     		str	r3, [r2, #4]
 884 000a 7047     		bx	lr
 885              	.L82:
 886              		.align	2
 887              	.L81:
 888 000c 00230140 		.word	1073816320
 889              		.cfi_endproc
 890              	.LFE330:
 891              		.size	adcSTM32EnableTSVREFE, .-adcSTM32EnableTSVREFE
 892              		.section	.text.adcSTM32DisableTSVREFE,"ax",%progbits
 893              		.align	1
 894              		.global	adcSTM32DisableTSVREFE
 895              		.thumb
 896              		.thumb_func
 897              		.type	adcSTM32DisableTSVREFE, %function
 898              	adcSTM32DisableTSVREFE:
 899              	.LFB331:
 900              		.loc 1 423 0
 901              		.cfi_startproc
 902              		@ args = 0, pretend = 0, frame = 0
 903              		@ frame_needed = 0, uses_anonymous_args = 0
 904              		@ link register save eliminated.
 905              		.loc 1 425 0
 906 0000 024A     		ldr	r2, .L84
 907 0002 5368     		ldr	r3, [r2, #4]
 908 0004 23F40003 		bic	r3, r3, #8388608
 909 0008 5360     		str	r3, [r2, #4]
 910 000a 7047     		bx	lr
 911              	.L85:
 912              		.align	2
ARM GAS  /tmp/ccitZc4x.s 			page 17


 913              	.L84:
 914 000c 00230140 		.word	1073816320
 915              		.cfi_endproc
 916              	.LFE331:
 917              		.size	adcSTM32DisableTSVREFE, .-adcSTM32DisableTSVREFE
 918              		.section	.text.adcSTM32EnableVBATE,"ax",%progbits
 919              		.align	1
 920              		.global	adcSTM32EnableVBATE
 921              		.thumb
 922              		.thumb_func
 923              		.type	adcSTM32EnableVBATE, %function
 924              	adcSTM32EnableVBATE:
 925              	.LFB332:
 926              		.loc 1 434 0
 927              		.cfi_startproc
 928              		@ args = 0, pretend = 0, frame = 0
 929              		@ frame_needed = 0, uses_anonymous_args = 0
 930              		@ link register save eliminated.
 931              		.loc 1 436 0
 932 0000 024A     		ldr	r2, .L87
 933 0002 5368     		ldr	r3, [r2, #4]
 934 0004 43F48003 		orr	r3, r3, #4194304
 935 0008 5360     		str	r3, [r2, #4]
 936 000a 7047     		bx	lr
 937              	.L88:
 938              		.align	2
 939              	.L87:
 940 000c 00230140 		.word	1073816320
 941              		.cfi_endproc
 942              	.LFE332:
 943              		.size	adcSTM32EnableVBATE, .-adcSTM32EnableVBATE
 944              		.section	.text.adcSTM32DisableVBATE,"ax",%progbits
 945              		.align	1
 946              		.global	adcSTM32DisableVBATE
 947              		.thumb
 948              		.thumb_func
 949              		.type	adcSTM32DisableVBATE, %function
 950              	adcSTM32DisableVBATE:
 951              	.LFB333:
 952              		.loc 1 445 0
 953              		.cfi_startproc
 954              		@ args = 0, pretend = 0, frame = 0
 955              		@ frame_needed = 0, uses_anonymous_args = 0
 956              		@ link register save eliminated.
 957              		.loc 1 447 0
 958 0000 024A     		ldr	r2, .L90
 959 0002 5368     		ldr	r3, [r2, #4]
 960 0004 23F48003 		bic	r3, r3, #4194304
 961 0008 5360     		str	r3, [r2, #4]
 962 000a 7047     		bx	lr
 963              	.L91:
 964              		.align	2
 965              	.L90:
 966 000c 00230140 		.word	1073816320
 967              		.cfi_endproc
 968              	.LFE333:
 969              		.size	adcSTM32DisableVBATE, .-adcSTM32DisableVBATE
ARM GAS  /tmp/ccitZc4x.s 			page 18


 970              		.global	ADCD1
 971              		.section	.bss.ADCD1,"aw",%nobits
 972              		.align	2
 973              		.set	.LANCHOR0,. + 0
 974              		.type	ADCD1, %object
 975              		.size	ADCD1, 36
 976              	ADCD1:
 977 0000 00000000 		.space	36
 977      00000000 
 977      00000000 
 977      00000000 
 977      00000000 
 978              		.text
 979              	.Letext0:
 980              		.file 5 "/usr/lib/gcc/arm-none-eabi/5.4.1/include/stddef.h"
 981              		.file 6 "/usr/include/newlib/machine/_default_types.h"
 982              		.file 7 "/usr/include/newlib/sys/_stdint.h"
 983              		.file 8 "../../modules/ChibiOS/os/common/ports/ARMCMx/compilers/GCC/chtypes.h"
 984              		.file 9 "../../modules/ChibiOS/os/rt/include/chsystypes.h"
 985              		.file 10 "../../modules/ChibiOS/os/rt/include/chschd.h"
 986              		.file 11 "../../modules/ChibiOS/os/rt/include/chtime.h"
 987              		.file 12 "../../modules/ChibiOS/os/common/ext/ST/STM32F4xx/stm32f427xx.h"
 988              		.file 13 "../../modules/ChibiOS/os/common/ports/ARMCMx/chcore.h"
 989              		.file 14 "../../modules/ChibiOS/os/common/ports/ARMCMx/chcore_v7m.h"
 990              		.file 15 "../../modules/ChibiOS/os/rt/include/chtm.h"
 991              		.file 16 "../../modules/ChibiOS/os/rt/include/chstats.h"
 992              		.file 17 "../../modules/ChibiOS/os/rt/include/chsem.h"
 993              		.file 18 "../../modules/ChibiOS/os/rt/include/chmtx.h"
 994              		.file 19 "../../modules/ChibiOS/os/hal/ports/STM32/LLD/DMAv2/stm32_dma.h"
 995              		.file 20 "../../modules/ChibiOS/os/hal/include/hal_adc.h"
 996              		.file 21 "../../modules/ChibiOS/os/hal/ports/STM32/LLD/ADCv2/hal_adc_lld.h"
 997              		.file 22 "../../modules/ChibiOS/os/common/ext/ARM/CMSIS/Core/Include/core_cm4.h"
 998              		.file 23 "../../modules/ChibiOS/os/hal/ports/common/ARMCMx/nvic.h"
 999              		.file 24 "../../modules/ChibiOS/os/rt/include/chthreads.h"