ARM GAS  /tmp/ccWMN03B.s 			page 1


   1              		.syntax unified
   2              		.cpu cortex-m4
   3              		.eabi_attribute 27, 1
   4              		.eabi_attribute 28, 1
   5              		.fpu fpv4-sp-d16
   6              		.eabi_attribute 20, 1
   7              		.eabi_attribute 21, 1
   8              		.eabi_attribute 23, 3
   9              		.eabi_attribute 24, 1
  10              		.eabi_attribute 25, 1
  11              		.eabi_attribute 26, 1
  12              		.eabi_attribute 30, 4
  13              		.eabi_attribute 34, 1
  14              		.eabi_attribute 18, 4
  15              		.thumb
  16              		.syntax unified
  17              		.file	"hal_st_lld.c"
  18              		.text
  19              	.Ltext0:
  20              		.cfi_sections	.debug_frame
  21              		.section	.text.Vector108,"ax",%progbits
  22              		.align	1
  23              		.global	Vector108
  24              		.thumb
  25              		.thumb_func
  26              		.type	Vector108, %function
  27              	Vector108:
  28              	.LFB323:
  29              		.file 1 "../../modules/ChibiOS/os/hal/ports/STM32/LLD/TIMv1/hal_st_lld.c"
  30              		.loc 1 253 0
  31              		.cfi_startproc
  32              		@ args = 0, pretend = 0, frame = 0
  33              		@ frame_needed = 0, uses_anonymous_args = 0
  34 0000 10B5     		push	{r4, lr}
  35              		.cfi_def_cfa_offset 8
  36              		.cfi_offset 4, -8
  37              		.cfi_offset 14, -4
  38              		.loc 1 255 0
  39 0002 FFF7FEFF 		bl	_stats_increase_irq
  40              	.LVL0:
  41              		.loc 1 260 0
  42 0006 0A4B     		ldr	r3, .L7
  43 0008 1A69     		ldr	r2, [r3, #16]
  44 000a 9207     		lsls	r2, r2, #30
  45 000c 0CD5     		bpl	.L2
  46              		.loc 1 261 0
  47 000e 0024     		movs	r4, #0
  48 0010 1C61     		str	r4, [r3, #16]
  49              	.LVL1:
  50              	.LBB48:
  51              	.LBB49:
  52              	.LBB50:
  53              	.LBB51:
  54              	.LBB52:
  55              	.LBB53:
  56              	.LBB54:
  57              		.file 2 "../../modules/ChibiOS/os/common/ext/ARM/CMSIS/Core/Include/cmsis_gcc.h"
ARM GAS  /tmp/ccWMN03B.s 			page 2


  58              		.loc 2 493 0
  59 0012 2023     		movs	r3, #32
  60              		.syntax unified
  61              	@ 493 "../../modules/ChibiOS/os/common/ext/ARM/CMSIS/Core/Include/cmsis_gcc.h" 1
  62 0014 83F31188 		MSR basepri, r3
  63              	@ 0 "" 2
  64              	.LVL2:
  65              		.thumb
  66              		.syntax unified
  67              	.LBE54:
  68              	.LBE53:
  69              	.LBE52:
  70              	.LBE51:
  71              		.file 3 "../../modules/ChibiOS/os/rt/include/chsys.h"
  72              		.loc 3 396 0
  73 0018 FFF7FEFF 		bl	_stats_start_measure_crit_isr
  74              	.LVL3:
  75              	.LBE50:
  76              	.LBE49:
  77              	.LBE48:
  78              	.LBB55:
  79              	.LBB56:
  80              		.file 4 "../../modules/ChibiOS/os/hal/osal/rt/osal.h"
  81              		.loc 4 603 0
  82 001c FFF7FEFF 		bl	chSysTimerHandlerI
  83              	.LVL4:
  84              	.LBE56:
  85              	.LBE55:
  86              	.LBB57:
  87              	.LBB58:
  88              	.LBB59:
  89              		.loc 3 416 0
  90 0020 FFF7FEFF 		bl	_stats_stop_measure_crit_isr
  91              	.LVL5:
  92              	.LBB60:
  93              	.LBB61:
  94              	.LBB62:
  95              	.LBB63:
  96              		.loc 2 493 0
  97              		.syntax unified
  98              	@ 493 "../../modules/ChibiOS/os/common/ext/ARM/CMSIS/Core/Include/cmsis_gcc.h" 1
  99 0024 84F31188 		MSR basepri, r4
 100              	@ 0 "" 2
 101              	.LVL6:
 102              		.thumb
 103              		.syntax unified
 104              	.L2:
 105              	.LBE63:
 106              	.LBE62:
 107              	.LBE61:
 108              	.LBE60:
 109              	.LBE59:
 110              	.LBE58:
 111              	.LBE57:
 112              		.loc 1 269 0
 113 0028 BDE81040 		pop	{r4, lr}
 114              		.cfi_restore 14
ARM GAS  /tmp/ccWMN03B.s 			page 3


 115              		.cfi_restore 4
 116              		.cfi_def_cfa_offset 0
 117              		.loc 1 268 0
 118 002c FFF7FEBF 		b	_port_irq_epilogue
 119              	.LVL7:
 120              	.L8:
 121              		.align	2
 122              	.L7:
 123 0030 000C0040 		.word	1073744896
 124              		.cfi_endproc
 125              	.LFE323:
 126              		.size	Vector108, .-Vector108
 127              		.section	.text.st_lld_init,"ax",%progbits
 128              		.align	1
 129              		.global	st_lld_init
 130              		.thumb
 131              		.thumb_func
 132              		.type	st_lld_init, %function
 133              	st_lld_init:
 134              	.LFB324:
 135              		.loc 1 281 0
 136              		.cfi_startproc
 137              		@ args = 0, pretend = 0, frame = 0
 138              		@ frame_needed = 0, uses_anonymous_args = 0
 139              		@ link register save eliminated.
 140              		.loc 1 287 0
 141 0000 104B     		ldr	r3, .L10
 142 0002 1A6C     		ldr	r2, [r3, #64]
 143 0004 42F00802 		orr	r2, r2, #8
 144 0008 1A64     		str	r2, [r3, #64]
 145 000a 1A6E     		ldr	r2, [r3, #96]
 146 000c 42F00802 		orr	r2, r2, #8
 147 0010 1A66     		str	r2, [r3, #96]
 148              		.loc 1 290 0
 149 0012 0D4A     		ldr	r2, .L10+4
 150              		.loc 1 287 0
 151 0014 1B6E     		ldr	r3, [r3, #96]
 152              		.loc 1 290 0
 153 0016 9368     		ldr	r3, [r2, #8]
 154 0018 43F00803 		orr	r3, r3, #8
 155 001c 9360     		str	r3, [r2, #8]
 156              		.loc 1 293 0
 157 001e 0B4B     		ldr	r3, .L10+8
 158 0020 5322     		movs	r2, #83
 159 0022 9A62     		str	r2, [r3, #40]
 160              		.loc 1 294 0
 161 0024 4FF0FF32 		mov	r2, #-1
 162 0028 DA62     		str	r2, [r3, #44]
 163              		.loc 1 295 0
 164 002a 0022     		movs	r2, #0
 165 002c 9A61     		str	r2, [r3, #24]
 166              		.loc 1 296 0
 167 002e 5A63     		str	r2, [r3, #52]
 168              		.loc 1 297 0
 169 0030 DA60     		str	r2, [r3, #12]
 170              		.loc 1 298 0
 171 0032 5A60     		str	r2, [r3, #4]
ARM GAS  /tmp/ccWMN03B.s 			page 4


 172              		.loc 1 299 0
 173 0034 0122     		movs	r2, #1
 174 0036 5A61     		str	r2, [r3, #20]
 175              		.loc 1 303 0
 176 0038 0821     		movs	r1, #8
 177              		.loc 1 300 0
 178 003a 1A60     		str	r2, [r3]
 179              		.loc 1 303 0
 180 003c 3220     		movs	r0, #50
 181 003e FFF7FEBF 		b	nvicEnableVector
 182              	.LVL8:
 183              	.L11:
 184 0042 00BF     		.align	2
 185              	.L10:
 186 0044 00380240 		.word	1073887232
 187 0048 002004E0 		.word	-536600576
 188 004c 000C0040 		.word	1073744896
 189              		.cfi_endproc
 190              	.LFE324:
 191              		.size	st_lld_init, .-st_lld_init
 192              		.text
 193              	.Letext0:
 194              		.file 5 "/usr/include/newlib/machine/_default_types.h"
 195              		.file 6 "/usr/include/newlib/sys/_stdint.h"
 196              		.file 7 "../../modules/ChibiOS/os/common/ports/ARMCMx/compilers/GCC/chtypes.h"
 197              		.file 8 "../../modules/ChibiOS/os/rt/include/chsystypes.h"
 198              		.file 9 "../../modules/ChibiOS/os/rt/include/chschd.h"
 199              		.file 10 "../../modules/ChibiOS/os/rt/include/chtime.h"
 200              		.file 11 "../../modules/ChibiOS/os/common/ext/ST/STM32F4xx/stm32f427xx.h"
 201              		.file 12 "../../modules/ChibiOS/os/common/ports/ARMCMx/chcore.h"
 202              		.file 13 "../../modules/ChibiOS/os/common/ports/ARMCMx/chcore_v7m.h"
 203              		.file 14 "../../modules/ChibiOS/os/hal/ports/STM32/LLD/TIMv1/stm32_tim.h"
 204              		.file 15 "../../modules/ChibiOS/os/rt/include/chtm.h"
 205              		.file 16 "../../modules/ChibiOS/os/rt/include/chstats.h"
 206              		.file 17 "../../modules/ChibiOS/os/rt/include/chsem.h"
 207              		.file 18 "../../modules/ChibiOS/os/rt/include/chmtx.h"
 208              		.file 19 "../../modules/ChibiOS/os/hal/ports/common/ARMCMx/nvic.h"
 209              		.file 20 "../../modules/ChibiOS/os/common/ext/ARM/CMSIS/Core/Include/core_cm4.h"
 210              		.section	.debug_info,"",%progbits
 211              	.Ldebug_info0:
 212 0000 0C0D0000 		.4byte	0xd0c
 213 0004 0400     		.2byte	0x4
 214 0006 00000000 		.4byte	.Ldebug_abbrev0
 215 000a 04       		.byte	0x4
 216 000b 01       		.uleb128 0x1
 217 000c 90000000 		.4byte	.LASF168
 218 0010 0C       		.byte	0xc
 219 0011 E0030000 		.4byte	.LASF169
 220 0015 5B060000 		.4byte	.LASF170
 221 0019 00000000 		.4byte	.Ldebug_ranges0+0
 222 001d 00000000 		.4byte	0
 223 0021 00000000 		.4byte	.Ldebug_line0
 224 0025 02       		.uleb128 0x2
 225 0026 04       		.byte	0x4
 226 0027 05       		.byte	0x5
 227 0028 696E7400 		.ascii	"int\000"
 228 002c 03       		.uleb128 0x3
ARM GAS  /tmp/ccWMN03B.s 			page 5


 229 002d 04       		.byte	0x4
 230 002e 07       		.byte	0x7
 231 002f 32030000 		.4byte	.LASF0
 232 0033 03       		.uleb128 0x3
 233 0034 08       		.byte	0x8
 234 0035 05       		.byte	0x5
 235 0036 10030000 		.4byte	.LASF1
 236 003a 03       		.uleb128 0x3
 237 003b 08       		.byte	0x8
 238 003c 04       		.byte	0x4
 239 003d F9040000 		.4byte	.LASF2
 240 0041 03       		.uleb128 0x3
 241 0042 01       		.byte	0x1
 242 0043 06       		.byte	0x6
 243 0044 50020000 		.4byte	.LASF3
 244 0048 04       		.uleb128 0x4
 245 0049 4F000000 		.4byte	.LASF7
 246 004d 05       		.byte	0x5
 247 004e 1D       		.byte	0x1d
 248 004f 53000000 		.4byte	0x53
 249 0053 03       		.uleb128 0x3
 250 0054 01       		.byte	0x1
 251 0055 08       		.byte	0x8
 252 0056 DB050000 		.4byte	.LASF4
 253 005a 03       		.uleb128 0x3
 254 005b 02       		.byte	0x2
 255 005c 05       		.byte	0x5
 256 005d FD050000 		.4byte	.LASF5
 257 0061 03       		.uleb128 0x3
 258 0062 02       		.byte	0x2
 259 0063 07       		.byte	0x7
 260 0064 82070000 		.4byte	.LASF6
 261 0068 04       		.uleb128 0x4
 262 0069 60040000 		.4byte	.LASF8
 263 006d 05       		.byte	0x5
 264 006e 3F       		.byte	0x3f
 265 006f 73000000 		.4byte	0x73
 266 0073 03       		.uleb128 0x3
 267 0074 04       		.byte	0x4
 268 0075 05       		.byte	0x5
 269 0076 99020000 		.4byte	.LASF9
 270 007a 04       		.uleb128 0x4
 271 007b D1020000 		.4byte	.LASF10
 272 007f 05       		.byte	0x5
 273 0080 41       		.byte	0x41
 274 0081 85000000 		.4byte	0x85
 275 0085 03       		.uleb128 0x3
 276 0086 04       		.byte	0x4
 277 0087 07       		.byte	0x7
 278 0088 C8060000 		.4byte	.LASF11
 279 008c 04       		.uleb128 0x4
 280 008d 3E050000 		.4byte	.LASF12
 281 0091 05       		.byte	0x5
 282 0092 5B       		.byte	0x5b
 283 0093 97000000 		.4byte	0x97
 284 0097 03       		.uleb128 0x3
 285 0098 08       		.byte	0x8
ARM GAS  /tmp/ccWMN03B.s 			page 6


 286 0099 07       		.byte	0x7
 287 009a A4010000 		.4byte	.LASF13
 288 009e 04       		.uleb128 0x4
 289 009f F2070000 		.4byte	.LASF14
 290 00a3 06       		.byte	0x6
 291 00a4 18       		.byte	0x18
 292 00a5 48000000 		.4byte	0x48
 293 00a9 04       		.uleb128 0x4
 294 00aa D3050000 		.4byte	.LASF15
 295 00ae 06       		.byte	0x6
 296 00af 2C       		.byte	0x2c
 297 00b0 68000000 		.4byte	0x68
 298 00b4 04       		.uleb128 0x4
 299 00b5 BC070000 		.4byte	.LASF16
 300 00b9 06       		.byte	0x6
 301 00ba 30       		.byte	0x30
 302 00bb 7A000000 		.4byte	0x7a
 303 00bf 04       		.uleb128 0x4
 304 00c0 39000000 		.4byte	.LASF17
 305 00c4 06       		.byte	0x6
 306 00c5 3C       		.byte	0x3c
 307 00c6 8C000000 		.4byte	0x8c
 308 00ca 04       		.uleb128 0x4
 309 00cb A1070000 		.4byte	.LASF18
 310 00cf 07       		.byte	0x7
 311 00d0 27       		.byte	0x27
 312 00d1 B4000000 		.4byte	0xb4
 313 00d5 04       		.uleb128 0x4
 314 00d6 13020000 		.4byte	.LASF19
 315 00da 07       		.byte	0x7
 316 00db 28       		.byte	0x28
 317 00dc BF000000 		.4byte	0xbf
 318 00e0 04       		.uleb128 0x4
 319 00e1 1E080000 		.4byte	.LASF20
 320 00e5 07       		.byte	0x7
 321 00e6 2A       		.byte	0x2a
 322 00e7 9E000000 		.4byte	0x9e
 323 00eb 04       		.uleb128 0x4
 324 00ec B5020000 		.4byte	.LASF21
 325 00f0 07       		.byte	0x7
 326 00f1 2B       		.byte	0x2b
 327 00f2 9E000000 		.4byte	0x9e
 328 00f6 04       		.uleb128 0x4
 329 00f7 5B050000 		.4byte	.LASF22
 330 00fb 07       		.byte	0x7
 331 00fc 2C       		.byte	0x2c
 332 00fd 9E000000 		.4byte	0x9e
 333 0101 04       		.uleb128 0x4
 334 0102 A9050000 		.4byte	.LASF23
 335 0106 07       		.byte	0x7
 336 0107 2E       		.byte	0x2e
 337 0108 B4000000 		.4byte	0xb4
 338 010c 04       		.uleb128 0x4
 339 010d A7030000 		.4byte	.LASF24
 340 0111 07       		.byte	0x7
 341 0112 2F       		.byte	0x2f
 342 0113 A9000000 		.4byte	0xa9
ARM GAS  /tmp/ccWMN03B.s 			page 7


 343 0117 04       		.uleb128 0x4
 344 0118 54040000 		.4byte	.LASF25
 345 011c 07       		.byte	0x7
 346 011d 31       		.byte	0x31
 347 011e B4000000 		.4byte	0xb4
 348 0122 04       		.uleb128 0x4
 349 0123 2C030000 		.4byte	.LASF26
 350 0127 07       		.byte	0x7
 351 0128 33       		.byte	0x33
 352 0129 A9000000 		.4byte	0xa9
 353 012d 04       		.uleb128 0x4
 354 012e B6030000 		.4byte	.LASF27
 355 0132 07       		.byte	0x7
 356 0133 34       		.byte	0x34
 357 0134 B4000000 		.4byte	0xb4
 358 0138 04       		.uleb128 0x4
 359 0139 16070000 		.4byte	.LASF28
 360 013d 08       		.byte	0x8
 361 013e 34       		.byte	0x34
 362 013f 43010000 		.4byte	0x143
 363 0143 05       		.uleb128 0x5
 364 0144 92030000 		.4byte	.LASF47
 365 0148 60       		.byte	0x60
 366 0149 09       		.byte	0x9
 367 014a 8E       		.byte	0x8e
 368 014b 2E020000 		.4byte	0x22e
 369 014f 06       		.uleb128 0x6
 370 0150 68030000 		.4byte	.LASF29
 371 0154 09       		.byte	0x9
 372 0155 8F       		.byte	0x8f
 373 0156 63020000 		.4byte	0x263
 374 015a 00       		.byte	0
 375 015b 06       		.uleb128 0x6
 376 015c 28050000 		.4byte	.LASF30
 377 0160 09       		.byte	0x9
 378 0161 90       		.byte	0x90
 379 0162 01010000 		.4byte	0x101
 380 0166 08       		.byte	0x8
 381 0167 07       		.uleb128 0x7
 382 0168 63747800 		.ascii	"ctx\000"
 383 016c 09       		.byte	0x9
 384 016d 91       		.byte	0x91
 385 016e B1060000 		.4byte	0x6b1
 386 0172 0C       		.byte	0xc
 387 0173 06       		.uleb128 0x6
 388 0174 A7040000 		.4byte	.LASF31
 389 0178 09       		.byte	0x9
 390 0179 93       		.byte	0x93
 391 017a 39020000 		.4byte	0x239
 392 017e 10       		.byte	0x10
 393 017f 06       		.uleb128 0x6
 394 0180 E6060000 		.4byte	.LASF32
 395 0184 09       		.byte	0x9
 396 0185 94       		.byte	0x94
 397 0186 39020000 		.4byte	0x239
 398 018a 14       		.byte	0x14
 399 018b 06       		.uleb128 0x6
ARM GAS  /tmp/ccWMN03B.s 			page 8


 400 018c 8D030000 		.4byte	.LASF33
 401 0190 09       		.byte	0x9
 402 0191 9B       		.byte	0x9b
 403 0192 B90A0000 		.4byte	0xab9
 404 0196 18       		.byte	0x18
 405 0197 06       		.uleb128 0x6
 406 0198 DA060000 		.4byte	.LASF34
 407 019c 09       		.byte	0x9
 408 019d A4       		.byte	0xa4
 409 019e CB0A0000 		.4byte	0xacb
 410 01a2 1C       		.byte	0x1c
 411 01a3 06       		.uleb128 0x6
 412 01a4 89020000 		.4byte	.LASF35
 413 01a8 09       		.byte	0x9
 414 01a9 A9       		.byte	0xa9
 415 01aa EB000000 		.4byte	0xeb
 416 01ae 20       		.byte	0x20
 417 01af 06       		.uleb128 0x6
 418 01b0 FA070000 		.4byte	.LASF36
 419 01b4 09       		.byte	0x9
 420 01b5 AD       		.byte	0xad
 421 01b6 E0000000 		.4byte	0xe0
 422 01ba 21       		.byte	0x21
 423 01bb 06       		.uleb128 0x6
 424 01bc 37020000 		.4byte	.LASF37
 425 01c0 09       		.byte	0x9
 426 01c1 B2       		.byte	0xb2
 427 01c2 F6000000 		.4byte	0xf6
 428 01c6 22       		.byte	0x22
 429 01c7 08       		.uleb128 0x8
 430 01c8 7500     		.ascii	"u\000"
 431 01ca 09       		.byte	0x9
 432 01cb 0301     		.2byte	0x103
 433 01cd EF090000 		.4byte	0x9ef
 434 01d1 24       		.byte	0x24
 435 01d2 09       		.uleb128 0x9
 436 01d3 08030000 		.4byte	.LASF38
 437 01d7 09       		.byte	0x9
 438 01d8 0801     		.2byte	0x108
 439 01da 3F020000 		.4byte	0x23f
 440 01de 28       		.byte	0x28
 441 01df 09       		.uleb128 0x9
 442 01e0 80020000 		.4byte	.LASF39
 443 01e4 09       		.byte	0x9
 444 01e5 0E01     		.2byte	0x10e
 445 01e7 63020000 		.4byte	0x263
 446 01eb 2C       		.byte	0x2c
 447 01ec 09       		.uleb128 0x9
 448 01ed BD030000 		.4byte	.LASF40
 449 01f1 09       		.byte	0x9
 450 01f2 1401     		.2byte	0x114
 451 01f4 17010000 		.4byte	0x117
 452 01f8 34       		.byte	0x34
 453 01f9 09       		.uleb128 0x9
 454 01fa 43080000 		.4byte	.LASF41
 455 01fe 09       		.byte	0x9
 456 01ff 1B01     		.2byte	0x11b
ARM GAS  /tmp/ccWMN03B.s 			page 9


 457 0201 B30A0000 		.4byte	0xab3
 458 0205 38       		.byte	0x38
 459 0206 09       		.uleb128 0x9
 460 0207 BD040000 		.4byte	.LASF42
 461 020b 09       		.byte	0x9
 462 020c 1F01     		.2byte	0x11f
 463 020e 01010000 		.4byte	0x101
 464 0212 3C       		.byte	0x3c
 465 0213 09       		.uleb128 0x9
 466 0214 6E030000 		.4byte	.LASF43
 467 0218 09       		.byte	0x9
 468 0219 2601     		.2byte	0x126
 469 021b 16030000 		.4byte	0x316
 470 021f 40       		.byte	0x40
 471 0220 09       		.uleb128 0x9
 472 0221 C3020000 		.4byte	.LASF44
 473 0225 09       		.byte	0x9
 474 0226 2C01     		.2byte	0x12c
 475 0228 A0090000 		.4byte	0x9a0
 476 022c 48       		.byte	0x48
 477 022d 00       		.byte	0
 478 022e 04       		.uleb128 0x4
 479 022f CF040000 		.4byte	.LASF45
 480 0233 08       		.byte	0x8
 481 0234 39       		.byte	0x39
 482 0235 39020000 		.4byte	0x239
 483 0239 0A       		.uleb128 0xa
 484 023a 04       		.byte	0x4
 485 023b 38010000 		.4byte	0x138
 486 023f 04       		.uleb128 0x4
 487 0240 00000000 		.4byte	.LASF46
 488 0244 08       		.byte	0x8
 489 0245 3E       		.byte	0x3e
 490 0246 4A020000 		.4byte	0x24a
 491 024a 05       		.uleb128 0x5
 492 024b B2060000 		.4byte	.LASF48
 493 024f 04       		.byte	0x4
 494 0250 09       		.byte	0x9
 495 0251 7C       		.byte	0x7c
 496 0252 63020000 		.4byte	0x263
 497 0256 06       		.uleb128 0x6
 498 0257 27000000 		.4byte	.LASF49
 499 025b 09       		.byte	0x9
 500 025c 7D       		.byte	0x7d
 501 025d 39020000 		.4byte	0x239
 502 0261 00       		.byte	0
 503 0262 00       		.byte	0
 504 0263 04       		.uleb128 0x4
 505 0264 CB070000 		.4byte	.LASF50
 506 0268 08       		.byte	0x8
 507 0269 45       		.byte	0x45
 508 026a 6E020000 		.4byte	0x26e
 509 026e 05       		.uleb128 0x5
 510 026f 6A000000 		.4byte	.LASF51
 511 0273 08       		.byte	0x8
 512 0274 09       		.byte	0x9
 513 0275 83       		.byte	0x83
ARM GAS  /tmp/ccWMN03B.s 			page 10


 514 0276 93020000 		.4byte	0x293
 515 027a 06       		.uleb128 0x6
 516 027b 27000000 		.4byte	.LASF49
 517 027f 09       		.byte	0x9
 518 0280 84       		.byte	0x84
 519 0281 39020000 		.4byte	0x239
 520 0285 00       		.byte	0
 521 0286 06       		.uleb128 0x6
 522 0287 59000000 		.4byte	.LASF52
 523 028b 09       		.byte	0x9
 524 028c 85       		.byte	0x85
 525 028d 39020000 		.4byte	0x239
 526 0291 04       		.byte	0x4
 527 0292 00       		.byte	0
 528 0293 04       		.uleb128 0x4
 529 0294 0F000000 		.4byte	.LASF53
 530 0298 08       		.byte	0x8
 531 0299 4C       		.byte	0x4c
 532 029a 9E020000 		.4byte	0x29e
 533 029e 0B       		.uleb128 0xb
 534 029f 46040000 		.4byte	.LASF54
 535 02a3 1C       		.byte	0x1c
 536 02a4 09       		.byte	0x9
 537 02a5 5E01     		.2byte	0x15e
 538 02a7 FA020000 		.4byte	0x2fa
 539 02ab 09       		.uleb128 0x9
 540 02ac 68030000 		.4byte	.LASF29
 541 02b0 09       		.byte	0x9
 542 02b1 5F01     		.2byte	0x15f
 543 02b3 63020000 		.4byte	0x263
 544 02b7 00       		.byte	0
 545 02b8 09       		.uleb128 0x9
 546 02b9 28050000 		.4byte	.LASF30
 547 02bd 09       		.byte	0x9
 548 02be 6001     		.2byte	0x160
 549 02c0 01010000 		.4byte	0x101
 550 02c4 08       		.byte	0x8
 551 02c5 08       		.uleb128 0x8
 552 02c6 63747800 		.ascii	"ctx\000"
 553 02ca 09       		.byte	0x9
 554 02cb 6201     		.2byte	0x162
 555 02cd B1060000 		.4byte	0x6b1
 556 02d1 0C       		.byte	0xc
 557 02d2 09       		.uleb128 0x9
 558 02d3 A7040000 		.4byte	.LASF31
 559 02d7 09       		.byte	0x9
 560 02d8 6501     		.2byte	0x165
 561 02da 39020000 		.4byte	0x239
 562 02de 10       		.byte	0x10
 563 02df 09       		.uleb128 0x9
 564 02e0 E6060000 		.4byte	.LASF32
 565 02e4 09       		.byte	0x9
 566 02e5 6601     		.2byte	0x166
 567 02e7 39020000 		.4byte	0x239
 568 02eb 14       		.byte	0x14
 569 02ec 09       		.uleb128 0x9
 570 02ed 36050000 		.4byte	.LASF55
ARM GAS  /tmp/ccWMN03B.s 			page 11


 571 02f1 09       		.byte	0x9
 572 02f2 6901     		.2byte	0x169
 573 02f4 39020000 		.4byte	0x239
 574 02f8 18       		.byte	0x18
 575 02f9 00       		.byte	0
 576 02fa 04       		.uleb128 0x4
 577 02fb 41070000 		.4byte	.LASF56
 578 02ff 08       		.byte	0x8
 579 0300 51       		.byte	0x51
 580 0301 05030000 		.4byte	0x305
 581 0305 0A       		.uleb128 0xa
 582 0306 04       		.byte	0x4
 583 0307 0B030000 		.4byte	0x30b
 584 030b 0C       		.uleb128 0xc
 585 030c 16030000 		.4byte	0x316
 586 0310 0D       		.uleb128 0xd
 587 0311 16030000 		.4byte	0x316
 588 0315 00       		.byte	0
 589 0316 0E       		.uleb128 0xe
 590 0317 04       		.byte	0x4
 591 0318 04       		.uleb128 0x4
 592 0319 AD040000 		.4byte	.LASF57
 593 031d 08       		.byte	0x8
 594 031e 56       		.byte	0x56
 595 031f 23030000 		.4byte	0x323
 596 0323 0B       		.uleb128 0xb
 597 0324 29060000 		.4byte	.LASF58
 598 0328 14       		.byte	0x14
 599 0329 09       		.byte	0x9
 600 032a 3901     		.2byte	0x139
 601 032c 72030000 		.4byte	0x372
 602 0330 09       		.uleb128 0x9
 603 0331 27000000 		.4byte	.LASF49
 604 0335 09       		.byte	0x9
 605 0336 3A01     		.2byte	0x13a
 606 0338 D10A0000 		.4byte	0xad1
 607 033c 00       		.byte	0
 608 033d 09       		.uleb128 0x9
 609 033e 59000000 		.4byte	.LASF52
 610 0342 09       		.byte	0x9
 611 0343 3B01     		.2byte	0x13b
 612 0345 D10A0000 		.4byte	0xad1
 613 0349 04       		.byte	0x4
 614 034a 09       		.uleb128 0x9
 615 034b 2C000000 		.4byte	.LASF59
 616 034f 09       		.byte	0x9
 617 0350 3C01     		.2byte	0x13c
 618 0352 56040000 		.4byte	0x456
 619 0356 08       		.byte	0x8
 620 0357 09       		.uleb128 0x9
 621 0358 BE020000 		.4byte	.LASF60
 622 035c 09       		.byte	0x9
 623 035d 3D01     		.2byte	0x13d
 624 035f FA020000 		.4byte	0x2fa
 625 0363 0C       		.byte	0xc
 626 0364 08       		.uleb128 0x8
 627 0365 70617200 		.ascii	"par\000"
ARM GAS  /tmp/ccWMN03B.s 			page 12


 628 0369 09       		.byte	0x9
 629 036a 3F01     		.2byte	0x13f
 630 036c 16030000 		.4byte	0x316
 631 0370 10       		.byte	0x10
 632 0371 00       		.byte	0
 633 0372 04       		.uleb128 0x4
 634 0373 D7010000 		.4byte	.LASF61
 635 0377 08       		.byte	0x8
 636 0378 5B       		.byte	0x5b
 637 0379 7D030000 		.4byte	0x37d
 638 037d 0B       		.uleb128 0xb
 639 037e E2040000 		.4byte	.LASF62
 640 0382 10       		.byte	0x10
 641 0383 09       		.byte	0x9
 642 0384 4901     		.2byte	0x149
 643 0386 BF030000 		.4byte	0x3bf
 644 038a 09       		.uleb128 0x9
 645 038b 27000000 		.4byte	.LASF49
 646 038f 09       		.byte	0x9
 647 0390 4A01     		.2byte	0x14a
 648 0392 D10A0000 		.4byte	0xad1
 649 0396 00       		.byte	0
 650 0397 09       		.uleb128 0x9
 651 0398 59000000 		.4byte	.LASF52
 652 039c 09       		.byte	0x9
 653 039d 4C01     		.2byte	0x14c
 654 039f D10A0000 		.4byte	0xad1
 655 03a3 04       		.byte	0x4
 656 03a4 09       		.uleb128 0x9
 657 03a5 2C000000 		.4byte	.LASF59
 658 03a9 09       		.byte	0x9
 659 03aa 4E01     		.2byte	0x14e
 660 03ac 56040000 		.4byte	0x456
 661 03b0 08       		.byte	0x8
 662 03b1 09       		.uleb128 0x9
 663 03b2 07060000 		.4byte	.LASF63
 664 03b6 09       		.byte	0x9
 665 03b7 5601     		.2byte	0x156
 666 03b9 4B040000 		.4byte	0x44b
 667 03bd 0C       		.byte	0xc
 668 03be 00       		.byte	0
 669 03bf 04       		.uleb128 0x4
 670 03c0 7B000000 		.4byte	.LASF64
 671 03c4 08       		.byte	0x8
 672 03c5 60       		.byte	0x60
 673 03c6 CA030000 		.4byte	0x3ca
 674 03ca 0B       		.uleb128 0xb
 675 03cb F8020000 		.4byte	.LASF65
 676 03cf 04       		.byte	0x4
 677 03d0 09       		.byte	0x9
 678 03d1 7001     		.2byte	0x170
 679 03d3 E5030000 		.4byte	0x3e5
 680 03d7 09       		.uleb128 0x9
 681 03d8 58070000 		.4byte	.LASF66
 682 03dc 09       		.byte	0x9
 683 03dd 7801     		.2byte	0x178
 684 03df D70A0000 		.4byte	0xad7
ARM GAS  /tmp/ccWMN03B.s 			page 13


 685 03e3 00       		.byte	0
 686 03e4 00       		.byte	0
 687 03e5 04       		.uleb128 0x4
 688 03e6 95070000 		.4byte	.LASF67
 689 03ea 08       		.byte	0x8
 690 03eb 65       		.byte	0x65
 691 03ec F0030000 		.4byte	0x3f0
 692 03f0 0B       		.uleb128 0xb
 693 03f1 8F020000 		.4byte	.LASF68
 694 03f5 D0       		.byte	0xd0
 695 03f6 09       		.byte	0x9
 696 03f7 9001     		.2byte	0x190
 697 03f9 4B040000 		.4byte	0x44b
 698 03fd 09       		.uleb128 0x9
 699 03fe EC070000 		.4byte	.LASF69
 700 0402 09       		.byte	0x9
 701 0403 9401     		.2byte	0x194
 702 0405 93020000 		.4byte	0x293
 703 0409 00       		.byte	0
 704 040a 09       		.uleb128 0x9
 705 040b 6D020000 		.4byte	.LASF70
 706 040f 09       		.byte	0x9
 707 0410 9801     		.2byte	0x198
 708 0412 72030000 		.4byte	0x372
 709 0416 1C       		.byte	0x1c
 710 0417 08       		.uleb128 0x8
 711 0418 64626700 		.ascii	"dbg\000"
 712 041c 09       		.byte	0x9
 713 041d 9C01     		.2byte	0x19c
 714 041f BF030000 		.4byte	0x3bf
 715 0423 2C       		.byte	0x2c
 716 0424 09       		.uleb128 0x9
 717 0425 C4010000 		.4byte	.LASF71
 718 0429 09       		.byte	0x9
 719 042a A001     		.2byte	0x1a0
 720 042c 38010000 		.4byte	0x138
 721 0430 30       		.byte	0x30
 722 0431 08       		.uleb128 0x8
 723 0432 746D00   		.ascii	"tm\000"
 724 0435 09       		.byte	0x9
 725 0436 A501     		.2byte	0x1a5
 726 0438 52090000 		.4byte	0x952
 727 043c 90       		.byte	0x90
 728 043d 09       		.uleb128 0x9
 729 043e 42000000 		.4byte	.LASF72
 730 0442 09       		.byte	0x9
 731 0443 AB01     		.2byte	0x1ab
 732 0445 E4090000 		.4byte	0x9e4
 733 0449 98       		.byte	0x98
 734 044a 00       		.byte	0
 735 044b 04       		.uleb128 0x4
 736 044c 24070000 		.4byte	.LASF73
 737 0450 0A       		.byte	0xa
 738 0451 6D       		.byte	0x6d
 739 0452 B4000000 		.4byte	0xb4
 740 0456 04       		.uleb128 0x4
 741 0457 1E030000 		.4byte	.LASF74
ARM GAS  /tmp/ccWMN03B.s 			page 14


 742 045b 0A       		.byte	0xa
 743 045c 79       		.byte	0x79
 744 045d B4000000 		.4byte	0xb4
 745 0461 03       		.uleb128 0x3
 746 0462 04       		.byte	0x4
 747 0463 07       		.byte	0x7
 748 0464 C6040000 		.4byte	.LASF75
 749 0468 0F       		.uleb128 0xf
 750 0469 B4000000 		.4byte	0xb4
 751 046d 10       		.uleb128 0x10
 752 046e B4000000 		.4byte	0xb4
 753 0472 7D040000 		.4byte	0x47d
 754 0476 11       		.uleb128 0x11
 755 0477 61040000 		.4byte	0x461
 756 047b 01       		.byte	0x1
 757 047c 00       		.byte	0
 758 047d 12       		.uleb128 0x12
 759 047e 10       		.byte	0x10
 760 047f 0B       		.byte	0xb
 761 0480 5201     		.2byte	0x152
 762 0482 BA040000 		.4byte	0x4ba
 763 0486 09       		.uleb128 0x9
 764 0487 E9050000 		.4byte	.LASF76
 765 048b 0B       		.byte	0xb
 766 048c 5401     		.2byte	0x154
 767 048e 68040000 		.4byte	0x468
 768 0492 00       		.byte	0
 769 0493 08       		.uleb128 0x8
 770 0494 435200   		.ascii	"CR\000"
 771 0497 0B       		.byte	0xb
 772 0498 5501     		.2byte	0x155
 773 049a 68040000 		.4byte	0x468
 774 049e 04       		.byte	0x4
 775 049f 09       		.uleb128 0x9
 776 04a0 54050000 		.4byte	.LASF77
 777 04a4 0B       		.byte	0xb
 778 04a5 5601     		.2byte	0x156
 779 04a7 68040000 		.4byte	0x468
 780 04ab 08       		.byte	0x8
 781 04ac 09       		.uleb128 0x9
 782 04ad C6030000 		.4byte	.LASF78
 783 04b1 0B       		.byte	0xb
 784 04b2 5701     		.2byte	0x157
 785 04b4 68040000 		.4byte	0x468
 786 04b8 0C       		.byte	0xc
 787 04b9 00       		.byte	0
 788 04ba 13       		.uleb128 0x13
 789 04bb 4C060000 		.4byte	.LASF79
 790 04bf 0B       		.byte	0xb
 791 04c0 5801     		.2byte	0x158
 792 04c2 7D040000 		.4byte	0x47d
 793 04c6 10       		.uleb128 0x10
 794 04c7 68040000 		.4byte	0x468
 795 04cb D6040000 		.4byte	0x4d6
 796 04cf 11       		.uleb128 0x11
 797 04d0 61040000 		.4byte	0x461
 798 04d4 01       		.byte	0x1
ARM GAS  /tmp/ccWMN03B.s 			page 15


 799 04d5 00       		.byte	0
 800 04d6 10       		.uleb128 0x10
 801 04d7 68040000 		.4byte	0x468
 802 04db E6040000 		.4byte	0x4e6
 803 04df 11       		.uleb128 0x11
 804 04e0 61040000 		.4byte	0x461
 805 04e4 03       		.byte	0x3
 806 04e5 00       		.byte	0
 807 04e6 12       		.uleb128 0x12
 808 04e7 90       		.byte	0x90
 809 04e8 0B       		.byte	0xb
 810 04e9 9602     		.2byte	0x296
 811 04eb 8F060000 		.4byte	0x68f
 812 04ef 08       		.uleb128 0x8
 813 04f0 435200   		.ascii	"CR\000"
 814 04f3 0B       		.byte	0xb
 815 04f4 9802     		.2byte	0x298
 816 04f6 68040000 		.4byte	0x468
 817 04fa 00       		.byte	0
 818 04fb 09       		.uleb128 0x9
 819 04fc C9020000 		.4byte	.LASF80
 820 0500 0B       		.byte	0xb
 821 0501 9902     		.2byte	0x299
 822 0503 68040000 		.4byte	0x468
 823 0507 04       		.byte	0x4
 824 0508 09       		.uleb128 0x9
 825 0509 19080000 		.4byte	.LASF81
 826 050d 0B       		.byte	0xb
 827 050e 9A02     		.2byte	0x29a
 828 0510 68040000 		.4byte	0x468
 829 0514 08       		.byte	0x8
 830 0515 08       		.uleb128 0x8
 831 0516 43495200 		.ascii	"CIR\000"
 832 051a 0B       		.byte	0xb
 833 051b 9B02     		.2byte	0x29b
 834 051d 68040000 		.4byte	0x468
 835 0521 0C       		.byte	0xc
 836 0522 09       		.uleb128 0x9
 837 0523 5C020000 		.4byte	.LASF82
 838 0527 0B       		.byte	0xb
 839 0528 9C02     		.2byte	0x29c
 840 052a 68040000 		.4byte	0x468
 841 052e 10       		.byte	0x10
 842 052f 09       		.uleb128 0x9
 843 0530 F8060000 		.4byte	.LASF83
 844 0534 0B       		.byte	0xb
 845 0535 9D02     		.2byte	0x29d
 846 0537 68040000 		.4byte	0x468
 847 053b 14       		.byte	0x14
 848 053c 09       		.uleb128 0x9
 849 053d AD030000 		.4byte	.LASF84
 850 0541 0B       		.byte	0xb
 851 0542 9E02     		.2byte	0x29e
 852 0544 68040000 		.4byte	0x468
 853 0548 18       		.byte	0x18
 854 0549 09       		.uleb128 0x9
 855 054a 63050000 		.4byte	.LASF85
ARM GAS  /tmp/ccWMN03B.s 			page 16


 856 054e 0B       		.byte	0xb
 857 054f 9F02     		.2byte	0x29f
 858 0551 B4000000 		.4byte	0xb4
 859 0555 1C       		.byte	0x1c
 860 0556 09       		.uleb128 0x9
 861 0557 2D050000 		.4byte	.LASF86
 862 055b 0B       		.byte	0xb
 863 055c A002     		.2byte	0x2a0
 864 055e 68040000 		.4byte	0x468
 865 0562 20       		.byte	0x20
 866 0563 09       		.uleb128 0x9
 867 0564 A2020000 		.4byte	.LASF87
 868 0568 0B       		.byte	0xb
 869 0569 A102     		.2byte	0x2a1
 870 056b 68040000 		.4byte	0x468
 871 056f 24       		.byte	0x24
 872 0570 09       		.uleb128 0x9
 873 0571 6D050000 		.4byte	.LASF88
 874 0575 0B       		.byte	0xb
 875 0576 A202     		.2byte	0x2a2
 876 0578 6D040000 		.4byte	0x46d
 877 057c 28       		.byte	0x28
 878 057d 09       		.uleb128 0x9
 879 057e 11080000 		.4byte	.LASF89
 880 0582 0B       		.byte	0xb
 881 0583 A302     		.2byte	0x2a3
 882 0585 68040000 		.4byte	0x468
 883 0589 30       		.byte	0x30
 884 058a 09       		.uleb128 0x9
 885 058b 7A070000 		.4byte	.LASF90
 886 058f 0B       		.byte	0xb
 887 0590 A402     		.2byte	0x2a4
 888 0592 68040000 		.4byte	0x468
 889 0596 34       		.byte	0x34
 890 0597 09       		.uleb128 0x9
 891 0598 05050000 		.4byte	.LASF91
 892 059c 0B       		.byte	0xb
 893 059d A502     		.2byte	0x2a5
 894 059f 68040000 		.4byte	0x468
 895 05a3 38       		.byte	0x38
 896 05a4 09       		.uleb128 0x9
 897 05a5 77050000 		.4byte	.LASF92
 898 05a9 0B       		.byte	0xb
 899 05aa A602     		.2byte	0x2a6
 900 05ac B4000000 		.4byte	0xb4
 901 05b0 3C       		.byte	0x3c
 902 05b1 09       		.uleb128 0x9
 903 05b2 69070000 		.4byte	.LASF93
 904 05b6 0B       		.byte	0xb
 905 05b7 A702     		.2byte	0x2a7
 906 05b9 68040000 		.4byte	0x468
 907 05bd 40       		.byte	0x40
 908 05be 09       		.uleb128 0x9
 909 05bf 21060000 		.4byte	.LASF94
 910 05c3 0B       		.byte	0xb
 911 05c4 A802     		.2byte	0x2a8
 912 05c6 68040000 		.4byte	0x468
ARM GAS  /tmp/ccWMN03B.s 			page 17


 913 05ca 44       		.byte	0x44
 914 05cb 09       		.uleb128 0x9
 915 05cc 81050000 		.4byte	.LASF95
 916 05d0 0B       		.byte	0xb
 917 05d1 A902     		.2byte	0x2a9
 918 05d3 6D040000 		.4byte	0x46d
 919 05d7 48       		.byte	0x48
 920 05d8 09       		.uleb128 0x9
 921 05d9 1C020000 		.4byte	.LASF96
 922 05dd 0B       		.byte	0xb
 923 05de AA02     		.2byte	0x2aa
 924 05e0 68040000 		.4byte	0x468
 925 05e4 50       		.byte	0x50
 926 05e5 09       		.uleb128 0x9
 927 05e6 0D050000 		.4byte	.LASF97
 928 05ea 0B       		.byte	0xb
 929 05eb AB02     		.2byte	0x2ab
 930 05ed 68040000 		.4byte	0x468
 931 05f1 54       		.byte	0x54
 932 05f2 09       		.uleb128 0x9
 933 05f3 10060000 		.4byte	.LASF98
 934 05f7 0B       		.byte	0xb
 935 05f8 AC02     		.2byte	0x2ac
 936 05fa 68040000 		.4byte	0x468
 937 05fe 58       		.byte	0x58
 938 05ff 09       		.uleb128 0x9
 939 0600 8B050000 		.4byte	.LASF99
 940 0604 0B       		.byte	0xb
 941 0605 AD02     		.2byte	0x2ad
 942 0607 B4000000 		.4byte	0xb4
 943 060b 5C       		.byte	0x5c
 944 060c 09       		.uleb128 0x9
 945 060d AB020000 		.4byte	.LASF100
 946 0611 0B       		.byte	0xb
 947 0612 AE02     		.2byte	0x2ae
 948 0614 68040000 		.4byte	0x468
 949 0618 60       		.byte	0x60
 950 0619 09       		.uleb128 0x9
 951 061a 31040000 		.4byte	.LASF101
 952 061e 0B       		.byte	0xb
 953 061f AF02     		.2byte	0x2af
 954 0621 68040000 		.4byte	0x468
 955 0625 64       		.byte	0x64
 956 0626 09       		.uleb128 0x9
 957 0627 95050000 		.4byte	.LASF102
 958 062b 0B       		.byte	0xb
 959 062c B002     		.2byte	0x2b0
 960 062e 6D040000 		.4byte	0x46d
 961 0632 68       		.byte	0x68
 962 0633 09       		.uleb128 0x9
 963 0634 E7070000 		.4byte	.LASF103
 964 0638 0B       		.byte	0xb
 965 0639 B102     		.2byte	0x2b1
 966 063b 68040000 		.4byte	0x468
 967 063f 70       		.byte	0x70
 968 0640 08       		.uleb128 0x8
 969 0641 43535200 		.ascii	"CSR\000"
ARM GAS  /tmp/ccWMN03B.s 			page 18


 970 0645 0B       		.byte	0xb
 971 0646 B202     		.2byte	0x2b2
 972 0648 68040000 		.4byte	0x468
 973 064c 74       		.byte	0x74
 974 064d 09       		.uleb128 0x9
 975 064e 9F050000 		.4byte	.LASF104
 976 0652 0B       		.byte	0xb
 977 0653 B302     		.2byte	0x2b3
 978 0655 6D040000 		.4byte	0x46d
 979 0659 78       		.byte	0x78
 980 065a 09       		.uleb128 0x9
 981 065b C5070000 		.4byte	.LASF105
 982 065f 0B       		.byte	0xb
 983 0660 B402     		.2byte	0x2b4
 984 0662 68040000 		.4byte	0x468
 985 0666 80       		.byte	0x80
 986 0667 09       		.uleb128 0x9
 987 0668 9C030000 		.4byte	.LASF106
 988 066c 0B       		.byte	0xb
 989 066d B502     		.2byte	0x2b5
 990 066f 68040000 		.4byte	0x468
 991 0673 84       		.byte	0x84
 992 0674 09       		.uleb128 0x9
 993 0675 3F030000 		.4byte	.LASF107
 994 0679 0B       		.byte	0xb
 995 067a B602     		.2byte	0x2b6
 996 067c 68040000 		.4byte	0x468
 997 0680 88       		.byte	0x88
 998 0681 09       		.uleb128 0x9
 999 0682 42020000 		.4byte	.LASF108
 1000 0686 0B       		.byte	0xb
 1001 0687 B702     		.2byte	0x2b7
 1002 0689 68040000 		.4byte	0x468
 1003 068d 8C       		.byte	0x8c
 1004 068e 00       		.byte	0
 1005 068f 13       		.uleb128 0x13
 1006 0690 51030000 		.4byte	.LASF109
 1007 0694 0B       		.byte	0xb
 1008 0695 B802     		.2byte	0x2b8
 1009 0697 E6040000 		.4byte	0x4e6
 1010 069b 04       		.uleb128 0x4
 1011 069c DC020000 		.4byte	.LASF110
 1012 06a0 0C       		.byte	0xc
 1013 06a1 65       		.byte	0x65
 1014 06a2 16030000 		.4byte	0x316
 1015 06a6 04       		.uleb128 0x4
 1016 06a7 88040000 		.4byte	.LASF111
 1017 06ab 0C       		.byte	0xc
 1018 06ac 6D       		.byte	0x6d
 1019 06ad BF000000 		.4byte	0xbf
 1020 06b1 05       		.uleb128 0x5
 1021 06b2 7E010000 		.4byte	.LASF112
 1022 06b6 04       		.byte	0x4
 1023 06b7 0C       		.byte	0xc
 1024 06b8 89       		.byte	0x89
 1025 06b9 C9060000 		.4byte	0x6c9
 1026 06bd 07       		.uleb128 0x7
ARM GAS  /tmp/ccWMN03B.s 			page 19


 1027 06be 737000   		.ascii	"sp\000"
 1028 06c1 0C       		.byte	0xc
 1029 06c2 8A       		.byte	0x8a
 1030 06c3 15080000 		.4byte	0x815
 1031 06c7 00       		.byte	0
 1032 06c8 00       		.byte	0
 1033 06c9 0B       		.uleb128 0xb
 1034 06ca 5E000000 		.4byte	.LASF113
 1035 06ce 64       		.byte	0x64
 1036 06cf 0D       		.byte	0xd
 1037 06d0 5901     		.2byte	0x159
 1038 06d2 15080000 		.4byte	0x815
 1039 06d6 08       		.uleb128 0x8
 1040 06d7 73313600 		.ascii	"s16\000"
 1041 06db 0D       		.byte	0xd
 1042 06dc 5B01     		.2byte	0x15b
 1043 06de 9B060000 		.4byte	0x69b
 1044 06e2 00       		.byte	0
 1045 06e3 08       		.uleb128 0x8
 1046 06e4 73313700 		.ascii	"s17\000"
 1047 06e8 0D       		.byte	0xd
 1048 06e9 5C01     		.2byte	0x15c
 1049 06eb 9B060000 		.4byte	0x69b
 1050 06ef 04       		.byte	0x4
 1051 06f0 08       		.uleb128 0x8
 1052 06f1 73313800 		.ascii	"s18\000"
 1053 06f5 0D       		.byte	0xd
 1054 06f6 5D01     		.2byte	0x15d
 1055 06f8 9B060000 		.4byte	0x69b
 1056 06fc 08       		.byte	0x8
 1057 06fd 08       		.uleb128 0x8
 1058 06fe 73313900 		.ascii	"s19\000"
 1059 0702 0D       		.byte	0xd
 1060 0703 5E01     		.2byte	0x15e
 1061 0705 9B060000 		.4byte	0x69b
 1062 0709 0C       		.byte	0xc
 1063 070a 08       		.uleb128 0x8
 1064 070b 73323000 		.ascii	"s20\000"
 1065 070f 0D       		.byte	0xd
 1066 0710 5F01     		.2byte	0x15f
 1067 0712 9B060000 		.4byte	0x69b
 1068 0716 10       		.byte	0x10
 1069 0717 08       		.uleb128 0x8
 1070 0718 73323100 		.ascii	"s21\000"
 1071 071c 0D       		.byte	0xd
 1072 071d 6001     		.2byte	0x160
 1073 071f 9B060000 		.4byte	0x69b
 1074 0723 14       		.byte	0x14
 1075 0724 08       		.uleb128 0x8
 1076 0725 73323200 		.ascii	"s22\000"
 1077 0729 0D       		.byte	0xd
 1078 072a 6101     		.2byte	0x161
 1079 072c 9B060000 		.4byte	0x69b
 1080 0730 18       		.byte	0x18
 1081 0731 08       		.uleb128 0x8
 1082 0732 73323300 		.ascii	"s23\000"
 1083 0736 0D       		.byte	0xd
ARM GAS  /tmp/ccWMN03B.s 			page 20


 1084 0737 6201     		.2byte	0x162
 1085 0739 9B060000 		.4byte	0x69b
 1086 073d 1C       		.byte	0x1c
 1087 073e 08       		.uleb128 0x8
 1088 073f 73323400 		.ascii	"s24\000"
 1089 0743 0D       		.byte	0xd
 1090 0744 6301     		.2byte	0x163
 1091 0746 9B060000 		.4byte	0x69b
 1092 074a 20       		.byte	0x20
 1093 074b 08       		.uleb128 0x8
 1094 074c 73323500 		.ascii	"s25\000"
 1095 0750 0D       		.byte	0xd
 1096 0751 6401     		.2byte	0x164
 1097 0753 9B060000 		.4byte	0x69b
 1098 0757 24       		.byte	0x24
 1099 0758 08       		.uleb128 0x8
 1100 0759 73323600 		.ascii	"s26\000"
 1101 075d 0D       		.byte	0xd
 1102 075e 6501     		.2byte	0x165
 1103 0760 9B060000 		.4byte	0x69b
 1104 0764 28       		.byte	0x28
 1105 0765 08       		.uleb128 0x8
 1106 0766 73323700 		.ascii	"s27\000"
 1107 076a 0D       		.byte	0xd
 1108 076b 6601     		.2byte	0x166
 1109 076d 9B060000 		.4byte	0x69b
 1110 0771 2C       		.byte	0x2c
 1111 0772 08       		.uleb128 0x8
 1112 0773 73323800 		.ascii	"s28\000"
 1113 0777 0D       		.byte	0xd
 1114 0778 6701     		.2byte	0x167
 1115 077a 9B060000 		.4byte	0x69b
 1116 077e 30       		.byte	0x30
 1117 077f 08       		.uleb128 0x8
 1118 0780 73323900 		.ascii	"s29\000"
 1119 0784 0D       		.byte	0xd
 1120 0785 6801     		.2byte	0x168
 1121 0787 9B060000 		.4byte	0x69b
 1122 078b 34       		.byte	0x34
 1123 078c 08       		.uleb128 0x8
 1124 078d 73333000 		.ascii	"s30\000"
 1125 0791 0D       		.byte	0xd
 1126 0792 6901     		.2byte	0x169
 1127 0794 9B060000 		.4byte	0x69b
 1128 0798 38       		.byte	0x38
 1129 0799 08       		.uleb128 0x8
 1130 079a 73333100 		.ascii	"s31\000"
 1131 079e 0D       		.byte	0xd
 1132 079f 6A01     		.2byte	0x16a
 1133 07a1 9B060000 		.4byte	0x69b
 1134 07a5 3C       		.byte	0x3c
 1135 07a6 08       		.uleb128 0x8
 1136 07a7 723400   		.ascii	"r4\000"
 1137 07aa 0D       		.byte	0xd
 1138 07ab 6C01     		.2byte	0x16c
 1139 07ad 9B060000 		.4byte	0x69b
 1140 07b1 40       		.byte	0x40
ARM GAS  /tmp/ccWMN03B.s 			page 21


 1141 07b2 08       		.uleb128 0x8
 1142 07b3 723500   		.ascii	"r5\000"
 1143 07b6 0D       		.byte	0xd
 1144 07b7 6D01     		.2byte	0x16d
 1145 07b9 9B060000 		.4byte	0x69b
 1146 07bd 44       		.byte	0x44
 1147 07be 08       		.uleb128 0x8
 1148 07bf 723600   		.ascii	"r6\000"
 1149 07c2 0D       		.byte	0xd
 1150 07c3 6E01     		.2byte	0x16e
 1151 07c5 9B060000 		.4byte	0x69b
 1152 07c9 48       		.byte	0x48
 1153 07ca 08       		.uleb128 0x8
 1154 07cb 723700   		.ascii	"r7\000"
 1155 07ce 0D       		.byte	0xd
 1156 07cf 6F01     		.2byte	0x16f
 1157 07d1 9B060000 		.4byte	0x69b
 1158 07d5 4C       		.byte	0x4c
 1159 07d6 08       		.uleb128 0x8
 1160 07d7 723800   		.ascii	"r8\000"
 1161 07da 0D       		.byte	0xd
 1162 07db 7001     		.2byte	0x170
 1163 07dd 9B060000 		.4byte	0x69b
 1164 07e1 50       		.byte	0x50
 1165 07e2 08       		.uleb128 0x8
 1166 07e3 723900   		.ascii	"r9\000"
 1167 07e6 0D       		.byte	0xd
 1168 07e7 7101     		.2byte	0x171
 1169 07e9 9B060000 		.4byte	0x69b
 1170 07ed 54       		.byte	0x54
 1171 07ee 08       		.uleb128 0x8
 1172 07ef 72313000 		.ascii	"r10\000"
 1173 07f3 0D       		.byte	0xd
 1174 07f4 7201     		.2byte	0x172
 1175 07f6 9B060000 		.4byte	0x69b
 1176 07fa 58       		.byte	0x58
 1177 07fb 08       		.uleb128 0x8
 1178 07fc 72313100 		.ascii	"r11\000"
 1179 0800 0D       		.byte	0xd
 1180 0801 7301     		.2byte	0x173
 1181 0803 9B060000 		.4byte	0x69b
 1182 0807 5C       		.byte	0x5c
 1183 0808 08       		.uleb128 0x8
 1184 0809 6C7200   		.ascii	"lr\000"
 1185 080c 0D       		.byte	0xd
 1186 080d 7401     		.2byte	0x174
 1187 080f 9B060000 		.4byte	0x69b
 1188 0813 60       		.byte	0x60
 1189 0814 00       		.byte	0
 1190 0815 0A       		.uleb128 0xa
 1191 0816 04       		.byte	0x4
 1192 0817 C9060000 		.4byte	0x6c9
 1193 081b 12       		.uleb128 0x12
 1194 081c 60       		.byte	0x60
 1195 081d 0E       		.byte	0xe
 1196 081e F501     		.2byte	0x1f5
 1197 0820 27090000 		.4byte	0x927
ARM GAS  /tmp/ccWMN03B.s 			page 22


 1198 0824 08       		.uleb128 0x8
 1199 0825 43523100 		.ascii	"CR1\000"
 1200 0829 0E       		.byte	0xe
 1201 082a F601     		.2byte	0x1f6
 1202 082c 68040000 		.4byte	0x468
 1203 0830 00       		.byte	0
 1204 0831 08       		.uleb128 0x8
 1205 0832 43523200 		.ascii	"CR2\000"
 1206 0836 0E       		.byte	0xe
 1207 0837 F701     		.2byte	0x1f7
 1208 0839 68040000 		.4byte	0x468
 1209 083d 04       		.byte	0x4
 1210 083e 09       		.uleb128 0x9
 1211 083f 79030000 		.4byte	.LASF114
 1212 0843 0E       		.byte	0xe
 1213 0844 F801     		.2byte	0x1f8
 1214 0846 68040000 		.4byte	0x468
 1215 084a 08       		.byte	0x8
 1216 084b 09       		.uleb128 0x9
 1217 084c 1C000000 		.4byte	.LASF115
 1218 0850 0E       		.byte	0xe
 1219 0851 F901     		.2byte	0x1f9
 1220 0853 68040000 		.4byte	0x468
 1221 0857 0C       		.byte	0xc
 1222 0858 08       		.uleb128 0x8
 1223 0859 535200   		.ascii	"SR\000"
 1224 085c 0E       		.byte	0xe
 1225 085d FA01     		.2byte	0x1fa
 1226 085f 68040000 		.4byte	0x468
 1227 0863 10       		.byte	0x10
 1228 0864 08       		.uleb128 0x8
 1229 0865 45475200 		.ascii	"EGR\000"
 1230 0869 0E       		.byte	0xe
 1231 086a FB01     		.2byte	0x1fb
 1232 086c 68040000 		.4byte	0x468
 1233 0870 14       		.byte	0x14
 1234 0871 09       		.uleb128 0x9
 1235 0872 3C020000 		.4byte	.LASF116
 1236 0876 0E       		.byte	0xe
 1237 0877 FC01     		.2byte	0x1fc
 1238 0879 68040000 		.4byte	0x468
 1239 087d 18       		.byte	0x18
 1240 087e 09       		.uleb128 0x9
 1241 087f 8A000000 		.4byte	.LASF117
 1242 0883 0E       		.byte	0xe
 1243 0884 FD01     		.2byte	0x1fd
 1244 0886 68040000 		.4byte	0x468
 1245 088a 1C       		.byte	0x1c
 1246 088b 09       		.uleb128 0x9
 1247 088c 1F070000 		.4byte	.LASF118
 1248 0890 0E       		.byte	0xe
 1249 0891 FE01     		.2byte	0x1fe
 1250 0893 68040000 		.4byte	0x468
 1251 0897 20       		.byte	0x20
 1252 0898 08       		.uleb128 0x8
 1253 0899 434E5400 		.ascii	"CNT\000"
 1254 089d 0E       		.byte	0xe
ARM GAS  /tmp/ccWMN03B.s 			page 23


 1255 089e FF01     		.2byte	0x1ff
 1256 08a0 68040000 		.4byte	0x468
 1257 08a4 24       		.byte	0x24
 1258 08a5 08       		.uleb128 0x8
 1259 08a6 50534300 		.ascii	"PSC\000"
 1260 08aa 0E       		.byte	0xe
 1261 08ab 0002     		.2byte	0x200
 1262 08ad 68040000 		.4byte	0x468
 1263 08b1 28       		.byte	0x28
 1264 08b2 08       		.uleb128 0x8
 1265 08b3 41525200 		.ascii	"ARR\000"
 1266 08b7 0E       		.byte	0xe
 1267 08b8 0102     		.2byte	0x201
 1268 08ba 68040000 		.4byte	0x468
 1269 08be 2C       		.byte	0x2c
 1270 08bf 08       		.uleb128 0x8
 1271 08c0 52435200 		.ascii	"RCR\000"
 1272 08c4 0E       		.byte	0xe
 1273 08c5 0202     		.2byte	0x202
 1274 08c7 68040000 		.4byte	0x468
 1275 08cb 30       		.byte	0x30
 1276 08cc 08       		.uleb128 0x8
 1277 08cd 43435200 		.ascii	"CCR\000"
 1278 08d1 0E       		.byte	0xe
 1279 08d2 0302     		.2byte	0x203
 1280 08d4 27090000 		.4byte	0x927
 1281 08d8 34       		.byte	0x34
 1282 08d9 09       		.uleb128 0x9
 1283 08da 0E020000 		.4byte	.LASF119
 1284 08de 0E       		.byte	0xe
 1285 08df 0402     		.2byte	0x204
 1286 08e1 68040000 		.4byte	0x468
 1287 08e5 44       		.byte	0x44
 1288 08e6 08       		.uleb128 0x8
 1289 08e7 44435200 		.ascii	"DCR\000"
 1290 08eb 0E       		.byte	0xe
 1291 08ec 0502     		.2byte	0x205
 1292 08ee 68040000 		.4byte	0x468
 1293 08f2 48       		.byte	0x48
 1294 08f3 09       		.uleb128 0x9
 1295 08f4 F3060000 		.4byte	.LASF120
 1296 08f8 0E       		.byte	0xe
 1297 08f9 0602     		.2byte	0x206
 1298 08fb 68040000 		.4byte	0x468
 1299 08ff 4C       		.byte	0x4c
 1300 0900 08       		.uleb128 0x8
 1301 0901 4F5200   		.ascii	"OR\000"
 1302 0904 0E       		.byte	0xe
 1303 0905 0702     		.2byte	0x207
 1304 0907 68040000 		.4byte	0x468
 1305 090b 50       		.byte	0x50
 1306 090c 09       		.uleb128 0x9
 1307 090d 4A020000 		.4byte	.LASF121
 1308 0911 0E       		.byte	0xe
 1309 0912 0802     		.2byte	0x208
 1310 0914 68040000 		.4byte	0x468
 1311 0918 54       		.byte	0x54
ARM GAS  /tmp/ccWMN03B.s 			page 24


 1312 0919 09       		.uleb128 0x9
 1313 091a 47060000 		.4byte	.LASF122
 1314 091e 0E       		.byte	0xe
 1315 091f 0902     		.2byte	0x209
 1316 0921 2C090000 		.4byte	0x92c
 1317 0925 58       		.byte	0x58
 1318 0926 00       		.byte	0
 1319 0927 0F       		.uleb128 0xf
 1320 0928 D6040000 		.4byte	0x4d6
 1321 092c 0F       		.uleb128 0xf
 1322 092d C6040000 		.4byte	0x4c6
 1323 0931 13       		.uleb128 0x13
 1324 0932 DB070000 		.4byte	.LASF123
 1325 0936 0E       		.byte	0xe
 1326 0937 0A02     		.2byte	0x20a
 1327 0939 1B080000 		.4byte	0x81b
 1328 093d 14       		.uleb128 0x14
 1329 093e 04       		.byte	0x4
 1330 093f 0F       		.byte	0xf
 1331 0940 38       		.byte	0x38
 1332 0941 52090000 		.4byte	0x952
 1333 0945 06       		.uleb128 0x6
 1334 0946 62070000 		.4byte	.LASF124
 1335 094a 0F       		.byte	0xf
 1336 094b 3C       		.byte	0x3c
 1337 094c CA000000 		.4byte	0xca
 1338 0950 00       		.byte	0
 1339 0951 00       		.byte	0
 1340 0952 04       		.uleb128 0x4
 1341 0953 17050000 		.4byte	.LASF125
 1342 0957 0F       		.byte	0xf
 1343 0958 3D       		.byte	0x3d
 1344 0959 3D090000 		.4byte	0x93d
 1345 095d 14       		.uleb128 0x14
 1346 095e 18       		.byte	0x18
 1347 095f 0F       		.byte	0xf
 1348 0960 48       		.byte	0x48
 1349 0961 A0090000 		.4byte	0x9a0
 1350 0965 06       		.uleb128 0x6
 1351 0966 74030000 		.4byte	.LASF126
 1352 096a 0F       		.byte	0xf
 1353 096b 49       		.byte	0x49
 1354 096c CA000000 		.4byte	0xca
 1355 0970 00       		.byte	0
 1356 0971 06       		.uleb128 0x6
 1357 0972 8B010000 		.4byte	.LASF127
 1358 0976 0F       		.byte	0xf
 1359 0977 4A       		.byte	0x4a
 1360 0978 CA000000 		.4byte	0xca
 1361 097c 04       		.byte	0x4
 1362 097d 06       		.uleb128 0x6
 1363 097e 5D030000 		.4byte	.LASF128
 1364 0982 0F       		.byte	0xf
 1365 0983 4B       		.byte	0x4b
 1366 0984 CA000000 		.4byte	0xca
 1367 0988 08       		.byte	0x8
 1368 0989 07       		.uleb128 0x7
ARM GAS  /tmp/ccWMN03B.s 			page 25


 1369 098a 6E00     		.ascii	"n\000"
 1370 098c 0F       		.byte	0xf
 1371 098d 4C       		.byte	0x4c
 1372 098e 2D010000 		.4byte	0x12d
 1373 0992 0C       		.byte	0xc
 1374 0993 06       		.uleb128 0x6
 1375 0994 49050000 		.4byte	.LASF129
 1376 0998 0F       		.byte	0xf
 1377 0999 4D       		.byte	0x4d
 1378 099a D5000000 		.4byte	0xd5
 1379 099e 10       		.byte	0x10
 1380 099f 00       		.byte	0
 1381 09a0 04       		.uleb128 0x4
 1382 09a1 91010000 		.4byte	.LASF130
 1383 09a5 0F       		.byte	0xf
 1384 09a6 4E       		.byte	0x4e
 1385 09a7 5D090000 		.4byte	0x95d
 1386 09ab 14       		.uleb128 0x14
 1387 09ac 38       		.byte	0x38
 1388 09ad 10       		.byte	0x10
 1389 09ae 38       		.byte	0x38
 1390 09af E4090000 		.4byte	0x9e4
 1391 09b3 06       		.uleb128 0x6
 1392 09b4 62030000 		.4byte	.LASF131
 1393 09b8 10       		.byte	0x10
 1394 09b9 39       		.byte	0x39
 1395 09ba 2D010000 		.4byte	0x12d
 1396 09be 00       		.byte	0
 1397 09bf 06       		.uleb128 0x6
 1398 09c0 C4050000 		.4byte	.LASF132
 1399 09c4 10       		.byte	0x10
 1400 09c5 3A       		.byte	0x3a
 1401 09c6 2D010000 		.4byte	0x12d
 1402 09ca 04       		.byte	0x4
 1403 09cb 06       		.uleb128 0x6
 1404 09cc 53080000 		.4byte	.LASF133
 1405 09d0 10       		.byte	0x10
 1406 09d1 3B       		.byte	0x3b
 1407 09d2 A0090000 		.4byte	0x9a0
 1408 09d6 08       		.byte	0x8
 1409 09d7 06       		.uleb128 0x6
 1410 09d8 3B040000 		.4byte	.LASF134
 1411 09dc 10       		.byte	0x10
 1412 09dd 3D       		.byte	0x3d
 1413 09de A0090000 		.4byte	0x9a0
 1414 09e2 20       		.byte	0x20
 1415 09e3 00       		.byte	0
 1416 09e4 04       		.uleb128 0x4
 1417 09e5 7E030000 		.4byte	.LASF135
 1418 09e9 10       		.byte	0x10
 1419 09ea 3F       		.byte	0x3f
 1420 09eb AB090000 		.4byte	0x9ab
 1421 09ef 15       		.uleb128 0x15
 1422 09f0 04       		.byte	0x4
 1423 09f1 09       		.byte	0x9
 1424 09f2 C6       		.byte	0xc6
 1425 09f3 510A0000 		.4byte	0xa51
ARM GAS  /tmp/ccWMN03B.s 			page 26


 1426 09f7 16       		.uleb128 0x16
 1427 09f8 32000000 		.4byte	.LASF136
 1428 09fc 09       		.byte	0x9
 1429 09fd CD       		.byte	0xcd
 1430 09fe 0C010000 		.4byte	0x10c
 1431 0a02 16       		.uleb128 0x16
 1432 0a03 BB010000 		.4byte	.LASF137
 1433 0a07 09       		.byte	0x9
 1434 0a08 D4       		.byte	0xd4
 1435 0a09 0C010000 		.4byte	0x10c
 1436 0a0d 16       		.uleb128 0x16
 1437 0a0e 2A040000 		.4byte	.LASF138
 1438 0a12 09       		.byte	0x9
 1439 0a13 DB       		.byte	0xdb
 1440 0a14 16030000 		.4byte	0x316
 1441 0a18 16       		.uleb128 0x16
 1442 0a19 21000000 		.4byte	.LASF139
 1443 0a1d 09       		.byte	0x9
 1444 0a1e E2       		.byte	0xe2
 1445 0a1f 510A0000 		.4byte	0xa51
 1446 0a23 16       		.uleb128 0x16
 1447 0a24 CF010000 		.4byte	.LASF140
 1448 0a28 09       		.byte	0x9
 1449 0a29 E7       		.byte	0xe7
 1450 0a2a 0C010000 		.4byte	0x10c
 1451 0a2e 16       		.uleb128 0x16
 1452 0a2f 4A030000 		.4byte	.LASF141
 1453 0a33 09       		.byte	0x9
 1454 0a34 F0       		.byte	0xf0
 1455 0a35 7C0A0000 		.4byte	0xa7c
 1456 0a39 16       		.uleb128 0x16
 1457 0a3a EC060000 		.4byte	.LASF142
 1458 0a3e 09       		.byte	0x9
 1459 0a3f F9       		.byte	0xf9
 1460 0a40 B30A0000 		.4byte	0xab3
 1461 0a44 17       		.uleb128 0x17
 1462 0a45 1A060000 		.4byte	.LASF143
 1463 0a49 09       		.byte	0x9
 1464 0a4a 0101     		.2byte	0x101
 1465 0a4c 17010000 		.4byte	0x117
 1466 0a50 00       		.byte	0
 1467 0a51 0A       		.uleb128 0xa
 1468 0a52 04       		.byte	0x4
 1469 0a53 2E020000 		.4byte	0x22e
 1470 0a57 05       		.uleb128 0x5
 1471 0a58 3A060000 		.4byte	.LASF144
 1472 0a5c 0C       		.byte	0xc
 1473 0a5d 11       		.byte	0x11
 1474 0a5e 34       		.byte	0x34
 1475 0a5f 7C0A0000 		.4byte	0xa7c
 1476 0a63 06       		.uleb128 0x6
 1477 0a64 68030000 		.4byte	.LASF29
 1478 0a68 11       		.byte	0x11
 1479 0a69 35       		.byte	0x35
 1480 0a6a 63020000 		.4byte	0x263
 1481 0a6e 00       		.byte	0
 1482 0a6f 07       		.uleb128 0x7
ARM GAS  /tmp/ccWMN03B.s 			page 27


 1483 0a70 636E7400 		.ascii	"cnt\000"
 1484 0a74 11       		.byte	0x11
 1485 0a75 37       		.byte	0x37
 1486 0a76 22010000 		.4byte	0x122
 1487 0a7a 08       		.byte	0x8
 1488 0a7b 00       		.byte	0
 1489 0a7c 0A       		.uleb128 0xa
 1490 0a7d 04       		.byte	0x4
 1491 0a7e 570A0000 		.4byte	0xa57
 1492 0a82 05       		.uleb128 0x5
 1493 0a83 71070000 		.4byte	.LASF145
 1494 0a87 10       		.byte	0x10
 1495 0a88 12       		.byte	0x12
 1496 0a89 39       		.byte	0x39
 1497 0a8a B30A0000 		.4byte	0xab3
 1498 0a8e 06       		.uleb128 0x6
 1499 0a8f 68030000 		.4byte	.LASF29
 1500 0a93 12       		.byte	0x12
 1501 0a94 3A       		.byte	0x3a
 1502 0a95 63020000 		.4byte	0x263
 1503 0a99 00       		.byte	0
 1504 0a9a 06       		.uleb128 0x6
 1505 0a9b C2060000 		.4byte	.LASF146
 1506 0a9f 12       		.byte	0x12
 1507 0aa0 3C       		.byte	0x3c
 1508 0aa1 39020000 		.4byte	0x239
 1509 0aa5 08       		.byte	0x8
 1510 0aa6 06       		.uleb128 0x6
 1511 0aa7 27000000 		.4byte	.LASF49
 1512 0aab 12       		.byte	0x12
 1513 0aac 3E       		.byte	0x3e
 1514 0aad E70A0000 		.4byte	0xae7
 1515 0ab1 0C       		.byte	0xc
 1516 0ab2 00       		.byte	0
 1517 0ab3 0A       		.uleb128 0xa
 1518 0ab4 04       		.byte	0x4
 1519 0ab5 820A0000 		.4byte	0xa82
 1520 0ab9 0A       		.uleb128 0xa
 1521 0aba 04       		.byte	0x4
 1522 0abb C60A0000 		.4byte	0xac6
 1523 0abf 03       		.uleb128 0x3
 1524 0ac0 01       		.byte	0x1
 1525 0ac1 08       		.byte	0x8
 1526 0ac2 E1060000 		.4byte	.LASF147
 1527 0ac6 18       		.uleb128 0x18
 1528 0ac7 BF0A0000 		.4byte	0xabf
 1529 0acb 0A       		.uleb128 0xa
 1530 0acc 04       		.byte	0x4
 1531 0acd A6060000 		.4byte	0x6a6
 1532 0ad1 0A       		.uleb128 0xa
 1533 0ad2 04       		.byte	0x4
 1534 0ad3 18030000 		.4byte	0x318
 1535 0ad7 0F       		.uleb128 0xf
 1536 0ad8 B90A0000 		.4byte	0xab9
 1537 0adc 04       		.uleb128 0x4
 1538 0add 4B080000 		.4byte	.LASF148
 1539 0ae1 12       		.byte	0x12
ARM GAS  /tmp/ccWMN03B.s 			page 28


 1540 0ae2 34       		.byte	0x34
 1541 0ae3 820A0000 		.4byte	0xa82
 1542 0ae7 0A       		.uleb128 0xa
 1543 0ae8 04       		.byte	0x4
 1544 0ae9 DC0A0000 		.4byte	0xadc
 1545 0aed 03       		.uleb128 0x3
 1546 0aee 01       		.byte	0x1
 1547 0aef 02       		.byte	0x2
 1548 0af0 CD050000 		.4byte	.LASF149
 1549 0af4 19       		.uleb128 0x19
 1550 0af5 4A070000 		.4byte	.LASF171
 1551 0af9 02       		.byte	0x2
 1552 0afa EB01     		.2byte	0x1eb
 1553 0afc 03       		.byte	0x3
 1554 0afd 0E0B0000 		.4byte	0xb0e
 1555 0b01 1A       		.uleb128 0x1a
 1556 0b02 65020000 		.4byte	.LASF172
 1557 0b06 02       		.byte	0x2
 1558 0b07 EB01     		.2byte	0x1eb
 1559 0b09 B4000000 		.4byte	0xb4
 1560 0b0d 00       		.byte	0
 1561 0b0e 1B       		.uleb128 0x1b
 1562 0b0f 74010000 		.4byte	.LASF150
 1563 0b13 0D       		.byte	0xd
 1564 0b14 5A02     		.2byte	0x25a
 1565 0b16 03       		.byte	0x3
 1566 0b17 1B       		.uleb128 0x1b
 1567 0b18 74020000 		.4byte	.LASF151
 1568 0b1c 0D       		.byte	0xd
 1569 0b1d 7202     		.2byte	0x272
 1570 0b1f 03       		.byte	0x3
 1571 0b20 1B       		.uleb128 0x1b
 1572 0b21 A9070000 		.4byte	.LASF152
 1573 0b25 0D       		.byte	0xd
 1574 0b26 8102     		.2byte	0x281
 1575 0b28 03       		.byte	0x3
 1576 0b29 1B       		.uleb128 0x1b
 1577 0b2a 01070000 		.4byte	.LASF153
 1578 0b2e 0D       		.byte	0xd
 1579 0b2f 8C02     		.2byte	0x28c
 1580 0b31 03       		.byte	0x3
 1581 0b32 1B       		.uleb128 0x1b
 1582 0b33 ED010000 		.4byte	.LASF154
 1583 0b37 04       		.byte	0x4
 1584 0b38 1E02     		.2byte	0x21e
 1585 0b3a 03       		.byte	0x3
 1586 0b3b 1B       		.uleb128 0x1b
 1587 0b3c 93040000 		.4byte	.LASF155
 1588 0b40 04       		.byte	0x4
 1589 0b41 5902     		.2byte	0x259
 1590 0b43 03       		.byte	0x3
 1591 0b44 1B       		.uleb128 0x1b
 1592 0b45 E5020000 		.4byte	.LASF156
 1593 0b49 04       		.byte	0x4
 1594 0b4a 1302     		.2byte	0x213
 1595 0b4c 03       		.byte	0x3
 1596 0b4d 1B       		.uleb128 0x1b
ARM GAS  /tmp/ccWMN03B.s 			page 29


 1597 0b4e B1050000 		.4byte	.LASF157
 1598 0b52 03       		.byte	0x3
 1599 0b53 9D01     		.2byte	0x19d
 1600 0b55 03       		.byte	0x3
 1601 0b56 1B       		.uleb128 0x1b
 1602 0b57 00080000 		.4byte	.LASF158
 1603 0b5b 03       		.byte	0x3
 1604 0b5c 8901     		.2byte	0x189
 1605 0b5e 03       		.byte	0x3
 1606 0b5f 1C       		.uleb128 0x1c
 1607 0b60 20040000 		.4byte	.LASF159
 1608 0b64 01       		.byte	0x1
 1609 0b65 FD       		.byte	0xfd
 1610 0b66 00000000 		.4byte	.LFB323
 1611 0b6a 34000000 		.4byte	.LFE323-.LFB323
 1612 0b6e 01       		.uleb128 0x1
 1613 0b6f 9C       		.byte	0x9c
 1614 0b70 830C0000 		.4byte	0xc83
 1615 0b74 1D       		.uleb128 0x1d
 1616 0b75 440B0000 		.4byte	0xb44
 1617 0b79 12000000 		.4byte	.LBB48
 1618 0b7d 0A000000 		.4byte	.LBE48-.LBB48
 1619 0b81 01       		.byte	0x1
 1620 0b82 0701     		.2byte	0x107
 1621 0b84 E30B0000 		.4byte	0xbe3
 1622 0b88 1E       		.uleb128 0x1e
 1623 0b89 560B0000 		.4byte	0xb56
 1624 0b8d 12000000 		.4byte	.LBB49
 1625 0b91 0A000000 		.4byte	.LBE49-.LBB49
 1626 0b95 04       		.byte	0x4
 1627 0b96 1502     		.2byte	0x215
 1628 0b98 1D       		.uleb128 0x1d
 1629 0b99 200B0000 		.4byte	0xb20
 1630 0b9d 12000000 		.4byte	.LBB51
 1631 0ba1 06000000 		.4byte	.LBE51-.LBB51
 1632 0ba5 03       		.byte	0x3
 1633 0ba6 8B01     		.2byte	0x18b
 1634 0ba8 D80B0000 		.4byte	0xbd8
 1635 0bac 1E       		.uleb128 0x1e
 1636 0bad 0E0B0000 		.4byte	0xb0e
 1637 0bb1 12000000 		.4byte	.LBB52
 1638 0bb5 06000000 		.4byte	.LBE52-.LBB52
 1639 0bb9 0D       		.byte	0xd
 1640 0bba 8302     		.2byte	0x283
 1641 0bbc 1E       		.uleb128 0x1e
 1642 0bbd F40A0000 		.4byte	0xaf4
 1643 0bc1 12000000 		.4byte	.LBB53
 1644 0bc5 06000000 		.4byte	.LBE53-.LBB53
 1645 0bc9 0D       		.byte	0xd
 1646 0bca 6202     		.2byte	0x262
 1647 0bcc 1F       		.uleb128 0x1f
 1648 0bcd 010B0000 		.4byte	0xb01
 1649 0bd1 00000000 		.4byte	.LLST0
 1650 0bd5 00       		.byte	0
 1651 0bd6 00       		.byte	0
 1652 0bd7 00       		.byte	0
 1653 0bd8 20       		.uleb128 0x20
ARM GAS  /tmp/ccWMN03B.s 			page 30


 1654 0bd9 1C000000 		.4byte	.LVL3
 1655 0bdd CB0C0000 		.4byte	0xccb
 1656 0be1 00       		.byte	0
 1657 0be2 00       		.byte	0
 1658 0be3 1D       		.uleb128 0x1d
 1659 0be4 3B0B0000 		.4byte	0xb3b
 1660 0be8 1C000000 		.4byte	.LBB55
 1661 0bec 04000000 		.4byte	.LBE55-.LBB55
 1662 0bf0 01       		.byte	0x1
 1663 0bf1 0801     		.2byte	0x108
 1664 0bf3 010C0000 		.4byte	0xc01
 1665 0bf7 20       		.uleb128 0x20
 1666 0bf8 20000000 		.4byte	.LVL4
 1667 0bfc D60C0000 		.4byte	0xcd6
 1668 0c00 00       		.byte	0
 1669 0c01 1D       		.uleb128 0x1d
 1670 0c02 320B0000 		.4byte	0xb32
 1671 0c06 20000000 		.4byte	.LBB57
 1672 0c0a 08000000 		.4byte	.LBE57-.LBB57
 1673 0c0e 01       		.byte	0x1
 1674 0c0f 0901     		.2byte	0x109
 1675 0c11 700C0000 		.4byte	0xc70
 1676 0c15 1E       		.uleb128 0x1e
 1677 0c16 4D0B0000 		.4byte	0xb4d
 1678 0c1a 20000000 		.4byte	.LBB58
 1679 0c1e 08000000 		.4byte	.LBE58-.LBB58
 1680 0c22 04       		.byte	0x4
 1681 0c23 2002     		.2byte	0x220
 1682 0c25 1D       		.uleb128 0x1d
 1683 0c26 290B0000 		.4byte	0xb29
 1684 0c2a 24000000 		.4byte	.LBB60
 1685 0c2e 04000000 		.4byte	.LBE60-.LBB60
 1686 0c32 03       		.byte	0x3
 1687 0c33 A101     		.2byte	0x1a1
 1688 0c35 650C0000 		.4byte	0xc65
 1689 0c39 1E       		.uleb128 0x1e
 1690 0c3a 170B0000 		.4byte	0xb17
 1691 0c3e 24000000 		.4byte	.LBB61
 1692 0c42 04000000 		.4byte	.LBE61-.LBB61
 1693 0c46 0D       		.byte	0xd
 1694 0c47 8E02     		.2byte	0x28e
 1695 0c49 1E       		.uleb128 0x1e
 1696 0c4a F40A0000 		.4byte	0xaf4
 1697 0c4e 24000000 		.4byte	.LBB62
 1698 0c52 04000000 		.4byte	.LBE62-.LBB62
 1699 0c56 0D       		.byte	0xd
 1700 0c57 7502     		.2byte	0x275
 1701 0c59 1F       		.uleb128 0x1f
 1702 0c5a 010B0000 		.4byte	0xb01
 1703 0c5e 15000000 		.4byte	.LLST1
 1704 0c62 00       		.byte	0
 1705 0c63 00       		.byte	0
 1706 0c64 00       		.byte	0
 1707 0c65 20       		.uleb128 0x20
 1708 0c66 24000000 		.4byte	.LVL5
 1709 0c6a E20C0000 		.4byte	0xce2
 1710 0c6e 00       		.byte	0
ARM GAS  /tmp/ccWMN03B.s 			page 31


 1711 0c6f 00       		.byte	0
 1712 0c70 20       		.uleb128 0x20
 1713 0c71 06000000 		.4byte	.LVL0
 1714 0c75 ED0C0000 		.4byte	0xced
 1715 0c79 21       		.uleb128 0x21
 1716 0c7a 30000000 		.4byte	.LVL7
 1717 0c7e F80C0000 		.4byte	0xcf8
 1718 0c82 00       		.byte	0
 1719 0c83 22       		.uleb128 0x22
 1720 0c84 02020000 		.4byte	.LASF160
 1721 0c88 01       		.byte	0x1
 1722 0c89 1901     		.2byte	0x119
 1723 0c8b 00000000 		.4byte	.LFB324
 1724 0c8f 50000000 		.4byte	.LFE324-.LFB324
 1725 0c93 01       		.uleb128 0x1
 1726 0c94 9C       		.byte	0x9c
 1727 0c95 AF0C0000 		.4byte	0xcaf
 1728 0c99 23       		.uleb128 0x23
 1729 0c9a 42000000 		.4byte	.LVL8
 1730 0c9e 040D0000 		.4byte	0xd04
 1731 0ca2 24       		.uleb128 0x24
 1732 0ca3 01       		.uleb128 0x1
 1733 0ca4 50       		.byte	0x50
 1734 0ca5 02       		.uleb128 0x2
 1735 0ca6 08       		.byte	0x8
 1736 0ca7 32       		.byte	0x32
 1737 0ca8 24       		.uleb128 0x24
 1738 0ca9 01       		.uleb128 0x1
 1739 0caa 51       		.byte	0x51
 1740 0cab 01       		.uleb128 0x1
 1741 0cac 38       		.byte	0x38
 1742 0cad 00       		.byte	0
 1743 0cae 00       		.byte	0
 1744 0caf 25       		.uleb128 0x25
 1745 0cb0 F0050000 		.4byte	.LASF161
 1746 0cb4 14       		.byte	0x14
 1747 0cb5 0408     		.2byte	0x804
 1748 0cb7 BB0C0000 		.4byte	0xcbb
 1749 0cbb 0F       		.uleb128 0xf
 1750 0cbc A9000000 		.4byte	0xa9
 1751 0cc0 26       		.uleb128 0x26
 1752 0cc1 636800   		.ascii	"ch\000"
 1753 0cc4 09       		.byte	0x9
 1754 0cc5 C701     		.2byte	0x1c7
 1755 0cc7 E5030000 		.4byte	0x3e5
 1756 0ccb 27       		.uleb128 0x27
 1757 0ccc 6A040000 		.4byte	.LASF162
 1758 0cd0 6A040000 		.4byte	.LASF162
 1759 0cd4 10       		.byte	0x10
 1760 0cd5 51       		.byte	0x51
 1761 0cd6 28       		.uleb128 0x28
 1762 0cd7 2E070000 		.4byte	.LASF163
 1763 0cdb 2E070000 		.4byte	.LASF163
 1764 0cdf 03       		.byte	0x3
 1765 0ce0 1F01     		.2byte	0x11f
 1766 0ce2 27       		.uleb128 0x27
 1767 0ce3 26080000 		.4byte	.LASF164
ARM GAS  /tmp/ccWMN03B.s 			page 32


 1768 0ce7 26080000 		.4byte	.LASF164
 1769 0ceb 10       		.byte	0x10
 1770 0cec 52       		.byte	0x52
 1771 0ced 27       		.uleb128 0x27
 1772 0cee 9E060000 		.4byte	.LASF165
 1773 0cf2 9E060000 		.4byte	.LASF165
 1774 0cf6 10       		.byte	0x10
 1775 0cf7 4D       		.byte	0x4d
 1776 0cf8 28       		.uleb128 0x28
 1777 0cf9 CD030000 		.4byte	.LASF166
 1778 0cfd CD030000 		.4byte	.LASF166
 1779 0d01 0D       		.byte	0xd
 1780 0d02 F201     		.2byte	0x1f2
 1781 0d04 27       		.uleb128 0x27
 1782 0d05 26020000 		.4byte	.LASF167
 1783 0d09 26020000 		.4byte	.LASF167
 1784 0d0d 13       		.byte	0x13
 1785 0d0e 4E       		.byte	0x4e
 1786 0d0f 00       		.byte	0
 1787              		.section	.debug_abbrev,"",%progbits
 1788              	.Ldebug_abbrev0:
 1789 0000 01       		.uleb128 0x1
 1790 0001 11       		.uleb128 0x11
 1791 0002 01       		.byte	0x1
 1792 0003 25       		.uleb128 0x25
 1793 0004 0E       		.uleb128 0xe
 1794 0005 13       		.uleb128 0x13
 1795 0006 0B       		.uleb128 0xb
 1796 0007 03       		.uleb128 0x3
 1797 0008 0E       		.uleb128 0xe
 1798 0009 1B       		.uleb128 0x1b
 1799 000a 0E       		.uleb128 0xe
 1800 000b 55       		.uleb128 0x55
 1801 000c 17       		.uleb128 0x17
 1802 000d 11       		.uleb128 0x11
 1803 000e 01       		.uleb128 0x1
 1804 000f 10       		.uleb128 0x10
 1805 0010 17       		.uleb128 0x17
 1806 0011 00       		.byte	0
 1807 0012 00       		.byte	0
 1808 0013 02       		.uleb128 0x2
 1809 0014 24       		.uleb128 0x24
 1810 0015 00       		.byte	0
 1811 0016 0B       		.uleb128 0xb
 1812 0017 0B       		.uleb128 0xb
 1813 0018 3E       		.uleb128 0x3e
 1814 0019 0B       		.uleb128 0xb
 1815 001a 03       		.uleb128 0x3
 1816 001b 08       		.uleb128 0x8
 1817 001c 00       		.byte	0
 1818 001d 00       		.byte	0
 1819 001e 03       		.uleb128 0x3
 1820 001f 24       		.uleb128 0x24
 1821 0020 00       		.byte	0
 1822 0021 0B       		.uleb128 0xb
 1823 0022 0B       		.uleb128 0xb
 1824 0023 3E       		.uleb128 0x3e
ARM GAS  /tmp/ccWMN03B.s 			page 33


 1825 0024 0B       		.uleb128 0xb
 1826 0025 03       		.uleb128 0x3
 1827 0026 0E       		.uleb128 0xe
 1828 0027 00       		.byte	0
 1829 0028 00       		.byte	0
 1830 0029 04       		.uleb128 0x4
 1831 002a 16       		.uleb128 0x16
 1832 002b 00       		.byte	0
 1833 002c 03       		.uleb128 0x3
 1834 002d 0E       		.uleb128 0xe
 1835 002e 3A       		.uleb128 0x3a
 1836 002f 0B       		.uleb128 0xb
 1837 0030 3B       		.uleb128 0x3b
 1838 0031 0B       		.uleb128 0xb
 1839 0032 49       		.uleb128 0x49
 1840 0033 13       		.uleb128 0x13
 1841 0034 00       		.byte	0
 1842 0035 00       		.byte	0
 1843 0036 05       		.uleb128 0x5
 1844 0037 13       		.uleb128 0x13
 1845 0038 01       		.byte	0x1
 1846 0039 03       		.uleb128 0x3
 1847 003a 0E       		.uleb128 0xe
 1848 003b 0B       		.uleb128 0xb
 1849 003c 0B       		.uleb128 0xb
 1850 003d 3A       		.uleb128 0x3a
 1851 003e 0B       		.uleb128 0xb
 1852 003f 3B       		.uleb128 0x3b
 1853 0040 0B       		.uleb128 0xb
 1854 0041 01       		.uleb128 0x1
 1855 0042 13       		.uleb128 0x13
 1856 0043 00       		.byte	0
 1857 0044 00       		.byte	0
 1858 0045 06       		.uleb128 0x6
 1859 0046 0D       		.uleb128 0xd
 1860 0047 00       		.byte	0
 1861 0048 03       		.uleb128 0x3
 1862 0049 0E       		.uleb128 0xe
 1863 004a 3A       		.uleb128 0x3a
 1864 004b 0B       		.uleb128 0xb
 1865 004c 3B       		.uleb128 0x3b
 1866 004d 0B       		.uleb128 0xb
 1867 004e 49       		.uleb128 0x49
 1868 004f 13       		.uleb128 0x13
 1869 0050 38       		.uleb128 0x38
 1870 0051 0B       		.uleb128 0xb
 1871 0052 00       		.byte	0
 1872 0053 00       		.byte	0
 1873 0054 07       		.uleb128 0x7
 1874 0055 0D       		.uleb128 0xd
 1875 0056 00       		.byte	0
 1876 0057 03       		.uleb128 0x3
 1877 0058 08       		.uleb128 0x8
 1878 0059 3A       		.uleb128 0x3a
 1879 005a 0B       		.uleb128 0xb
 1880 005b 3B       		.uleb128 0x3b
 1881 005c 0B       		.uleb128 0xb
ARM GAS  /tmp/ccWMN03B.s 			page 34


 1882 005d 49       		.uleb128 0x49
 1883 005e 13       		.uleb128 0x13
 1884 005f 38       		.uleb128 0x38
 1885 0060 0B       		.uleb128 0xb
 1886 0061 00       		.byte	0
 1887 0062 00       		.byte	0
 1888 0063 08       		.uleb128 0x8
 1889 0064 0D       		.uleb128 0xd
 1890 0065 00       		.byte	0
 1891 0066 03       		.uleb128 0x3
 1892 0067 08       		.uleb128 0x8
 1893 0068 3A       		.uleb128 0x3a
 1894 0069 0B       		.uleb128 0xb
 1895 006a 3B       		.uleb128 0x3b
 1896 006b 05       		.uleb128 0x5
 1897 006c 49       		.uleb128 0x49
 1898 006d 13       		.uleb128 0x13
 1899 006e 38       		.uleb128 0x38
 1900 006f 0B       		.uleb128 0xb
 1901 0070 00       		.byte	0
 1902 0071 00       		.byte	0
 1903 0072 09       		.uleb128 0x9
 1904 0073 0D       		.uleb128 0xd
 1905 0074 00       		.byte	0
 1906 0075 03       		.uleb128 0x3
 1907 0076 0E       		.uleb128 0xe
 1908 0077 3A       		.uleb128 0x3a
 1909 0078 0B       		.uleb128 0xb
 1910 0079 3B       		.uleb128 0x3b
 1911 007a 05       		.uleb128 0x5
 1912 007b 49       		.uleb128 0x49
 1913 007c 13       		.uleb128 0x13
 1914 007d 38       		.uleb128 0x38
 1915 007e 0B       		.uleb128 0xb
 1916 007f 00       		.byte	0
 1917 0080 00       		.byte	0
 1918 0081 0A       		.uleb128 0xa
 1919 0082 0F       		.uleb128 0xf
 1920 0083 00       		.byte	0
 1921 0084 0B       		.uleb128 0xb
 1922 0085 0B       		.uleb128 0xb
 1923 0086 49       		.uleb128 0x49
 1924 0087 13       		.uleb128 0x13
 1925 0088 00       		.byte	0
 1926 0089 00       		.byte	0
 1927 008a 0B       		.uleb128 0xb
 1928 008b 13       		.uleb128 0x13
 1929 008c 01       		.byte	0x1
 1930 008d 03       		.uleb128 0x3
 1931 008e 0E       		.uleb128 0xe
 1932 008f 0B       		.uleb128 0xb
 1933 0090 0B       		.uleb128 0xb
 1934 0091 3A       		.uleb128 0x3a
 1935 0092 0B       		.uleb128 0xb
 1936 0093 3B       		.uleb128 0x3b
 1937 0094 05       		.uleb128 0x5
 1938 0095 01       		.uleb128 0x1
ARM GAS  /tmp/ccWMN03B.s 			page 35


 1939 0096 13       		.uleb128 0x13
 1940 0097 00       		.byte	0
 1941 0098 00       		.byte	0
 1942 0099 0C       		.uleb128 0xc
 1943 009a 15       		.uleb128 0x15
 1944 009b 01       		.byte	0x1
 1945 009c 27       		.uleb128 0x27
 1946 009d 19       		.uleb128 0x19
 1947 009e 01       		.uleb128 0x1
 1948 009f 13       		.uleb128 0x13
 1949 00a0 00       		.byte	0
 1950 00a1 00       		.byte	0
 1951 00a2 0D       		.uleb128 0xd
 1952 00a3 05       		.uleb128 0x5
 1953 00a4 00       		.byte	0
 1954 00a5 49       		.uleb128 0x49
 1955 00a6 13       		.uleb128 0x13
 1956 00a7 00       		.byte	0
 1957 00a8 00       		.byte	0
 1958 00a9 0E       		.uleb128 0xe
 1959 00aa 0F       		.uleb128 0xf
 1960 00ab 00       		.byte	0
 1961 00ac 0B       		.uleb128 0xb
 1962 00ad 0B       		.uleb128 0xb
 1963 00ae 00       		.byte	0
 1964 00af 00       		.byte	0
 1965 00b0 0F       		.uleb128 0xf
 1966 00b1 35       		.uleb128 0x35
 1967 00b2 00       		.byte	0
 1968 00b3 49       		.uleb128 0x49
 1969 00b4 13       		.uleb128 0x13
 1970 00b5 00       		.byte	0
 1971 00b6 00       		.byte	0
 1972 00b7 10       		.uleb128 0x10
 1973 00b8 01       		.uleb128 0x1
 1974 00b9 01       		.byte	0x1
 1975 00ba 49       		.uleb128 0x49
 1976 00bb 13       		.uleb128 0x13
 1977 00bc 01       		.uleb128 0x1
 1978 00bd 13       		.uleb128 0x13
 1979 00be 00       		.byte	0
 1980 00bf 00       		.byte	0
 1981 00c0 11       		.uleb128 0x11
 1982 00c1 21       		.uleb128 0x21
 1983 00c2 00       		.byte	0
 1984 00c3 49       		.uleb128 0x49
 1985 00c4 13       		.uleb128 0x13
 1986 00c5 2F       		.uleb128 0x2f
 1987 00c6 0B       		.uleb128 0xb
 1988 00c7 00       		.byte	0
 1989 00c8 00       		.byte	0
 1990 00c9 12       		.uleb128 0x12
 1991 00ca 13       		.uleb128 0x13
 1992 00cb 01       		.byte	0x1
 1993 00cc 0B       		.uleb128 0xb
 1994 00cd 0B       		.uleb128 0xb
 1995 00ce 3A       		.uleb128 0x3a
ARM GAS  /tmp/ccWMN03B.s 			page 36


 1996 00cf 0B       		.uleb128 0xb
 1997 00d0 3B       		.uleb128 0x3b
 1998 00d1 05       		.uleb128 0x5
 1999 00d2 01       		.uleb128 0x1
 2000 00d3 13       		.uleb128 0x13
 2001 00d4 00       		.byte	0
 2002 00d5 00       		.byte	0
 2003 00d6 13       		.uleb128 0x13
 2004 00d7 16       		.uleb128 0x16
 2005 00d8 00       		.byte	0
 2006 00d9 03       		.uleb128 0x3
 2007 00da 0E       		.uleb128 0xe
 2008 00db 3A       		.uleb128 0x3a
 2009 00dc 0B       		.uleb128 0xb
 2010 00dd 3B       		.uleb128 0x3b
 2011 00de 05       		.uleb128 0x5
 2012 00df 49       		.uleb128 0x49
 2013 00e0 13       		.uleb128 0x13
 2014 00e1 00       		.byte	0
 2015 00e2 00       		.byte	0
 2016 00e3 14       		.uleb128 0x14
 2017 00e4 13       		.uleb128 0x13
 2018 00e5 01       		.byte	0x1
 2019 00e6 0B       		.uleb128 0xb
 2020 00e7 0B       		.uleb128 0xb
 2021 00e8 3A       		.uleb128 0x3a
 2022 00e9 0B       		.uleb128 0xb
 2023 00ea 3B       		.uleb128 0x3b
 2024 00eb 0B       		.uleb128 0xb
 2025 00ec 01       		.uleb128 0x1
 2026 00ed 13       		.uleb128 0x13
 2027 00ee 00       		.byte	0
 2028 00ef 00       		.byte	0
 2029 00f0 15       		.uleb128 0x15
 2030 00f1 17       		.uleb128 0x17
 2031 00f2 01       		.byte	0x1
 2032 00f3 0B       		.uleb128 0xb
 2033 00f4 0B       		.uleb128 0xb
 2034 00f5 3A       		.uleb128 0x3a
 2035 00f6 0B       		.uleb128 0xb
 2036 00f7 3B       		.uleb128 0x3b
 2037 00f8 0B       		.uleb128 0xb
 2038 00f9 01       		.uleb128 0x1
 2039 00fa 13       		.uleb128 0x13
 2040 00fb 00       		.byte	0
 2041 00fc 00       		.byte	0
 2042 00fd 16       		.uleb128 0x16
 2043 00fe 0D       		.uleb128 0xd
 2044 00ff 00       		.byte	0
 2045 0100 03       		.uleb128 0x3
 2046 0101 0E       		.uleb128 0xe
 2047 0102 3A       		.uleb128 0x3a
 2048 0103 0B       		.uleb128 0xb
 2049 0104 3B       		.uleb128 0x3b
 2050 0105 0B       		.uleb128 0xb
 2051 0106 49       		.uleb128 0x49
 2052 0107 13       		.uleb128 0x13
ARM GAS  /tmp/ccWMN03B.s 			page 37


 2053 0108 00       		.byte	0
 2054 0109 00       		.byte	0
 2055 010a 17       		.uleb128 0x17
 2056 010b 0D       		.uleb128 0xd
 2057 010c 00       		.byte	0
 2058 010d 03       		.uleb128 0x3
 2059 010e 0E       		.uleb128 0xe
 2060 010f 3A       		.uleb128 0x3a
 2061 0110 0B       		.uleb128 0xb
 2062 0111 3B       		.uleb128 0x3b
 2063 0112 05       		.uleb128 0x5
 2064 0113 49       		.uleb128 0x49
 2065 0114 13       		.uleb128 0x13
 2066 0115 00       		.byte	0
 2067 0116 00       		.byte	0
 2068 0117 18       		.uleb128 0x18
 2069 0118 26       		.uleb128 0x26
 2070 0119 00       		.byte	0
 2071 011a 49       		.uleb128 0x49
 2072 011b 13       		.uleb128 0x13
 2073 011c 00       		.byte	0
 2074 011d 00       		.byte	0
 2075 011e 19       		.uleb128 0x19
 2076 011f 2E       		.uleb128 0x2e
 2077 0120 01       		.byte	0x1
 2078 0121 03       		.uleb128 0x3
 2079 0122 0E       		.uleb128 0xe
 2080 0123 3A       		.uleb128 0x3a
 2081 0124 0B       		.uleb128 0xb
 2082 0125 3B       		.uleb128 0x3b
 2083 0126 05       		.uleb128 0x5
 2084 0127 27       		.uleb128 0x27
 2085 0128 19       		.uleb128 0x19
 2086 0129 20       		.uleb128 0x20
 2087 012a 0B       		.uleb128 0xb
 2088 012b 01       		.uleb128 0x1
 2089 012c 13       		.uleb128 0x13
 2090 012d 00       		.byte	0
 2091 012e 00       		.byte	0
 2092 012f 1A       		.uleb128 0x1a
 2093 0130 05       		.uleb128 0x5
 2094 0131 00       		.byte	0
 2095 0132 03       		.uleb128 0x3
 2096 0133 0E       		.uleb128 0xe
 2097 0134 3A       		.uleb128 0x3a
 2098 0135 0B       		.uleb128 0xb
 2099 0136 3B       		.uleb128 0x3b
 2100 0137 05       		.uleb128 0x5
 2101 0138 49       		.uleb128 0x49
 2102 0139 13       		.uleb128 0x13
 2103 013a 00       		.byte	0
 2104 013b 00       		.byte	0
 2105 013c 1B       		.uleb128 0x1b
 2106 013d 2E       		.uleb128 0x2e
 2107 013e 00       		.byte	0
 2108 013f 03       		.uleb128 0x3
 2109 0140 0E       		.uleb128 0xe
ARM GAS  /tmp/ccWMN03B.s 			page 38


 2110 0141 3A       		.uleb128 0x3a
 2111 0142 0B       		.uleb128 0xb
 2112 0143 3B       		.uleb128 0x3b
 2113 0144 05       		.uleb128 0x5
 2114 0145 27       		.uleb128 0x27
 2115 0146 19       		.uleb128 0x19
 2116 0147 20       		.uleb128 0x20
 2117 0148 0B       		.uleb128 0xb
 2118 0149 00       		.byte	0
 2119 014a 00       		.byte	0
 2120 014b 1C       		.uleb128 0x1c
 2121 014c 2E       		.uleb128 0x2e
 2122 014d 01       		.byte	0x1
 2123 014e 3F       		.uleb128 0x3f
 2124 014f 19       		.uleb128 0x19
 2125 0150 03       		.uleb128 0x3
 2126 0151 0E       		.uleb128 0xe
 2127 0152 3A       		.uleb128 0x3a
 2128 0153 0B       		.uleb128 0xb
 2129 0154 3B       		.uleb128 0x3b
 2130 0155 0B       		.uleb128 0xb
 2131 0156 27       		.uleb128 0x27
 2132 0157 19       		.uleb128 0x19
 2133 0158 11       		.uleb128 0x11
 2134 0159 01       		.uleb128 0x1
 2135 015a 12       		.uleb128 0x12
 2136 015b 06       		.uleb128 0x6
 2137 015c 40       		.uleb128 0x40
 2138 015d 18       		.uleb128 0x18
 2139 015e 9742     		.uleb128 0x2117
 2140 0160 19       		.uleb128 0x19
 2141 0161 01       		.uleb128 0x1
 2142 0162 13       		.uleb128 0x13
 2143 0163 00       		.byte	0
 2144 0164 00       		.byte	0
 2145 0165 1D       		.uleb128 0x1d
 2146 0166 1D       		.uleb128 0x1d
 2147 0167 01       		.byte	0x1
 2148 0168 31       		.uleb128 0x31
 2149 0169 13       		.uleb128 0x13
 2150 016a 11       		.uleb128 0x11
 2151 016b 01       		.uleb128 0x1
 2152 016c 12       		.uleb128 0x12
 2153 016d 06       		.uleb128 0x6
 2154 016e 58       		.uleb128 0x58
 2155 016f 0B       		.uleb128 0xb
 2156 0170 59       		.uleb128 0x59
 2157 0171 05       		.uleb128 0x5
 2158 0172 01       		.uleb128 0x1
 2159 0173 13       		.uleb128 0x13
 2160 0174 00       		.byte	0
 2161 0175 00       		.byte	0
 2162 0176 1E       		.uleb128 0x1e
 2163 0177 1D       		.uleb128 0x1d
 2164 0178 01       		.byte	0x1
 2165 0179 31       		.uleb128 0x31
 2166 017a 13       		.uleb128 0x13
ARM GAS  /tmp/ccWMN03B.s 			page 39


 2167 017b 11       		.uleb128 0x11
 2168 017c 01       		.uleb128 0x1
 2169 017d 12       		.uleb128 0x12
 2170 017e 06       		.uleb128 0x6
 2171 017f 58       		.uleb128 0x58
 2172 0180 0B       		.uleb128 0xb
 2173 0181 59       		.uleb128 0x59
 2174 0182 05       		.uleb128 0x5
 2175 0183 00       		.byte	0
 2176 0184 00       		.byte	0
 2177 0185 1F       		.uleb128 0x1f
 2178 0186 05       		.uleb128 0x5
 2179 0187 00       		.byte	0
 2180 0188 31       		.uleb128 0x31
 2181 0189 13       		.uleb128 0x13
 2182 018a 02       		.uleb128 0x2
 2183 018b 17       		.uleb128 0x17
 2184 018c 00       		.byte	0
 2185 018d 00       		.byte	0
 2186 018e 20       		.uleb128 0x20
 2187 018f 898201   		.uleb128 0x4109
 2188 0192 00       		.byte	0
 2189 0193 11       		.uleb128 0x11
 2190 0194 01       		.uleb128 0x1
 2191 0195 31       		.uleb128 0x31
 2192 0196 13       		.uleb128 0x13
 2193 0197 00       		.byte	0
 2194 0198 00       		.byte	0
 2195 0199 21       		.uleb128 0x21
 2196 019a 898201   		.uleb128 0x4109
 2197 019d 00       		.byte	0
 2198 019e 11       		.uleb128 0x11
 2199 019f 01       		.uleb128 0x1
 2200 01a0 9542     		.uleb128 0x2115
 2201 01a2 19       		.uleb128 0x19
 2202 01a3 31       		.uleb128 0x31
 2203 01a4 13       		.uleb128 0x13
 2204 01a5 00       		.byte	0
 2205 01a6 00       		.byte	0
 2206 01a7 22       		.uleb128 0x22
 2207 01a8 2E       		.uleb128 0x2e
 2208 01a9 01       		.byte	0x1
 2209 01aa 3F       		.uleb128 0x3f
 2210 01ab 19       		.uleb128 0x19
 2211 01ac 03       		.uleb128 0x3
 2212 01ad 0E       		.uleb128 0xe
 2213 01ae 3A       		.uleb128 0x3a
 2214 01af 0B       		.uleb128 0xb
 2215 01b0 3B       		.uleb128 0x3b
 2216 01b1 05       		.uleb128 0x5
 2217 01b2 27       		.uleb128 0x27
 2218 01b3 19       		.uleb128 0x19
 2219 01b4 11       		.uleb128 0x11
 2220 01b5 01       		.uleb128 0x1
 2221 01b6 12       		.uleb128 0x12
 2222 01b7 06       		.uleb128 0x6
 2223 01b8 40       		.uleb128 0x40
ARM GAS  /tmp/ccWMN03B.s 			page 40


 2224 01b9 18       		.uleb128 0x18
 2225 01ba 9742     		.uleb128 0x2117
 2226 01bc 19       		.uleb128 0x19
 2227 01bd 01       		.uleb128 0x1
 2228 01be 13       		.uleb128 0x13
 2229 01bf 00       		.byte	0
 2230 01c0 00       		.byte	0
 2231 01c1 23       		.uleb128 0x23
 2232 01c2 898201   		.uleb128 0x4109
 2233 01c5 01       		.byte	0x1
 2234 01c6 11       		.uleb128 0x11
 2235 01c7 01       		.uleb128 0x1
 2236 01c8 9542     		.uleb128 0x2115
 2237 01ca 19       		.uleb128 0x19
 2238 01cb 31       		.uleb128 0x31
 2239 01cc 13       		.uleb128 0x13
 2240 01cd 00       		.byte	0
 2241 01ce 00       		.byte	0
 2242 01cf 24       		.uleb128 0x24
 2243 01d0 8A8201   		.uleb128 0x410a
 2244 01d3 00       		.byte	0
 2245 01d4 02       		.uleb128 0x2
 2246 01d5 18       		.uleb128 0x18
 2247 01d6 9142     		.uleb128 0x2111
 2248 01d8 18       		.uleb128 0x18
 2249 01d9 00       		.byte	0
 2250 01da 00       		.byte	0
 2251 01db 25       		.uleb128 0x25
 2252 01dc 34       		.uleb128 0x34
 2253 01dd 00       		.byte	0
 2254 01de 03       		.uleb128 0x3
 2255 01df 0E       		.uleb128 0xe
 2256 01e0 3A       		.uleb128 0x3a
 2257 01e1 0B       		.uleb128 0xb
 2258 01e2 3B       		.uleb128 0x3b
 2259 01e3 05       		.uleb128 0x5
 2260 01e4 49       		.uleb128 0x49
 2261 01e5 13       		.uleb128 0x13
 2262 01e6 3F       		.uleb128 0x3f
 2263 01e7 19       		.uleb128 0x19
 2264 01e8 3C       		.uleb128 0x3c
 2265 01e9 19       		.uleb128 0x19
 2266 01ea 00       		.byte	0
 2267 01eb 00       		.byte	0
 2268 01ec 26       		.uleb128 0x26
 2269 01ed 34       		.uleb128 0x34
 2270 01ee 00       		.byte	0
 2271 01ef 03       		.uleb128 0x3
 2272 01f0 08       		.uleb128 0x8
 2273 01f1 3A       		.uleb128 0x3a
 2274 01f2 0B       		.uleb128 0xb
 2275 01f3 3B       		.uleb128 0x3b
 2276 01f4 05       		.uleb128 0x5
 2277 01f5 49       		.uleb128 0x49
 2278 01f6 13       		.uleb128 0x13
 2279 01f7 3F       		.uleb128 0x3f
 2280 01f8 19       		.uleb128 0x19
ARM GAS  /tmp/ccWMN03B.s 			page 41


 2281 01f9 3C       		.uleb128 0x3c
 2282 01fa 19       		.uleb128 0x19
 2283 01fb 00       		.byte	0
 2284 01fc 00       		.byte	0
 2285 01fd 27       		.uleb128 0x27
 2286 01fe 2E       		.uleb128 0x2e
 2287 01ff 00       		.byte	0
 2288 0200 3F       		.uleb128 0x3f
 2289 0201 19       		.uleb128 0x19
 2290 0202 3C       		.uleb128 0x3c
 2291 0203 19       		.uleb128 0x19
 2292 0204 6E       		.uleb128 0x6e
 2293 0205 0E       		.uleb128 0xe
 2294 0206 03       		.uleb128 0x3
 2295 0207 0E       		.uleb128 0xe
 2296 0208 3A       		.uleb128 0x3a
 2297 0209 0B       		.uleb128 0xb
 2298 020a 3B       		.uleb128 0x3b
 2299 020b 0B       		.uleb128 0xb
 2300 020c 00       		.byte	0
 2301 020d 00       		.byte	0
 2302 020e 28       		.uleb128 0x28
 2303 020f 2E       		.uleb128 0x2e
 2304 0210 00       		.byte	0
 2305 0211 3F       		.uleb128 0x3f
 2306 0212 19       		.uleb128 0x19
 2307 0213 3C       		.uleb128 0x3c
 2308 0214 19       		.uleb128 0x19
 2309 0215 6E       		.uleb128 0x6e
 2310 0216 0E       		.uleb128 0xe
 2311 0217 03       		.uleb128 0x3
 2312 0218 0E       		.uleb128 0xe
 2313 0219 3A       		.uleb128 0x3a
 2314 021a 0B       		.uleb128 0xb
 2315 021b 3B       		.uleb128 0x3b
 2316 021c 05       		.uleb128 0x5
 2317 021d 00       		.byte	0
 2318 021e 00       		.byte	0
 2319 021f 00       		.byte	0
 2320              		.section	.debug_loc,"",%progbits
 2321              	.Ldebug_loc0:
 2322              	.LLST0:
 2323 0000 12000000 		.4byte	.LVL1
 2324 0004 18000000 		.4byte	.LVL2
 2325 0008 0300     		.2byte	0x3
 2326 000a 08       		.byte	0x8
 2327 000b 20       		.byte	0x20
 2328 000c 9F       		.byte	0x9f
 2329 000d 00000000 		.4byte	0
 2330 0011 00000000 		.4byte	0
 2331              	.LLST1:
 2332 0015 24000000 		.4byte	.LVL5
 2333 0019 28000000 		.4byte	.LVL6
 2334 001d 0200     		.2byte	0x2
 2335 001f 30       		.byte	0x30
 2336 0020 9F       		.byte	0x9f
 2337 0021 00000000 		.4byte	0
ARM GAS  /tmp/ccWMN03B.s 			page 42


 2338 0025 00000000 		.4byte	0
 2339              		.section	.debug_aranges,"",%progbits
 2340 0000 24000000 		.4byte	0x24
 2341 0004 0200     		.2byte	0x2
 2342 0006 00000000 		.4byte	.Ldebug_info0
 2343 000a 04       		.byte	0x4
 2344 000b 00       		.byte	0
 2345 000c 0000     		.2byte	0
 2346 000e 0000     		.2byte	0
 2347 0010 00000000 		.4byte	.LFB323
 2348 0014 34000000 		.4byte	.LFE323-.LFB323
 2349 0018 00000000 		.4byte	.LFB324
 2350 001c 50000000 		.4byte	.LFE324-.LFB324
 2351 0020 00000000 		.4byte	0
 2352 0024 00000000 		.4byte	0
 2353              		.section	.debug_ranges,"",%progbits
 2354              	.Ldebug_ranges0:
 2355 0000 00000000 		.4byte	.LFB323
 2356 0004 34000000 		.4byte	.LFE323
 2357 0008 00000000 		.4byte	.LFB324
 2358 000c 50000000 		.4byte	.LFE324
 2359 0010 00000000 		.4byte	0
 2360 0014 00000000 		.4byte	0
 2361              		.section	.debug_line,"",%progbits
 2362              	.Ldebug_line0:
 2363 0000 2F030000 		.section	.debug_str,"MS",%progbits,1
 2363      0200D302 
 2363      00000201 
 2363      FB0E0D00 
 2363      01010101 
 2364              	.LASF46:
 2365 0000 74687265 		.ascii	"threads_list_t\000"
 2365      6164735F 
 2365      6C697374 
 2365      5F7400
 2366              	.LASF53:
 2367 000f 72656164 		.ascii	"ready_list_t\000"
 2367      795F6C69 
 2367      73745F74 
 2367      00
 2368              	.LASF115:
 2369 001c 44494552 		.ascii	"DIER\000"
 2369      00
 2370              	.LASF139:
 2371 0021 77747472 		.ascii	"wttrp\000"
 2371      7000
 2372              	.LASF49:
 2373 0027 6E657874 		.ascii	"next\000"
 2373      00
 2374              	.LASF59:
 2375 002c 64656C74 		.ascii	"delta\000"
 2375      6100
 2376              	.LASF136:
 2377 0032 7264796D 		.ascii	"rdymsg\000"
 2377      736700
 2378              	.LASF17:
 2379 0039 75696E74 		.ascii	"uint64_t\000"
ARM GAS  /tmp/ccWMN03B.s 			page 43


 2379      36345F74 
 2379      00
 2380              	.LASF72:
 2381 0042 6B65726E 		.ascii	"kernel_stats\000"
 2381      656C5F73 
 2381      74617473 
 2381      00
 2382              	.LASF7:
 2383 004f 5F5F7569 		.ascii	"__uint8_t\000"
 2383      6E74385F 
 2383      7400
 2384              	.LASF52:
 2385 0059 70726576 		.ascii	"prev\000"
 2385      00
 2386              	.LASF113:
 2387 005e 706F7274 		.ascii	"port_intctx\000"
 2387      5F696E74 
 2387      63747800 
 2388              	.LASF51:
 2389 006a 63685F74 		.ascii	"ch_threads_queue\000"
 2389      68726561 
 2389      64735F71 
 2389      75657565 
 2389      00
 2390              	.LASF64:
 2391 007b 73797374 		.ascii	"system_debug_t\000"
 2391      656D5F64 
 2391      65627567 
 2391      5F7400
 2392              	.LASF117:
 2393 008a 43434D52 		.ascii	"CCMR2\000"
 2393      3200
 2394              	.LASF168:
 2395 0090 474E5520 		.ascii	"GNU C11 5.4.1 20160919 -mcpu=cortex-m4 -mfloat-abi="
 2395      43313120 
 2395      352E342E 
 2395      31203230 
 2395      31363039 
 2396 00c3 68617264 		.ascii	"hard -mfpu=fpv4-sp-d16 -mno-thumb-interwork -mthumb"
 2396      202D6D66 
 2396      70753D66 
 2396      7076342D 
 2396      73702D64 
 2397 00f6 202D6720 		.ascii	" -g -Os -fomit-frame-pointer -falign-functions=16 -"
 2397      2D4F7320 
 2397      2D666F6D 
 2397      69742D66 
 2397      72616D65 
 2398 0129 6666756E 		.ascii	"ffunction-sections -fdata-sections -fno-common -fsi"
 2398      6374696F 
 2398      6E2D7365 
 2398      6374696F 
 2398      6E73202D 
 2399 015c 6E676C65 		.ascii	"ngle-precision-constant\000"
 2399      2D707265 
 2399      63697369 
 2399      6F6E2D63 
ARM GAS  /tmp/ccWMN03B.s 			page 44


 2399      6F6E7374 
 2400              	.LASF150:
 2401 0174 706F7274 		.ascii	"port_lock\000"
 2401      5F6C6F63 
 2401      6B00
 2402              	.LASF112:
 2403 017e 706F7274 		.ascii	"port_context\000"
 2403      5F636F6E 
 2403      74657874 
 2403      00
 2404              	.LASF127:
 2405 018b 776F7273 		.ascii	"worst\000"
 2405      7400
 2406              	.LASF130:
 2407 0191 74696D65 		.ascii	"time_measurement_t\000"
 2407      5F6D6561 
 2407      73757265 
 2407      6D656E74 
 2407      5F7400
 2408              	.LASF13:
 2409 01a4 6C6F6E67 		.ascii	"long long unsigned int\000"
 2409      206C6F6E 
 2409      6720756E 
 2409      7369676E 
 2409      65642069 
 2410              	.LASF137:
 2411 01bb 65786974 		.ascii	"exitcode\000"
 2411      636F6465 
 2411      00
 2412              	.LASF71:
 2413 01c4 6D61696E 		.ascii	"mainthread\000"
 2413      74687265 
 2413      616400
 2414              	.LASF140:
 2415 01cf 73656E74 		.ascii	"sentmsg\000"
 2415      6D736700 
 2416              	.LASF61:
 2417 01d7 76697274 		.ascii	"virtual_timers_list_t\000"
 2417      75616C5F 
 2417      74696D65 
 2417      72735F6C 
 2417      6973745F 
 2418              	.LASF154:
 2419 01ed 6F73616C 		.ascii	"osalSysUnlockFromISR\000"
 2419      53797355 
 2419      6E6C6F63 
 2419      6B46726F 
 2419      6D495352 
 2420              	.LASF160:
 2421 0202 73745F6C 		.ascii	"st_lld_init\000"
 2421      6C645F69 
 2421      6E697400 
 2422              	.LASF119:
 2423 020e 42445452 		.ascii	"BDTR\000"
 2423      00
 2424              	.LASF19:
 2425 0213 72747469 		.ascii	"rttime_t\000"
ARM GAS  /tmp/ccWMN03B.s 			page 45


 2425      6D655F74 
 2425      00
 2426              	.LASF96:
 2427 021c 41484231 		.ascii	"AHB1LPENR\000"
 2427      4C50454E 
 2427      5200
 2428              	.LASF167:
 2429 0226 6E766963 		.ascii	"nvicEnableVector\000"
 2429      456E6162 
 2429      6C655665 
 2429      63746F72 
 2429      00
 2430              	.LASF37:
 2431 0237 72656673 		.ascii	"refs\000"
 2431      00
 2432              	.LASF116:
 2433 023c 43434D52 		.ascii	"CCMR1\000"
 2433      3100
 2434              	.LASF108:
 2435 0242 44434B43 		.ascii	"DCKCFGR\000"
 2435      46475200 
 2436              	.LASF121:
 2437 024a 43434D52 		.ascii	"CCMR3\000"
 2437      3300
 2438              	.LASF3:
 2439 0250 7369676E 		.ascii	"signed char\000"
 2439      65642063 
 2439      68617200 
 2440              	.LASF82:
 2441 025c 41484231 		.ascii	"AHB1RSTR\000"
 2441      52535452 
 2441      00
 2442              	.LASF172:
 2443 0265 62617365 		.ascii	"basePri\000"
 2443      50726900 
 2444              	.LASF70:
 2445 026d 76746C69 		.ascii	"vtlist\000"
 2445      737400
 2446              	.LASF151:
 2447 0274 706F7274 		.ascii	"port_unlock\000"
 2447      5F756E6C 
 2447      6F636B00 
 2448              	.LASF39:
 2449 0280 6D736771 		.ascii	"msgqueue\000"
 2449      75657565 
 2449      00
 2450              	.LASF35:
 2451 0289 73746174 		.ascii	"state\000"
 2451      6500
 2452              	.LASF68:
 2453 028f 63685F73 		.ascii	"ch_system\000"
 2453      79737465 
 2453      6D00
 2454              	.LASF9:
 2455 0299 6C6F6E67 		.ascii	"long int\000"
 2455      20696E74 
 2455      00
ARM GAS  /tmp/ccWMN03B.s 			page 46


 2456              	.LASF87:
 2457 02a2 41504232 		.ascii	"APB2RSTR\000"
 2457      52535452 
 2457      00
 2458              	.LASF100:
 2459 02ab 41504231 		.ascii	"APB1LPENR\000"
 2459      4C50454E 
 2459      5200
 2460              	.LASF21:
 2461 02b5 74737461 		.ascii	"tstate_t\000"
 2461      74655F74 
 2461      00
 2462              	.LASF60:
 2463 02be 66756E63 		.ascii	"func\000"
 2463      00
 2464              	.LASF44:
 2465 02c3 73746174 		.ascii	"stats\000"
 2465      7300
 2466              	.LASF80:
 2467 02c9 504C4C43 		.ascii	"PLLCFGR\000"
 2467      46475200 
 2468              	.LASF10:
 2469 02d1 5F5F7569 		.ascii	"__uint32_t\000"
 2469      6E743332 
 2469      5F7400
 2470              	.LASF110:
 2471 02dc 72656761 		.ascii	"regarm_t\000"
 2471      726D5F74 
 2471      00
 2472              	.LASF156:
 2473 02e5 6F73616C 		.ascii	"osalSysLockFromISR\000"
 2473      5379734C 
 2473      6F636B46 
 2473      726F6D49 
 2473      535200
 2474              	.LASF65:
 2475 02f8 63685F73 		.ascii	"ch_system_debug\000"
 2475      79737465 
 2475      6D5F6465 
 2475      62756700 
 2476              	.LASF38:
 2477 0308 77616974 		.ascii	"waiting\000"
 2477      696E6700 
 2478              	.LASF1:
 2479 0310 6C6F6E67 		.ascii	"long long int\000"
 2479      206C6F6E 
 2479      6720696E 
 2479      7400
 2480              	.LASF74:
 2481 031e 73797369 		.ascii	"sysinterval_t\000"
 2481      6E746572 
 2481      76616C5F 
 2481      7400
 2482              	.LASF26:
 2483 032c 636E745F 		.ascii	"cnt_t\000"
 2483      7400
 2484              	.LASF0:
ARM GAS  /tmp/ccWMN03B.s 			page 47


 2485 0332 756E7369 		.ascii	"unsigned int\000"
 2485      676E6564 
 2485      20696E74 
 2485      00
 2486              	.LASF107:
 2487 033f 504C4C53 		.ascii	"PLLSAICFGR\000"
 2487      41494346 
 2487      475200
 2488              	.LASF141:
 2489 034a 77747365 		.ascii	"wtsemp\000"
 2489      6D7000
 2490              	.LASF109:
 2491 0351 5243435F 		.ascii	"RCC_TypeDef\000"
 2491      54797065 
 2491      44656600 
 2492              	.LASF128:
 2493 035d 6C617374 		.ascii	"last\000"
 2493      00
 2494              	.LASF131:
 2495 0362 6E5F6972 		.ascii	"n_irq\000"
 2495      7100
 2496              	.LASF29:
 2497 0368 71756575 		.ascii	"queue\000"
 2497      6500
 2498              	.LASF43:
 2499 036e 6D706F6F 		.ascii	"mpool\000"
 2499      6C00
 2500              	.LASF126:
 2501 0374 62657374 		.ascii	"best\000"
 2501      00
 2502              	.LASF114:
 2503 0379 534D4352 		.ascii	"SMCR\000"
 2503      00
 2504              	.LASF135:
 2505 037e 6B65726E 		.ascii	"kernel_stats_t\000"
 2505      656C5F73 
 2505      74617473 
 2505      5F7400
 2506              	.LASF33:
 2507 038d 6E616D65 		.ascii	"name\000"
 2507      00
 2508              	.LASF47:
 2509 0392 63685F74 		.ascii	"ch_thread\000"
 2509      68726561 
 2509      6400
 2510              	.LASF106:
 2511 039c 504C4C49 		.ascii	"PLLI2SCFGR\000"
 2511      32534346 
 2511      475200
 2512              	.LASF24:
 2513 03a7 6D73675F 		.ascii	"msg_t\000"
 2513      7400
 2514              	.LASF84:
 2515 03ad 41484233 		.ascii	"AHB3RSTR\000"
 2515      52535452 
 2515      00
 2516              	.LASF27:
ARM GAS  /tmp/ccWMN03B.s 			page 48


 2517 03b6 75636E74 		.ascii	"ucnt_t\000"
 2517      5F7400
 2518              	.LASF40:
 2519 03bd 6570656E 		.ascii	"epending\000"
 2519      64696E67 
 2519      00
 2520              	.LASF78:
 2521 03c6 41504232 		.ascii	"APB2FZ\000"
 2521      465A00
 2522              	.LASF166:
 2523 03cd 5F706F72 		.ascii	"_port_irq_epilogue\000"
 2523      745F6972 
 2523      715F6570 
 2523      696C6F67 
 2523      756500
 2524              	.LASF169:
 2525 03e0 2E2E2F2E 		.ascii	"../../modules/ChibiOS/os/hal/ports/STM32/LLD/TIMv1/"
 2525      2E2F6D6F 
 2525      64756C65 
 2525      732F4368 
 2525      6962694F 
 2526 0413 68616C5F 		.ascii	"hal_st_lld.c\000"
 2526      73745F6C 
 2526      6C642E63 
 2526      00
 2527              	.LASF159:
 2528 0420 56656374 		.ascii	"Vector108\000"
 2528      6F723130 
 2528      3800
 2529              	.LASF138:
 2530 042a 77746F62 		.ascii	"wtobjp\000"
 2530      6A7000
 2531              	.LASF101:
 2532 0431 41504232 		.ascii	"APB2LPENR\000"
 2532      4C50454E 
 2532      5200
 2533              	.LASF134:
 2534 043b 6D5F6372 		.ascii	"m_crit_isr\000"
 2534      69745F69 
 2534      737200
 2535              	.LASF54:
 2536 0446 63685F72 		.ascii	"ch_ready_list\000"
 2536      65616479 
 2536      5F6C6973 
 2536      7400
 2537              	.LASF25:
 2538 0454 6576656E 		.ascii	"eventmask_t\000"
 2538      746D6173 
 2538      6B5F7400 
 2539              	.LASF8:
 2540 0460 5F5F696E 		.ascii	"__int32_t\000"
 2540      7433325F 
 2540      7400
 2541              	.LASF162:
 2542 046a 5F737461 		.ascii	"_stats_start_measure_crit_isr\000"
 2542      74735F73 
 2542      74617274 
ARM GAS  /tmp/ccWMN03B.s 			page 49


 2542      5F6D6561 
 2542      73757265 
 2543              	.LASF111:
 2544 0488 73746B61 		.ascii	"stkalign_t\000"
 2544      6C69676E 
 2544      5F7400
 2545              	.LASF155:
 2546 0493 6F73616C 		.ascii	"osalOsTimerHandlerI\000"
 2546      4F735469 
 2546      6D657248 
 2546      616E646C 
 2546      65724900 
 2547              	.LASF31:
 2548 04a7 6E657765 		.ascii	"newer\000"
 2548      7200
 2549              	.LASF57:
 2550 04ad 76697274 		.ascii	"virtual_timer_t\000"
 2550      75616C5F 
 2550      74696D65 
 2550      725F7400 
 2551              	.LASF42:
 2552 04bd 7265616C 		.ascii	"realprio\000"
 2552      7072696F 
 2552      00
 2553              	.LASF75:
 2554 04c6 73697A65 		.ascii	"sizetype\000"
 2554      74797065 
 2554      00
 2555              	.LASF45:
 2556 04cf 74687265 		.ascii	"thread_reference_t\000"
 2556      61645F72 
 2556      65666572 
 2556      656E6365 
 2556      5F7400
 2557              	.LASF62:
 2558 04e2 63685F76 		.ascii	"ch_virtual_timers_list\000"
 2558      69727475 
 2558      616C5F74 
 2558      696D6572 
 2558      735F6C69 
 2559              	.LASF2:
 2560 04f9 6C6F6E67 		.ascii	"long double\000"
 2560      20646F75 
 2560      626C6500 
 2561              	.LASF91:
 2562 0505 41484233 		.ascii	"AHB3ENR\000"
 2562      454E5200 
 2563              	.LASF97:
 2564 050d 41484232 		.ascii	"AHB2LPENR\000"
 2564      4C50454E 
 2564      5200
 2565              	.LASF125:
 2566 0517 746D5F63 		.ascii	"tm_calibration_t\000"
 2566      616C6962 
 2566      72617469 
 2566      6F6E5F74 
 2566      00
ARM GAS  /tmp/ccWMN03B.s 			page 50


 2567              	.LASF30:
 2568 0528 7072696F 		.ascii	"prio\000"
 2568      00
 2569              	.LASF86:
 2570 052d 41504231 		.ascii	"APB1RSTR\000"
 2570      52535452 
 2570      00
 2571              	.LASF55:
 2572 0536 63757272 		.ascii	"current\000"
 2572      656E7400 
 2573              	.LASF12:
 2574 053e 5F5F7569 		.ascii	"__uint64_t\000"
 2574      6E743634 
 2574      5F7400
 2575              	.LASF129:
 2576 0549 63756D75 		.ascii	"cumulative\000"
 2576      6C617469 
 2576      766500
 2577              	.LASF77:
 2578 0554 41504231 		.ascii	"APB1FZ\000"
 2578      465A00
 2579              	.LASF22:
 2580 055b 74726566 		.ascii	"trefs_t\000"
 2580      735F7400 
 2581              	.LASF85:
 2582 0563 52455345 		.ascii	"RESERVED0\000"
 2582      52564544 
 2582      3000
 2583              	.LASF88:
 2584 056d 52455345 		.ascii	"RESERVED1\000"
 2584      52564544 
 2584      3100
 2585              	.LASF92:
 2586 0577 52455345 		.ascii	"RESERVED2\000"
 2586      52564544 
 2586      3200
 2587              	.LASF95:
 2588 0581 52455345 		.ascii	"RESERVED3\000"
 2588      52564544 
 2588      3300
 2589              	.LASF99:
 2590 058b 52455345 		.ascii	"RESERVED4\000"
 2590      52564544 
 2590      3400
 2591              	.LASF102:
 2592 0595 52455345 		.ascii	"RESERVED5\000"
 2592      52564544 
 2592      3500
 2593              	.LASF104:
 2594 059f 52455345 		.ascii	"RESERVED6\000"
 2594      52564544 
 2594      3600
 2595              	.LASF23:
 2596 05a9 74707269 		.ascii	"tprio_t\000"
 2596      6F5F7400 
 2597              	.LASF157:
 2598 05b1 63685379 		.ascii	"chSysUnlockFromISR\000"
ARM GAS  /tmp/ccWMN03B.s 			page 51


 2598      73556E6C 
 2598      6F636B46 
 2598      726F6D49 
 2598      535200
 2599              	.LASF132:
 2600 05c4 6E5F6374 		.ascii	"n_ctxswc\000"
 2600      78737763 
 2600      00
 2601              	.LASF149:
 2602 05cd 5F426F6F 		.ascii	"_Bool\000"
 2602      6C00
 2603              	.LASF15:
 2604 05d3 696E7433 		.ascii	"int32_t\000"
 2604      325F7400 
 2605              	.LASF4:
 2606 05db 756E7369 		.ascii	"unsigned char\000"
 2606      676E6564 
 2606      20636861 
 2606      7200
 2607              	.LASF76:
 2608 05e9 4944434F 		.ascii	"IDCODE\000"
 2608      444500
 2609              	.LASF161:
 2610 05f0 49544D5F 		.ascii	"ITM_RxBuffer\000"
 2610      52784275 
 2610      66666572 
 2610      00
 2611              	.LASF5:
 2612 05fd 73686F72 		.ascii	"short int\000"
 2612      7420696E 
 2612      7400
 2613              	.LASF63:
 2614 0607 6C617374 		.ascii	"lasttime\000"
 2614      74696D65 
 2614      00
 2615              	.LASF98:
 2616 0610 41484233 		.ascii	"AHB3LPENR\000"
 2616      4C50454E 
 2616      5200
 2617              	.LASF143:
 2618 061a 65776D61 		.ascii	"ewmask\000"
 2618      736B00
 2619              	.LASF94:
 2620 0621 41504232 		.ascii	"APB2ENR\000"
 2620      454E5200 
 2621              	.LASF58:
 2622 0629 63685F76 		.ascii	"ch_virtual_timer\000"
 2622      69727475 
 2622      616C5F74 
 2622      696D6572 
 2622      00
 2623              	.LASF144:
 2624 063a 63685F73 		.ascii	"ch_semaphore\000"
 2624      656D6170 
 2624      686F7265 
 2624      00
 2625              	.LASF122:
ARM GAS  /tmp/ccWMN03B.s 			page 52


 2626 0647 43435852 		.ascii	"CCXR\000"
 2626      00
 2627              	.LASF79:
 2628 064c 4442474D 		.ascii	"DBGMCU_TypeDef\000"
 2628      43555F54 
 2628      79706544 
 2628      656600
 2629              	.LASF170:
 2630 065b 2F686F6D 		.ascii	"/home/user/csse4011/project/4011-surfbee/ardupilot/"
 2630      652F7573 
 2630      65722F63 
 2630      73736534 
 2630      3031312F 
 2631 068e 6275696C 		.ascii	"build/stm32l475\000"
 2631      642F7374 
 2631      6D33326C 
 2631      34373500 
 2632              	.LASF165:
 2633 069e 5F737461 		.ascii	"_stats_increase_irq\000"
 2633      74735F69 
 2633      6E637265 
 2633      6173655F 
 2633      69727100 
 2634              	.LASF48:
 2635 06b2 63685F74 		.ascii	"ch_threads_list\000"
 2635      68726561 
 2635      64735F6C 
 2635      69737400 
 2636              	.LASF146:
 2637 06c2 6F776E65 		.ascii	"owner\000"
 2637      7200
 2638              	.LASF11:
 2639 06c8 6C6F6E67 		.ascii	"long unsigned int\000"
 2639      20756E73 
 2639      69676E65 
 2639      6420696E 
 2639      7400
 2640              	.LASF34:
 2641 06da 77616261 		.ascii	"wabase\000"
 2641      736500
 2642              	.LASF147:
 2643 06e1 63686172 		.ascii	"char\000"
 2643      00
 2644              	.LASF32:
 2645 06e6 6F6C6465 		.ascii	"older\000"
 2645      7200
 2646              	.LASF142:
 2647 06ec 77746D74 		.ascii	"wtmtxp\000"
 2647      787000
 2648              	.LASF120:
 2649 06f3 444D4152 		.ascii	"DMAR\000"
 2649      00
 2650              	.LASF83:
 2651 06f8 41484232 		.ascii	"AHB2RSTR\000"
 2651      52535452 
 2651      00
 2652              	.LASF153:
ARM GAS  /tmp/ccWMN03B.s 			page 53


 2653 0701 706F7274 		.ascii	"port_unlock_from_isr\000"
 2653      5F756E6C 
 2653      6F636B5F 
 2653      66726F6D 
 2653      5F697372 
 2654              	.LASF28:
 2655 0716 74687265 		.ascii	"thread_t\000"
 2655      61645F74 
 2655      00
 2656              	.LASF118:
 2657 071f 43434552 		.ascii	"CCER\000"
 2657      00
 2658              	.LASF73:
 2659 0724 73797374 		.ascii	"systime_t\000"
 2659      696D655F 
 2659      7400
 2660              	.LASF163:
 2661 072e 63685379 		.ascii	"chSysTimerHandlerI\000"
 2661      7354696D 
 2661      65724861 
 2661      6E646C65 
 2661      724900
 2662              	.LASF56:
 2663 0741 76746675 		.ascii	"vtfunc_t\000"
 2663      6E635F74 
 2663      00
 2664              	.LASF171:
 2665 074a 5F5F7365 		.ascii	"__set_BASEPRI\000"
 2665      745F4241 
 2665      53455052 
 2665      4900
 2666              	.LASF66:
 2667 0758 70616E69 		.ascii	"panic_msg\000"
 2667      635F6D73 
 2667      6700
 2668              	.LASF124:
 2669 0762 6F666673 		.ascii	"offset\000"
 2669      657400
 2670              	.LASF93:
 2671 0769 41504231 		.ascii	"APB1ENR\000"
 2671      454E5200 
 2672              	.LASF145:
 2673 0771 63685F6D 		.ascii	"ch_mutex\000"
 2673      75746578 
 2673      00
 2674              	.LASF90:
 2675 077a 41484232 		.ascii	"AHB2ENR\000"
 2675      454E5200 
 2676              	.LASF6:
 2677 0782 73686F72 		.ascii	"short unsigned int\000"
 2677      7420756E 
 2677      7369676E 
 2677      65642069 
 2677      6E7400
 2678              	.LASF67:
 2679 0795 63685F73 		.ascii	"ch_system_t\000"
 2679      79737465 
ARM GAS  /tmp/ccWMN03B.s 			page 54


 2679      6D5F7400 
 2680              	.LASF18:
 2681 07a1 7274636E 		.ascii	"rtcnt_t\000"
 2681      745F7400 
 2682              	.LASF152:
 2683 07a9 706F7274 		.ascii	"port_lock_from_isr\000"
 2683      5F6C6F63 
 2683      6B5F6672 
 2683      6F6D5F69 
 2683      737200
 2684              	.LASF16:
 2685 07bc 75696E74 		.ascii	"uint32_t\000"
 2685      33325F74 
 2685      00
 2686              	.LASF105:
 2687 07c5 53534347 		.ascii	"SSCGR\000"
 2687      5200
 2688              	.LASF50:
 2689 07cb 74687265 		.ascii	"threads_queue_t\000"
 2689      6164735F 
 2689      71756575 
 2689      655F7400 
 2690              	.LASF123:
 2691 07db 73746D33 		.ascii	"stm32_tim_t\000"
 2691      325F7469 
 2691      6D5F7400 
 2692              	.LASF103:
 2693 07e7 42444352 		.ascii	"BDCR\000"
 2693      00
 2694              	.LASF69:
 2695 07ec 726C6973 		.ascii	"rlist\000"
 2695      7400
 2696              	.LASF14:
 2697 07f2 75696E74 		.ascii	"uint8_t\000"
 2697      385F7400 
 2698              	.LASF36:
 2699 07fa 666C6167 		.ascii	"flags\000"
 2699      7300
 2700              	.LASF158:
 2701 0800 63685379 		.ascii	"chSysLockFromISR\000"
 2701      734C6F63 
 2701      6B46726F 
 2701      6D495352 
 2701      00
 2702              	.LASF89:
 2703 0811 41484231 		.ascii	"AHB1ENR\000"
 2703      454E5200 
 2704              	.LASF81:
 2705 0819 43464752 		.ascii	"CFGR\000"
 2705      00
 2706              	.LASF20:
 2707 081e 746D6F64 		.ascii	"tmode_t\000"
 2707      655F7400 
 2708              	.LASF164:
 2709 0826 5F737461 		.ascii	"_stats_stop_measure_crit_isr\000"
 2709      74735F73 
 2709      746F705F 
ARM GAS  /tmp/ccWMN03B.s 			page 55


 2709      6D656173 
 2709      7572655F 
 2710              	.LASF41:
 2711 0843 6D74786C 		.ascii	"mtxlist\000"
 2711      69737400 
 2712              	.LASF148:
 2713 084b 6D757465 		.ascii	"mutex_t\000"
 2713      785F7400 
 2714              	.LASF133:
 2715 0853 6D5F6372 		.ascii	"m_crit_thd\000"
 2715      69745F74 
 2715      686400
 2716              		.ident	"GCC: (15:5.4.1+svn241155-1) 5.4.1 20160919"
ARM GAS  /tmp/ccWMN03B.s 			page 56


DEFINED SYMBOLS
                            *ABS*:0000000000000000 hal_st_lld.c
     /tmp/ccWMN03B.s:22     .text.Vector108:0000000000000000 $t
     /tmp/ccWMN03B.s:27     .text.Vector108:0000000000000000 Vector108
     /tmp/ccWMN03B.s:123    .text.Vector108:0000000000000030 $d
     /tmp/ccWMN03B.s:128    .text.st_lld_init:0000000000000000 $t
     /tmp/ccWMN03B.s:133    .text.st_lld_init:0000000000000000 st_lld_init
     /tmp/ccWMN03B.s:186    .text.st_lld_init:0000000000000044 $d
                     .debug_frame:0000000000000010 $d

UNDEFINED SYMBOLS
_stats_increase_irq
_stats_start_measure_crit_isr
chSysTimerHandlerI
_stats_stop_measure_crit_isr
_port_irq_epilogue
nvicEnableVector
