ARM GAS  /tmp/ccSGwsfJ.s 			page 1


   1              		.syntax unified
   2              		.cpu cortex-m4
   3              		.eabi_attribute 27, 1
   4              		.eabi_attribute 28, 1
   5              		.fpu fpv4-sp-d16
   6              		.eabi_attribute 20, 1
   7              		.eabi_attribute 21, 1
   8              		.eabi_attribute 23, 3
   9              		.eabi_attribute 24, 1
  10              		.eabi_attribute 25, 1
  11              		.eabi_attribute 26, 1
  12              		.eabi_attribute 30, 4
  13              		.eabi_attribute 34, 1
  14              		.eabi_attribute 18, 4
  15              		.thumb
  16              		.syntax unified
  17              		.file	"hal_mmcsd.c"
  18              		.text
  19              	.Ltext0:
  20              		.cfi_sections	.debug_frame
  21              		.section	.text._mmcsd_get_slice,"ax",%progbits
  22              		.align	1
  23              		.global	_mmcsd_get_slice
  24              		.thumb
  25              		.thumb_func
  26              		.type	_mmcsd_get_slice, %function
  27              	_mmcsd_get_slice:
  28              	.LFB323:
  29              		.file 1 "../../modules/ChibiOS/os/hal/src/hal_mmcsd.c"
  30              		.loc 1 63 0
  31              		.cfi_startproc
  32              		@ args = 0, pretend = 0, frame = 0
  33              		@ frame_needed = 0, uses_anonymous_args = 0
  34              	.LVL0:
  35 0000 70B5     		push	{r4, r5, r6, lr}
  36              		.cfi_def_cfa_offset 16
  37              		.cfi_offset 4, -16
  38              		.cfi_offset 5, -12
  39              		.cfi_offset 6, -8
  40              		.cfi_offset 14, -4
  41              		.loc 1 71 0
  42 0002 4E09     		lsrs	r6, r1, #5
  43              		.loc 1 72 0
  44 0004 01F01F01 		and	r1, r1, #31
  45              	.LVL1:
  46              		.loc 1 69 0
  47 0008 5509     		lsrs	r5, r2, #5
  48              	.LVL2:
  49              		.loc 1 72 0
  50 000a 0131     		adds	r1, r1, #1
  51 000c 0124     		movs	r4, #1
  52 000e 04FA01F3 		lsl	r3, r4, r1
  53              		.loc 1 75 0
  54 0012 B542     		cmp	r5, r6
  55              		.loc 1 70 0
  56 0014 02F01F02 		and	r2, r2, #31
  57              	.LVL3:
ARM GAS  /tmp/ccSGwsfJ.s 			page 2


  58              		.loc 1 72 0
  59 0018 03F1FF31 		add	r1, r3, #-1
  60              	.LVL4:
  61              		.loc 1 75 0
  62 001c 0BD2     		bcs	.L2
  63              		.loc 1 76 0
  64 001e 50F82630 		ldr	r3, [r0, r6, lsl #2]
  65 0022 0B40     		ands	r3, r3, r1
  66 0024 C2F12001 		rsb	r1, r2, #32
  67              	.LVL5:
  68 0028 8B40     		lsls	r3, r3, r1
  69 002a 50F82510 		ldr	r1, [r0, r5, lsl #2]
  70 002e 21FA02F0 		lsr	r0, r1, r2
  71              	.LVL6:
  72 0032 1843     		orrs	r0, r0, r3
  73 0034 70BD     		pop	{r4, r5, r6, pc}
  74              	.LVL7:
  75              	.L2:
  76              		.loc 1 79 0
  77 0036 50F82530 		ldr	r3, [r0, r5, lsl #2]
  78 003a 0B40     		ands	r3, r3, r1
  79 003c 23FA02F0 		lsr	r0, r3, r2
  80              	.LVL8:
  81              		.loc 1 80 0
  82 0040 70BD     		pop	{r4, r5, r6, pc}
  83              		.cfi_endproc
  84              	.LFE323:
  85              		.size	_mmcsd_get_slice, .-_mmcsd_get_slice
  86              		.section	.text._mmcsd_get_capacity,"ax",%progbits
  87              		.align	1
  88              		.global	_mmcsd_get_capacity
  89              		.thumb
  90              		.thumb_func
  91              		.type	_mmcsd_get_capacity, %function
  92              	_mmcsd_get_capacity:
  93              	.LFB324:
  94              		.loc 1 93 0
  95              		.cfi_startproc
  96              		@ args = 0, pretend = 0, frame = 0
  97              		@ frame_needed = 0, uses_anonymous_args = 0
  98              	.LVL9:
  99 0000 70B5     		push	{r4, r5, r6, lr}
 100              		.cfi_def_cfa_offset 16
 101              		.cfi_offset 4, -16
 102              		.cfi_offset 5, -12
 103              		.cfi_offset 6, -8
 104              		.cfi_offset 14, -4
 105              		.loc 1 98 0
 106 0002 7E22     		movs	r2, #126
 107 0004 7F21     		movs	r1, #127
 108              		.loc 1 93 0
 109 0006 0546     		mov	r5, r0
 110              		.loc 1 98 0
 111 0008 FFF7FEFF 		bl	_mmcsd_get_slice
 112              	.LVL10:
 113 000c 48B1     		cbz	r0, .L7
 114 000e 0128     		cmp	r0, #1
ARM GAS  /tmp/ccSGwsfJ.s 			page 3


 115 0010 1FD1     		bne	.L11
 116              		.loc 1 107 0
 117 0012 3022     		movs	r2, #48
 118 0014 4521     		movs	r1, #69
 119 0016 2846     		mov	r0, r5
 120 0018 FFF7FEFF 		bl	_mmcsd_get_slice
 121              	.LVL11:
 122 001c 0130     		adds	r0, r0, #1
 123 001e 8002     		lsls	r0, r0, #10
 124 0020 70BD     		pop	{r4, r5, r6, pc}
 125              	.LVL12:
 126              	.L7:
 127              		.loc 1 101 0
 128 0022 3E22     		movs	r2, #62
 129 0024 4921     		movs	r1, #73
 130 0026 2846     		mov	r0, r5
 131 0028 FFF7FEFF 		bl	_mmcsd_get_slice
 132              	.LVL13:
 133              		.loc 1 102 0
 134 002c 2F22     		movs	r2, #47
 135              		.loc 1 101 0
 136 002e 0446     		mov	r4, r0
 137              	.LVL14:
 138              		.loc 1 102 0
 139 0030 3121     		movs	r1, #49
 140 0032 2846     		mov	r0, r5
 141              	.LVL15:
 142 0034 FFF7FEFF 		bl	_mmcsd_get_slice
 143              	.LVL16:
 144              		.loc 1 103 0
 145 0038 5022     		movs	r2, #80
 146              		.loc 1 102 0
 147 003a 0646     		mov	r6, r0
 148              	.LVL17:
 149              		.loc 1 103 0
 150 003c 5321     		movs	r1, #83
 151 003e 2846     		mov	r0, r5
 152              	.LVL18:
 153 0040 FFF7FEFF 		bl	_mmcsd_get_slice
 154              	.LVL19:
 155              		.loc 1 104 0
 156 0044 0236     		adds	r6, r6, #2
 157              	.LVL20:
 158 0046 0134     		adds	r4, r4, #1
 159              	.LVL21:
 160 0048 B440     		lsls	r4, r4, r6
 161              	.LVL22:
 162 004a 0938     		subs	r0, r0, #9
 163              	.LVL23:
 164 004c 04FA00F0 		lsl	r0, r4, r0
 165              	.LVL24:
 166 0050 70BD     		pop	{r4, r5, r6, pc}
 167              	.LVL25:
 168              	.L11:
 169              		.loc 1 112 0
 170 0052 0020     		movs	r0, #0
 171              		.loc 1 113 0
ARM GAS  /tmp/ccSGwsfJ.s 			page 4


 172 0054 70BD     		pop	{r4, r5, r6, pc}
 173              		.cfi_endproc
 174              	.LFE324:
 175              		.size	_mmcsd_get_capacity, .-_mmcsd_get_capacity
 176              		.section	.text._mmcsd_get_capacity_ext,"ax",%progbits
 177              		.align	1
 178              		.global	_mmcsd_get_capacity_ext
 179              		.thumb
 180              		.thumb_func
 181              		.type	_mmcsd_get_capacity_ext, %function
 182              	_mmcsd_get_capacity_ext:
 183              	.LFB325:
 184              		.loc 1 125 0
 185              		.cfi_startproc
 186              		@ args = 0, pretend = 0, frame = 0
 187              		@ frame_needed = 0, uses_anonymous_args = 0
 188              		@ link register save eliminated.
 189              	.LVL26:
 190              		.loc 1 129 0
 191 0000 90F8D630 		ldrb	r3, [r0, #214]	@ zero_extendqisi2
 192 0004 90F8D720 		ldrb	r2, [r0, #215]	@ zero_extendqisi2
 193 0008 1B04     		lsls	r3, r3, #16
 194 000a 03EB0263 		add	r3, r3, r2, lsl #24
 195 000e 90F8D420 		ldrb	r2, [r0, #212]	@ zero_extendqisi2
 196 0012 90F8D500 		ldrb	r0, [r0, #213]	@ zero_extendqisi2
 197              	.LVL27:
 198 0016 1344     		add	r3, r3, r2
 199              		.loc 1 133 0
 200 0018 03EB0020 		add	r0, r3, r0, lsl #8
 201 001c 7047     		bx	lr
 202              		.cfi_endproc
 203              	.LFE325:
 204              		.size	_mmcsd_get_capacity_ext, .-_mmcsd_get_capacity_ext
 205              		.section	.text._mmcsd_unpack_sdc_cid,"ax",%progbits
 206              		.align	1
 207              		.global	_mmcsd_unpack_sdc_cid
 208              		.thumb
 209              		.thumb_func
 210              		.type	_mmcsd_unpack_sdc_cid, %function
 211              	_mmcsd_unpack_sdc_cid:
 212              	.LFB326:
 213              		.loc 1 144 0
 214              		.cfi_startproc
 215              		@ args = 0, pretend = 0, frame = 0
 216              		@ frame_needed = 0, uses_anonymous_args = 0
 217              	.LVL28:
 218 0000 38B5     		push	{r3, r4, r5, lr}
 219              		.cfi_def_cfa_offset 16
 220              		.cfi_offset 3, -16
 221              		.cfi_offset 4, -12
 222              		.cfi_offset 5, -8
 223              		.cfi_offset 14, -4
 224              		.loc 1 149 0
 225 0002 00F10805 		add	r5, r0, #8
 226              	.LVL29:
 227              		.loc 1 144 0
 228 0006 0C46     		mov	r4, r1
ARM GAS  /tmp/ccSGwsfJ.s 			page 5


 229              		.loc 1 150 0
 230 0008 0122     		movs	r2, #1
 231 000a 0721     		movs	r1, #7
 232              	.LVL30:
 233 000c 2846     		mov	r0, r5
 234              	.LVL31:
 235 000e FFF7FEFF 		bl	_mmcsd_get_slice
 236              	.LVL32:
 237              		.loc 1 151 0
 238 0012 0C22     		movs	r2, #12
 239              		.loc 1 150 0
 240 0014 2075     		strb	r0, [r4, #20]
 241              		.loc 1 151 0
 242 0016 1321     		movs	r1, #19
 243 0018 2846     		mov	r0, r5
 244 001a FFF7FEFF 		bl	_mmcsd_get_slice
 245              	.LVL33:
 246 001e 00F5FA60 		add	r0, r0, #2000
 247 0022 6082     		strh	r0, [r4, #18]	@ movhi
 248              		.loc 1 153 0
 249 0024 0822     		movs	r2, #8
 250 0026 0B21     		movs	r1, #11
 251 0028 2846     		mov	r0, r5
 252 002a FFF7FEFF 		bl	_mmcsd_get_slice
 253              	.LVL34:
 254              		.loc 1 154 0
 255 002e 7822     		movs	r2, #120
 256              		.loc 1 153 0
 257 0030 2074     		strb	r0, [r4, #16]
 258              		.loc 1 154 0
 259 0032 7F21     		movs	r1, #127
 260 0034 2846     		mov	r0, r5
 261 0036 FFF7FEFF 		bl	_mmcsd_get_slice
 262              	.LVL35:
 263              		.loc 1 155 0
 264 003a 6822     		movs	r2, #104
 265              		.loc 1 154 0
 266 003c 2070     		strb	r0, [r4]
 267              		.loc 1 155 0
 268 003e 7721     		movs	r1, #119
 269 0040 2846     		mov	r0, r5
 270 0042 FFF7FEFF 		bl	_mmcsd_get_slice
 271              	.LVL36:
 272              		.loc 1 156 0
 273 0046 4022     		movs	r2, #64
 274              		.loc 1 155 0
 275 0048 6080     		strh	r0, [r4, #2]	@ movhi
 276              		.loc 1 156 0
 277 004a 4721     		movs	r1, #71
 278 004c 2846     		mov	r0, r5
 279 004e FFF7FEFF 		bl	_mmcsd_get_slice
 280              	.LVL37:
 281              		.loc 1 157 0
 282 0052 4822     		movs	r2, #72
 283              		.loc 1 156 0
 284 0054 2072     		strb	r0, [r4, #8]
 285              		.loc 1 157 0
ARM GAS  /tmp/ccSGwsfJ.s 			page 6


 286 0056 4F21     		movs	r1, #79
 287 0058 2846     		mov	r0, r5
 288 005a FFF7FEFF 		bl	_mmcsd_get_slice
 289              	.LVL38:
 290              		.loc 1 158 0
 291 005e 5022     		movs	r2, #80
 292              		.loc 1 157 0
 293 0060 E071     		strb	r0, [r4, #7]
 294              		.loc 1 158 0
 295 0062 5721     		movs	r1, #87
 296 0064 2846     		mov	r0, r5
 297 0066 FFF7FEFF 		bl	_mmcsd_get_slice
 298              	.LVL39:
 299              		.loc 1 159 0
 300 006a 5822     		movs	r2, #88
 301              		.loc 1 158 0
 302 006c A071     		strb	r0, [r4, #6]
 303              		.loc 1 159 0
 304 006e 5F21     		movs	r1, #95
 305 0070 2846     		mov	r0, r5
 306 0072 FFF7FEFF 		bl	_mmcsd_get_slice
 307              	.LVL40:
 308              		.loc 1 160 0
 309 0076 6022     		movs	r2, #96
 310              		.loc 1 159 0
 311 0078 6071     		strb	r0, [r4, #5]
 312              		.loc 1 160 0
 313 007a 6721     		movs	r1, #103
 314 007c 2846     		mov	r0, r5
 315 007e FFF7FEFF 		bl	_mmcsd_get_slice
 316              	.LVL41:
 317              		.loc 1 161 0
 318 0082 3C22     		movs	r2, #60
 319              		.loc 1 160 0
 320 0084 2071     		strb	r0, [r4, #4]
 321              		.loc 1 161 0
 322 0086 3F21     		movs	r1, #63
 323 0088 2846     		mov	r0, r5
 324 008a FFF7FEFF 		bl	_mmcsd_get_slice
 325              	.LVL42:
 326              		.loc 1 162 0
 327 008e 3822     		movs	r2, #56
 328              		.loc 1 161 0
 329 0090 6072     		strb	r0, [r4, #9]
 330              		.loc 1 162 0
 331 0092 3B21     		movs	r1, #59
 332 0094 2846     		mov	r0, r5
 333 0096 FFF7FEFF 		bl	_mmcsd_get_slice
 334              	.LVL43:
 335              		.loc 1 163 0
 336 009a 1822     		movs	r2, #24
 337              		.loc 1 162 0
 338 009c A072     		strb	r0, [r4, #10]
 339              		.loc 1 163 0
 340 009e 3721     		movs	r1, #55
 341 00a0 2846     		mov	r0, r5
 342 00a2 FFF7FEFF 		bl	_mmcsd_get_slice
ARM GAS  /tmp/ccSGwsfJ.s 			page 7


 343              	.LVL44:
 344 00a6 E060     		str	r0, [r4, #12]
 345 00a8 38BD     		pop	{r3, r4, r5, pc}
 346              		.cfi_endproc
 347              	.LFE326:
 348              		.size	_mmcsd_unpack_sdc_cid, .-_mmcsd_unpack_sdc_cid
 349              		.section	.text._mmcsd_unpack_mmc_cid,"ax",%progbits
 350              		.align	1
 351              		.global	_mmcsd_unpack_mmc_cid
 352              		.thumb
 353              		.thumb_func
 354              		.type	_mmcsd_unpack_mmc_cid, %function
 355              	_mmcsd_unpack_mmc_cid:
 356              	.LFB327:
 357              		.loc 1 175 0
 358              		.cfi_startproc
 359              		@ args = 0, pretend = 0, frame = 0
 360              		@ frame_needed = 0, uses_anonymous_args = 0
 361              	.LVL45:
 362 0000 38B5     		push	{r3, r4, r5, lr}
 363              		.cfi_def_cfa_offset 16
 364              		.cfi_offset 3, -16
 365              		.cfi_offset 4, -12
 366              		.cfi_offset 5, -8
 367              		.cfi_offset 14, -4
 368              		.loc 1 180 0
 369 0002 00F10805 		add	r5, r0, #8
 370              	.LVL46:
 371              		.loc 1 175 0
 372 0006 0C46     		mov	r4, r1
 373              		.loc 1 181 0
 374 0008 0122     		movs	r2, #1
 375 000a 0721     		movs	r1, #7
 376              	.LVL47:
 377 000c 2846     		mov	r0, r5
 378              	.LVL48:
 379 000e FFF7FEFF 		bl	_mmcsd_get_slice
 380              	.LVL49:
 381              		.loc 1 182 0
 382 0012 0822     		movs	r2, #8
 383              		.loc 1 181 0
 384 0014 2075     		strb	r0, [r4, #20]
 385              		.loc 1 182 0
 386 0016 0B21     		movs	r1, #11
 387 0018 2846     		mov	r0, r5
 388 001a FFF7FEFF 		bl	_mmcsd_get_slice
 389              	.LVL50:
 390 001e 00F2CD70 		addw	r0, r0, #1997
 391 0022 6082     		strh	r0, [r4, #18]	@ movhi
 392              		.loc 1 184 0
 393 0024 0C22     		movs	r2, #12
 394 0026 0F21     		movs	r1, #15
 395 0028 2846     		mov	r0, r5
 396 002a FFF7FEFF 		bl	_mmcsd_get_slice
 397              	.LVL51:
 398              		.loc 1 185 0
 399 002e 7822     		movs	r2, #120
ARM GAS  /tmp/ccSGwsfJ.s 			page 8


 400              		.loc 1 184 0
 401 0030 2074     		strb	r0, [r4, #16]
 402              		.loc 1 185 0
 403 0032 7F21     		movs	r1, #127
 404 0034 2846     		mov	r0, r5
 405 0036 FFF7FEFF 		bl	_mmcsd_get_slice
 406              	.LVL52:
 407              		.loc 1 186 0
 408 003a 6822     		movs	r2, #104
 409              		.loc 1 185 0
 410 003c 2070     		strb	r0, [r4]
 411              		.loc 1 186 0
 412 003e 7721     		movs	r1, #119
 413 0040 2846     		mov	r0, r5
 414 0042 FFF7FEFF 		bl	_mmcsd_get_slice
 415              	.LVL53:
 416              		.loc 1 187 0
 417 0046 3822     		movs	r2, #56
 418              		.loc 1 186 0
 419 0048 6080     		strh	r0, [r4, #2]	@ movhi
 420              		.loc 1 187 0
 421 004a 3F21     		movs	r1, #63
 422 004c 2846     		mov	r0, r5
 423 004e FFF7FEFF 		bl	_mmcsd_get_slice
 424              	.LVL54:
 425              		.loc 1 188 0
 426 0052 4022     		movs	r2, #64
 427              		.loc 1 187 0
 428 0054 6072     		strb	r0, [r4, #9]
 429              		.loc 1 188 0
 430 0056 4721     		movs	r1, #71
 431 0058 2846     		mov	r0, r5
 432 005a FFF7FEFF 		bl	_mmcsd_get_slice
 433              	.LVL55:
 434              		.loc 1 189 0
 435 005e 4822     		movs	r2, #72
 436              		.loc 1 188 0
 437 0060 2072     		strb	r0, [r4, #8]
 438              		.loc 1 189 0
 439 0062 4F21     		movs	r1, #79
 440 0064 2846     		mov	r0, r5
 441 0066 FFF7FEFF 		bl	_mmcsd_get_slice
 442              	.LVL56:
 443              		.loc 1 190 0
 444 006a 5022     		movs	r2, #80
 445              		.loc 1 189 0
 446 006c E071     		strb	r0, [r4, #7]
 447              		.loc 1 190 0
 448 006e 5721     		movs	r1, #87
 449 0070 2846     		mov	r0, r5
 450 0072 FFF7FEFF 		bl	_mmcsd_get_slice
 451              	.LVL57:
 452              		.loc 1 191 0
 453 0076 5822     		movs	r2, #88
 454              		.loc 1 190 0
 455 0078 A071     		strb	r0, [r4, #6]
 456              		.loc 1 191 0
ARM GAS  /tmp/ccSGwsfJ.s 			page 9


 457 007a 5F21     		movs	r1, #95
 458 007c 2846     		mov	r0, r5
 459 007e FFF7FEFF 		bl	_mmcsd_get_slice
 460              	.LVL58:
 461              		.loc 1 192 0
 462 0082 6022     		movs	r2, #96
 463              		.loc 1 191 0
 464 0084 6071     		strb	r0, [r4, #5]
 465              		.loc 1 192 0
 466 0086 6721     		movs	r1, #103
 467 0088 2846     		mov	r0, r5
 468 008a FFF7FEFF 		bl	_mmcsd_get_slice
 469              	.LVL59:
 470              		.loc 1 193 0
 471 008e 3422     		movs	r2, #52
 472              		.loc 1 192 0
 473 0090 2071     		strb	r0, [r4, #4]
 474              		.loc 1 193 0
 475 0092 3721     		movs	r1, #55
 476 0094 2846     		mov	r0, r5
 477 0096 FFF7FEFF 		bl	_mmcsd_get_slice
 478              	.LVL60:
 479              		.loc 1 194 0
 480 009a 3022     		movs	r2, #48
 481              		.loc 1 193 0
 482 009c A072     		strb	r0, [r4, #10]
 483              		.loc 1 194 0
 484 009e 3321     		movs	r1, #51
 485 00a0 2846     		mov	r0, r5
 486 00a2 FFF7FEFF 		bl	_mmcsd_get_slice
 487              	.LVL61:
 488              		.loc 1 195 0
 489 00a6 1022     		movs	r2, #16
 490              		.loc 1 194 0
 491 00a8 E072     		strb	r0, [r4, #11]
 492              		.loc 1 195 0
 493 00aa 2F21     		movs	r1, #47
 494 00ac 2846     		mov	r0, r5
 495 00ae FFF7FEFF 		bl	_mmcsd_get_slice
 496              	.LVL62:
 497 00b2 E060     		str	r0, [r4, #12]
 498 00b4 38BD     		pop	{r3, r4, r5, pc}
 499              		.cfi_endproc
 500              	.LFE327:
 501              		.size	_mmcsd_unpack_mmc_cid, .-_mmcsd_unpack_mmc_cid
 502              		.section	.text._mmcsd_unpack_csd_mmc,"ax",%progbits
 503              		.align	1
 504              		.global	_mmcsd_unpack_csd_mmc
 505              		.thumb
 506              		.thumb_func
 507              		.type	_mmcsd_unpack_csd_mmc, %function
 508              	_mmcsd_unpack_csd_mmc:
 509              	.LFB328:
 510              		.loc 1 207 0
 511              		.cfi_startproc
 512              		@ args = 0, pretend = 0, frame = 0
 513              		@ frame_needed = 0, uses_anonymous_args = 0
ARM GAS  /tmp/ccSGwsfJ.s 			page 10


 514              	.LVL63:
 515 0000 38B5     		push	{r3, r4, r5, lr}
 516              		.cfi_def_cfa_offset 16
 517              		.cfi_offset 3, -16
 518              		.cfi_offset 4, -12
 519              		.cfi_offset 5, -8
 520              		.cfi_offset 14, -4
 521              		.loc 1 212 0
 522 0002 00F11805 		add	r5, r0, #24
 523              	.LVL64:
 524              		.loc 1 207 0
 525 0006 0C46     		mov	r4, r1
 526              		.loc 1 213 0
 527 0008 3E22     		movs	r2, #62
 528 000a 4921     		movs	r1, #73
 529              	.LVL65:
 530 000c 2846     		mov	r0, r5
 531              	.LVL66:
 532 000e FFF7FEFF 		bl	_mmcsd_get_slice
 533              	.LVL67:
 534              		.loc 1 214 0
 535 0012 2F22     		movs	r2, #47
 536              		.loc 1 213 0
 537 0014 E081     		strh	r0, [r4, #14]	@ movhi
 538              		.loc 1 214 0
 539 0016 3121     		movs	r1, #49
 540 0018 2846     		mov	r0, r5
 541 001a FFF7FEFF 		bl	_mmcsd_get_slice
 542              	.LVL68:
 543              		.loc 1 215 0
 544 001e 5422     		movs	r2, #84
 545              		.loc 1 214 0
 546 0020 2075     		strb	r0, [r4, #20]
 547              		.loc 1 215 0
 548 0022 5F21     		movs	r1, #95
 549 0024 2846     		mov	r0, r5
 550 0026 FFF7FEFF 		bl	_mmcsd_get_slice
 551              	.LVL69:
 552              		.loc 1 216 0
 553 002a 0E22     		movs	r2, #14
 554 002c 1146     		mov	r1, r2
 555              		.loc 1 215 0
 556 002e E080     		strh	r0, [r4, #6]	@ movhi
 557              		.loc 1 216 0
 558 0030 2846     		mov	r0, r5
 559 0032 FFF7FEFF 		bl	_mmcsd_get_slice
 560              	.LVL70:
 561              		.loc 1 217 0
 562 0036 0122     		movs	r2, #1
 563              		.loc 1 216 0
 564 0038 E077     		strb	r0, [r4, #31]
 565              		.loc 1 217 0
 566 003a 0721     		movs	r1, #7
 567 003c 2846     		mov	r0, r5
 568 003e FFF7FEFF 		bl	_mmcsd_get_slice
 569              	.LVL71:
 570              		.loc 1 218 0
ARM GAS  /tmp/ccSGwsfJ.s 			page 11


 571 0042 7E22     		movs	r2, #126
 572              		.loc 1 217 0
 573 0044 84F82400 		strb	r0, [r4, #36]
 574              		.loc 1 218 0
 575 0048 7F21     		movs	r1, #127
 576 004a 2846     		mov	r0, r5
 577 004c FFF7FEFF 		bl	_mmcsd_get_slice
 578              	.LVL72:
 579              		.loc 1 219 0
 580 0050 4C22     		movs	r2, #76
 581 0052 1146     		mov	r1, r2
 582              		.loc 1 218 0
 583 0054 2070     		strb	r0, [r4]
 584              		.loc 1 219 0
 585 0056 2846     		mov	r0, r5
 586 0058 FFF7FEFF 		bl	_mmcsd_get_slice
 587              	.LVL73:
 588              		.loc 1 220 0
 589 005c 0822     		movs	r2, #8
 590              		.loc 1 219 0
 591 005e 2073     		strb	r0, [r4, #12]
 592              		.loc 1 220 0
 593 0060 0921     		movs	r1, #9
 594 0062 2846     		mov	r0, r5
 595 0064 FFF7FEFF 		bl	_mmcsd_get_slice
 596              	.LVL74:
 597              		.loc 1 221 0
 598 0068 2522     		movs	r2, #37
 599              		.loc 1 220 0
 600 006a 84F82300 		strb	r0, [r4, #35]
 601              		.loc 1 221 0
 602 006e 2921     		movs	r1, #41
 603 0070 2846     		mov	r0, r5
 604 0072 FFF7FEFF 		bl	_mmcsd_get_slice
 605              	.LVL75:
 606              		.loc 1 222 0
 607 0076 2A22     		movs	r2, #42
 608              		.loc 1 221 0
 609 0078 A075     		strb	r0, [r4, #22]
 610              		.loc 1 222 0
 611 007a 2E21     		movs	r1, #46
 612 007c 2846     		mov	r0, r5
 613 007e FFF7FEFF 		bl	_mmcsd_get_slice
 614              	.LVL76:
 615              		.loc 1 223 0
 616 0082 0A22     		movs	r2, #10
 617              		.loc 1 222 0
 618 0084 6075     		strb	r0, [r4, #21]
 619              		.loc 1 223 0
 620 0086 0B21     		movs	r1, #11
 621 0088 2846     		mov	r0, r5
 622 008a FFF7FEFF 		bl	_mmcsd_get_slice
 623              	.LVL77:
 624              		.loc 1 224 0
 625 008e 0F22     		movs	r2, #15
 626 0090 1146     		mov	r1, r2
 627              		.loc 1 223 0
ARM GAS  /tmp/ccSGwsfJ.s 			page 12


 628 0092 84F82200 		strb	r0, [r4, #34]
 629              		.loc 1 224 0
 630 0096 2846     		mov	r0, r5
 631 0098 FFF7FEFF 		bl	_mmcsd_get_slice
 632              	.LVL78:
 633              		.loc 1 225 0
 634 009c 6822     		movs	r2, #104
 635              		.loc 1 224 0
 636 009e A077     		strb	r0, [r4, #30]
 637              		.loc 1 225 0
 638 00a0 6F21     		movs	r1, #111
 639 00a2 2846     		mov	r0, r5
 640 00a4 FFF7FEFF 		bl	_mmcsd_get_slice
 641              	.LVL79:
 642              		.loc 1 226 0
 643 00a8 0D22     		movs	r2, #13
 644 00aa 1146     		mov	r1, r2
 645              		.loc 1 225 0
 646 00ac E070     		strb	r0, [r4, #3]
 647              		.loc 1 226 0
 648 00ae 2846     		mov	r0, r5
 649 00b0 FFF7FEFF 		bl	_mmcsd_get_slice
 650              	.LVL80:
 651              		.loc 1 227 0
 652 00b4 1A22     		movs	r2, #26
 653              		.loc 1 226 0
 654 00b6 84F82000 		strb	r0, [r4, #32]
 655              		.loc 1 227 0
 656 00ba 1C21     		movs	r1, #28
 657 00bc 2846     		mov	r0, r5
 658 00be FFF7FEFF 		bl	_mmcsd_get_slice
 659              	.LVL81:
 660              		.loc 1 228 0
 661 00c2 5022     		movs	r2, #80
 662              		.loc 1 227 0
 663 00c4 A076     		strb	r0, [r4, #26]
 664              		.loc 1 228 0
 665 00c6 5321     		movs	r1, #83
 666 00c8 2846     		mov	r0, r5
 667 00ca FFF7FEFF 		bl	_mmcsd_get_slice
 668              	.LVL82:
 669              		.loc 1 229 0
 670 00ce 4F22     		movs	r2, #79
 671 00d0 1146     		mov	r1, r2
 672              		.loc 1 228 0
 673 00d2 2072     		strb	r0, [r4, #8]
 674              		.loc 1 229 0
 675 00d4 2846     		mov	r0, r5
 676 00d6 FFF7FEFF 		bl	_mmcsd_get_slice
 677              	.LVL83:
 678              		.loc 1 230 0
 679 00da 4D22     		movs	r2, #77
 680 00dc 1146     		mov	r1, r2
 681              		.loc 1 229 0
 682 00de 6072     		strb	r0, [r4, #9]
 683              		.loc 1 230 0
 684 00e0 2846     		mov	r0, r5
ARM GAS  /tmp/ccSGwsfJ.s 			page 13


 685 00e2 FFF7FEFF 		bl	_mmcsd_get_slice
 686              	.LVL84:
 687              		.loc 1 231 0
 688 00e6 7A22     		movs	r2, #122
 689              		.loc 1 230 0
 690 00e8 E072     		strb	r0, [r4, #11]
 691              		.loc 1 231 0
 692 00ea 7D21     		movs	r1, #125
 693 00ec 2846     		mov	r0, r5
 694 00ee FFF7FEFF 		bl	_mmcsd_get_slice
 695              	.LVL85:
 696              		.loc 1 232 0
 697 00f2 7022     		movs	r2, #112
 698              		.loc 1 231 0
 699 00f4 6070     		strb	r0, [r4, #1]
 700              		.loc 1 232 0
 701 00f6 7721     		movs	r1, #119
 702 00f8 2846     		mov	r0, r5
 703 00fa FFF7FEFF 		bl	_mmcsd_get_slice
 704              	.LVL86:
 705              		.loc 1 233 0
 706 00fe 0C22     		movs	r2, #12
 707 0100 1146     		mov	r1, r2
 708              		.loc 1 232 0
 709 0102 A070     		strb	r0, [r4, #2]
 710              		.loc 1 233 0
 711 0104 2846     		mov	r0, r5
 712 0106 FFF7FEFF 		bl	_mmcsd_get_slice
 713              	.LVL87:
 714              		.loc 1 234 0
 715 010a 6022     		movs	r2, #96
 716              		.loc 1 233 0
 717 010c 84F82100 		strb	r0, [r4, #33]
 718              		.loc 1 234 0
 719 0110 6721     		movs	r1, #103
 720 0112 2846     		mov	r0, r5
 721 0114 FFF7FEFF 		bl	_mmcsd_get_slice
 722              	.LVL88:
 723              		.loc 1 235 0
 724 0118 3822     		movs	r2, #56
 725              		.loc 1 234 0
 726 011a 2071     		strb	r0, [r4, #4]
 727              		.loc 1 235 0
 728 011c 3A21     		movs	r1, #58
 729 011e 2846     		mov	r0, r5
 730 0120 FFF7FEFF 		bl	_mmcsd_get_slice
 731              	.LVL89:
 732              		.loc 1 236 0
 733 0124 3B22     		movs	r2, #59
 734              		.loc 1 235 0
 735 0126 6074     		strb	r0, [r4, #17]
 736              		.loc 1 236 0
 737 0128 3D21     		movs	r1, #61
 738 012a 2846     		mov	r0, r5
 739 012c FFF7FEFF 		bl	_mmcsd_get_slice
 740              	.LVL90:
 741              		.loc 1 237 0
ARM GAS  /tmp/ccSGwsfJ.s 			page 14


 742 0130 3222     		movs	r2, #50
 743              		.loc 1 236 0
 744 0132 2074     		strb	r0, [r4, #16]
 745              		.loc 1 237 0
 746 0134 3421     		movs	r1, #52
 747 0136 2846     		mov	r0, r5
 748 0138 FFF7FEFF 		bl	_mmcsd_get_slice
 749              	.LVL91:
 750              		.loc 1 238 0
 751 013c 3522     		movs	r2, #53
 752              		.loc 1 237 0
 753 013e E074     		strb	r0, [r4, #19]
 754              		.loc 1 238 0
 755 0140 3721     		movs	r1, #55
 756 0142 2846     		mov	r0, r5
 757 0144 FFF7FEFF 		bl	_mmcsd_get_slice
 758              	.LVL92:
 759              		.loc 1 239 0
 760 0148 1F22     		movs	r2, #31
 761 014a 1146     		mov	r1, r2
 762              		.loc 1 238 0
 763 014c A074     		strb	r0, [r4, #18]
 764              		.loc 1 239 0
 765 014e 2846     		mov	r0, r5
 766 0150 FFF7FEFF 		bl	_mmcsd_get_slice
 767              	.LVL93:
 768              		.loc 1 240 0
 769 0154 2022     		movs	r2, #32
 770              		.loc 1 239 0
 771 0156 2076     		strb	r0, [r4, #24]
 772              		.loc 1 240 0
 773 0158 2421     		movs	r1, #36
 774 015a 2846     		mov	r0, r5
 775 015c FFF7FEFF 		bl	_mmcsd_get_slice
 776              	.LVL94:
 777              		.loc 1 241 0
 778 0160 1622     		movs	r2, #22
 779              		.loc 1 240 0
 780 0162 E075     		strb	r0, [r4, #23]
 781              		.loc 1 241 0
 782 0164 1921     		movs	r1, #25
 783 0166 2846     		mov	r0, r5
 784 0168 FFF7FEFF 		bl	_mmcsd_get_slice
 785              	.LVL95:
 786              		.loc 1 242 0
 787 016c 1522     		movs	r2, #21
 788 016e 1146     		mov	r1, r2
 789              		.loc 1 241 0
 790 0170 E076     		strb	r0, [r4, #27]
 791              		.loc 1 242 0
 792 0172 2846     		mov	r0, r5
 793 0174 FFF7FEFF 		bl	_mmcsd_get_slice
 794              	.LVL96:
 795              		.loc 1 243 0
 796 0178 4E22     		movs	r2, #78
 797              		.loc 1 242 0
 798 017a 2077     		strb	r0, [r4, #28]
ARM GAS  /tmp/ccSGwsfJ.s 			page 15


 799              		.loc 1 243 0
 800 017c 1146     		mov	r1, r2
 801 017e 2846     		mov	r0, r5
 802 0180 FFF7FEFF 		bl	_mmcsd_get_slice
 803              	.LVL97:
 804 0184 A072     		strb	r0, [r4, #10]
 805 0186 38BD     		pop	{r3, r4, r5, pc}
 806              		.cfi_endproc
 807              	.LFE328:
 808              		.size	_mmcsd_unpack_csd_mmc, .-_mmcsd_unpack_csd_mmc
 809              		.section	.text._mmcsd_unpack_csd_v10,"ax",%progbits
 810              		.align	1
 811              		.global	_mmcsd_unpack_csd_v10
 812              		.thumb
 813              		.thumb_func
 814              		.type	_mmcsd_unpack_csd_v10, %function
 815              	_mmcsd_unpack_csd_v10:
 816              	.LFB329:
 817              		.loc 1 255 0
 818              		.cfi_startproc
 819              		@ args = 0, pretend = 0, frame = 0
 820              		@ frame_needed = 0, uses_anonymous_args = 0
 821              	.LVL98:
 822 0000 38B5     		push	{r3, r4, r5, lr}
 823              		.cfi_def_cfa_offset 16
 824              		.cfi_offset 3, -16
 825              		.cfi_offset 4, -12
 826              		.cfi_offset 5, -8
 827              		.cfi_offset 14, -4
 828              		.loc 1 260 0
 829 0002 00F11805 		add	r5, r0, #24
 830              	.LVL99:
 831              		.loc 1 255 0
 832 0006 0C46     		mov	r4, r1
 833              		.loc 1 261 0
 834 0008 3E22     		movs	r2, #62
 835 000a 4921     		movs	r1, #73
 836              	.LVL100:
 837 000c 2846     		mov	r0, r5
 838              	.LVL101:
 839 000e FFF7FEFF 		bl	_mmcsd_get_slice
 840              	.LVL102:
 841              		.loc 1 262 0
 842 0012 2F22     		movs	r2, #47
 843              		.loc 1 261 0
 844 0014 A081     		strh	r0, [r4, #12]	@ movhi
 845              		.loc 1 262 0
 846 0016 3121     		movs	r1, #49
 847 0018 2846     		mov	r0, r5
 848 001a FFF7FEFF 		bl	_mmcsd_get_slice
 849              	.LVL103:
 850              		.loc 1 263 0
 851 001e 5422     		movs	r2, #84
 852              		.loc 1 262 0
 853 0020 A074     		strb	r0, [r4, #18]
 854              		.loc 1 263 0
 855 0022 5F21     		movs	r1, #95
ARM GAS  /tmp/ccSGwsfJ.s 			page 16


 856 0024 2846     		mov	r0, r5
 857 0026 FFF7FEFF 		bl	_mmcsd_get_slice
 858              	.LVL104:
 859              		.loc 1 264 0
 860 002a 0E22     		movs	r2, #14
 861 002c 1146     		mov	r1, r2
 862              		.loc 1 263 0
 863 002e A080     		strh	r0, [r4, #4]	@ movhi
 864              		.loc 1 264 0
 865 0030 2846     		mov	r0, r5
 866 0032 FFF7FEFF 		bl	_mmcsd_get_slice
 867              	.LVL105:
 868              		.loc 1 265 0
 869 0036 0122     		movs	r2, #1
 870              		.loc 1 264 0
 871 0038 E076     		strb	r0, [r4, #27]
 872              		.loc 1 265 0
 873 003a 0721     		movs	r1, #7
 874 003c 2846     		mov	r0, r5
 875 003e FFF7FEFF 		bl	_mmcsd_get_slice
 876              	.LVL106:
 877              		.loc 1 266 0
 878 0042 7E22     		movs	r2, #126
 879              		.loc 1 265 0
 880 0044 E077     		strb	r0, [r4, #31]
 881              		.loc 1 266 0
 882 0046 7F21     		movs	r1, #127
 883 0048 2846     		mov	r0, r5
 884 004a FFF7FEFF 		bl	_mmcsd_get_slice
 885              	.LVL107:
 886              		.loc 1 267 0
 887 004e 4C22     		movs	r2, #76
 888 0050 1146     		mov	r1, r2
 889              		.loc 1 266 0
 890 0052 2070     		strb	r0, [r4]
 891              		.loc 1 267 0
 892 0054 2846     		mov	r0, r5
 893 0056 FFF7FEFF 		bl	_mmcsd_get_slice
 894              	.LVL108:
 895              		.loc 1 268 0
 896 005a 2E22     		movs	r2, #46
 897 005c 1146     		mov	r1, r2
 898              		.loc 1 267 0
 899 005e A072     		strb	r0, [r4, #10]
 900              		.loc 1 268 0
 901 0060 2846     		mov	r0, r5
 902 0062 FFF7FEFF 		bl	_mmcsd_get_slice
 903              	.LVL109:
 904              		.loc 1 269 0
 905 0066 2722     		movs	r2, #39
 906              		.loc 1 268 0
 907 0068 E074     		strb	r0, [r4, #19]
 908              		.loc 1 269 0
 909 006a 2D21     		movs	r1, #45
 910 006c 2846     		mov	r0, r5
 911 006e FFF7FEFF 		bl	_mmcsd_get_slice
 912              	.LVL110:
ARM GAS  /tmp/ccSGwsfJ.s 			page 17


 913              		.loc 1 270 0
 914 0072 0A22     		movs	r2, #10
 915              		.loc 1 269 0
 916 0074 2075     		strb	r0, [r4, #20]
 917              		.loc 1 270 0
 918 0076 0B21     		movs	r1, #11
 919 0078 2846     		mov	r0, r5
 920 007a FFF7FEFF 		bl	_mmcsd_get_slice
 921              	.LVL111:
 922              		.loc 1 271 0
 923 007e 0F22     		movs	r2, #15
 924 0080 1146     		mov	r1, r2
 925              		.loc 1 270 0
 926 0082 A077     		strb	r0, [r4, #30]
 927              		.loc 1 271 0
 928 0084 2846     		mov	r0, r5
 929 0086 FFF7FEFF 		bl	_mmcsd_get_slice
 930              	.LVL112:
 931              		.loc 1 272 0
 932 008a 6822     		movs	r2, #104
 933              		.loc 1 271 0
 934 008c A076     		strb	r0, [r4, #26]
 935              		.loc 1 272 0
 936 008e 6F21     		movs	r1, #111
 937 0090 2846     		mov	r0, r5
 938 0092 FFF7FEFF 		bl	_mmcsd_get_slice
 939              	.LVL113:
 940              		.loc 1 273 0
 941 0096 0D22     		movs	r2, #13
 942 0098 1146     		mov	r1, r2
 943              		.loc 1 272 0
 944 009a A070     		strb	r0, [r4, #2]
 945              		.loc 1 273 0
 946 009c 2846     		mov	r0, r5
 947 009e FFF7FEFF 		bl	_mmcsd_get_slice
 948              	.LVL114:
 949              		.loc 1 274 0
 950 00a2 1A22     		movs	r2, #26
 951              		.loc 1 273 0
 952 00a4 2077     		strb	r0, [r4, #28]
 953              		.loc 1 274 0
 954 00a6 1C21     		movs	r1, #28
 955 00a8 2846     		mov	r0, r5
 956 00aa FFF7FEFF 		bl	_mmcsd_get_slice
 957              	.LVL115:
 958              		.loc 1 275 0
 959 00ae 5022     		movs	r2, #80
 960              		.loc 1 274 0
 961 00b0 E075     		strb	r0, [r4, #23]
 962              		.loc 1 275 0
 963 00b2 5321     		movs	r1, #83
 964 00b4 2846     		mov	r0, r5
 965 00b6 FFF7FEFF 		bl	_mmcsd_get_slice
 966              	.LVL116:
 967              		.loc 1 276 0
 968 00ba 4F22     		movs	r2, #79
 969 00bc 1146     		mov	r1, r2
ARM GAS  /tmp/ccSGwsfJ.s 			page 18


 970              		.loc 1 275 0
 971 00be A071     		strb	r0, [r4, #6]
 972              		.loc 1 276 0
 973 00c0 2846     		mov	r0, r5
 974 00c2 FFF7FEFF 		bl	_mmcsd_get_slice
 975              	.LVL117:
 976              		.loc 1 277 0
 977 00c6 4D22     		movs	r2, #77
 978 00c8 1146     		mov	r1, r2
 979              		.loc 1 276 0
 980 00ca E071     		strb	r0, [r4, #7]
 981              		.loc 1 277 0
 982 00cc 2846     		mov	r0, r5
 983 00ce FFF7FEFF 		bl	_mmcsd_get_slice
 984              	.LVL118:
 985              		.loc 1 278 0
 986 00d2 7022     		movs	r2, #112
 987              		.loc 1 277 0
 988 00d4 6072     		strb	r0, [r4, #9]
 989              		.loc 1 278 0
 990 00d6 7721     		movs	r1, #119
 991 00d8 2846     		mov	r0, r5
 992 00da FFF7FEFF 		bl	_mmcsd_get_slice
 993              	.LVL119:
 994              		.loc 1 279 0
 995 00de 0C22     		movs	r2, #12
 996 00e0 1146     		mov	r1, r2
 997              		.loc 1 278 0
 998 00e2 6070     		strb	r0, [r4, #1]
 999              		.loc 1 279 0
 1000 00e4 2846     		mov	r0, r5
 1001 00e6 FFF7FEFF 		bl	_mmcsd_get_slice
 1002              	.LVL120:
 1003              		.loc 1 280 0
 1004 00ea 6022     		movs	r2, #96
 1005              		.loc 1 279 0
 1006 00ec 6077     		strb	r0, [r4, #29]
 1007              		.loc 1 280 0
 1008 00ee 6721     		movs	r1, #103
 1009 00f0 2846     		mov	r0, r5
 1010 00f2 FFF7FEFF 		bl	_mmcsd_get_slice
 1011              	.LVL121:
 1012              		.loc 1 281 0
 1013 00f6 1F22     		movs	r2, #31
 1014 00f8 1146     		mov	r1, r2
 1015              		.loc 1 280 0
 1016 00fa E070     		strb	r0, [r4, #3]
 1017              		.loc 1 281 0
 1018 00fc 2846     		mov	r0, r5
 1019 00fe FFF7FEFF 		bl	_mmcsd_get_slice
 1020              	.LVL122:
 1021              		.loc 1 282 0
 1022 0102 2022     		movs	r2, #32
 1023              		.loc 1 281 0
 1024 0104 A075     		strb	r0, [r4, #22]
 1025              		.loc 1 282 0
 1026 0106 2621     		movs	r1, #38
ARM GAS  /tmp/ccSGwsfJ.s 			page 19


 1027 0108 2846     		mov	r0, r5
 1028 010a FFF7FEFF 		bl	_mmcsd_get_slice
 1029              	.LVL123:
 1030              		.loc 1 283 0
 1031 010e 0C22     		movs	r2, #12
 1032              		.loc 1 282 0
 1033 0110 6075     		strb	r0, [r4, #21]
 1034              		.loc 1 283 0
 1035 0112 1921     		movs	r1, #25
 1036 0114 2846     		mov	r0, r5
 1037 0116 FFF7FEFF 		bl	_mmcsd_get_slice
 1038              	.LVL124:
 1039              		.loc 1 284 0
 1040 011a 1522     		movs	r2, #21
 1041 011c 1146     		mov	r1, r2
 1042              		.loc 1 283 0
 1043 011e 2076     		strb	r0, [r4, #24]
 1044              		.loc 1 284 0
 1045 0120 2846     		mov	r0, r5
 1046 0122 FFF7FEFF 		bl	_mmcsd_get_slice
 1047              	.LVL125:
 1048              		.loc 1 285 0
 1049 0126 4E22     		movs	r2, #78
 1050              		.loc 1 284 0
 1051 0128 6076     		strb	r0, [r4, #25]
 1052              		.loc 1 285 0
 1053 012a 1146     		mov	r1, r2
 1054 012c 2846     		mov	r0, r5
 1055 012e FFF7FEFF 		bl	_mmcsd_get_slice
 1056              	.LVL126:
 1057 0132 2072     		strb	r0, [r4, #8]
 1058 0134 38BD     		pop	{r3, r4, r5, pc}
 1059              		.cfi_endproc
 1060              	.LFE329:
 1061              		.size	_mmcsd_unpack_csd_v10, .-_mmcsd_unpack_csd_v10
 1062              		.section	.text._mmcsd_unpack_csd_v20,"ax",%progbits
 1063              		.align	1
 1064              		.global	_mmcsd_unpack_csd_v20
 1065              		.thumb
 1066              		.thumb_func
 1067              		.type	_mmcsd_unpack_csd_v20, %function
 1068              	_mmcsd_unpack_csd_v20:
 1069              	.LFB330:
 1070              		.loc 1 297 0
 1071              		.cfi_startproc
 1072              		@ args = 0, pretend = 0, frame = 0
 1073              		@ frame_needed = 0, uses_anonymous_args = 0
 1074              	.LVL127:
 1075 0000 38B5     		push	{r3, r4, r5, lr}
 1076              		.cfi_def_cfa_offset 16
 1077              		.cfi_offset 3, -16
 1078              		.cfi_offset 4, -12
 1079              		.cfi_offset 5, -8
 1080              		.cfi_offset 14, -4
 1081              		.loc 1 302 0
 1082 0002 00F11805 		add	r5, r0, #24
 1083              	.LVL128:
ARM GAS  /tmp/ccSGwsfJ.s 			page 20


 1084              		.loc 1 297 0
 1085 0006 0C46     		mov	r4, r1
 1086              		.loc 1 303 0
 1087 0008 3022     		movs	r2, #48
 1088 000a 4521     		movs	r1, #69
 1089              	.LVL129:
 1090 000c 2846     		mov	r0, r5
 1091              	.LVL130:
 1092 000e FFF7FEFF 		bl	_mmcsd_get_slice
 1093              	.LVL131:
 1094              		.loc 1 304 0
 1095 0012 0122     		movs	r2, #1
 1096              		.loc 1 303 0
 1097 0014 E060     		str	r0, [r4, #12]
 1098              		.loc 1 304 0
 1099 0016 0721     		movs	r1, #7
 1100 0018 2846     		mov	r0, r5
 1101 001a FFF7FEFF 		bl	_mmcsd_get_slice
 1102              	.LVL132:
 1103              		.loc 1 305 0
 1104 001e 5422     		movs	r2, #84
 1105              		.loc 1 304 0
 1106 0020 2077     		strb	r0, [r4, #28]
 1107              		.loc 1 305 0
 1108 0022 5F21     		movs	r1, #95
 1109 0024 2846     		mov	r0, r5
 1110 0026 FFF7FEFF 		bl	_mmcsd_get_slice
 1111              	.LVL133:
 1112              		.loc 1 306 0
 1113 002a 0E22     		movs	r2, #14
 1114 002c 1146     		mov	r1, r2
 1115              		.loc 1 305 0
 1116 002e A080     		strh	r0, [r4, #4]	@ movhi
 1117              		.loc 1 306 0
 1118 0030 2846     		mov	r0, r5
 1119 0032 FFF7FEFF 		bl	_mmcsd_get_slice
 1120              	.LVL134:
 1121              		.loc 1 307 0
 1122 0036 7E22     		movs	r2, #126
 1123              		.loc 1 306 0
 1124 0038 2076     		strb	r0, [r4, #24]
 1125              		.loc 1 307 0
 1126 003a 7F21     		movs	r1, #127
 1127 003c 2846     		mov	r0, r5
 1128 003e FFF7FEFF 		bl	_mmcsd_get_slice
 1129              	.LVL135:
 1130              		.loc 1 308 0
 1131 0042 4C22     		movs	r2, #76
 1132 0044 1146     		mov	r1, r2
 1133              		.loc 1 307 0
 1134 0046 2070     		strb	r0, [r4]
 1135              		.loc 1 308 0
 1136 0048 2846     		mov	r0, r5
 1137 004a FFF7FEFF 		bl	_mmcsd_get_slice
 1138              	.LVL136:
 1139              		.loc 1 309 0
 1140 004e 2E22     		movs	r2, #46
ARM GAS  /tmp/ccSGwsfJ.s 			page 21


 1141 0050 1146     		mov	r1, r2
 1142              		.loc 1 308 0
 1143 0052 A072     		strb	r0, [r4, #10]
 1144              		.loc 1 309 0
 1145 0054 2846     		mov	r0, r5
 1146 0056 FFF7FEFF 		bl	_mmcsd_get_slice
 1147              	.LVL137:
 1148              		.loc 1 310 0
 1149 005a 0A22     		movs	r2, #10
 1150              		.loc 1 309 0
 1151 005c 2074     		strb	r0, [r4, #16]
 1152              		.loc 1 310 0
 1153 005e 0B21     		movs	r1, #11
 1154 0060 2846     		mov	r0, r5
 1155 0062 FFF7FEFF 		bl	_mmcsd_get_slice
 1156              	.LVL138:
 1157              		.loc 1 311 0
 1158 0066 0F22     		movs	r2, #15
 1159 0068 1146     		mov	r1, r2
 1160              		.loc 1 310 0
 1161 006a E076     		strb	r0, [r4, #27]
 1162              		.loc 1 311 0
 1163 006c 2846     		mov	r0, r5
 1164 006e FFF7FEFF 		bl	_mmcsd_get_slice
 1165              	.LVL139:
 1166              		.loc 1 312 0
 1167 0072 6822     		movs	r2, #104
 1168              		.loc 1 311 0
 1169 0074 E075     		strb	r0, [r4, #23]
 1170              		.loc 1 312 0
 1171 0076 6F21     		movs	r1, #111
 1172 0078 2846     		mov	r0, r5
 1173 007a FFF7FEFF 		bl	_mmcsd_get_slice
 1174              	.LVL140:
 1175              		.loc 1 313 0
 1176 007e 0D22     		movs	r2, #13
 1177 0080 1146     		mov	r1, r2
 1178              		.loc 1 312 0
 1179 0082 A070     		strb	r0, [r4, #2]
 1180              		.loc 1 313 0
 1181 0084 2846     		mov	r0, r5
 1182 0086 FFF7FEFF 		bl	_mmcsd_get_slice
 1183              	.LVL141:
 1184              		.loc 1 314 0
 1185 008a 1A22     		movs	r2, #26
 1186              		.loc 1 313 0
 1187 008c 6076     		strb	r0, [r4, #25]
 1188              		.loc 1 314 0
 1189 008e 1C21     		movs	r1, #28
 1190 0090 2846     		mov	r0, r5
 1191 0092 FFF7FEFF 		bl	_mmcsd_get_slice
 1192              	.LVL142:
 1193              		.loc 1 315 0
 1194 0096 5022     		movs	r2, #80
 1195              		.loc 1 314 0
 1196 0098 2075     		strb	r0, [r4, #20]
 1197              		.loc 1 315 0
ARM GAS  /tmp/ccSGwsfJ.s 			page 22


 1198 009a 5321     		movs	r1, #83
 1199 009c 2846     		mov	r0, r5
 1200 009e FFF7FEFF 		bl	_mmcsd_get_slice
 1201              	.LVL143:
 1202              		.loc 1 316 0
 1203 00a2 4F22     		movs	r2, #79
 1204 00a4 1146     		mov	r1, r2
 1205              		.loc 1 315 0
 1206 00a6 A071     		strb	r0, [r4, #6]
 1207              		.loc 1 316 0
 1208 00a8 2846     		mov	r0, r5
 1209 00aa FFF7FEFF 		bl	_mmcsd_get_slice
 1210              	.LVL144:
 1211              		.loc 1 317 0
 1212 00ae 4D22     		movs	r2, #77
 1213 00b0 1146     		mov	r1, r2
 1214              		.loc 1 316 0
 1215 00b2 E071     		strb	r0, [r4, #7]
 1216              		.loc 1 317 0
 1217 00b4 2846     		mov	r0, r5
 1218 00b6 FFF7FEFF 		bl	_mmcsd_get_slice
 1219              	.LVL145:
 1220              		.loc 1 318 0
 1221 00ba 2722     		movs	r2, #39
 1222              		.loc 1 317 0
 1223 00bc 6072     		strb	r0, [r4, #9]
 1224              		.loc 1 318 0
 1225 00be 2D21     		movs	r1, #45
 1226 00c0 2846     		mov	r0, r5
 1227 00c2 FFF7FEFF 		bl	_mmcsd_get_slice
 1228              	.LVL146:
 1229              		.loc 1 319 0
 1230 00c6 7022     		movs	r2, #112
 1231              		.loc 1 318 0
 1232 00c8 6074     		strb	r0, [r4, #17]
 1233              		.loc 1 319 0
 1234 00ca 7721     		movs	r1, #119
 1235 00cc 2846     		mov	r0, r5
 1236 00ce FFF7FEFF 		bl	_mmcsd_get_slice
 1237              	.LVL147:
 1238              		.loc 1 320 0
 1239 00d2 0C22     		movs	r2, #12
 1240 00d4 1146     		mov	r1, r2
 1241              		.loc 1 319 0
 1242 00d6 6070     		strb	r0, [r4, #1]
 1243              		.loc 1 320 0
 1244 00d8 2846     		mov	r0, r5
 1245 00da FFF7FEFF 		bl	_mmcsd_get_slice
 1246              	.LVL148:
 1247              		.loc 1 321 0
 1248 00de 6022     		movs	r2, #96
 1249              		.loc 1 320 0
 1250 00e0 A076     		strb	r0, [r4, #26]
 1251              		.loc 1 321 0
 1252 00e2 6721     		movs	r1, #103
 1253 00e4 2846     		mov	r0, r5
 1254 00e6 FFF7FEFF 		bl	_mmcsd_get_slice
ARM GAS  /tmp/ccSGwsfJ.s 			page 23


 1255              	.LVL149:
 1256              		.loc 1 322 0
 1257 00ea 1F22     		movs	r2, #31
 1258 00ec 1146     		mov	r1, r2
 1259              		.loc 1 321 0
 1260 00ee E070     		strb	r0, [r4, #3]
 1261              		.loc 1 322 0
 1262 00f0 2846     		mov	r0, r5
 1263 00f2 FFF7FEFF 		bl	_mmcsd_get_slice
 1264              	.LVL150:
 1265              		.loc 1 323 0
 1266 00f6 2022     		movs	r2, #32
 1267              		.loc 1 322 0
 1268 00f8 E074     		strb	r0, [r4, #19]
 1269              		.loc 1 323 0
 1270 00fa 2621     		movs	r1, #38
 1271 00fc 2846     		mov	r0, r5
 1272 00fe FFF7FEFF 		bl	_mmcsd_get_slice
 1273              	.LVL151:
 1274              		.loc 1 324 0
 1275 0102 0C22     		movs	r2, #12
 1276              		.loc 1 323 0
 1277 0104 A074     		strb	r0, [r4, #18]
 1278              		.loc 1 324 0
 1279 0106 1921     		movs	r1, #25
 1280 0108 2846     		mov	r0, r5
 1281 010a FFF7FEFF 		bl	_mmcsd_get_slice
 1282              	.LVL152:
 1283              		.loc 1 325 0
 1284 010e 1522     		movs	r2, #21
 1285 0110 1146     		mov	r1, r2
 1286              		.loc 1 324 0
 1287 0112 6075     		strb	r0, [r4, #21]
 1288              		.loc 1 325 0
 1289 0114 2846     		mov	r0, r5
 1290 0116 FFF7FEFF 		bl	_mmcsd_get_slice
 1291              	.LVL153:
 1292              		.loc 1 326 0
 1293 011a 4E22     		movs	r2, #78
 1294              		.loc 1 325 0
 1295 011c A075     		strb	r0, [r4, #22]
 1296              		.loc 1 326 0
 1297 011e 1146     		mov	r1, r2
 1298 0120 2846     		mov	r0, r5
 1299 0122 FFF7FEFF 		bl	_mmcsd_get_slice
 1300              	.LVL154:
 1301 0126 2072     		strb	r0, [r4, #8]
 1302 0128 38BD     		pop	{r3, r4, r5, pc}
 1303              		.cfi_endproc
 1304              	.LFE330:
 1305              		.size	_mmcsd_unpack_csd_v20, .-_mmcsd_unpack_csd_v20
 1306              		.text
 1307              	.Letext0:
 1308              		.file 2 "/usr/lib/gcc/arm-none-eabi/5.4.1/include/stddef.h"
 1309              		.file 3 "/usr/include/newlib/machine/_default_types.h"
 1310              		.file 4 "/usr/include/newlib/sys/_stdint.h"
 1311              		.file 5 "../../modules/ChibiOS/os/common/ports/ARMCMx/compilers/GCC/chtypes.h"
ARM GAS  /tmp/ccSGwsfJ.s 			page 24


 1312              		.file 6 "../../modules/ChibiOS/os/rt/include/chsystypes.h"
 1313              		.file 7 "../../modules/ChibiOS/os/rt/include/chschd.h"
 1314              		.file 8 "../../modules/ChibiOS/os/rt/include/chtime.h"
 1315              		.file 9 "../../modules/ChibiOS/os/common/ports/ARMCMx/chcore.h"
 1316              		.file 10 "../../modules/ChibiOS/os/common/ports/ARMCMx/chcore_v7m.h"
 1317              		.file 11 "../../modules/ChibiOS/os/rt/include/chtm.h"
 1318              		.file 12 "../../modules/ChibiOS/os/rt/include/chstats.h"
 1319              		.file 13 "../../modules/ChibiOS/os/rt/include/chsem.h"
 1320              		.file 14 "../../modules/ChibiOS/os/rt/include/chmtx.h"
 1321              		.file 15 "../../modules/ChibiOS/os/hal/include/hal_ioblock.h"
 1322              		.file 16 "../../modules/ChibiOS/os/hal/include/hal_mmcsd.h"
 1323              		.file 17 "../../modules/ChibiOS/os/common/ext/ARM/CMSIS/Core/Include/core_cm4.h"