ARM GAS  /tmp/ccM1c4Tg.s 			page 1


   1              		.syntax unified
   2              		.cpu cortex-m4
   3              		.eabi_attribute 27, 1
   4              		.eabi_attribute 28, 1
   5              		.fpu fpv4-sp-d16
   6              		.eabi_attribute 20, 1
   7              		.eabi_attribute 21, 1
   8              		.eabi_attribute 23, 3
   9              		.eabi_attribute 24, 1
  10              		.eabi_attribute 25, 1
  11              		.eabi_attribute 26, 1
  12              		.eabi_attribute 30, 4
  13              		.eabi_attribute 34, 1
  14              		.eabi_attribute 18, 4
  15              		.thumb
  16              		.syntax unified
  17              		.file	"hal_sdc.c"
  18              		.text
  19              	.Ltext0:
  20              		.cfi_sections	.debug_frame
  21              		.section	.text.sdcGetInfo,"ax",%progbits
  22              		.align	1
  23              		.global	sdcGetInfo
  24              		.thumb
  25              		.thumb_func
  26              		.type	sdcGetInfo, %function
  27              	sdcGetInfo:
  28              	.LFB346:
  29              		.file 1 "../../modules/ChibiOS/os/hal/src/hal_sdc.c"
  30              		.loc 1 927 0
  31              		.cfi_startproc
  32              		@ args = 0, pretend = 0, frame = 0
  33              		@ frame_needed = 0, uses_anonymous_args = 0
  34              		@ link register save eliminated.
  35              	.LVL0:
  36              		.loc 1 931 0
  37 0000 0379     		ldrb	r3, [r0, #4]	@ zero_extendqisi2
  38 0002 052B     		cmp	r3, #5
  39              		.loc 1 935 0
  40 0004 01BF     		itttt	eq
  41 0006 836A     		ldreq	r3, [r0, #40]
  42 0008 4B60     		streq	r3, [r1, #4]
  43              		.loc 1 936 0
  44 000a 4FF40073 		moveq	r3, #512
  45              		.loc 1 938 0
  46 000e 0020     		moveq	r0, #0
  47              	.LVL1:
  48              		.loc 1 936 0
  49 0010 0CBF     		ite	eq
  50 0012 0B60     		streq	r3, [r1]
  51              		.loc 1 932 0
  52 0014 0120     		movne	r0, #1
  53              		.loc 1 939 0
  54 0016 7047     		bx	lr
  55              		.cfi_endproc
  56              	.LFE346:
  57              		.size	sdcGetInfo, .-sdcGetInfo
ARM GAS  /tmp/ccM1c4Tg.s 			page 2


  58              		.section	.text.sdcRead,"ax",%progbits
  59              		.align	1
  60              		.global	sdcRead
  61              		.thumb
  62              		.thumb_func
  63              		.type	sdcRead, %function
  64              	sdcRead:
  65              	.LFB342:
  66              		.loc 1 805 0
  67              		.cfi_startproc
  68              		@ args = 0, pretend = 0, frame = 0
  69              		@ frame_needed = 0, uses_anonymous_args = 0
  70              	.LVL2:
  71 0000 70B5     		push	{r4, r5, r6, lr}
  72              		.cfi_def_cfa_offset 16
  73              		.cfi_offset 4, -16
  74              		.cfi_offset 5, -12
  75              		.cfi_offset 6, -8
  76              		.cfi_offset 14, -4
  77              		.loc 1 811 0
  78 0002 5D1E     		subs	r5, r3, #1
  79 0004 866A     		ldr	r6, [r0, #40]
  80 0006 0D44     		add	r5, r5, r1
  81 0008 B542     		cmp	r5, r6
  82              		.loc 1 805 0
  83 000a 0446     		mov	r4, r0
  84              		.loc 1 811 0
  85 000c 05D9     		bls	.L5
  86              		.loc 1 812 0
  87 000e 436B     		ldr	r3, [r0, #52]
  88              	.LVL3:
  89 0010 43F08003 		orr	r3, r3, #128
  90 0014 4363     		str	r3, [r0, #52]
  91              		.loc 1 813 0
  92 0016 0120     		movs	r0, #1
  93              	.LVL4:
  94 0018 70BD     		pop	{r4, r5, r6, pc}
  95              	.LVL5:
  96              	.L5:
  97              	.LBB50:
  98              	.LBB51:
  99              		.loc 1 817 0
 100 001a 0625     		movs	r5, #6
 101 001c 0571     		strb	r5, [r0, #4]
 102              		.loc 1 819 0
 103 001e FFF7FEFF 		bl	sdc_lld_read
 104              	.LVL6:
 105              		.loc 1 822 0
 106 0022 0523     		movs	r3, #5
 107 0024 2371     		strb	r3, [r4, #4]
 108              	.LVL7:
 109              	.LBE51:
 110              	.LBE50:
 111              		.loc 1 824 0
 112 0026 70BD     		pop	{r4, r5, r6, pc}
 113              		.cfi_endproc
 114              	.LFE342:
ARM GAS  /tmp/ccM1c4Tg.s 			page 3


 115              		.size	sdcRead, .-sdcRead
 116              		.section	.text.sdcWrite,"ax",%progbits
 117              		.align	1
 118              		.global	sdcWrite
 119              		.thumb
 120              		.thumb_func
 121              		.type	sdcWrite, %function
 122              	sdcWrite:
 123              	.LFB343:
 124              		.loc 1 843 0
 125              		.cfi_startproc
 126              		@ args = 0, pretend = 0, frame = 0
 127              		@ frame_needed = 0, uses_anonymous_args = 0
 128              	.LVL8:
 129 0000 70B5     		push	{r4, r5, r6, lr}
 130              		.cfi_def_cfa_offset 16
 131              		.cfi_offset 4, -16
 132              		.cfi_offset 5, -12
 133              		.cfi_offset 6, -8
 134              		.cfi_offset 14, -4
 135              		.loc 1 849 0
 136 0002 5D1E     		subs	r5, r3, #1
 137 0004 866A     		ldr	r6, [r0, #40]
 138 0006 0D44     		add	r5, r5, r1
 139 0008 B542     		cmp	r5, r6
 140              		.loc 1 843 0
 141 000a 0446     		mov	r4, r0
 142              		.loc 1 849 0
 143 000c 05D9     		bls	.L9
 144              		.loc 1 850 0
 145 000e 436B     		ldr	r3, [r0, #52]
 146              	.LVL9:
 147 0010 43F08003 		orr	r3, r3, #128
 148 0014 4363     		str	r3, [r0, #52]
 149              		.loc 1 851 0
 150 0016 0120     		movs	r0, #1
 151              	.LVL10:
 152 0018 70BD     		pop	{r4, r5, r6, pc}
 153              	.LVL11:
 154              	.L9:
 155              	.LBB54:
 156              	.LBB55:
 157              		.loc 1 855 0
 158 001a 0725     		movs	r5, #7
 159 001c 0571     		strb	r5, [r0, #4]
 160              		.loc 1 857 0
 161 001e FFF7FEFF 		bl	sdc_lld_write
 162              	.LVL12:
 163              		.loc 1 860 0
 164 0022 0523     		movs	r3, #5
 165 0024 2371     		strb	r3, [r4, #4]
 166              	.LVL13:
 167              	.LBE55:
 168              	.LBE54:
 169              		.loc 1 862 0
 170 0026 70BD     		pop	{r4, r5, r6, pc}
 171              		.cfi_endproc
ARM GAS  /tmp/ccM1c4Tg.s 			page 4


 172              	.LFE343:
 173              		.size	sdcWrite, .-sdcWrite
 174              		.section	.text.sdcSync,"ax",%progbits
 175              		.align	1
 176              		.global	sdcSync
 177              		.thumb
 178              		.thumb_func
 179              		.type	sdcSync, %function
 180              	sdcSync:
 181              	.LFB345:
 182              		.loc 1 896 0
 183              		.cfi_startproc
 184              		@ args = 0, pretend = 0, frame = 0
 185              		@ frame_needed = 0, uses_anonymous_args = 0
 186              	.LVL14:
 187 0000 38B5     		push	{r3, r4, r5, lr}
 188              		.cfi_def_cfa_offset 16
 189              		.cfi_offset 3, -16
 190              		.cfi_offset 4, -12
 191              		.cfi_offset 5, -8
 192              		.cfi_offset 14, -4
 193              		.loc 1 901 0
 194 0002 0579     		ldrb	r5, [r0, #4]	@ zero_extendqisi2
 195 0004 052D     		cmp	r5, #5
 196              		.loc 1 896 0
 197 0006 0446     		mov	r4, r0
 198              		.loc 1 901 0
 199 0008 05D1     		bne	.L13
 200              	.LVL15:
 201              	.LBB58:
 202              	.LBB59:
 203              		.loc 1 906 0
 204 000a 0823     		movs	r3, #8
 205 000c 0371     		strb	r3, [r0, #4]
 206              		.loc 1 908 0
 207 000e FFF7FEFF 		bl	sdc_lld_sync
 208              	.LVL16:
 209              		.loc 1 911 0
 210 0012 2571     		strb	r5, [r4, #4]
 211              	.LVL17:
 212 0014 38BD     		pop	{r3, r4, r5, pc}
 213              	.LVL18:
 214              	.L13:
 215              	.LBE59:
 216              	.LBE58:
 217              		.loc 1 902 0
 218 0016 0120     		movs	r0, #1
 219              	.LVL19:
 220              		.loc 1 913 0
 221 0018 38BD     		pop	{r3, r4, r5, pc}
 222              		.cfi_endproc
 223              	.LFE345:
 224              		.size	sdcSync, .-sdcSync
 225              		.section	.text.sdcConnect,"ax",%progbits
 226              		.align	1
 227              		.global	sdcConnect
 228              		.thumb
ARM GAS  /tmp/ccM1c4Tg.s 			page 5


 229              		.thumb_func
 230              		.type	sdcConnect, %function
 231              	sdcConnect:
 232              	.LFB340:
 233              		.loc 1 623 0
 234              		.cfi_startproc
 235              		@ args = 0, pretend = 0, frame = 8
 236              		@ frame_needed = 1, uses_anonymous_args = 0
 237              	.LVL20:
 238 0000 2DE9F043 		push	{r4, r5, r6, r7, r8, r9, lr}
 239              		.cfi_def_cfa_offset 28
 240              		.cfi_offset 4, -28
 241              		.cfi_offset 5, -24
 242              		.cfi_offset 6, -20
 243              		.cfi_offset 7, -16
 244              		.cfi_offset 8, -12
 245              		.cfi_offset 9, -8
 246              		.cfi_offset 14, -4
 247              		.loc 1 632 0
 248 0004 0323     		movs	r3, #3
 249              		.loc 1 623 0
 250 0006 85B0     		sub	sp, sp, #20
 251              		.cfi_def_cfa_offset 48
 252 0008 02AF     		add	r7, sp, #8
 253              		.cfi_def_cfa 7, 40
 254              		.loc 1 632 0
 255 000a 0371     		strb	r3, [r0, #4]
 256              		.loc 1 623 0
 257 000c 0446     		mov	r4, r0
 258              		.loc 1 635 0
 259 000e FFF7FEFF 		bl	sdc_lld_start_clk
 260              	.LVL21:
 261              		.loc 1 638 0
 262 0012 0022     		movs	r2, #0
 263 0014 1146     		mov	r1, r2
 264 0016 2046     		mov	r0, r4
 265 0018 FFF7FEFF 		bl	sdc_lld_send_cmd_none
 266              	.LVL22:
 267              	.LBB85:
 268              	.LBB86:
 269              		.loc 1 104 0
 270 001c 4FF4D572 		mov	r2, #426
 271 0020 3B1D     		adds	r3, r7, #4
 272 0022 0821     		movs	r1, #8
 273 0024 2046     		mov	r0, r4
 274 0026 FFF7FEFF 		bl	sdc_lld_send_cmd_short_crc
 275              	.LVL23:
 276 002a 0246     		mov	r2, r0
 277 002c A0B9     		cbnz	r0, .L15
 278              		.loc 1 106 0
 279 002e 0123     		movs	r3, #1
 280 0030 2363     		str	r3, [r4, #48]
 281              		.loc 1 108 0
 282 0032 7B68     		ldr	r3, [r7, #4]
 283 0034 C3F30323 		ubfx	r3, r3, #8, #4
 284 0038 012B     		cmp	r3, #1
 285 003a 40F04D81 		bne	.L46
ARM GAS  /tmp/ccM1c4Tg.s 			page 6


 286              		.loc 1 111 0
 287 003e 3B1D     		adds	r3, r7, #4
 288 0040 3721     		movs	r1, #55
 289 0042 2046     		mov	r0, r4
 290 0044 FFF7FEFF 		bl	sdc_lld_send_cmd_short_crc
 291              	.LVL24:
 292 0048 0028     		cmp	r0, #0
 293 004a 40F04581 		bne	.L46
 294              	.LVL25:
 295 004e A84B     		ldr	r3, .L91
 296 0050 7A68     		ldr	r2, [r7, #4]
 297 0052 1340     		ands	r3, r3, r2
 298              	.LBE86:
 299              	.LBE85:
 300              		.loc 1 641 0
 301 0054 9BB1     		cbz	r3, .L81
 302 0056 3FE1     		b	.L46
 303              	.LVL26:
 304              	.L15:
 305              	.LBB88:
 306              	.LBB87:
 307              		.loc 1 118 0
 308 0058 3B1D     		adds	r3, r7, #4
 309 005a 0022     		movs	r2, #0
 310 005c 3721     		movs	r1, #55
 311 005e 2046     		mov	r0, r4
 312 0060 FFF7FEFF 		bl	sdc_lld_send_cmd_short_crc
 313              	.LVL27:
 314 0064 18B9     		cbnz	r0, .L19
 315 0066 A24A     		ldr	r2, .L91
 316 0068 7B68     		ldr	r3, [r7, #4]
 317 006a 1A40     		ands	r2, r2, r3
 318 006c 12B1     		cbz	r2, .L20
 319              	.L19:
 320              		.loc 1 120 0
 321 006e 0223     		movs	r3, #2
 322 0070 2363     		str	r3, [r4, #48]
 323 0072 04E0     		b	.L81
 324              	.L20:
 325              		.loc 1 123 0
 326 0074 2263     		str	r2, [r4, #48]
 327              		.loc 1 126 0
 328 0076 1146     		mov	r1, r2
 329 0078 2046     		mov	r0, r4
 330 007a FFF7FEFF 		bl	sdc_lld_send_cmd_none
 331              	.LVL28:
 332              	.L81:
 333              	.LBE87:
 334              	.LBE88:
 335              		.loc 1 646 0
 336 007e 236B     		ldr	r3, [r4, #48]
 337 0080 03F00F03 		and	r3, r3, #15
 338 0084 022B     		cmp	r3, #2
 339 0086 14D1     		bne	.L22
 340 0088 6425     		movs	r5, #100
 341              	.L25:
 342              	.LVL29:
ARM GAS  /tmp/ccM1c4Tg.s 			page 7


 343              	.LBB89:
 344              	.LBB90:
 345              		.loc 1 152 0
 346 008a 3B1D     		adds	r3, r7, #4
 347 008c 994A     		ldr	r2, .L91+4
 348 008e 0121     		movs	r1, #1
 349 0090 2046     		mov	r0, r4
 350 0092 FFF7FEFF 		bl	sdc_lld_send_cmd_short
 351              	.LVL30:
 352 0096 0028     		cmp	r0, #0
 353 0098 40F01E81 		bne	.L46
 354              		.loc 1 155 0
 355 009c 7B68     		ldr	r3, [r7, #4]
 356 009e 002B     		cmp	r3, #0
 357 00a0 28DB     		blt	.L85
 358              	.LVL31:
 359              		.loc 1 161 0
 360 00a2 013D     		subs	r5, r5, #1
 361              	.LVL32:
 362 00a4 00F01881 		beq	.L46
 363              	.LVL33:
 364              	.LBB91:
 365              	.LBB92:
 366              		.file 2 "../../modules/ChibiOS/os/hal/osal/rt/osal.h"
 367              		.loc 2 720 0
 368 00a8 42F21070 		movw	r0, #10000
 369 00ac FFF7FEFF 		bl	chThdSleep
 370              	.LVL34:
 371 00b0 EBE7     		b	.L25
 372              	.LVL35:
 373              	.L22:
 374              	.LBE92:
 375              	.LBE91:
 376              	.LBE90:
 377              	.LBE89:
 378              	.LBB93:
 379              	.LBB94:
 380              		.loc 1 190 0
 381 00b2 914E     		ldr	r6, .L91+8
 382 00b4 914A     		ldr	r2, .L91+12
 383 00b6 6425     		movs	r5, #100
 384 00b8 012B     		cmp	r3, #1
 385 00ba 08BF     		it	eq
 386 00bc 1646     		moveq	r6, r2
 387              	.LVL36:
 388              	.L31:
 389              		.loc 1 195 0
 390 00be 3B1D     		adds	r3, r7, #4
 391 00c0 0022     		movs	r2, #0
 392 00c2 3721     		movs	r1, #55
 393 00c4 2046     		mov	r0, r4
 394 00c6 FFF7FEFF 		bl	sdc_lld_send_cmd_short_crc
 395              	.LVL37:
 396 00ca 0028     		cmp	r0, #0
 397 00cc 40F00481 		bne	.L46
 398 00d0 874B     		ldr	r3, .L91
 399 00d2 7A68     		ldr	r2, [r7, #4]
ARM GAS  /tmp/ccM1c4Tg.s 			page 8


 400 00d4 1340     		ands	r3, r3, r2
 401 00d6 002B     		cmp	r3, #0
 402 00d8 40F0FE80 		bne	.L46
 403              		.loc 1 199 0
 404 00dc 3B1D     		adds	r3, r7, #4
 405 00de 3246     		mov	r2, r6
 406 00e0 2921     		movs	r1, #41
 407 00e2 2046     		mov	r0, r4
 408 00e4 FFF7FEFF 		bl	sdc_lld_send_cmd_short
 409              	.LVL38:
 410 00e8 0028     		cmp	r0, #0
 411 00ea 40F0F580 		bne	.L46
 412              		.loc 1 202 0
 413 00ee 7B68     		ldr	r3, [r7, #4]
 414 00f0 002B     		cmp	r3, #0
 415 00f2 12DA     		bge	.L29
 416              	.LVL39:
 417              	.L85:
 418              		.loc 1 203 0
 419 00f4 5A00     		lsls	r2, r3, #1
 420 00f6 0BD4     		bmi	.L89
 421              	.L32:
 422              	.LBE94:
 423              	.LBE93:
 424              		.loc 1 658 0
 425 00f8 0022     		movs	r2, #0
 426 00fa 04F10803 		add	r3, r4, #8
 427 00fe 0221     		movs	r1, #2
 428 0100 2046     		mov	r0, r4
 429 0102 FFF7FEFF 		bl	sdc_lld_send_cmd_long_crc
 430              	.LVL40:
 431 0106 0246     		mov	r2, r0
 432 0108 0028     		cmp	r0, #0
 433 010a 40F0E580 		bne	.L46
 434 010e 0CE0     		b	.L90
 435              	.L89:
 436              	.LBB98:
 437              	.LBB97:
 438              		.loc 1 204 0
 439 0110 236B     		ldr	r3, [r4, #48]
 440 0112 43F01003 		orr	r3, r3, #16
 441 0116 2363     		str	r3, [r4, #48]
 442 0118 EEE7     		b	.L32
 443              	.LVL41:
 444              	.L29:
 445              		.loc 1 208 0
 446 011a 013D     		subs	r5, r5, #1
 447              	.LVL42:
 448 011c 00F0DC80 		beq	.L46
 449              	.LVL43:
 450              	.LBB95:
 451              	.LBB96:
 452              		.loc 2 720 0
 453 0120 42F21070 		movw	r0, #10000
 454 0124 FFF7FEFF 		bl	chThdSleep
 455              	.LVL44:
 456 0128 C9E7     		b	.L31
ARM GAS  /tmp/ccM1c4Tg.s 			page 9


 457              	.LVL45:
 458              	.L90:
 459              	.LBE96:
 460              	.LBE95:
 461              	.LBE97:
 462              	.LBE98:
 463              		.loc 1 663 0
 464 012a 04F13803 		add	r3, r4, #56
 465 012e 0321     		movs	r1, #3
 466 0130 2046     		mov	r0, r4
 467 0132 FFF7FEFF 		bl	sdc_lld_send_cmd_short_crc
 468              	.LVL46:
 469 0136 0028     		cmp	r0, #0
 470 0138 40F0CE80 		bne	.L46
 471              		.loc 1 670 0
 472 013c 04F11806 		add	r6, r4, #24
 473              		.loc 1 669 0
 474 0140 3346     		mov	r3, r6
 475 0142 A26B     		ldr	r2, [r4, #56]
 476 0144 0921     		movs	r1, #9
 477 0146 2046     		mov	r0, r4
 478 0148 FFF7FEFF 		bl	sdc_lld_send_cmd_long_crc
 479              	.LVL47:
 480 014c 0028     		cmp	r0, #0
 481 014e 40F0C380 		bne	.L46
 482              		.loc 1 675 0
 483 0152 3B46     		mov	r3, r7
 484 0154 A26B     		ldr	r2, [r4, #56]
 485 0156 0721     		movs	r1, #7
 486 0158 2046     		mov	r0, r4
 487 015a FFF7FEFF 		bl	sdc_lld_send_cmd_short_crc
 488              	.LVL48:
 489 015e 0546     		mov	r5, r0
 490 0160 0028     		cmp	r0, #0
 491 0162 40F0B980 		bne	.L46
 492              	.LVL49:
 493              	.LBB99:
 494              	.LBB100:
 495              		.loc 1 409 0
 496 0166 236B     		ldr	r3, [r4, #48]
 497 0168 03F00F03 		and	r3, r3, #15
 498 016c 022B     		cmp	r3, #2
 499 016e 13D1     		bne	.L33
 500              	.LVL50:
 501              	.LBB101:
 502              	.LBB102:
 503              		.loc 1 376 0
 504 0170 E36A     		ldr	r3, [r4, #44]
 505              		.loc 1 382 0
 506 0172 1B68     		ldr	r3, [r3]
 507 0174 0BB9     		cbnz	r3, .L34
 508              	.LVL51:
 509              	.L36:
 510              		.loc 1 379 0
 511 0176 0021     		movs	r1, #0
 512 0178 3EE0     		b	.L37
 513              	.LVL52:
ARM GAS  /tmp/ccM1c4Tg.s 			page 10


 514              	.L34:
 515              		.loc 1 387 0
 516 017a 3B1D     		adds	r3, r7, #4
 517              	.LVL53:
 518 017c 604A     		ldr	r2, .L91+16
 519 017e 0621     		movs	r1, #6
 520 0180 2046     		mov	r0, r4
 521 0182 FFF7FEFF 		bl	sdc_lld_send_cmd_short_crc
 522              	.LVL54:
 523 0186 0028     		cmp	r0, #0
 524 0188 F5D1     		bne	.L36
 525              		.loc 1 379 0
 526 018a 5949     		ldr	r1, .L91
 527 018c 7B68     		ldr	r3, [r7, #4]
 528 018e 1940     		ands	r1, r1, r3
 529 0190 B1FA81F1 		clz	r1, r1
 530 0194 4909     		lsrs	r1, r1, #5
 531              	.LVL55:
 532 0196 2FE0     		b	.L37
 533              	.LVL56:
 534              	.L33:
 535              	.LBE102:
 536              	.LBE101:
 537              	.LBB103:
 538              	.LBB104:
 539              		.loc 1 319 0
 540 0198 E846     		mov	r8, sp
 541              	.LVL57:
 542              		.loc 1 329 0
 543 019a 7E22     		movs	r2, #126
 544              		.loc 1 322 0
 545 019c 90B0     		sub	sp, sp, #64
 546              		.loc 1 329 0
 547 019e 7F21     		movs	r1, #127
 548 01a0 3046     		mov	r0, r6
 549              		.loc 1 322 0
 550 01a2 0DF10809 		add	r9, sp, #8
 551              	.LVL58:
 552              		.loc 1 329 0
 553 01a6 FFF7FEFF 		bl	_mmcsd_get_slice
 554              	.LVL59:
 555 01aa 08B9     		cbnz	r0, .L38
 556              	.L41:
 557              		.loc 1 330 0
 558 01ac 0021     		movs	r1, #0
 559 01ae 20E0     		b	.L39
 560              	.L38:
 561              		.loc 1 335 0
 562 01b0 0095     		str	r5, [sp]
 563 01b2 0623     		movs	r3, #6
 564 01b4 4022     		movs	r2, #64
 565 01b6 4946     		mov	r1, r9
 566 01b8 2046     		mov	r0, r4
 567 01ba FFF7FEFF 		bl	sdc_lld_read_special
 568              	.LVL60:
 569 01be 10B1     		cbz	r0, .L40
 570              	.L42:
ARM GAS  /tmp/ccM1c4Tg.s 			page 11


 571              		.loc 1 325 0
 572 01c0 0021     		movs	r1, #0
 573              		.loc 1 336 0
 574 01c2 0125     		movs	r5, #1
 575 01c4 15E0     		b	.L39
 576              	.L40:
 577              		.loc 1 340 0
 578 01c6 99F80D30 		ldrb	r3, [r9, #13]	@ zero_extendqisi2
 579 01ca 9B07     		lsls	r3, r3, #30
 580 01cc EED5     		bpl	.L41
 581              		.loc 1 345 0
 582 01ce 4D4B     		ldr	r3, .L91+20
 583 01d0 0093     		str	r3, [sp]
 584 01d2 4022     		movs	r2, #64
 585 01d4 0623     		movs	r3, #6
 586 01d6 4946     		mov	r1, r9
 587 01d8 2046     		mov	r0, r4
 588 01da FFF7FEFF 		bl	sdc_lld_read_special
 589              	.LVL61:
 590 01de 0546     		mov	r5, r0
 591 01e0 0028     		cmp	r0, #0
 592 01e2 EDD1     		bne	.L42
 593              	.LVL62:
 594              		.loc 1 330 0
 595 01e4 99F81010 		ldrb	r1, [r9, #16]	@ zero_extendqisi2
 596 01e8 01F00F01 		and	r1, r1, #15
 597 01ec 0F39     		subs	r1, r1, #15
 598 01ee 18BF     		it	ne
 599 01f0 0121     		movne	r1, #1
 600              	.LVL63:
 601              	.L39:
 602 01f2 C546     		mov	sp, r8
 603              	.LVL64:
 604              	.LBE104:
 605              	.LBE103:
 606              	.LBE100:
 607              	.LBE99:
 608              		.loc 1 681 0
 609 01f4 002D     		cmp	r5, #0
 610 01f6 6FD1     		bne	.L46
 611              	.LVL65:
 612              	.L37:
 613              		.loc 1 684 0
 614 01f8 2046     		mov	r0, r4
 615 01fa FFF7FEFF 		bl	sdc_lld_set_data_clk
 616              	.LVL66:
 617              		.loc 1 687 0
 618 01fe 236B     		ldr	r3, [r4, #48]
 619 0200 03F00F03 		and	r3, r3, #15
 620 0204 022B     		cmp	r3, #2
 621 0206 19D1     		bne	.L43
 622              		.loc 1 690 0
 623 0208 7E22     		movs	r2, #126
 624 020a 7F21     		movs	r1, #127
 625 020c 3046     		mov	r0, r6
 626 020e FFF7FEFF 		bl	_mmcsd_get_slice
 627              	.LVL67:
ARM GAS  /tmp/ccM1c4Tg.s 			page 12


 628 0212 0128     		cmp	r0, #1
 629 0214 12D9     		bls	.L43
 630              	.LBB105:
 631              		.loc 1 691 0
 632 0216 E36A     		ldr	r3, [r4, #44]
 633 0218 1D68     		ldr	r5, [r3]
 634              	.LVL68:
 635              		.loc 1 694 0
 636 021a 002D     		cmp	r5, #0
 637 021c 5CD0     		beq	.L46
 638              		.loc 1 698 0
 639 021e 0023     		movs	r3, #0
 640 0220 0093     		str	r3, [sp]
 641 0222 4FF40072 		mov	r2, #512
 642 0226 0823     		movs	r3, #8
 643 0228 2946     		mov	r1, r5
 644 022a 2046     		mov	r0, r4
 645 022c FFF7FEFF 		bl	sdc_lld_read_special
 646              	.LVL69:
 647 0230 0028     		cmp	r0, #0
 648 0232 51D1     		bne	.L46
 649              		.loc 1 703 0
 650 0234 2846     		mov	r0, r5
 651 0236 FFF7FEFF 		bl	_mmcsd_get_capacity_ext
 652              	.LVL70:
 653 023a 02E0     		b	.L86
 654              	.LVL71:
 655              	.L43:
 656              	.LBE105:
 657              		.loc 1 712 0
 658 023c 3046     		mov	r0, r6
 659 023e FFF7FEFF 		bl	_mmcsd_get_capacity
 660              	.LVL72:
 661              	.L86:
 662 0242 A062     		str	r0, [r4, #40]
 663              		.loc 1 716 0
 664 0244 3B46     		mov	r3, r7
 665 0246 4FF40072 		mov	r2, #512
 666 024a 1021     		movs	r1, #16
 667 024c 2046     		mov	r0, r4
 668 024e FFF7FEFF 		bl	sdc_lld_send_cmd_short_crc
 669              	.LVL73:
 670 0252 0646     		mov	r6, r0
 671 0254 0028     		cmp	r0, #0
 672 0256 3FD1     		bne	.L46
 673              		.loc 1 717 0
 674 0258 254B     		ldr	r3, .L91
 675 025a 3A68     		ldr	r2, [r7]
 676 025c 1340     		ands	r3, r3, r2
 677 025e 002B     		cmp	r3, #0
 678 0260 3AD1     		bne	.L46
 679              		.loc 1 723 0
 680 0262 236B     		ldr	r3, [r4, #48]
 681 0264 03F00F03 		and	r3, r3, #15
 682 0268 012B     		cmp	r3, #1
 683 026a 02D9     		bls	.L47
 684 026c 022B     		cmp	r3, #2
ARM GAS  /tmp/ccM1c4Tg.s 			page 13


 685 026e 16D0     		beq	.L48
 686 0270 32E0     		b	.L46
 687              	.L47:
 688              	.LVL74:
 689              	.LBB106:
 690              	.LBB107:
 691              		.loc 1 429 0
 692 0272 E36A     		ldr	r3, [r4, #44]
 693 0274 1979     		ldrb	r1, [r3, #4]	@ zero_extendqisi2
 694 0276 51B3     		cbz	r1, .L57
 695              		.loc 1 433 0
 696 0278 0129     		cmp	r1, #1
 697 027a 2DD1     		bne	.L46
 698              		.loc 1 434 0
 699 027c 2046     		mov	r0, r4
 700 027e FFF7FEFF 		bl	sdc_lld_set_bus_mode
 701              	.LVL75:
 702              		.loc 1 435 0
 703 0282 3B1D     		adds	r3, r7, #4
 704 0284 A26B     		ldr	r2, [r4, #56]
 705 0286 3721     		movs	r1, #55
 706 0288 2046     		mov	r0, r4
 707 028a FFF7FEFF 		bl	sdc_lld_send_cmd_short_crc
 708              	.LVL76:
 709 028e 18BB     		cbnz	r0, .L46
 710 0290 174B     		ldr	r3, .L91
 711 0292 7A68     		ldr	r2, [r7, #4]
 712 0294 1340     		ands	r3, r3, r2
 713 0296 FBB9     		cbnz	r3, .L46
 714              		.loc 1 440 0
 715 0298 3B1D     		adds	r3, r7, #4
 716 029a 0222     		movs	r2, #2
 717 029c 0EE0     		b	.L88
 718              	.LVL77:
 719              	.L48:
 720              	.LBE107:
 721              	.LBE106:
 722              	.LBB109:
 723              	.LBB110:
 724              		.loc 1 468 0
 725 029e E36A     		ldr	r3, [r4, #44]
 726 02a0 1979     		ldrb	r1, [r3, #4]	@ zero_extendqisi2
 727 02a2 0129     		cmp	r1, #1
 728 02a4 16D0     		beq	.L62
 729 02a6 12D3     		bcc	.L57
 730              		.loc 1 466 0
 731 02a8 174D     		ldr	r5, .L91+24
 732 02aa 184B     		ldr	r3, .L91+28
 733 02ac 0229     		cmp	r1, #2
 734 02ae 08BF     		it	eq
 735 02b0 1D46     		moveq	r5, r3
 736              	.L54:
 737              	.LVL78:
 738              		.loc 1 483 0
 739 02b2 2046     		mov	r0, r4
 740 02b4 FFF7FEFF 		bl	sdc_lld_set_bus_mode
 741              	.LVL79:
ARM GAS  /tmp/ccM1c4Tg.s 			page 14


 742              		.loc 1 484 0
 743 02b8 3B1D     		adds	r3, r7, #4
 744 02ba 2A46     		mov	r2, r5
 745              	.LVL80:
 746              	.L88:
 747 02bc 0621     		movs	r1, #6
 748 02be 2046     		mov	r0, r4
 749 02c0 FFF7FEFF 		bl	sdc_lld_send_cmd_short_crc
 750              	.LVL81:
 751 02c4 40B9     		cbnz	r0, .L46
 752              	.LBE110:
 753              	.LBE109:
 754              	.LBB112:
 755              	.LBB108:
 756              		.loc 1 440 0
 757 02c6 0A4B     		ldr	r3, .L91
 758 02c8 7A68     		ldr	r2, [r7, #4]
 759 02ca 1340     		ands	r3, r3, r2
 760              	.LBE108:
 761              	.LBE112:
 762              		.loc 1 726 0
 763 02cc 23B9     		cbnz	r3, .L46
 764              	.L57:
 765              		.loc 1 741 0
 766 02ce 0523     		movs	r3, #5
 767 02d0 2371     		strb	r3, [r4, #4]
 768              		.loc 1 742 0
 769 02d2 07E0     		b	.L52
 770              	.LVL82:
 771              	.L62:
 772              	.LBB113:
 773              	.LBB111:
 774              		.loc 1 473 0
 775 02d4 0E4D     		ldr	r5, .L91+32
 776 02d6 ECE7     		b	.L54
 777              	.LVL83:
 778              	.L46:
 779              	.LBE111:
 780              	.LBE113:
 781              		.loc 1 746 0
 782 02d8 2046     		mov	r0, r4
 783 02da FFF7FEFF 		bl	sdc_lld_stop_clk
 784              	.LVL84:
 785              		.loc 1 747 0
 786 02de 0223     		movs	r3, #2
 787 02e0 2371     		strb	r3, [r4, #4]
 788              		.loc 1 748 0
 789 02e2 0126     		movs	r6, #1
 790              	.L52:
 791              		.loc 1 749 0
 792 02e4 3046     		mov	r0, r6
 793 02e6 0C37     		adds	r7, r7, #12
 794              		.cfi_def_cfa_offset 28
 795 02e8 BD46     		mov	sp, r7
 796              		.cfi_def_cfa_register 13
 797              		@ sp needed
 798 02ea BDE8F083 		pop	{r4, r5, r6, r7, r8, r9, pc}
ARM GAS  /tmp/ccM1c4Tg.s 			page 15


 799              	.LVL85:
 800              	.L92:
 801 02ee 00BF     		.align	2
 802              	.L91:
 803 02f0 08E0FFFD 		.word	-33562616
 804 02f4 0080FFC0 		.word	-1056997376
 805 02f8 00001080 		.word	-2146435072
 806 02fc 0080FF50 		.word	1358921728
 807 0300 0001B903 		.word	62456064
 808 0304 F1FFFF80 		.word	-2130706447
 809 0308 0000B703 		.word	62324736
 810 030c 0002B703 		.word	62325248
 811 0310 0001B703 		.word	62324992
 812              		.cfi_endproc
 813              	.LFE340:
 814              		.size	sdcConnect, .-sdcConnect
 815              		.section	.text._sdc_wait_for_transfer_state,"ax",%progbits
 816              		.align	1
 817              		.global	_sdc_wait_for_transfer_state
 818              		.thumb
 819              		.thumb_func
 820              		.type	_sdc_wait_for_transfer_state, %function
 821              	_sdc_wait_for_transfer_state:
 822              	.LFB335:
 823              		.loc 1 503 0
 824              		.cfi_startproc
 825              		@ args = 0, pretend = 0, frame = 8
 826              		@ frame_needed = 0, uses_anonymous_args = 0
 827              	.LVL86:
 828 0000 13B5     		push	{r0, r1, r4, lr}
 829              		.cfi_def_cfa_offset 16
 830              		.cfi_offset 4, -8
 831              		.cfi_offset 14, -4
 832 0002 0446     		mov	r4, r0
 833              	.LVL87:
 834              	.L97:
 835              		.loc 1 507 0
 836 0004 01AB     		add	r3, sp, #4
 837 0006 A26B     		ldr	r2, [r4, #56]
 838 0008 0D21     		movs	r1, #13
 839 000a 2046     		mov	r0, r4
 840 000c FFF7FEFF 		bl	sdc_lld_send_cmd_short_crc
 841              	.LVL88:
 842 0010 80B9     		cbnz	r0, .L94
 843              		.loc 1 509 0
 844 0012 019B     		ldr	r3, [sp, #4]
 845              		.loc 1 508 0
 846 0014 084A     		ldr	r2, .L103
 847 0016 1A40     		ands	r2, r2, r3
 848 0018 5AB9     		cbnz	r2, .L98
 849              		.loc 1 513 0
 850 001a C3F34323 		ubfx	r3, r3, #9, #4
 851 001e 042B     		cmp	r3, #4
 852 0020 08D0     		beq	.L94
 853 0022 06D3     		bcc	.L98
 854 0024 072B     		cmp	r3, #7
 855 0026 04D8     		bhi	.L98
ARM GAS  /tmp/ccM1c4Tg.s 			page 16


 856              	.LVL89:
 857              	.LBB114:
 858              	.LBB115:
 859              		.loc 2 720 0
 860 0028 4FF47A70 		mov	r0, #1000
 861 002c FFF7FEFF 		bl	chThdSleep
 862              	.LVL90:
 863              	.LBE115:
 864              	.LBE114:
 865              		.loc 1 528 0
 866 0030 E8E7     		b	.L97
 867              	.L98:
 868              		.loc 1 510 0
 869 0032 0120     		movs	r0, #1
 870              	.L94:
 871              		.loc 1 529 0
 872 0034 02B0     		add	sp, sp, #8
 873              		.cfi_def_cfa_offset 8
 874              		@ sp needed
 875 0036 10BD     		pop	{r4, pc}
 876              	.LVL91:
 877              	.L104:
 878              		.align	2
 879              	.L103:
 880 0038 08E0FFFD 		.word	-33562616
 881              		.cfi_endproc
 882              	.LFE335:
 883              		.size	_sdc_wait_for_transfer_state, .-_sdc_wait_for_transfer_state
 884              		.section	.text.sdcDisconnect,"ax",%progbits
 885              		.align	1
 886              		.global	sdcDisconnect
 887              		.thumb
 888              		.thumb_func
 889              		.type	sdcDisconnect, %function
 890              	sdcDisconnect:
 891              	.LFB341:
 892              		.loc 1 762 0
 893              		.cfi_startproc
 894              		@ args = 0, pretend = 0, frame = 0
 895              		@ frame_needed = 0, uses_anonymous_args = 0
 896              	.LVL92:
 897 0000 70B5     		push	{r4, r5, r6, lr}
 898              		.cfi_def_cfa_offset 16
 899              		.cfi_offset 4, -16
 900              		.cfi_offset 5, -12
 901              		.cfi_offset 6, -8
 902              		.cfi_offset 14, -4
 903              	.LBB137:
 904              	.LBB138:
 905              	.LBB139:
 906              	.LBB140:
 907              	.LBB141:
 908              	.LBB142:
 909              		.file 3 "../../modules/ChibiOS/os/common/ext/ARM/CMSIS/Core/Include/cmsis_gcc.h"
 910              		.loc 3 493 0
 911 0002 2023     		movs	r3, #32
 912              	.LBE142:
ARM GAS  /tmp/ccM1c4Tg.s 			page 17


 913              	.LBE141:
 914              	.LBE140:
 915              	.LBE139:
 916              	.LBE138:
 917              	.LBE137:
 918              		.loc 1 762 0
 919 0004 0546     		mov	r5, r0
 920              	.LBB148:
 921              	.LBB147:
 922              	.LBB146:
 923              	.LBB145:
 924              	.LBB144:
 925              	.LBB143:
 926              		.loc 3 493 0
 927              		.syntax unified
 928              	@ 493 "../../modules/ChibiOS/os/common/ext/ARM/CMSIS/Core/Include/cmsis_gcc.h" 1
 929 0006 83F31188 		MSR basepri, r3
 930              	@ 0 "" 2
 931              	.LVL93:
 932              		.thumb
 933              		.syntax unified
 934              	.LBE143:
 935              	.LBE144:
 936              	.LBE145:
 937              		.file 4 "../../modules/ChibiOS/os/rt/include/chsys.h"
 938              		.loc 4 356 0
 939 000a FFF7FEFF 		bl	_stats_start_measure_crit_thd
 940              	.LVL94:
 941              	.LBE146:
 942              	.LBE147:
 943              	.LBE148:
 944              		.loc 1 769 0
 945 000e 2B79     		ldrb	r3, [r5, #4]	@ zero_extendqisi2
 946 0010 022B     		cmp	r3, #2
 947 0012 4FF00004 		mov	r4, #0
 948 0016 04D1     		bne	.L106
 949              	.LBB149:
 950              	.LBB150:
 951              	.LBB151:
 952              		.loc 4 368 0
 953 0018 FFF7FEFF 		bl	_stats_stop_measure_crit_thd
 954              	.LVL95:
 955              	.LBB152:
 956              	.LBB153:
 957              	.LBB154:
 958              		.loc 3 493 0
 959              		.syntax unified
 960              	@ 493 "../../modules/ChibiOS/os/common/ext/ARM/CMSIS/Core/Include/cmsis_gcc.h" 1
 961 001c 84F31188 		MSR basepri, r4
 962              	@ 0 "" 2
 963              	.LVL96:
 964              		.thumb
 965              		.syntax unified
 966 0020 0EE0     		b	.L107
 967              	.L106:
 968              	.LBE154:
 969              	.LBE153:
ARM GAS  /tmp/ccM1c4Tg.s 			page 18


 970              	.LBE152:
 971              	.LBE151:
 972              	.LBE150:
 973              	.LBE149:
 974              		.loc 1 773 0
 975 0022 0423     		movs	r3, #4
 976 0024 2B71     		strb	r3, [r5, #4]
 977              	.LBB155:
 978              	.LBB156:
 979              	.LBB157:
 980              		.loc 4 368 0
 981 0026 FFF7FEFF 		bl	_stats_stop_measure_crit_thd
 982              	.LVL97:
 983              	.LBB158:
 984              	.LBB159:
 985              	.LBB160:
 986              		.loc 3 493 0
 987              		.syntax unified
 988              	@ 493 "../../modules/ChibiOS/os/common/ext/ARM/CMSIS/Core/Include/cmsis_gcc.h" 1
 989 002a 84F31188 		MSR basepri, r4
 990              	@ 0 "" 2
 991              	.LVL98:
 992              		.thumb
 993              		.syntax unified
 994              	.LBE160:
 995              	.LBE159:
 996              	.LBE158:
 997              	.LBE157:
 998              	.LBE156:
 999              	.LBE155:
 1000              		.loc 1 777 0
 1001 002e 2846     		mov	r0, r5
 1002 0030 FFF7FEFF 		bl	_sdc_wait_for_transfer_state
 1003              	.LVL99:
 1004 0034 0226     		movs	r6, #2
 1005 0036 0446     		mov	r4, r0
 1006              		.loc 1 778 0
 1007 0038 2846     		mov	r0, r5
 1008              		.loc 1 784 0
 1009 003a FFF7FEFF 		bl	sdc_lld_stop_clk
 1010              	.LVL100:
 1011              		.loc 1 785 0
 1012 003e 2E71     		strb	r6, [r5, #4]
 1013              	.L107:
 1014              		.loc 1 787 0
 1015 0040 2046     		mov	r0, r4
 1016 0042 70BD     		pop	{r4, r5, r6, pc}
 1017              		.cfi_endproc
 1018              	.LFE341:
 1019              		.size	sdcDisconnect, .-sdcDisconnect
 1020              		.section	.text.sdcInit,"ax",%progbits
 1021              		.align	1
 1022              		.global	sdcInit
 1023              		.thumb
 1024              		.thumb_func
 1025              		.type	sdcInit, %function
 1026              	sdcInit:
ARM GAS  /tmp/ccM1c4Tg.s 			page 19


 1027              	.LFB336:
 1028              		.loc 1 542 0
 1029              		.cfi_startproc
 1030              		@ args = 0, pretend = 0, frame = 0
 1031              		@ frame_needed = 0, uses_anonymous_args = 0
 1032              		@ link register save eliminated.
 1033              		.loc 1 544 0
 1034 0000 FFF7FEBF 		b	sdc_lld_init
 1035              	.LVL101:
 1036              		.cfi_endproc
 1037              	.LFE336:
 1038              		.size	sdcInit, .-sdcInit
 1039              		.section	.text.sdcObjectInit,"ax",%progbits
 1040              		.align	1
 1041              		.global	sdcObjectInit
 1042              		.thumb
 1043              		.thumb_func
 1044              		.type	sdcObjectInit, %function
 1045              	sdcObjectInit:
 1046              	.LFB337:
 1047              		.loc 1 554 0
 1048              		.cfi_startproc
 1049              		@ args = 0, pretend = 0, frame = 0
 1050              		@ frame_needed = 0, uses_anonymous_args = 0
 1051              		@ link register save eliminated.
 1052              	.LVL102:
 1053              		.loc 1 556 0
 1054 0000 044B     		ldr	r3, .L111
 1055 0002 0360     		str	r3, [r0]
 1056              		.loc 1 557 0
 1057 0004 0123     		movs	r3, #1
 1058 0006 0371     		strb	r3, [r0, #4]
 1059              		.loc 1 558 0
 1060 0008 0023     		movs	r3, #0
 1061 000a 4363     		str	r3, [r0, #52]
 1062              		.loc 1 559 0
 1063 000c C362     		str	r3, [r0, #44]
 1064              		.loc 1 560 0
 1065 000e 8362     		str	r3, [r0, #40]
 1066 0010 7047     		bx	lr
 1067              	.L112:
 1068 0012 00BF     		.align	2
 1069              	.L111:
 1070 0014 00000000 		.word	.LANCHOR0
 1071              		.cfi_endproc
 1072              	.LFE337:
 1073              		.size	sdcObjectInit, .-sdcObjectInit
 1074              		.section	.text.sdcStart,"ax",%progbits
 1075              		.align	1
 1076              		.global	sdcStart
 1077              		.thumb
 1078              		.thumb_func
 1079              		.type	sdcStart, %function
 1080              	sdcStart:
 1081              	.LFB338:
 1082              		.loc 1 573 0
 1083              		.cfi_startproc
ARM GAS  /tmp/ccM1c4Tg.s 			page 20


 1084              		@ args = 0, pretend = 0, frame = 0
 1085              		@ frame_needed = 0, uses_anonymous_args = 0
 1086              	.LVL103:
 1087 0000 38B5     		push	{r3, r4, r5, lr}
 1088              		.cfi_def_cfa_offset 16
 1089              		.cfi_offset 3, -16
 1090              		.cfi_offset 4, -12
 1091              		.cfi_offset 5, -8
 1092              		.cfi_offset 14, -4
 1093              		.loc 1 573 0
 1094 0002 0446     		mov	r4, r0
 1095 0004 0D46     		mov	r5, r1
 1096              	.LBB175:
 1097              	.LBB176:
 1098              	.LBB177:
 1099              	.LBB178:
 1100              	.LBB179:
 1101              	.LBB180:
 1102              		.loc 3 493 0
 1103 0006 2023     		movs	r3, #32
 1104              		.syntax unified
 1105              	@ 493 "../../modules/ChibiOS/os/common/ext/ARM/CMSIS/Core/Include/cmsis_gcc.h" 1
 1106 0008 83F31188 		MSR basepri, r3
 1107              	@ 0 "" 2
 1108              	.LVL104:
 1109              		.thumb
 1110              		.syntax unified
 1111              	.LBE180:
 1112              	.LBE179:
 1113              	.LBE178:
 1114              		.loc 4 356 0
 1115 000c FFF7FEFF 		bl	_stats_start_measure_crit_thd
 1116              	.LVL105:
 1117              	.LBE177:
 1118              	.LBE176:
 1119              	.LBE175:
 1120              		.loc 1 581 0
 1121 0010 2046     		mov	r0, r4
 1122              		.loc 1 580 0
 1123 0012 E562     		str	r5, [r4, #44]
 1124              		.loc 1 581 0
 1125 0014 FFF7FEFF 		bl	sdc_lld_start
 1126              	.LVL106:
 1127              		.loc 1 582 0
 1128 0018 0223     		movs	r3, #2
 1129 001a 2371     		strb	r3, [r4, #4]
 1130              	.LBB181:
 1131              	.LBB182:
 1132              	.LBB183:
 1133              		.loc 4 368 0
 1134 001c FFF7FEFF 		bl	_stats_stop_measure_crit_thd
 1135              	.LVL107:
 1136              	.LBB184:
 1137              	.LBB185:
 1138              	.LBB186:
 1139              		.loc 3 493 0
 1140 0020 0023     		movs	r3, #0
ARM GAS  /tmp/ccM1c4Tg.s 			page 21


 1141              		.syntax unified
 1142              	@ 493 "../../modules/ChibiOS/os/common/ext/ARM/CMSIS/Core/Include/cmsis_gcc.h" 1
 1143 0022 83F31188 		MSR basepri, r3
 1144              	@ 0 "" 2
 1145              	.LVL108:
 1146              		.thumb
 1147              		.syntax unified
 1148 0026 38BD     		pop	{r3, r4, r5, pc}
 1149              	.LBE186:
 1150              	.LBE185:
 1151              	.LBE184:
 1152              	.LBE183:
 1153              	.LBE182:
 1154              	.LBE181:
 1155              		.cfi_endproc
 1156              	.LFE338:
 1157              		.size	sdcStart, .-sdcStart
 1158              		.section	.text.sdcStop,"ax",%progbits
 1159              		.align	1
 1160              		.global	sdcStop
 1161              		.thumb
 1162              		.thumb_func
 1163              		.type	sdcStop, %function
 1164              	sdcStop:
 1165              	.LFB339:
 1166              		.loc 1 593 0
 1167              		.cfi_startproc
 1168              		@ args = 0, pretend = 0, frame = 0
 1169              		@ frame_needed = 0, uses_anonymous_args = 0
 1170              	.LVL109:
 1171 0000 38B5     		push	{r3, r4, r5, lr}
 1172              		.cfi_def_cfa_offset 16
 1173              		.cfi_offset 3, -16
 1174              		.cfi_offset 4, -12
 1175              		.cfi_offset 5, -8
 1176              		.cfi_offset 14, -4
 1177              		.loc 1 593 0
 1178 0002 0446     		mov	r4, r0
 1179              	.LBB201:
 1180              	.LBB202:
 1181              	.LBB203:
 1182              	.LBB204:
 1183              	.LBB205:
 1184              	.LBB206:
 1185              		.loc 3 493 0
 1186 0004 2023     		movs	r3, #32
 1187              		.syntax unified
 1188              	@ 493 "../../modules/ChibiOS/os/common/ext/ARM/CMSIS/Core/Include/cmsis_gcc.h" 1
 1189 0006 83F31188 		MSR basepri, r3
 1190              	@ 0 "" 2
 1191              	.LVL110:
 1192              		.thumb
 1193              		.syntax unified
 1194              	.LBE206:
 1195              	.LBE205:
 1196              	.LBE204:
 1197              		.loc 4 356 0
ARM GAS  /tmp/ccM1c4Tg.s 			page 22


 1198 000a FFF7FEFF 		bl	_stats_start_measure_crit_thd
 1199              	.LVL111:
 1200              	.LBE203:
 1201              	.LBE202:
 1202              	.LBE201:
 1203              		.loc 1 602 0
 1204 000e 2046     		mov	r0, r4
 1205 0010 FFF7FEFF 		bl	sdc_lld_stop
 1206              	.LVL112:
 1207              		.loc 1 603 0
 1208 0014 0025     		movs	r5, #0
 1209              		.loc 1 604 0
 1210 0016 0123     		movs	r3, #1
 1211              		.loc 1 603 0
 1212 0018 E562     		str	r5, [r4, #44]
 1213              		.loc 1 604 0
 1214 001a 2371     		strb	r3, [r4, #4]
 1215              	.LBB207:
 1216              	.LBB208:
 1217              	.LBB209:
 1218              		.loc 4 368 0
 1219 001c FFF7FEFF 		bl	_stats_stop_measure_crit_thd
 1220              	.LVL113:
 1221              	.LBB210:
 1222              	.LBB211:
 1223              	.LBB212:
 1224              		.loc 3 493 0
 1225              		.syntax unified
 1226              	@ 493 "../../modules/ChibiOS/os/common/ext/ARM/CMSIS/Core/Include/cmsis_gcc.h" 1
 1227 0020 85F31188 		MSR basepri, r5
 1228              	@ 0 "" 2
 1229              	.LVL114:
 1230              		.thumb
 1231              		.syntax unified
 1232 0024 38BD     		pop	{r3, r4, r5, pc}
 1233              	.LBE212:
 1234              	.LBE211:
 1235              	.LBE210:
 1236              	.LBE209:
 1237              	.LBE208:
 1238              	.LBE207:
 1239              		.cfi_endproc
 1240              	.LFE339:
 1241              		.size	sdcStop, .-sdcStop
 1242              		.section	.text.sdcGetAndClearErrors,"ax",%progbits
 1243              		.align	1
 1244              		.global	sdcGetAndClearErrors
 1245              		.thumb
 1246              		.thumb_func
 1247              		.type	sdcGetAndClearErrors, %function
 1248              	sdcGetAndClearErrors:
 1249              	.LFB344:
 1250              		.loc 1 872 0
 1251              		.cfi_startproc
 1252              		@ args = 0, pretend = 0, frame = 0
 1253              		@ frame_needed = 0, uses_anonymous_args = 0
 1254              	.LVL115:
ARM GAS  /tmp/ccM1c4Tg.s 			page 23


 1255 0000 70B5     		push	{r4, r5, r6, lr}
 1256              		.cfi_def_cfa_offset 16
 1257              		.cfi_offset 4, -16
 1258              		.cfi_offset 5, -12
 1259              		.cfi_offset 6, -8
 1260              		.cfi_offset 14, -4
 1261              	.LBB227:
 1262              	.LBB228:
 1263              	.LBB229:
 1264              	.LBB230:
 1265              	.LBB231:
 1266              	.LBB232:
 1267              		.loc 3 493 0
 1268 0002 2023     		movs	r3, #32
 1269              	.LBE232:
 1270              	.LBE231:
 1271              	.LBE230:
 1272              	.LBE229:
 1273              	.LBE228:
 1274              	.LBE227:
 1275              		.loc 1 872 0
 1276 0004 0546     		mov	r5, r0
 1277              	.LBB240:
 1278              	.LBB238:
 1279              	.LBB236:
 1280              	.LBB235:
 1281              	.LBB234:
 1282              	.LBB233:
 1283              		.loc 3 493 0
 1284              		.syntax unified
 1285              	@ 493 "../../modules/ChibiOS/os/common/ext/ARM/CMSIS/Core/Include/cmsis_gcc.h" 1
 1286 0006 83F31188 		MSR basepri, r3
 1287              	@ 0 "" 2
 1288              	.LVL116:
 1289              		.thumb
 1290              		.syntax unified
 1291              	.LBE233:
 1292              	.LBE234:
 1293              	.LBE235:
 1294              	.LBE236:
 1295              	.LBE238:
 1296              	.LBE240:
 1297              		.loc 1 880 0
 1298 000a 0024     		movs	r4, #0
 1299              	.LBB241:
 1300              	.LBB239:
 1301              	.LBB237:
 1302              		.loc 4 356 0
 1303 000c FFF7FEFF 		bl	_stats_start_measure_crit_thd
 1304              	.LVL117:
 1305              	.LBE237:
 1306              	.LBE239:
 1307              	.LBE241:
 1308              		.loc 1 879 0
 1309 0010 6E6B     		ldr	r6, [r5, #52]
 1310              	.LVL118:
 1311              		.loc 1 880 0
ARM GAS  /tmp/ccM1c4Tg.s 			page 24


 1312 0012 6C63     		str	r4, [r5, #52]
 1313              	.LBB242:
 1314              	.LBB243:
 1315              	.LBB244:
 1316              		.loc 4 368 0
 1317 0014 FFF7FEFF 		bl	_stats_stop_measure_crit_thd
 1318              	.LVL119:
 1319              	.LBB245:
 1320              	.LBB246:
 1321              	.LBB247:
 1322              		.loc 3 493 0
 1323              		.syntax unified
 1324              	@ 493 "../../modules/ChibiOS/os/common/ext/ARM/CMSIS/Core/Include/cmsis_gcc.h" 1
 1325 0018 84F31188 		MSR basepri, r4
 1326              	@ 0 "" 2
 1327              	.LVL120:
 1328              		.thumb
 1329              		.syntax unified
 1330              	.LBE247:
 1331              	.LBE246:
 1332              	.LBE245:
 1333              	.LBE244:
 1334              	.LBE243:
 1335              	.LBE242:
 1336              		.loc 1 883 0
 1337 001c 3046     		mov	r0, r6
 1338 001e 70BD     		pop	{r4, r5, r6, pc}
 1339              		.cfi_endproc
 1340              	.LFE344:
 1341              		.size	sdcGetAndClearErrors, .-sdcGetAndClearErrors
 1342              		.section	.text.sdcErase,"ax",%progbits
 1343              		.align	1
 1344              		.global	sdcErase
 1345              		.thumb
 1346              		.thumb_func
 1347              		.type	sdcErase, %function
 1348              	sdcErase:
 1349              	.LFB347:
 1350              		.loc 1 954 0
 1351              		.cfi_startproc
 1352              		@ args = 0, pretend = 0, frame = 8
 1353              		@ frame_needed = 0, uses_anonymous_args = 0
 1354              	.LVL121:
 1355              		.loc 1 961 0
 1356 0000 0723     		movs	r3, #7
 1357              		.loc 1 954 0
 1358 0002 73B5     		push	{r0, r1, r4, r5, r6, lr}
 1359              		.cfi_def_cfa_offset 24
 1360              		.cfi_offset 4, -16
 1361              		.cfi_offset 5, -12
 1362              		.cfi_offset 6, -8
 1363              		.cfi_offset 14, -4
 1364              		.loc 1 961 0
 1365 0004 0371     		strb	r3, [r0, #4]
 1366              		.loc 1 964 0
 1367 0006 036B     		ldr	r3, [r0, #48]
 1368 0008 DB06     		lsls	r3, r3, #27
ARM GAS  /tmp/ccM1c4Tg.s 			page 25


 1369              		.loc 1 954 0
 1370 000a 0E46     		mov	r6, r1
 1371 000c 1546     		mov	r5, r2
 1372              		.loc 1 965 0
 1373 000e 44BF     		itt	mi
 1374 0010 4E02     		lslmi	r6, r1, #9
 1375              	.LVL122:
 1376              		.loc 1 966 0
 1377 0012 5502     		lslmi	r5, r2, #9
 1378              	.LVL123:
 1379              		.loc 1 954 0
 1380 0014 0446     		mov	r4, r0
 1381              		.loc 1 969 0
 1382 0016 FFF7FEFF 		bl	_sdc_wait_for_transfer_state
 1383              	.LVL124:
 1384 001a 30BB     		cbnz	r0, .L118
 1385              		.loc 1 973 0
 1386 001c 01AB     		add	r3, sp, #4
 1387 001e 3246     		mov	r2, r6
 1388 0020 2021     		movs	r1, #32
 1389 0022 2046     		mov	r0, r4
 1390 0024 FFF7FEFF 		bl	sdc_lld_send_cmd_short_crc
 1391              	.LVL125:
 1392 0028 F8B9     		cbnz	r0, .L118
 1393              		.loc 1 974 0
 1394 002a 124B     		ldr	r3, .L123
 1395 002c 019A     		ldr	r2, [sp, #4]
 1396 002e 1340     		ands	r3, r3, r2
 1397 0030 DBB9     		cbnz	r3, .L118
 1398              		.loc 1 979 0
 1399 0032 01AB     		add	r3, sp, #4
 1400 0034 2A46     		mov	r2, r5
 1401 0036 2121     		movs	r1, #33
 1402 0038 2046     		mov	r0, r4
 1403 003a FFF7FEFF 		bl	sdc_lld_send_cmd_short_crc
 1404              	.LVL126:
 1405 003e A0B9     		cbnz	r0, .L118
 1406              		.loc 1 980 0
 1407 0040 0C4A     		ldr	r2, .L123
 1408 0042 019B     		ldr	r3, [sp, #4]
 1409 0044 1A40     		ands	r2, r2, r3
 1410 0046 82B9     		cbnz	r2, .L118
 1411              		.loc 1 985 0
 1412 0048 01AB     		add	r3, sp, #4
 1413 004a 2621     		movs	r1, #38
 1414 004c 2046     		mov	r0, r4
 1415 004e FFF7FEFF 		bl	sdc_lld_send_cmd_short_crc
 1416              	.LVL127:
 1417 0052 50B9     		cbnz	r0, .L118
 1418              		.loc 1 986 0
 1419 0054 074B     		ldr	r3, .L123
 1420 0056 019A     		ldr	r2, [sp, #4]
 1421 0058 1340     		ands	r3, r3, r2
 1422 005a 33B9     		cbnz	r3, .L118
 1423              		.loc 1 995 0
 1424 005c 2046     		mov	r0, r4
 1425 005e FFF7FEFF 		bl	_sdc_wait_for_transfer_state
ARM GAS  /tmp/ccM1c4Tg.s 			page 26


 1426              	.LVL128:
 1427 0062 10B9     		cbnz	r0, .L118
 1428              		.loc 1 999 0
 1429 0064 0523     		movs	r3, #5
 1430 0066 2371     		strb	r3, [r4, #4]
 1431              		.loc 1 1000 0
 1432 0068 02E0     		b	.L119
 1433              	.L118:
 1434              	.LDL1:
 1435              		.loc 1 1003 0
 1436 006a 0523     		movs	r3, #5
 1437 006c 2371     		strb	r3, [r4, #4]
 1438              		.loc 1 1004 0
 1439 006e 0120     		movs	r0, #1
 1440              	.L119:
 1441              		.loc 1 1005 0
 1442 0070 02B0     		add	sp, sp, #8
 1443              		.cfi_def_cfa_offset 16
 1444              		@ sp needed
 1445 0072 70BD     		pop	{r4, r5, r6, pc}
 1446              	.LVL129:
 1447              	.L124:
 1448              		.align	2
 1449              	.L123:
 1450 0074 08E0FFFD 		.word	-33562616
 1451              		.cfi_endproc
 1452              	.LFE347:
 1453              		.size	sdcErase, .-sdcErase
 1454              		.section	.rodata.sdc_vmt,"a",%progbits
 1455              		.align	2
 1456              		.set	.LANCHOR0,. + 0
 1457              		.type	sdc_vmt, %object
 1458              		.size	sdc_vmt, 36
 1459              	sdc_vmt:
 1460 0000 00000000 		.word	0
 1461 0004 00000000 		.word	sdc_lld_is_card_inserted
 1462 0008 00000000 		.word	sdc_lld_is_write_protected
 1463 000c 00000000 		.word	sdcConnect
 1464 0010 00000000 		.word	sdcDisconnect
 1465 0014 00000000 		.word	sdcRead
 1466 0018 00000000 		.word	sdcWrite
 1467 001c 00000000 		.word	sdcSync
 1468 0020 00000000 		.word	sdcGetInfo
 1469              		.text
 1470              	.Letext0:
 1471              		.file 5 "/usr/lib/gcc/arm-none-eabi/5.4.1/include/stddef.h"
 1472              		.file 6 "/usr/include/newlib/machine/_default_types.h"
 1473              		.file 7 "/usr/include/newlib/sys/_stdint.h"
 1474              		.file 8 "../../modules/ChibiOS/os/common/ports/ARMCMx/compilers/GCC/chtypes.h"
 1475              		.file 9 "../../modules/ChibiOS/os/rt/include/chsystypes.h"
 1476              		.file 10 "../../modules/ChibiOS/os/rt/include/chschd.h"
 1477              		.file 11 "../../modules/ChibiOS/os/rt/include/chtime.h"
 1478              		.file 12 "../../modules/ChibiOS/os/common/ext/ST/STM32F4xx/stm32f427xx.h"
 1479              		.file 13 "../../modules/ChibiOS/os/common/ports/ARMCMx/chcore.h"
 1480              		.file 14 "../../modules/ChibiOS/os/common/ports/ARMCMx/chcore_v7m.h"
 1481              		.file 15 "../../modules/ChibiOS/os/rt/include/chtm.h"
 1482              		.file 16 "../../modules/ChibiOS/os/rt/include/chstats.h"
ARM GAS  /tmp/ccM1c4Tg.s 			page 27


 1483              		.file 17 "../../modules/ChibiOS/os/rt/include/chsem.h"
 1484              		.file 18 "../../modules/ChibiOS/os/rt/include/chmtx.h"
 1485              		.file 19 "../../modules/ChibiOS/os/hal/ports/STM32/LLD/DMAv2/stm32_dma.h"
 1486              		.file 20 "../../modules/ChibiOS/os/hal/include/hal_ioblock.h"
 1487              		.file 21 "../../modules/ChibiOS/os/hal/include/hal_sdc.h"
 1488              		.file 22 "../../modules/ChibiOS/os/hal/ports/STM32/LLD/SDIOv1/hal_sdc_lld.h"
 1489              		.file 23 "../../modules/ChibiOS/os/rt/include/chthreads.h"
 1490              		.file 24 "../../modules/ChibiOS/os/hal/include/hal_mmcsd.h"
 1491              		.file 25 "../../modules/ChibiOS/os/common/ext/ARM/CMSIS/Core/Include/core_cm4.h"