ARM GAS  /tmp/ccByUHlX.s 			page 1


   1              		.syntax unified
   2              		.cpu cortex-m4
   3              		.eabi_attribute 27, 1
   4              		.eabi_attribute 28, 1
   5              		.fpu fpv4-sp-d16
   6              		.eabi_attribute 20, 1
   7              		.eabi_attribute 21, 1
   8              		.eabi_attribute 23, 3
   9              		.eabi_attribute 24, 1
  10              		.eabi_attribute 25, 1
  11              		.eabi_attribute 26, 1
  12              		.eabi_attribute 30, 4
  13              		.eabi_attribute 34, 1
  14              		.eabi_attribute 18, 4
  15              		.thumb
  16              		.syntax unified
  17              		.file	"hrt.c"
  18              		.text
  19              	.Ltext0:
  20              		.cfi_sections	.debug_frame
  21              		.section	.text.get_systime_us32,"ax",%progbits
  22              		.align	1
  23              		.thumb
  24              		.thumb_func
  25              		.type	get_systime_us32, %function
  26              	get_systime_us32:
  27              	.LFB323:
  28              		.file 1 "../../libraries/AP_HAL_ChibiOS/hwdef/common/hrt.c"
  29              		.loc 1 51 0
  30              		.cfi_startproc
  31              		@ args = 0, pretend = 0, frame = 0
  32              		@ frame_needed = 0, uses_anonymous_args = 0
  33              	.LBB13:
  34              	.LBB14:
  35              	.LBB15:
  36              	.LBB16:
  37              		.file 2 "../../modules/ChibiOS/os/hal/ports/STM32/LLD/TIMv1/hal_st_lld.h"
  38              		.loc 2 147 0
  39 0000 0C4B     		ldr	r3, .L4
  40 0002 586A     		ldr	r0, [r3, #36]
  41              	.LBE16:
  42              	.LBE15:
  43              	.LBE14:
  44              	.LBE13:
  45              		.loc 1 56 0
  46 0004 0C4B     		ldr	r3, .L4+4
  47 0006 1A68     		ldr	r2, [r3]
  48 0008 8242     		cmp	r2, r0
  49              		.loc 1 51 0
  50 000a 30B5     		push	{r4, r5, lr}
  51              		.cfi_def_cfa_offset 12
  52              		.cfi_offset 4, -12
  53              		.cfi_offset 5, -8
  54              		.cfi_offset 14, -4
  55 000c 1A46     		mov	r2, r3
  56              		.loc 1 56 0
  57 000e 0FD9     		bls	.L2
ARM GAS  /tmp/ccByUHlX.s 			page 2


  58              		.loc 1 57 0
  59 0010 0A4B     		ldr	r3, .L4+8
  60              		.loc 1 58 0
  61 0012 0B49     		ldr	r1, .L4+12
  62              		.loc 1 57 0
  63 0014 D3E90045 		ldrd	r4, [r3]
  64 0018 14F1FF34 		adds	r4, r4, #-1
  65 001c 45F10005 		adc	r5, r5, #0
  66 0020 C3E90045 		strd	r4, [r3]
  67              		.loc 1 58 0
  68 0024 0B68     		ldr	r3, [r1]
  69 0026 03F58303 		add	r3, r3, #4292608
  70 002a 03F63713 		addw	r3, r3, #2359
  71 002e 0B60     		str	r3, [r1]
  72              	.L2:
  73              		.loc 1 60 0
  74 0030 1060     		str	r0, [r2]
  75              		.loc 1 62 0
  76 0032 30BD     		pop	{r4, r5, pc}
  77              	.L5:
  78              		.align	2
  79              	.L4:
  80 0034 000C0040 		.word	1073744896
  81 0038 00000000 		.word	.LANCHOR0
  82 003c 00000000 		.word	.LANCHOR1
  83 0040 00000000 		.word	.LANCHOR2
  84              		.cfi_endproc
  85              	.LFE323:
  86              		.size	get_systime_us32, .-get_systime_us32
  87              		.section	.text.hrt_micros64,"ax",%progbits
  88              		.align	1
  89              		.global	hrt_micros64
  90              		.thumb
  91              		.thumb_func
  92              		.type	hrt_micros64, %function
  93              	hrt_micros64:
  94              	.LFB324:
  95              		.loc 1 73 0
  96              		.cfi_startproc
  97              		@ args = 0, pretend = 0, frame = 0
  98              		@ frame_needed = 0, uses_anonymous_args = 0
  99 0000 70B5     		push	{r4, r5, r6, lr}
 100              		.cfi_def_cfa_offset 16
 101              		.cfi_offset 4, -16
 102              		.cfi_offset 5, -12
 103              		.cfi_offset 6, -8
 104              		.cfi_offset 14, -4
 105              		.loc 1 74 0
 106 0002 FFF7FEFF 		bl	chSysGetStatusAndLockX
 107              	.LVL0:
 108 0006 0646     		mov	r6, r0
 109              	.LVL1:
 110              		.loc 1 75 0
 111 0008 FFF7FEFF 		bl	get_systime_us32
 112              	.LVL2:
 113              		.loc 1 76 0
 114 000c 054B     		ldr	r3, .L7
ARM GAS  /tmp/ccByUHlX.s 			page 3


 115 000e D3E90045 		ldrd	r4, [r3]
 116 0012 2418     		adds	r4, r4, r0
 117 0014 45F10005 		adc	r5, r5, #0
 118              	.LVL3:
 119              		.loc 1 77 0
 120 0018 3046     		mov	r0, r6
 121              	.LVL4:
 122 001a FFF7FEFF 		bl	chSysRestoreStatusX
 123              	.LVL5:
 124              		.loc 1 79 0
 125 001e 2046     		mov	r0, r4
 126 0020 2946     		mov	r1, r5
 127 0022 70BD     		pop	{r4, r5, r6, pc}
 128              	.LVL6:
 129              	.L8:
 130              		.align	2
 131              	.L7:
 132 0024 00000000 		.word	.LANCHOR1
 133              		.cfi_endproc
 134              	.LFE324:
 135              		.size	hrt_micros64, .-hrt_micros64
 136              		.section	.text.hrt_micros32,"ax",%progbits
 137              		.align	1
 138              		.global	hrt_micros32
 139              		.thumb
 140              		.thumb_func
 141              		.type	hrt_micros32, %function
 142              	hrt_micros32:
 143              	.LFB325:
 144              		.loc 1 82 0
 145              		.cfi_startproc
 146              		@ args = 0, pretend = 0, frame = 0
 147              		@ frame_needed = 0, uses_anonymous_args = 0
 148 0000 38B5     		push	{r3, r4, r5, lr}
 149              		.cfi_def_cfa_offset 16
 150              		.cfi_offset 3, -16
 151              		.cfi_offset 4, -12
 152              		.cfi_offset 5, -8
 153              		.cfi_offset 14, -4
 154              		.loc 1 83 0
 155 0002 FFF7FEFF 		bl	chSysGetStatusAndLockX
 156              	.LVL7:
 157 0006 0546     		mov	r5, r0
 158              	.LVL8:
 159              		.loc 1 84 0
 160 0008 FFF7FEFF 		bl	get_systime_us32
 161              	.LVL9:
 162 000c 0446     		mov	r4, r0
 163              	.LVL10:
 164              		.loc 1 85 0
 165 000e 2846     		mov	r0, r5
 166              	.LVL11:
 167 0010 FFF7FEFF 		bl	chSysRestoreStatusX
 168              	.LVL12:
 169              		.loc 1 87 0
 170 0014 2046     		mov	r0, r4
 171 0016 38BD     		pop	{r3, r4, r5, pc}
ARM GAS  /tmp/ccByUHlX.s 			page 4


 172              		.cfi_endproc
 173              	.LFE325:
 174              		.size	hrt_micros32, .-hrt_micros32
 175              		.section	.text.hrt_millis32,"ax",%progbits
 176              		.align	1
 177              		.global	hrt_millis32
 178              		.thumb
 179              		.thumb_func
 180              		.type	hrt_millis32, %function
 181              	hrt_millis32:
 182              	.LFB326:
 183              		.loc 1 90 0
 184              		.cfi_startproc
 185              		@ args = 0, pretend = 0, frame = 0
 186              		@ frame_needed = 0, uses_anonymous_args = 0
 187 0000 38B5     		push	{r3, r4, r5, lr}
 188              		.cfi_def_cfa_offset 16
 189              		.cfi_offset 3, -16
 190              		.cfi_offset 4, -12
 191              		.cfi_offset 5, -8
 192              		.cfi_offset 14, -4
 193              		.loc 1 91 0
 194 0002 FFF7FEFF 		bl	chSysGetStatusAndLockX
 195              	.LVL13:
 196 0006 0546     		mov	r5, r0
 197              	.LVL14:
 198              		.loc 1 92 0
 199 0008 FFF7FEFF 		bl	get_systime_us32
 200              	.LVL15:
 201              		.loc 1 93 0
 202 000c 054B     		ldr	r3, .L11
 203 000e 1B68     		ldr	r3, [r3]
 204 0010 4FF47A74 		mov	r4, #1000
 205 0014 B0FBF4F0 		udiv	r0, r0, r4
 206              	.LVL16:
 207 0018 C418     		adds	r4, r0, r3
 208              	.LVL17:
 209              		.loc 1 94 0
 210 001a 2846     		mov	r0, r5
 211 001c FFF7FEFF 		bl	chSysRestoreStatusX
 212              	.LVL18:
 213              		.loc 1 96 0
 214 0020 2046     		mov	r0, r4
 215 0022 38BD     		pop	{r3, r4, r5, pc}
 216              	.LVL19:
 217              	.L12:
 218              		.align	2
 219              	.L11:
 220 0024 00000000 		.word	.LANCHOR2
 221              		.cfi_endproc
 222              	.LFE326:
 223              		.size	hrt_millis32, .-hrt_millis32
 224              		.section	.bss.timer_base_us64,"aw",%nobits
 225              		.align	3
 226              		.set	.LANCHOR1,. + 0
 227              		.type	timer_base_us64, %object
 228              		.size	timer_base_us64, 8
ARM GAS  /tmp/ccByUHlX.s 			page 5


 229              	timer_base_us64:
 230 0000 00000000 		.space	8
 230      00000000 
 231              		.section	.bss.last_systime,"aw",%nobits
 232              		.align	2
 233              		.set	.LANCHOR0,. + 0
 234              		.type	last_systime, %object
 235              		.size	last_systime, 4
 236              	last_systime:
 237 0000 00000000 		.space	4
 238              		.section	.bss.timer_base_ms,"aw",%nobits
 239              		.align	2
 240              		.set	.LANCHOR2,. + 0
 241              		.type	timer_base_ms, %object
 242              		.size	timer_base_ms, 4
 243              	timer_base_ms:
 244 0000 00000000 		.space	4
 245              		.text
 246              	.Letext0:
 247              		.file 3 "/usr/lib/gcc/arm-none-eabi/5.4.1/include/stddef.h"
 248              		.file 4 "/usr/include/newlib/machine/_default_types.h"
 249              		.file 5 "/usr/include/newlib/sys/_stdint.h"
 250              		.file 6 "../../modules/ChibiOS/os/common/ports/ARMCMx/compilers/GCC/chtypes.h"
 251              		.file 7 "../../modules/ChibiOS/os/rt/include/chsystypes.h"
 252              		.file 8 "../../modules/ChibiOS/os/rt/include/chschd.h"
 253              		.file 9 "../../modules/ChibiOS/os/rt/include/chtime.h"
 254              		.file 10 "../../modules/ChibiOS/os/common/ports/ARMCMx/chcore.h"
 255              		.file 11 "../../modules/ChibiOS/os/common/ports/ARMCMx/chcore_v7m.h"
 256              		.file 12 "../../modules/ChibiOS/os/hal/ports/STM32/LLD/TIMv1/stm32_tim.h"
 257              		.file 13 "../../modules/ChibiOS/os/rt/include/chtm.h"
 258              		.file 14 "../../modules/ChibiOS/os/rt/include/chstats.h"
 259              		.file 15 "../../modules/ChibiOS/os/rt/include/chsem.h"
 260              		.file 16 "../../modules/ChibiOS/os/rt/include/chmtx.h"
 261              		.file 17 "../../modules/ChibiOS/os/common/ports/ARMCMx/chcore_timer.h"
 262              		.file 18 "../../modules/ChibiOS/os/rt/include/chvt.h"
 263              		.file 19 "../../modules/ChibiOS/os/rt/include/chsys.h"
 264              		.file 20 "../../modules/ChibiOS/os/common/ext/ARM/CMSIS/Core/Include/core_cm4.h"