ARM GAS  /tmp/ccXbCD6P.s 			page 1


   1              		.syntax unified
   2              		.cpu cortex-m4
   3              		.eabi_attribute 27, 1
   4              		.eabi_attribute 28, 1
   5              		.fpu fpv4-sp-d16
   6              		.eabi_attribute 20, 1
   7              		.eabi_attribute 21, 1
   8              		.eabi_attribute 23, 3
   9              		.eabi_attribute 24, 1
  10              		.eabi_attribute 25, 1
  11              		.eabi_attribute 26, 1
  12              		.eabi_attribute 30, 4
  13              		.eabi_attribute 34, 1
  14              		.eabi_attribute 18, 4
  15              		.thumb
  16              		.syntax unified
  17              		.file	"malloc.c"
  18              		.text
  19              	.Ltext0:
  20              		.cfi_sections	.debug_frame
  21              		.section	.text.malloc_flags,"ax",%progbits
  22              		.align	1
  23              		.thumb
  24              		.thumb_func
  25              		.type	malloc_flags, %function
  26              	malloc_flags:
  27              	.LFB324:
  28              		.file 1 "../../libraries/AP_HAL_ChibiOS/hwdef/common/malloc.c"
  29              		.loc 1 91 0
  30              		.cfi_startproc
  31              		@ args = 0, pretend = 0, frame = 0
  32              		@ frame_needed = 0, uses_anonymous_args = 0
  33              	.LVL0:
  34 0000 70B5     		push	{r4, r5, r6, lr}
  35              		.cfi_def_cfa_offset 16
  36              		.cfi_offset 4, -16
  37              		.cfi_offset 5, -12
  38              		.cfi_offset 6, -8
  39              		.cfi_offset 14, -4
  40              		.loc 1 92 0
  41 0002 0546     		mov	r5, r0
  42 0004 B0B3     		cbz	r0, .L10
  43              	.LVL1:
  44              		.loc 1 100 0
  45 0006 11F00506 		ands	r6, r1, #5
  46 000a 05D0     		beq	.L3
  47              		.loc 1 102 0
  48 000c 0730     		adds	r0, r0, #7
  49              	.LVL2:
  50              		.loc 1 107 0
  51 000e 0129     		cmp	r1, #1
  52              		.loc 1 102 0
  53 0010 20F00705 		bic	r5, r0, #7
  54              	.LVL3:
  55              		.loc 1 107 0
  56 0014 1ED1     		bne	.L5
  57 0016 01E0     		b	.L4
ARM GAS  /tmp/ccXbCD6P.s 			page 2


  58              	.LVL4:
  59              	.L3:
  60 0018 0129     		cmp	r1, #1
  61 001a 07D8     		bhi	.L6
  62              	.LVL5:
  63              	.L4:
  64              		.loc 1 109 0
  65 001c 0822     		movs	r2, #8
  66 001e 2946     		mov	r1, r5
  67              	.LVL6:
  68 0020 0020     		movs	r0, #0
  69 0022 FFF7FEFF 		bl	chHeapAllocAligned
  70              	.LVL7:
  71              		.loc 1 110 0
  72 0026 0446     		mov	r4, r0
  73 0028 F0B9     		cbnz	r0, .L7
  74              	.LVL8:
  75              		.loc 1 121 0 discriminator 1
  76 002a 9EB9     		cbnz	r6, .L5
  77              	.LVL9:
  78              	.L6:
  79              		.loc 1 129 0
  80 002c 0822     		movs	r2, #8
  81 002e 2946     		mov	r1, r5
  82 0030 1248     		ldr	r0, .L20
  83 0032 FFF7FEFF 		bl	chHeapAllocAligned
  84              	.LVL10:
  85              		.loc 1 130 0
  86 0036 0446     		mov	r4, r0
  87 0038 B0B9     		cbnz	r0, .L7
  88              		.loc 1 138 0
  89 003a 0822     		movs	r2, #8
  90 003c 2946     		mov	r1, r5
  91 003e 0F48     		ldr	r0, .L20
  92              	.LVL11:
  93 0040 FFF7FEFF 		bl	chHeapAllocAligned
  94              	.LVL12:
  95              		.loc 1 139 0
  96 0044 0446     		mov	r4, r0
  97 0046 78B9     		cbnz	r0, .L7
  98              	.LVL13:
  99              		.loc 1 144 0
 100 0048 0822     		movs	r2, #8
 101 004a 2946     		mov	r1, r5
 102 004c FFF7FEFF 		bl	chHeapAllocAligned
 103              	.LVL14:
 104              		.loc 1 145 0
 105 0050 0446     		mov	r4, r0
 106 0052 48B9     		cbnz	r0, .L7
 107              	.LVL15:
 108              	.L5:
 109              		.loc 1 152 0
 110 0054 0822     		movs	r2, #8
 111 0056 2946     		mov	r1, r5
 112 0058 0948     		ldr	r0, .L20+4
 113 005a FFF7FEFF 		bl	chHeapAllocAligned
 114              	.LVL16:
ARM GAS  /tmp/ccXbCD6P.s 			page 3


 115              		.loc 1 153 0
 116 005e 0446     		mov	r4, r0
 117 0060 48B1     		cbz	r0, .L11
 118              		.loc 1 154 0
 119 0062 2A46     		mov	r2, r5
 120 0064 0021     		movs	r1, #0
 121 0066 02E0     		b	.L18
 122              	.L7:
 123              		.loc 1 163 0
 124 0068 2A46     		mov	r2, r5
 125 006a 0021     		movs	r1, #0
 126 006c 2046     		mov	r0, r4
 127              	.LVL17:
 128              	.L18:
 129 006e FFF7FEFF 		bl	memset
 130              	.LVL18:
 131 0072 00E0     		b	.L11
 132              	.LVL19:
 133              	.L10:
 134 0074 70BD     		pop	{r4, r5, r6, pc}
 135              	.LVL20:
 136              	.L11:
 137              		.loc 1 160 0
 138 0076 2046     		mov	r0, r4
 139 0078 70BD     		pop	{r4, r5, r6, pc}
 140              	.LVL21:
 141              	.L21:
 142 007a 00BF     		.align	2
 143              	.L20:
 144 007c 1C000000 		.word	.LANCHOR0+28
 145 0080 00000000 		.word	.LANCHOR1
 146              		.cfi_endproc
 147              	.LFE324:
 148              		.size	malloc_flags, .-malloc_flags
 149              		.section	.text.malloc,"ax",%progbits
 150              		.align	1
 151              		.global	malloc
 152              		.thumb
 153              		.thumb_func
 154              		.type	malloc, %function
 155              	malloc:
 156              	.LFB325:
 157              		.loc 1 170 0
 158              		.cfi_startproc
 159              		@ args = 0, pretend = 0, frame = 0
 160              		@ frame_needed = 0, uses_anonymous_args = 0
 161              		@ link register save eliminated.
 162              	.LVL22:
 163              		.loc 1 171 0
 164 0000 0021     		movs	r1, #0
 165 0002 FFF7FEBF 		b	malloc_flags
 166              	.LVL23:
 167              		.cfi_endproc
 168              	.LFE325:
 169              		.size	malloc, .-malloc
 170              		.section	.text.malloc_sdcard_dma,"ax",%progbits
 171              		.align	1
ARM GAS  /tmp/ccXbCD6P.s 			page 4


 172              		.global	malloc_sdcard_dma
 173              		.thumb
 174              		.thumb_func
 175              		.type	malloc_sdcard_dma, %function
 176              	malloc_sdcard_dma:
 177              	.LFB327:
 178              		.loc 1 187 0
 179              		.cfi_startproc
 180              		@ args = 0, pretend = 0, frame = 0
 181              		@ frame_needed = 0, uses_anonymous_args = 0
 182              		@ link register save eliminated.
 183              	.LVL24:
 184              		.loc 1 191 0
 185 0000 0121     		movs	r1, #1
 186 0002 FFF7FEBF 		b	malloc_flags
 187              	.LVL25:
 188              		.cfi_endproc
 189              	.LFE327:
 190              		.size	malloc_sdcard_dma, .-malloc_sdcard_dma
 191              		.section	.text.malloc_init,"ax",%progbits
 192              		.align	1
 193              		.global	malloc_init
 194              		.thumb
 195              		.thumb_func
 196              		.type	malloc_init, %function
 197              	malloc_init:
 198              	.LFB323:
 199              		.loc 1 73 0
 200              		.cfi_startproc
 201              		@ args = 0, pretend = 0, frame = 0
 202              		@ frame_needed = 0, uses_anonymous_args = 0
 203              	.LVL26:
 204 0000 08B5     		push	{r3, lr}
 205              		.cfi_def_cfa_offset 8
 206              		.cfi_offset 3, -8
 207              		.cfi_offset 14, -4
 208              		.loc 1 76 0
 209 0002 4FF48032 		mov	r2, #65536
 210 0006 4FF08051 		mov	r1, #268435456
 211 000a 0748     		ldr	r0, .L25
 212 000c FFF7FEFF 		bl	chHeapObjectInit
 213              	.LVL27:
 214              		.loc 1 84 0
 215 0010 4FF48050 		mov	r0, #4096
 216 0014 FFF7FEFF 		bl	malloc_sdcard_dma
 217              	.LVL28:
 218              		.loc 1 86 0
 219 0018 4FF48052 		mov	r2, #4096
 220 001c 0146     		mov	r1, r0
 221              		.loc 1 88 0
 222 001e BDE80840 		pop	{r3, lr}
 223              		.cfi_restore 14
 224              		.cfi_restore 3
 225              		.cfi_def_cfa_offset 0
 226              		.loc 1 86 0
 227 0022 0248     		ldr	r0, .L25+4
 228              	.LVL29:
ARM GAS  /tmp/ccXbCD6P.s 			page 5


 229 0024 FFF7FEBF 		b	chHeapObjectInit
 230              	.LVL30:
 231              	.L26:
 232              		.align	2
 233              	.L25:
 234 0028 1C000000 		.word	.LANCHOR0+28
 235 002c 00000000 		.word	.LANCHOR1
 236              		.cfi_endproc
 237              	.LFE323:
 238              		.size	malloc_init, .-malloc_init
 239              		.section	.text.malloc_dma,"ax",%progbits
 240              		.align	1
 241              		.global	malloc_dma
 242              		.thumb
 243              		.thumb_func
 244              		.type	malloc_dma, %function
 245              	malloc_dma:
 246              	.LFB335:
 247              		.cfi_startproc
 248              		@ args = 0, pretend = 0, frame = 0
 249              		@ frame_needed = 0, uses_anonymous_args = 0
 250              		@ link register save eliminated.
 251 0000 FFF7FEBF 		b	malloc_sdcard_dma
 252              		.cfi_endproc
 253              	.LFE335:
 254              		.size	malloc_dma, .-malloc_dma
 255              		.section	.text.malloc_fastmem,"ax",%progbits
 256              		.align	1
 257              		.global	malloc_fastmem
 258              		.thumb
 259              		.thumb_func
 260              		.type	malloc_fastmem, %function
 261              	malloc_fastmem:
 262              	.LFB328:
 263              		.loc 1 199 0
 264              		.cfi_startproc
 265              		@ args = 0, pretend = 0, frame = 0
 266              		@ frame_needed = 0, uses_anonymous_args = 0
 267              		@ link register save eliminated.
 268              	.LVL31:
 269              		.loc 1 200 0
 270 0000 0221     		movs	r1, #2
 271 0002 FFF7FEBF 		b	malloc_flags
 272              	.LVL32:
 273              		.cfi_endproc
 274              	.LFE328:
 275              		.size	malloc_fastmem, .-malloc_fastmem
 276              		.section	.text.calloc,"ax",%progbits
 277              		.align	1
 278              		.global	calloc
 279              		.thumb
 280              		.thumb_func
 281              		.type	calloc, %function
 282              	calloc:
 283              	.LFB329:
 284              		.loc 1 204 0
 285              		.cfi_startproc
ARM GAS  /tmp/ccXbCD6P.s 			page 6


 286              		@ args = 0, pretend = 0, frame = 0
 287              		@ frame_needed = 0, uses_anonymous_args = 0
 288              		@ link register save eliminated.
 289              	.LVL33:
 290              		.loc 1 205 0
 291 0000 4843     		muls	r0, r1, r0
 292              	.LVL34:
 293 0002 FFF7FEBF 		b	malloc
 294              	.LVL35:
 295              		.cfi_endproc
 296              	.LFE329:
 297              		.size	calloc, .-calloc
 298              		.section	.text.free,"ax",%progbits
 299              		.align	1
 300              		.global	free
 301              		.thumb
 302              		.thumb_func
 303              		.type	free, %function
 304              	free:
 305              	.LFB330:
 306              		.loc 1 209 0
 307              		.cfi_startproc
 308              		@ args = 0, pretend = 0, frame = 0
 309              		@ frame_needed = 0, uses_anonymous_args = 0
 310              		@ link register save eliminated.
 311              	.LVL36:
 312              		.loc 1 210 0
 313 0000 08B1     		cbz	r0, .L30
 314              		.loc 1 211 0
 315 0002 FFF7FEBF 		b	chHeapFree
 316              	.LVL37:
 317              	.L30:
 318 0006 7047     		bx	lr
 319              		.cfi_endproc
 320              	.LFE330:
 321              		.size	free, .-free
 322              		.section	.text.mem_available,"ax",%progbits
 323              		.align	1
 324              		.global	mem_available
 325              		.thumb
 326              		.thumb_func
 327              		.type	mem_available, %function
 328              	mem_available:
 329              	.LFB331:
 330              		.loc 1 219 0
 331              		.cfi_startproc
 332              		@ args = 0, pretend = 0, frame = 8
 333              		@ frame_needed = 0, uses_anonymous_args = 0
 334 0000 37B5     		push	{r0, r1, r2, r4, r5, lr}
 335              		.cfi_def_cfa_offset 24
 336              		.cfi_offset 4, -12
 337              		.cfi_offset 5, -8
 338              		.cfi_offset 14, -4
 339              		.loc 1 220 0
 340 0002 02A9     		add	r1, sp, #8
 341 0004 0024     		movs	r4, #0
 342 0006 41F8084D 		str	r4, [r1, #-8]!
ARM GAS  /tmp/ccXbCD6P.s 			page 7


 343              		.loc 1 224 0
 344 000a 2246     		mov	r2, r4
 345 000c 2046     		mov	r0, r4
 346 000e FFF7FEFF 		bl	chHeapStatus
 347              	.LVL38:
 348              	.LBB2:
 349              		.loc 1 231 0
 350 0012 02AD     		add	r5, sp, #8
 351              	.LBE2:
 352              		.loc 1 227 0
 353 0014 FFF7FEFF 		bl	chCoreGetStatusX
 354              	.LVL39:
 355 0018 009B     		ldr	r3, [sp]
 356              	.LBB3:
 357              		.loc 1 231 0
 358 001a 45F8044D 		str	r4, [r5, #-4]!
 359              	.LBE3:
 360              		.loc 1 227 0
 361 001e 1844     		add	r0, r0, r3
 362 0020 0090     		str	r0, [sp]
 363              	.LVL40:
 364              	.LBB4:
 365              		.loc 1 232 0
 366 0022 2246     		mov	r2, r4
 367 0024 2946     		mov	r1, r5
 368 0026 0948     		ldr	r0, .L33
 369 0028 FFF7FEFF 		bl	chHeapStatus
 370              	.LVL41:
 371              		.loc 1 233 0
 372 002c 9DE80C00 		ldmia	sp, {r2, r3}
 373              	.LBE4:
 374              		.loc 1 239 0
 375 0030 2946     		mov	r1, r5
 376              	.LBB5:
 377              		.loc 1 233 0
 378 0032 1344     		add	r3, r3, r2
 379              	.LBE5:
 380              		.loc 1 239 0
 381 0034 0648     		ldr	r0, .L33+4
 382 0036 2246     		mov	r2, r4
 383              		.loc 1 238 0
 384 0038 8DE81800 		stmia	sp, {r3, r4}
 385              		.loc 1 239 0
 386 003c FFF7FEFF 		bl	chHeapStatus
 387              	.LVL42:
 388              		.loc 1 244 0
 389 0040 9DE80900 		ldmia	sp, {r0, r3}
 390 0044 1844     		add	r0, r0, r3
 391              	.LVL43:
 392 0046 03B0     		add	sp, sp, #12
 393              		.cfi_def_cfa_offset 12
 394              		@ sp needed
 395 0048 30BD     		pop	{r4, r5, pc}
 396              	.L34:
 397 004a 00BF     		.align	2
 398              	.L33:
 399 004c 1C000000 		.word	.LANCHOR0+28
ARM GAS  /tmp/ccXbCD6P.s 			page 8


 400 0050 00000000 		.word	.LANCHOR1
 401              		.cfi_endproc
 402              	.LFE331:
 403              		.size	mem_available, .-mem_available
 404              		.section	.text.thread_create_alloc,"ax",%progbits
 405              		.align	1
 406              		.global	thread_create_alloc
 407              		.thumb
 408              		.thumb_func
 409              		.type	thread_create_alloc, %function
 410              	thread_create_alloc:
 411              	.LFB332:
 412              		.loc 1 252 0
 413              		.cfi_startproc
 414              		@ args = 4, pretend = 0, frame = 0
 415              		@ frame_needed = 0, uses_anonymous_args = 0
 416              	.LVL44:
 417 0000 2DE9F341 		push	{r0, r1, r4, r5, r6, r7, r8, lr}
 418              		.cfi_def_cfa_offset 32
 419              		.cfi_offset 4, -24
 420              		.cfi_offset 5, -20
 421              		.cfi_offset 6, -16
 422              		.cfi_offset 7, -12
 423              		.cfi_offset 8, -8
 424              		.cfi_offset 14, -4
 425              		.loc 1 252 0
 426 0004 DDF82080 		ldr	r8, [sp, #32]
 427 0008 1F46     		mov	r7, r3
 428 000a 0446     		mov	r4, r0
 429 000c 0D46     		mov	r5, r1
 430 000e 1646     		mov	r6, r2
 431              		.loc 1 255 0
 432 0010 1346     		mov	r3, r2
 433              	.LVL45:
 434 0012 8DE88001 		stmia	sp, {r7, r8}
 435 0016 0A46     		mov	r2, r1
 436              	.LVL46:
 437 0018 0146     		mov	r1, r0
 438              	.LVL47:
 439 001a 0020     		movs	r0, #0
 440              	.LVL48:
 441 001c FFF7FEFF 		bl	chThdCreateFromHeap
 442              	.LVL49:
 443              		.loc 1 256 0
 444 0020 38B9     		cbnz	r0, .L36
 445              	.LVL50:
 446              		.loc 1 263 0 discriminator 1
 447 0022 8DE88001 		stmia	sp, {r7, r8}
 448 0026 3346     		mov	r3, r6
 449 0028 2A46     		mov	r2, r5
 450 002a 2146     		mov	r1, r4
 451 002c 0248     		ldr	r0, .L38
 452              	.LVL51:
 453 002e FFF7FEFF 		bl	chThdCreateFromHeap
 454              	.LVL52:
 455              	.L36:
 456              		.loc 1 269 0
ARM GAS  /tmp/ccXbCD6P.s 			page 9


 457 0032 02B0     		add	sp, sp, #8
 458              		.cfi_def_cfa_offset 24
 459              		@ sp needed
 460 0034 BDE8F081 		pop	{r4, r5, r6, r7, r8, pc}
 461              	.LVL53:
 462              	.L39:
 463              		.align	2
 464              	.L38:
 465 0038 1C000000 		.word	.LANCHOR0+28
 466              		.cfi_endproc
 467              	.LFE332:
 468              		.size	thread_create_alloc, .-thread_create_alloc
 469              		.section	.text.memory_flush_all,"ax",%progbits
 470              		.align	1
 471              		.global	memory_flush_all
 472              		.thumb
 473              		.thumb_func
 474              		.type	memory_flush_all, %function
 475              	memory_flush_all:
 476              	.LFB333:
 477              		.loc 1 278 0
 478              		.cfi_startproc
 479              		@ args = 0, pretend = 0, frame = 0
 480              		@ frame_needed = 0, uses_anonymous_args = 0
 481              		@ link register save eliminated.
 482              	.LVL54:
 483 0000 7047     		bx	lr
 484              		.cfi_endproc
 485              	.LFE333:
 486              		.size	memory_flush_all, .-memory_flush_all
 487              		.section	.bss.dma_reserve_heap,"aw",%nobits
 488              		.align	2
 489              		.set	.LANCHOR1,. + 0
 490              		.type	dma_reserve_heap, %object
 491              		.size	dma_reserve_heap, 28
 492              	dma_reserve_heap:
 493 0000 00000000 		.space	28
 493      00000000 
 493      00000000 
 493      00000000 
 493      00000000 
 494              		.section	.bss.heaps,"aw",%nobits
 495              		.align	2
 496              		.set	.LANCHOR0,. + 0
 497              		.type	heaps, %object
 498              		.size	heaps, 56
 499              	heaps:
 500 0000 00000000 		.space	56
 500      00000000 
 500      00000000 
 500      00000000 
 500      00000000 
 501              		.text
 502              	.Letext0:
 503              		.file 2 "/usr/include/newlib/machine/_default_types.h"
 504              		.file 3 "/usr/include/newlib/sys/_stdint.h"
 505              		.file 4 "/usr/lib/gcc/arm-none-eabi/5.4.1/include/stddef.h"
ARM GAS  /tmp/ccXbCD6P.s 			page 10


 506              		.file 5 "../../modules/ChibiOS/os/common/ports/ARMCMx/compilers/GCC/chtypes.h"
 507              		.file 6 "../../modules/ChibiOS/os/rt/include/chsystypes.h"
 508              		.file 7 "../../modules/ChibiOS/os/rt/include/chschd.h"
 509              		.file 8 "../../modules/ChibiOS/os/rt/include/chtime.h"
 510              		.file 9 "../../modules/ChibiOS/os/common/ports/ARMCMx/chcore.h"
 511              		.file 10 "../../modules/ChibiOS/os/common/ports/ARMCMx/chcore_v7m.h"
 512              		.file 11 "../../modules/ChibiOS/os/rt/include/chtm.h"
 513              		.file 12 "../../modules/ChibiOS/os/rt/include/chstats.h"
 514              		.file 13 "../../modules/ChibiOS/os/rt/include/chsem.h"
 515              		.file 14 "../../modules/ChibiOS/os/rt/include/chmtx.h"
 516              		.file 15 "../../modules/ChibiOS/os/rt/include/chthreads.h"
 517              		.file 16 "../../modules/ChibiOS/os/oslib/include/chmemcore.h"
 518              		.file 17 "../../modules/ChibiOS/os/oslib/include/chmemheaps.h"
 519              		.file 18 "../../modules/ChibiOS/os/rt/include/chdynamic.h"
 520              		.file 19 "../../modules/ChibiOS/os/common/ext/ARM/CMSIS/Core/Include/core_cm4.h"