ARM GAS  /tmp/ccXbCD6P.s 			page 1


   1              		.syntax unified
   2              		.cpu cortex-m4
   3              		.eabi_attribute 27, 1
   4              		.eabi_attribute 28, 1
   5              		.fpu fpv4-sp-d16
   6              		.eabi_attribute 20, 1
   7              		.eabi_attribute 21, 1
   8              		.eabi_attribute 23, 3
   9              		.eabi_attribute 24, 1
  10              		.eabi_attribute 25, 1
  11              		.eabi_attribute 26, 1
  12              		.eabi_attribute 30, 4
  13              		.eabi_attribute 34, 1
  14              		.eabi_attribute 18, 4
  15              		.thumb
  16              		.syntax unified
  17              		.file	"malloc.c"
  18              		.text
  19              	.Ltext0:
  20              		.cfi_sections	.debug_frame
  21              		.section	.text.malloc_flags,"ax",%progbits
  22              		.align	1
  23              		.thumb
  24              		.thumb_func
  25              		.type	malloc_flags, %function
  26              	malloc_flags:
  27              	.LFB324:
  28              		.file 1 "../../libraries/AP_HAL_ChibiOS/hwdef/common/malloc.c"
  29              		.loc 1 91 0
  30              		.cfi_startproc
  31              		@ args = 0, pretend = 0, frame = 0
  32              		@ frame_needed = 0, uses_anonymous_args = 0
  33              	.LVL0:
  34 0000 70B5     		push	{r4, r5, r6, lr}
  35              		.cfi_def_cfa_offset 16
  36              		.cfi_offset 4, -16
  37              		.cfi_offset 5, -12
  38              		.cfi_offset 6, -8
  39              		.cfi_offset 14, -4
  40              		.loc 1 92 0
  41 0002 0546     		mov	r5, r0
  42 0004 B0B3     		cbz	r0, .L10
  43              	.LVL1:
  44              		.loc 1 100 0
  45 0006 11F00506 		ands	r6, r1, #5
  46 000a 05D0     		beq	.L3
  47              		.loc 1 102 0
  48 000c 0730     		adds	r0, r0, #7
  49              	.LVL2:
  50              		.loc 1 107 0
  51 000e 0129     		cmp	r1, #1
  52              		.loc 1 102 0
  53 0010 20F00705 		bic	r5, r0, #7
  54              	.LVL3:
  55              		.loc 1 107 0
  56 0014 1ED1     		bne	.L5
  57 0016 01E0     		b	.L4
ARM GAS  /tmp/ccXbCD6P.s 			page 2


  58              	.LVL4:
  59              	.L3:
  60 0018 0129     		cmp	r1, #1
  61 001a 07D8     		bhi	.L6
  62              	.LVL5:
  63              	.L4:
  64              		.loc 1 109 0
  65 001c 0822     		movs	r2, #8
  66 001e 2946     		mov	r1, r5
  67              	.LVL6:
  68 0020 0020     		movs	r0, #0
  69 0022 FFF7FEFF 		bl	chHeapAllocAligned
  70              	.LVL7:
  71              		.loc 1 110 0
  72 0026 0446     		mov	r4, r0
  73 0028 F0B9     		cbnz	r0, .L7
  74              	.LVL8:
  75              		.loc 1 121 0 discriminator 1
  76 002a 9EB9     		cbnz	r6, .L5
  77              	.LVL9:
  78              	.L6:
  79              		.loc 1 129 0
  80 002c 0822     		movs	r2, #8
  81 002e 2946     		mov	r1, r5
  82 0030 1248     		ldr	r0, .L20
  83 0032 FFF7FEFF 		bl	chHeapAllocAligned
  84              	.LVL10:
  85              		.loc 1 130 0
  86 0036 0446     		mov	r4, r0
  87 0038 B0B9     		cbnz	r0, .L7
  88              		.loc 1 138 0
  89 003a 0822     		movs	r2, #8
  90 003c 2946     		mov	r1, r5
  91 003e 0F48     		ldr	r0, .L20
  92              	.LVL11:
  93 0040 FFF7FEFF 		bl	chHeapAllocAligned
  94              	.LVL12:
  95              		.loc 1 139 0
  96 0044 0446     		mov	r4, r0
  97 0046 78B9     		cbnz	r0, .L7
  98              	.LVL13:
  99              		.loc 1 144 0
 100 0048 0822     		movs	r2, #8
 101 004a 2946     		mov	r1, r5
 102 004c FFF7FEFF 		bl	chHeapAllocAligned
 103              	.LVL14:
 104              		.loc 1 145 0
 105 0050 0446     		mov	r4, r0
 106 0052 48B9     		cbnz	r0, .L7
 107              	.LVL15:
 108              	.L5:
 109              		.loc 1 152 0
 110 0054 0822     		movs	r2, #8
 111 0056 2946     		mov	r1, r5
 112 0058 0948     		ldr	r0, .L20+4
 113 005a FFF7FEFF 		bl	chHeapAllocAligned
 114              	.LVL16:
ARM GAS  /tmp/ccXbCD6P.s 			page 3


 115              		.loc 1 153 0
 116 005e 0446     		mov	r4, r0
 117 0060 48B1     		cbz	r0, .L11
 118              		.loc 1 154 0
 119 0062 2A46     		mov	r2, r5
 120 0064 0021     		movs	r1, #0
 121 0066 02E0     		b	.L18
 122              	.L7:
 123              		.loc 1 163 0
 124 0068 2A46     		mov	r2, r5
 125 006a 0021     		movs	r1, #0
 126 006c 2046     		mov	r0, r4
 127              	.LVL17:
 128              	.L18:
 129 006e FFF7FEFF 		bl	memset
 130              	.LVL18:
 131 0072 00E0     		b	.L11
 132              	.LVL19:
 133              	.L10:
 134 0074 70BD     		pop	{r4, r5, r6, pc}
 135              	.LVL20:
 136              	.L11:
 137              		.loc 1 160 0
 138 0076 2046     		mov	r0, r4
 139 0078 70BD     		pop	{r4, r5, r6, pc}
 140              	.LVL21:
 141              	.L21:
 142 007a 00BF     		.align	2
 143              	.L20:
 144 007c 1C000000 		.word	.LANCHOR0+28
 145 0080 00000000 		.word	.LANCHOR1
 146              		.cfi_endproc
 147              	.LFE324:
 148              		.size	malloc_flags, .-malloc_flags
 149              		.section	.text.malloc,"ax",%progbits
 150              		.align	1
 151              		.global	malloc
 152              		.thumb
 153              		.thumb_func
 154              		.type	malloc, %function
 155              	malloc:
 156              	.LFB325:
 157              		.loc 1 170 0
 158              		.cfi_startproc
 159              		@ args = 0, pretend = 0, frame = 0
 160              		@ frame_needed = 0, uses_anonymous_args = 0
 161              		@ link register save eliminated.
 162              	.LVL22:
 163              		.loc 1 171 0
 164 0000 0021     		movs	r1, #0
 165 0002 FFF7FEBF 		b	malloc_flags
 166              	.LVL23:
 167              		.cfi_endproc
 168              	.LFE325:
 169              		.size	malloc, .-malloc
 170              		.section	.text.malloc_sdcard_dma,"ax",%progbits
 171              		.align	1
ARM GAS  /tmp/ccXbCD6P.s 			page 4


 172              		.global	malloc_sdcard_dma
 173              		.thumb
 174              		.thumb_func
 175              		.type	malloc_sdcard_dma, %function
 176              	malloc_sdcard_dma:
 177              	.LFB327:
 178              		.loc 1 187 0
 179              		.cfi_startproc
 180              		@ args = 0, pretend = 0, frame = 0
 181              		@ frame_needed = 0, uses_anonymous_args = 0
 182              		@ link register save eliminated.
 183              	.LVL24:
 184              		.loc 1 191 0
 185 0000 0121     		movs	r1, #1
 186 0002 FFF7FEBF 		b	malloc_flags
 187              	.LVL25:
 188              		.cfi_endproc
 189              	.LFE327:
 190              		.size	malloc_sdcard_dma, .-malloc_sdcard_dma
 191              		.section	.text.malloc_init,"ax",%progbits
 192              		.align	1
 193              		.global	malloc_init
 194              		.thumb
 195              		.thumb_func
 196              		.type	malloc_init, %function
 197              	malloc_init:
 198              	.LFB323:
 199              		.loc 1 73 0
 200              		.cfi_startproc
 201              		@ args = 0, pretend = 0, frame = 0
 202              		@ frame_needed = 0, uses_anonymous_args = 0
 203              	.LVL26:
 204 0000 08B5     		push	{r3, lr}
 205              		.cfi_def_cfa_offset 8
 206              		.cfi_offset 3, -8
 207              		.cfi_offset 14, -4
 208              		.loc 1 76 0
 209 0002 4FF48032 		mov	r2, #65536
 210 0006 4FF08051 		mov	r1, #268435456
 211 000a 0748     		ldr	r0, .L25
 212 000c FFF7FEFF 		bl	chHeapObjectInit
 213              	.LVL27:
 214              		.loc 1 84 0
 215 0010 4FF48050 		mov	r0, #4096
 216 0014 FFF7FEFF 		bl	malloc_sdcard_dma
 217              	.LVL28:
 218              		.loc 1 86 0
 219 0018 4FF48052 		mov	r2, #4096
 220 001c 0146     		mov	r1, r0
 221              		.loc 1 88 0
 222 001e BDE80840 		pop	{r3, lr}
 223              		.cfi_restore 14
 224              		.cfi_restore 3
 225              		.cfi_def_cfa_offset 0
 226              		.loc 1 86 0
 227 0022 0248     		ldr	r0, .L25+4
 228              	.LVL29:
ARM GAS  /tmp/ccXbCD6P.s 			page 5


 229 0024 FFF7FEBF 		b	chHeapObjectInit
 230              	.LVL30:
 231              	.L26:
 232              		.align	2
 233              	.L25:
 234 0028 1C000000 		.word	.LANCHOR0+28
 235 002c 00000000 		.word	.LANCHOR1
 236              		.cfi_endproc
 237              	.LFE323:
 238              		.size	malloc_init, .-malloc_init
 239              		.section	.text.malloc_dma,"ax",%progbits
 240              		.align	1
 241              		.global	malloc_dma
 242              		.thumb
 243              		.thumb_func
 244              		.type	malloc_dma, %function
 245              	malloc_dma:
 246              	.LFB335:
 247              		.cfi_startproc
 248              		@ args = 0, pretend = 0, frame = 0
 249              		@ frame_needed = 0, uses_anonymous_args = 0
 250              		@ link register save eliminated.
 251 0000 FFF7FEBF 		b	malloc_sdcard_dma
 252              		.cfi_endproc
 253              	.LFE335:
 254              		.size	malloc_dma, .-malloc_dma
 255              		.section	.text.malloc_fastmem,"ax",%progbits
 256              		.align	1
 257              		.global	malloc_fastmem
 258              		.thumb
 259              		.thumb_func
 260              		.type	malloc_fastmem, %function
 261              	malloc_fastmem:
 262              	.LFB328:
 263              		.loc 1 199 0
 264              		.cfi_startproc
 265              		@ args = 0, pretend = 0, frame = 0
 266              		@ frame_needed = 0, uses_anonymous_args = 0
 267              		@ link register save eliminated.
 268              	.LVL31:
 269              		.loc 1 200 0
 270 0000 0221     		movs	r1, #2
 271 0002 FFF7FEBF 		b	malloc_flags
 272              	.LVL32:
 273              		.cfi_endproc
 274              	.LFE328:
 275              		.size	malloc_fastmem, .-malloc_fastmem
 276              		.section	.text.calloc,"ax",%progbits
 277              		.align	1
 278              		.global	calloc
 279              		.thumb
 280              		.thumb_func
 281              		.type	calloc, %function
 282              	calloc:
 283              	.LFB329:
 284              		.loc 1 204 0
 285              		.cfi_startproc
ARM GAS  /tmp/ccXbCD6P.s 			page 6


 286              		@ args = 0, pretend = 0, frame = 0
 287              		@ frame_needed = 0, uses_anonymous_args = 0
 288              		@ link register save eliminated.
 289              	.LVL33:
 290              		.loc 1 205 0
 291 0000 4843     		muls	r0, r1, r0
 292              	.LVL34:
 293 0002 FFF7FEBF 		b	malloc
 294              	.LVL35:
 295              		.cfi_endproc
 296              	.LFE329:
 297              		.size	calloc, .-calloc
 298              		.section	.text.free,"ax",%progbits
 299              		.align	1
 300              		.global	free
 301              		.thumb
 302              		.thumb_func
 303              		.type	free, %function
 304              	free:
 305              	.LFB330:
 306              		.loc 1 209 0
 307              		.cfi_startproc
 308              		@ args = 0, pretend = 0, frame = 0
 309              		@ frame_needed = 0, uses_anonymous_args = 0
 310              		@ link register save eliminated.
 311              	.LVL36:
 312              		.loc 1 210 0
 313 0000 08B1     		cbz	r0, .L30
 314              		.loc 1 211 0
 315 0002 FFF7FEBF 		b	chHeapFree
 316              	.LVL37:
 317              	.L30:
 318 0006 7047     		bx	lr
 319              		.cfi_endproc
 320              	.LFE330:
 321              		.size	free, .-free
 322              		.section	.text.mem_available,"ax",%progbits
 323              		.align	1
 324              		.global	mem_available
 325              		.thumb
 326              		.thumb_func
 327              		.type	mem_available, %function
 328              	mem_available:
 329              	.LFB331:
 330              		.loc 1 219 0
 331              		.cfi_startproc
 332              		@ args = 0, pretend = 0, frame = 8
 333              		@ frame_needed = 0, uses_anonymous_args = 0
 334 0000 37B5     		push	{r0, r1, r2, r4, r5, lr}
 335              		.cfi_def_cfa_offset 24
 336              		.cfi_offset 4, -12
 337              		.cfi_offset 5, -8
 338              		.cfi_offset 14, -4
 339              		.loc 1 220 0
 340 0002 02A9     		add	r1, sp, #8
 341 0004 0024     		movs	r4, #0
 342 0006 41F8084D 		str	r4, [r1, #-8]!
ARM GAS  /tmp/ccXbCD6P.s 			page 7


 343              		.loc 1 224 0
 344 000a 2246     		mov	r2, r4
 345 000c 2046     		mov	r0, r4
 346 000e FFF7FEFF 		bl	chHeapStatus
 347              	.LVL38:
 348              	.LBB2:
 349              		.loc 1 231 0
 350 0012 02AD     		add	r5, sp, #8
 351              	.LBE2:
 352              		.loc 1 227 0
 353 0014 FFF7FEFF 		bl	chCoreGetStatusX
 354              	.LVL39:
 355 0018 009B     		ldr	r3, [sp]
 356              	.LBB3:
 357              		.loc 1 231 0
 358 001a 45F8044D 		str	r4, [r5, #-4]!
 359              	.LBE3:
 360              		.loc 1 227 0
 361 001e 1844     		add	r0, r0, r3
 362 0020 0090     		str	r0, [sp]
 363              	.LVL40:
 364              	.LBB4:
 365              		.loc 1 232 0
 366 0022 2246     		mov	r2, r4
 367 0024 2946     		mov	r1, r5
 368 0026 0948     		ldr	r0, .L33
 369 0028 FFF7FEFF 		bl	chHeapStatus
 370              	.LVL41:
 371              		.loc 1 233 0
 372 002c 9DE80C00 		ldmia	sp, {r2, r3}
 373              	.LBE4:
 374              		.loc 1 239 0
 375 0030 2946     		mov	r1, r5
 376              	.LBB5:
 377              		.loc 1 233 0
 378 0032 1344     		add	r3, r3, r2
 379              	.LBE5:
 380              		.loc 1 239 0
 381 0034 0648     		ldr	r0, .L33+4
 382 0036 2246     		mov	r2, r4
 383              		.loc 1 238 0
 384 0038 8DE81800 		stmia	sp, {r3, r4}
 385              		.loc 1 239 0
 386 003c FFF7FEFF 		bl	chHeapStatus
 387              	.LVL42:
 388              		.loc 1 244 0
 389 0040 9DE80900 		ldmia	sp, {r0, r3}
 390 0044 1844     		add	r0, r0, r3
 391              	.LVL43:
 392 0046 03B0     		add	sp, sp, #12
 393              		.cfi_def_cfa_offset 12
 394              		@ sp needed
 395 0048 30BD     		pop	{r4, r5, pc}
 396              	.L34:
 397 004a 00BF     		.align	2
 398              	.L33:
 399 004c 1C000000 		.word	.LANCHOR0+28
ARM GAS  /tmp/ccXbCD6P.s 			page 8


 400 0050 00000000 		.word	.LANCHOR1
 401              		.cfi_endproc
 402              	.LFE331:
 403              		.size	mem_available, .-mem_available
 404              		.section	.text.thread_create_alloc,"ax",%progbits
 405              		.align	1
 406              		.global	thread_create_alloc
 407              		.thumb
 408              		.thumb_func
 409              		.type	thread_create_alloc, %function
 410              	thread_create_alloc:
 411              	.LFB332:
 412              		.loc 1 252 0
 413              		.cfi_startproc
 414              		@ args = 4, pretend = 0, frame = 0
 415              		@ frame_needed = 0, uses_anonymous_args = 0
 416              	.LVL44:
 417 0000 2DE9F341 		push	{r0, r1, r4, r5, r6, r7, r8, lr}
 418              		.cfi_def_cfa_offset 32
 419              		.cfi_offset 4, -24
 420              		.cfi_offset 5, -20
 421              		.cfi_offset 6, -16
 422              		.cfi_offset 7, -12
 423              		.cfi_offset 8, -8
 424              		.cfi_offset 14, -4
 425              		.loc 1 252 0
 426 0004 DDF82080 		ldr	r8, [sp, #32]
 427 0008 1F46     		mov	r7, r3
 428 000a 0446     		mov	r4, r0
 429 000c 0D46     		mov	r5, r1
 430 000e 1646     		mov	r6, r2
 431              		.loc 1 255 0
 432 0010 1346     		mov	r3, r2
 433              	.LVL45:
 434 0012 8DE88001 		stmia	sp, {r7, r8}
 435 0016 0A46     		mov	r2, r1
 436              	.LVL46:
 437 0018 0146     		mov	r1, r0
 438              	.LVL47:
 439 001a 0020     		movs	r0, #0
 440              	.LVL48:
 441 001c FFF7FEFF 		bl	chThdCreateFromHeap
 442              	.LVL49:
 443              		.loc 1 256 0
 444 0020 38B9     		cbnz	r0, .L36
 445              	.LVL50:
 446              		.loc 1 263 0 discriminator 1
 447 0022 8DE88001 		stmia	sp, {r7, r8}
 448 0026 3346     		mov	r3, r6
 449 0028 2A46     		mov	r2, r5
 450 002a 2146     		mov	r1, r4
 451 002c 0248     		ldr	r0, .L38
 452              	.LVL51:
 453 002e FFF7FEFF 		bl	chThdCreateFromHeap
 454              	.LVL52:
 455              	.L36:
 456              		.loc 1 269 0
ARM GAS  /tmp/ccXbCD6P.s 			page 9


 457 0032 02B0     		add	sp, sp, #8
 458              		.cfi_def_cfa_offset 24
 459              		@ sp needed
 460 0034 BDE8F081 		pop	{r4, r5, r6, r7, r8, pc}
 461              	.LVL53:
 462              	.L39:
 463              		.align	2
 464              	.L38:
 465 0038 1C000000 		.word	.LANCHOR0+28
 466              		.cfi_endproc
 467              	.LFE332:
 468              		.size	thread_create_alloc, .-thread_create_alloc
 469              		.section	.text.memory_flush_all,"ax",%progbits
 470              		.align	1
 471              		.global	memory_flush_all
 472              		.thumb
 473              		.thumb_func
 474              		.type	memory_flush_all, %function
 475              	memory_flush_all:
 476              	.LFB333:
 477              		.loc 1 278 0
 478              		.cfi_startproc
 479              		@ args = 0, pretend = 0, frame = 0
 480              		@ frame_needed = 0, uses_anonymous_args = 0
 481              		@ link register save eliminated.
 482              	.LVL54:
 483 0000 7047     		bx	lr
 484              		.cfi_endproc
 485              	.LFE333:
 486              		.size	memory_flush_all, .-memory_flush_all
 487              		.section	.bss.dma_reserve_heap,"aw",%nobits
 488              		.align	2
 489              		.set	.LANCHOR1,. + 0
 490              		.type	dma_reserve_heap, %object
 491              		.size	dma_reserve_heap, 28
 492              	dma_reserve_heap:
 493 0000 00000000 		.space	28
 493      00000000 
 493      00000000 
 493      00000000 
 493      00000000 
 494              		.section	.bss.heaps,"aw",%nobits
 495              		.align	2
 496              		.set	.LANCHOR0,. + 0
 497              		.type	heaps, %object
 498              		.size	heaps, 56
 499              	heaps:
 500 0000 00000000 		.space	56
 500      00000000 
 500      00000000 
 500      00000000 
 500      00000000 
 501              		.text
 502              	.Letext0:
 503              		.file 2 "/usr/include/newlib/machine/_default_types.h"
 504              		.file 3 "/usr/include/newlib/sys/_stdint.h"
 505              		.file 4 "/usr/lib/gcc/arm-none-eabi/5.4.1/include/stddef.h"
ARM GAS  /tmp/ccXbCD6P.s 			page 10


 506              		.file 5 "../../modules/ChibiOS/os/common/ports/ARMCMx/compilers/GCC/chtypes.h"
 507              		.file 6 "../../modules/ChibiOS/os/rt/include/chsystypes.h"
 508              		.file 7 "../../modules/ChibiOS/os/rt/include/chschd.h"
 509              		.file 8 "../../modules/ChibiOS/os/rt/include/chtime.h"
 510              		.file 9 "../../modules/ChibiOS/os/common/ports/ARMCMx/chcore.h"
 511              		.file 10 "../../modules/ChibiOS/os/common/ports/ARMCMx/chcore_v7m.h"
 512              		.file 11 "../../modules/ChibiOS/os/rt/include/chtm.h"
 513              		.file 12 "../../modules/ChibiOS/os/rt/include/chstats.h"
 514              		.file 13 "../../modules/ChibiOS/os/rt/include/chsem.h"
 515              		.file 14 "../../modules/ChibiOS/os/rt/include/chmtx.h"
 516              		.file 15 "../../modules/ChibiOS/os/rt/include/chthreads.h"
 517              		.file 16 "../../modules/ChibiOS/os/oslib/include/chmemcore.h"
 518              		.file 17 "../../modules/ChibiOS/os/oslib/include/chmemheaps.h"
 519              		.file 18 "../../modules/ChibiOS/os/rt/include/chdynamic.h"
 520              		.file 19 "../../modules/ChibiOS/os/common/ext/ARM/CMSIS/Core/Include/core_cm4.h"
 521              		.section	.debug_info,"",%progbits
 522              	.Ldebug_info0:
 523 0000 750E0000 		.4byte	0xe75
 524 0004 0400     		.2byte	0x4
 525 0006 00000000 		.4byte	.Ldebug_abbrev0
 526 000a 04       		.byte	0x4
 527 000b 01       		.uleb128 0x1
 528 000c 91000000 		.4byte	.LASF145
 529 0010 0C       		.byte	0xc
 530 0011 E1010000 		.4byte	.LASF146
 531 0015 C9050000 		.4byte	.LASF147
 532 0019 28000000 		.4byte	.Ldebug_ranges0+0x28
 533 001d 00000000 		.4byte	0
 534 0021 00000000 		.4byte	.Ldebug_line0
 535 0025 02       		.uleb128 0x2
 536 0026 01       		.byte	0x1
 537 0027 06       		.byte	0x6
 538 0028 24020000 		.4byte	.LASF0
 539 002c 03       		.uleb128 0x3
 540 002d 60000000 		.4byte	.LASF4
 541 0031 02       		.byte	0x2
 542 0032 1D       		.byte	0x1d
 543 0033 37000000 		.4byte	0x37
 544 0037 02       		.uleb128 0x2
 545 0038 01       		.byte	0x1
 546 0039 08       		.byte	0x8
 547 003a 2B050000 		.4byte	.LASF1
 548 003e 02       		.uleb128 0x2
 549 003f 02       		.byte	0x2
 550 0040 05       		.byte	0x5
 551 0041 45050000 		.4byte	.LASF2
 552 0045 02       		.uleb128 0x2
 553 0046 02       		.byte	0x2
 554 0047 07       		.byte	0x7
 555 0048 49030000 		.4byte	.LASF3
 556 004c 03       		.uleb128 0x3
 557 004d CB030000 		.4byte	.LASF5
 558 0051 02       		.byte	0x2
 559 0052 3F       		.byte	0x3f
 560 0053 57000000 		.4byte	0x57
 561 0057 02       		.uleb128 0x2
 562 0058 04       		.byte	0x4
ARM GAS  /tmp/ccXbCD6P.s 			page 11


 563 0059 05       		.byte	0x5
 564 005a 77020000 		.4byte	.LASF6
 565 005e 03       		.uleb128 0x3
 566 005f BD020000 		.4byte	.LASF7
 567 0063 02       		.byte	0x2
 568 0064 41       		.byte	0x41
 569 0065 69000000 		.4byte	0x69
 570 0069 02       		.uleb128 0x2
 571 006a 04       		.byte	0x4
 572 006b 07       		.byte	0x7
 573 006c 3F020000 		.4byte	.LASF8
 574 0070 02       		.uleb128 0x2
 575 0071 08       		.byte	0x8
 576 0072 05       		.byte	0x5
 577 0073 FC030000 		.4byte	.LASF9
 578 0077 03       		.uleb128 0x3
 579 0078 A1040000 		.4byte	.LASF10
 580 007c 02       		.byte	0x2
 581 007d 5B       		.byte	0x5b
 582 007e 82000000 		.4byte	0x82
 583 0082 02       		.uleb128 0x2
 584 0083 08       		.byte	0x8
 585 0084 07       		.byte	0x7
 586 0085 8E010000 		.4byte	.LASF11
 587 0089 04       		.uleb128 0x4
 588 008a 04       		.byte	0x4
 589 008b 05       		.byte	0x5
 590 008c 696E7400 		.ascii	"int\000"
 591 0090 02       		.uleb128 0x2
 592 0091 04       		.byte	0x4
 593 0092 07       		.byte	0x7
 594 0093 05030000 		.4byte	.LASF12
 595 0097 03       		.uleb128 0x3
 596 0098 E9060000 		.4byte	.LASF13
 597 009c 03       		.byte	0x3
 598 009d 18       		.byte	0x18
 599 009e 2C000000 		.4byte	0x2c
 600 00a2 03       		.uleb128 0x3
 601 00a3 23050000 		.4byte	.LASF14
 602 00a7 03       		.byte	0x3
 603 00a8 2C       		.byte	0x2c
 604 00a9 4C000000 		.4byte	0x4c
 605 00ad 03       		.uleb128 0x3
 606 00ae 5F070000 		.4byte	.LASF15
 607 00b2 03       		.byte	0x3
 608 00b3 30       		.byte	0x30
 609 00b4 5E000000 		.4byte	0x5e
 610 00b8 03       		.uleb128 0x3
 611 00b9 3E000000 		.4byte	.LASF16
 612 00bd 03       		.byte	0x3
 613 00be 3C       		.byte	0x3c
 614 00bf 77000000 		.4byte	0x77
 615 00c3 03       		.uleb128 0x3
 616 00c4 25000000 		.4byte	.LASF17
 617 00c8 04       		.byte	0x4
 618 00c9 D8       		.byte	0xd8
 619 00ca 90000000 		.4byte	0x90
ARM GAS  /tmp/ccXbCD6P.s 			page 12


 620 00ce 02       		.uleb128 0x2
 621 00cf 08       		.byte	0x8
 622 00d0 04       		.byte	0x4
 623 00d1 2E060000 		.4byte	.LASF18
 624 00d5 03       		.uleb128 0x3
 625 00d6 13040000 		.4byte	.LASF19
 626 00da 05       		.byte	0x5
 627 00db 27       		.byte	0x27
 628 00dc AD000000 		.4byte	0xad
 629 00e0 03       		.uleb128 0x3
 630 00e1 00000000 		.4byte	.LASF20
 631 00e5 05       		.byte	0x5
 632 00e6 28       		.byte	0x28
 633 00e7 B8000000 		.4byte	0xb8
 634 00eb 03       		.uleb128 0x3
 635 00ec 9C030000 		.4byte	.LASF21
 636 00f0 05       		.byte	0x5
 637 00f1 2A       		.byte	0x2a
 638 00f2 97000000 		.4byte	0x97
 639 00f6 03       		.uleb128 0x3
 640 00f7 94020000 		.4byte	.LASF22
 641 00fb 05       		.byte	0x5
 642 00fc 2B       		.byte	0x2b
 643 00fd 97000000 		.4byte	0x97
 644 0101 03       		.uleb128 0x3
 645 0102 CD040000 		.4byte	.LASF23
 646 0106 05       		.byte	0x5
 647 0107 2C       		.byte	0x2c
 648 0108 97000000 		.4byte	0x97
 649 010c 03       		.uleb128 0x3
 650 010d 02050000 		.4byte	.LASF24
 651 0111 05       		.byte	0x5
 652 0112 2E       		.byte	0x2e
 653 0113 AD000000 		.4byte	0xad
 654 0117 03       		.uleb128 0x3
 655 0118 75030000 		.4byte	.LASF25
 656 011c 05       		.byte	0x5
 657 011d 2F       		.byte	0x2f
 658 011e A2000000 		.4byte	0xa2
 659 0122 03       		.uleb128 0x3
 660 0123 54000000 		.4byte	.LASF26
 661 0127 05       		.byte	0x5
 662 0128 31       		.byte	0x31
 663 0129 AD000000 		.4byte	0xad
 664 012d 03       		.uleb128 0x3
 665 012e FF020000 		.4byte	.LASF27
 666 0132 05       		.byte	0x5
 667 0133 33       		.byte	0x33
 668 0134 A2000000 		.4byte	0xa2
 669 0138 03       		.uleb128 0x3
 670 0139 80030000 		.4byte	.LASF28
 671 013d 05       		.byte	0x5
 672 013e 34       		.byte	0x34
 673 013f AD000000 		.4byte	0xad
 674 0143 03       		.uleb128 0x3
 675 0144 4C060000 		.4byte	.LASF29
 676 0148 06       		.byte	0x6
ARM GAS  /tmp/ccXbCD6P.s 			page 13


 677 0149 34       		.byte	0x34
 678 014a 4E010000 		.4byte	0x14e
 679 014e 05       		.uleb128 0x5
 680 014f 6B030000 		.4byte	.LASF48
 681 0153 60       		.byte	0x60
 682 0154 07       		.byte	0x7
 683 0155 8E       		.byte	0x8e
 684 0156 39020000 		.4byte	0x239
 685 015a 06       		.uleb128 0x6
 686 015b 34030000 		.4byte	.LASF30
 687 015f 07       		.byte	0x7
 688 0160 8F       		.byte	0x8f
 689 0161 6E020000 		.4byte	0x26e
 690 0165 00       		.byte	0
 691 0166 06       		.uleb128 0x6
 692 0167 94040000 		.4byte	.LASF31
 693 016b 07       		.byte	0x7
 694 016c 90       		.byte	0x90
 695 016d 0C010000 		.4byte	0x10c
 696 0171 08       		.byte	0x8
 697 0172 07       		.uleb128 0x7
 698 0173 63747800 		.ascii	"ctx\000"
 699 0177 07       		.byte	0x7
 700 0178 91       		.byte	0x91
 701 0179 89040000 		.4byte	0x489
 702 017d 0C       		.byte	0xc
 703 017e 06       		.uleb128 0x6
 704 017f F6030000 		.4byte	.LASF32
 705 0183 07       		.byte	0x7
 706 0184 93       		.byte	0x93
 707 0185 44020000 		.4byte	0x244
 708 0189 10       		.byte	0x10
 709 018a 06       		.uleb128 0x6
 710 018b 46060000 		.4byte	.LASF33
 711 018f 07       		.byte	0x7
 712 0190 94       		.byte	0x94
 713 0191 44020000 		.4byte	0x244
 714 0195 14       		.byte	0x14
 715 0196 06       		.uleb128 0x6
 716 0197 3A030000 		.4byte	.LASF34
 717 019b 07       		.byte	0x7
 718 019c 9B       		.byte	0x9b
 719 019d 6F070000 		.4byte	0x76f
 720 01a1 18       		.byte	0x18
 721 01a2 06       		.uleb128 0x6
 722 01a3 3A060000 		.4byte	.LASF35
 723 01a7 07       		.byte	0x7
 724 01a8 A4       		.byte	0xa4
 725 01a9 81070000 		.4byte	0x781
 726 01ad 1C       		.byte	0x1c
 727 01ae 06       		.uleb128 0x6
 728 01af 71020000 		.4byte	.LASF36
 729 01b3 07       		.byte	0x7
 730 01b4 A9       		.byte	0xa9
 731 01b5 F6000000 		.4byte	0xf6
 732 01b9 20       		.byte	0x20
 733 01ba 06       		.uleb128 0x6
ARM GAS  /tmp/ccXbCD6P.s 			page 14


 734 01bb F1060000 		.4byte	.LASF37
 735 01bf 07       		.byte	0x7
 736 01c0 AD       		.byte	0xad
 737 01c1 EB000000 		.4byte	0xeb
 738 01c5 21       		.byte	0x21
 739 01c6 06       		.uleb128 0x6
 740 01c7 DF040000 		.4byte	.LASF38
 741 01cb 07       		.byte	0x7
 742 01cc B2       		.byte	0xb2
 743 01cd 01010000 		.4byte	0x101
 744 01d1 22       		.byte	0x22
 745 01d2 08       		.uleb128 0x8
 746 01d3 7500     		.ascii	"u\000"
 747 01d5 07       		.byte	0x7
 748 01d6 0301     		.2byte	0x103
 749 01d8 A5060000 		.4byte	0x6a5
 750 01dc 24       		.byte	0x24
 751 01dd 09       		.uleb128 0x9
 752 01de E1020000 		.4byte	.LASF39
 753 01e2 07       		.byte	0x7
 754 01e3 0801     		.2byte	0x108
 755 01e5 4A020000 		.4byte	0x24a
 756 01e9 28       		.byte	0x28
 757 01ea 09       		.uleb128 0x9
 758 01eb 68020000 		.4byte	.LASF40
 759 01ef 07       		.byte	0x7
 760 01f0 0E01     		.2byte	0x10e
 761 01f2 6E020000 		.4byte	0x26e
 762 01f6 2C       		.byte	0x2c
 763 01f7 09       		.uleb128 0x9
 764 01f8 87030000 		.4byte	.LASF41
 765 01fc 07       		.byte	0x7
 766 01fd 1401     		.2byte	0x114
 767 01ff 22010000 		.4byte	0x122
 768 0203 34       		.byte	0x34
 769 0204 09       		.uleb128 0x9
 770 0205 45070000 		.4byte	.LASF42
 771 0209 07       		.byte	0x7
 772 020a 1B01     		.2byte	0x11b
 773 020c 69070000 		.4byte	0x769
 774 0210 38       		.byte	0x38
 775 0211 09       		.uleb128 0x9
 776 0212 0A040000 		.4byte	.LASF43
 777 0216 07       		.byte	0x7
 778 0217 1F01     		.2byte	0x11f
 779 0219 0C010000 		.4byte	0x10c
 780 021d 3C       		.byte	0x3c
 781 021e 09       		.uleb128 0x9
 782 021f 9B060000 		.4byte	.LASF44
 783 0223 07       		.byte	0x7
 784 0224 2601     		.2byte	0x126
 785 0226 21030000 		.4byte	0x321
 786 022a 40       		.byte	0x40
 787 022b 09       		.uleb128 0x9
 788 022c A2020000 		.4byte	.LASF45
 789 0230 07       		.byte	0x7
 790 0231 2C01     		.2byte	0x12c
ARM GAS  /tmp/ccXbCD6P.s 			page 15


 791 0233 56060000 		.4byte	0x656
 792 0237 48       		.byte	0x48
 793 0238 00       		.byte	0
 794 0239 03       		.uleb128 0x3
 795 023a 00070000 		.4byte	.LASF46
 796 023e 06       		.byte	0x6
 797 023f 39       		.byte	0x39
 798 0240 44020000 		.4byte	0x244
 799 0244 0A       		.uleb128 0xa
 800 0245 04       		.byte	0x4
 801 0246 43010000 		.4byte	0x143
 802 024a 03       		.uleb128 0x3
 803 024b 1C070000 		.4byte	.LASF47
 804 024f 06       		.byte	0x6
 805 0250 3E       		.byte	0x3e
 806 0251 55020000 		.4byte	0x255
 807 0255 05       		.uleb128 0x5
 808 0256 13060000 		.4byte	.LASF49
 809 025a 04       		.byte	0x4
 810 025b 07       		.byte	0x7
 811 025c 7C       		.byte	0x7c
 812 025d 6E020000 		.4byte	0x26e
 813 0261 06       		.uleb128 0x6
 814 0262 CB010000 		.4byte	.LASF50
 815 0266 07       		.byte	0x7
 816 0267 7D       		.byte	0x7d
 817 0268 44020000 		.4byte	0x244
 818 026c 00       		.byte	0
 819 026d 00       		.byte	0
 820 026e 03       		.uleb128 0x3
 821 026f B4060000 		.4byte	.LASF51
 822 0273 06       		.byte	0x6
 823 0274 45       		.byte	0x45
 824 0275 79020000 		.4byte	0x279
 825 0279 05       		.uleb128 0x5
 826 027a D0010000 		.4byte	.LASF52
 827 027e 08       		.byte	0x8
 828 027f 07       		.byte	0x7
 829 0280 83       		.byte	0x83
 830 0281 9E020000 		.4byte	0x29e
 831 0285 06       		.uleb128 0x6
 832 0286 CB010000 		.4byte	.LASF50
 833 028a 07       		.byte	0x7
 834 028b 84       		.byte	0x84
 835 028c 44020000 		.4byte	0x244
 836 0290 00       		.byte	0
 837 0291 06       		.uleb128 0x6
 838 0292 6A000000 		.4byte	.LASF53
 839 0296 07       		.byte	0x7
 840 0297 85       		.byte	0x85
 841 0298 44020000 		.4byte	0x244
 842 029c 04       		.byte	0x4
 843 029d 00       		.byte	0
 844 029e 03       		.uleb128 0x3
 845 029f 18000000 		.4byte	.LASF54
 846 02a3 06       		.byte	0x6
 847 02a4 4C       		.byte	0x4c
ARM GAS  /tmp/ccXbCD6P.s 			page 16


 848 02a5 A9020000 		.4byte	0x2a9
 849 02a9 0B       		.uleb128 0xb
 850 02aa AF030000 		.4byte	.LASF55
 851 02ae 1C       		.byte	0x1c
 852 02af 07       		.byte	0x7
 853 02b0 5E01     		.2byte	0x15e
 854 02b2 05030000 		.4byte	0x305
 855 02b6 09       		.uleb128 0x9
 856 02b7 34030000 		.4byte	.LASF30
 857 02bb 07       		.byte	0x7
 858 02bc 5F01     		.2byte	0x15f
 859 02be 6E020000 		.4byte	0x26e
 860 02c2 00       		.byte	0
 861 02c3 09       		.uleb128 0x9
 862 02c4 94040000 		.4byte	.LASF31
 863 02c8 07       		.byte	0x7
 864 02c9 6001     		.2byte	0x160
 865 02cb 0C010000 		.4byte	0x10c
 866 02cf 08       		.byte	0x8
 867 02d0 08       		.uleb128 0x8
 868 02d1 63747800 		.ascii	"ctx\000"
 869 02d5 07       		.byte	0x7
 870 02d6 6201     		.2byte	0x162
 871 02d8 89040000 		.4byte	0x489
 872 02dc 0C       		.byte	0xc
 873 02dd 09       		.uleb128 0x9
 874 02de F6030000 		.4byte	.LASF32
 875 02e2 07       		.byte	0x7
 876 02e3 6501     		.2byte	0x165
 877 02e5 44020000 		.4byte	0x244
 878 02e9 10       		.byte	0x10
 879 02ea 09       		.uleb128 0x9
 880 02eb 46060000 		.4byte	.LASF33
 881 02ef 07       		.byte	0x7
 882 02f0 6601     		.2byte	0x166
 883 02f2 44020000 		.4byte	0x244
 884 02f6 14       		.byte	0x14
 885 02f7 09       		.uleb128 0x9
 886 02f8 99040000 		.4byte	.LASF56
 887 02fc 07       		.byte	0x7
 888 02fd 6901     		.2byte	0x169
 889 02ff 44020000 		.4byte	0x244
 890 0303 18       		.byte	0x18
 891 0304 00       		.byte	0
 892 0305 03       		.uleb128 0x3
 893 0306 2B070000 		.4byte	.LASF57
 894 030a 06       		.byte	0x6
 895 030b 51       		.byte	0x51
 896 030c 10030000 		.4byte	0x310
 897 0310 0A       		.uleb128 0xa
 898 0311 04       		.byte	0x4
 899 0312 16030000 		.4byte	0x316
 900 0316 0C       		.uleb128 0xc
 901 0317 21030000 		.4byte	0x321
 902 031b 0D       		.uleb128 0xd
 903 031c 21030000 		.4byte	0x321
 904 0320 00       		.byte	0
ARM GAS  /tmp/ccXbCD6P.s 			page 17


 905 0321 0E       		.uleb128 0xe
 906 0322 04       		.byte	0x4
 907 0323 03       		.uleb128 0x3
 908 0324 E4040000 		.4byte	.LASF58
 909 0328 06       		.byte	0x6
 910 0329 56       		.byte	0x56
 911 032a 2E030000 		.4byte	0x32e
 912 032e 0B       		.uleb128 0xb
 913 032f 9A050000 		.4byte	.LASF59
 914 0333 14       		.byte	0x14
 915 0334 07       		.byte	0x7
 916 0335 3901     		.2byte	0x139
 917 0337 7D030000 		.4byte	0x37d
 918 033b 09       		.uleb128 0x9
 919 033c CB010000 		.4byte	.LASF50
 920 0340 07       		.byte	0x7
 921 0341 3A01     		.2byte	0x13a
 922 0343 87070000 		.4byte	0x787
 923 0347 00       		.byte	0
 924 0348 09       		.uleb128 0x9
 925 0349 6A000000 		.4byte	.LASF53
 926 034d 07       		.byte	0x7
 927 034e 3B01     		.2byte	0x13b
 928 0350 87070000 		.4byte	0x787
 929 0354 04       		.byte	0x4
 930 0355 09       		.uleb128 0x9
 931 0356 B8010000 		.4byte	.LASF60
 932 035a 07       		.byte	0x7
 933 035b 3C01     		.2byte	0x13c
 934 035d 61040000 		.4byte	0x461
 935 0361 08       		.byte	0x8
 936 0362 09       		.uleb128 0x9
 937 0363 9D020000 		.4byte	.LASF61
 938 0367 07       		.byte	0x7
 939 0368 3D01     		.2byte	0x13d
 940 036a 05030000 		.4byte	0x305
 941 036e 0C       		.byte	0xc
 942 036f 08       		.uleb128 0x8
 943 0370 70617200 		.ascii	"par\000"
 944 0374 07       		.byte	0x7
 945 0375 3F01     		.2byte	0x13f
 946 0377 21030000 		.4byte	0x321
 947 037b 10       		.byte	0x10
 948 037c 00       		.byte	0
 949 037d 03       		.uleb128 0x3
 950 037e D5030000 		.4byte	.LASF62
 951 0382 06       		.byte	0x6
 952 0383 5B       		.byte	0x5b
 953 0384 88030000 		.4byte	0x388
 954 0388 0B       		.uleb128 0xb
 955 0389 28040000 		.4byte	.LASF63
 956 038d 10       		.byte	0x10
 957 038e 07       		.byte	0x7
 958 038f 4901     		.2byte	0x149
 959 0391 CA030000 		.4byte	0x3ca
 960 0395 09       		.uleb128 0x9
 961 0396 CB010000 		.4byte	.LASF50
ARM GAS  /tmp/ccXbCD6P.s 			page 18


 962 039a 07       		.byte	0x7
 963 039b 4A01     		.2byte	0x14a
 964 039d 87070000 		.4byte	0x787
 965 03a1 00       		.byte	0
 966 03a2 09       		.uleb128 0x9
 967 03a3 6A000000 		.4byte	.LASF53
 968 03a7 07       		.byte	0x7
 969 03a8 4C01     		.2byte	0x14c
 970 03aa 87070000 		.4byte	0x787
 971 03ae 04       		.byte	0x4
 972 03af 09       		.uleb128 0x9
 973 03b0 B8010000 		.4byte	.LASF60
 974 03b4 07       		.byte	0x7
 975 03b5 4E01     		.2byte	0x14e
 976 03b7 61040000 		.4byte	0x461
 977 03bb 08       		.byte	0x8
 978 03bc 09       		.uleb128 0x9
 979 03bd 4F050000 		.4byte	.LASF64
 980 03c1 07       		.byte	0x7
 981 03c2 5601     		.2byte	0x156
 982 03c4 56040000 		.4byte	0x456
 983 03c8 0C       		.byte	0xc
 984 03c9 00       		.byte	0
 985 03ca 03       		.uleb128 0x3
 986 03cb 19030000 		.4byte	.LASF65
 987 03cf 06       		.byte	0x6
 988 03d0 60       		.byte	0x60
 989 03d1 D5030000 		.4byte	0x3d5
 990 03d5 0B       		.uleb128 0xb
 991 03d6 D1020000 		.4byte	.LASF66
 992 03da 04       		.byte	0x4
 993 03db 07       		.byte	0x7
 994 03dc 7001     		.2byte	0x170
 995 03de F0030000 		.4byte	0x3f0
 996 03e2 09       		.uleb128 0x9
 997 03e3 72060000 		.4byte	.LASF67
 998 03e7 07       		.byte	0x7
 999 03e8 7801     		.2byte	0x178
 1000 03ea 8D070000 		.4byte	0x78d
 1001 03ee 00       		.byte	0
 1002 03ef 00       		.byte	0
 1003 03f0 03       		.uleb128 0x3
 1004 03f1 90030000 		.4byte	.LASF68
 1005 03f5 06       		.byte	0x6
 1006 03f6 65       		.byte	0x65
 1007 03f7 FB030000 		.4byte	0x3fb
 1008 03fb 0B       		.uleb128 0xb
 1009 03fc 73050000 		.4byte	.LASF69
 1010 0400 D0       		.byte	0xd0
 1011 0401 07       		.byte	0x7
 1012 0402 9001     		.2byte	0x190
 1013 0404 56040000 		.4byte	0x456
 1014 0408 09       		.uleb128 0x9
 1015 0409 E3060000 		.4byte	.LASF70
 1016 040d 07       		.byte	0x7
 1017 040e 9401     		.2byte	0x194
 1018 0410 9E020000 		.4byte	0x29e
ARM GAS  /tmp/ccXbCD6P.s 			page 19


 1019 0414 00       		.byte	0
 1020 0415 09       		.uleb128 0x9
 1021 0416 81000000 		.4byte	.LASF71
 1022 041a 07       		.byte	0x7
 1023 041b 9801     		.2byte	0x198
 1024 041d 7D030000 		.4byte	0x37d
 1025 0421 1C       		.byte	0x1c
 1026 0422 08       		.uleb128 0x8
 1027 0423 64626700 		.ascii	"dbg\000"
 1028 0427 07       		.byte	0x7
 1029 0428 9C01     		.2byte	0x19c
 1030 042a CA030000 		.4byte	0x3ca
 1031 042e 2C       		.byte	0x2c
 1032 042f 09       		.uleb128 0x9
 1033 0430 A5010000 		.4byte	.LASF72
 1034 0434 07       		.byte	0x7
 1035 0435 A001     		.2byte	0x1a0
 1036 0437 43010000 		.4byte	0x143
 1037 043b 30       		.byte	0x30
 1038 043c 08       		.uleb128 0x8
 1039 043d 746D00   		.ascii	"tm\000"
 1040 0440 07       		.byte	0x7
 1041 0441 A501     		.2byte	0x1a5
 1042 0443 08060000 		.4byte	0x608
 1043 0447 90       		.byte	0x90
 1044 0448 09       		.uleb128 0x9
 1045 0449 47000000 		.4byte	.LASF73
 1046 044d 07       		.byte	0x7
 1047 044e AB01     		.2byte	0x1ab
 1048 0450 9A060000 		.4byte	0x69a
 1049 0454 98       		.byte	0x98
 1050 0455 00       		.byte	0
 1051 0456 03       		.uleb128 0x3
 1052 0457 5A060000 		.4byte	.LASF74
 1053 045b 08       		.byte	0x8
 1054 045c 6D       		.byte	0x6d
 1055 045d AD000000 		.4byte	0xad
 1056 0461 03       		.uleb128 0x3
 1057 0462 F1020000 		.4byte	.LASF75
 1058 0466 08       		.byte	0x8
 1059 0467 79       		.byte	0x79
 1060 0468 AD000000 		.4byte	0xad
 1061 046c 02       		.uleb128 0x2
 1062 046d 04       		.byte	0x4
 1063 046e 07       		.byte	0x7
 1064 046f F7060000 		.4byte	.LASF76
 1065 0473 03       		.uleb128 0x3
 1066 0474 C8020000 		.4byte	.LASF77
 1067 0478 09       		.byte	0x9
 1068 0479 65       		.byte	0x65
 1069 047a 21030000 		.4byte	0x321
 1070 047e 03       		.uleb128 0x3
 1071 047f EB030000 		.4byte	.LASF78
 1072 0483 09       		.byte	0x9
 1073 0484 6D       		.byte	0x6d
 1074 0485 B8000000 		.4byte	0xb8
 1075 0489 05       		.uleb128 0x5
ARM GAS  /tmp/ccXbCD6P.s 			page 20


 1076 048a 5C040000 		.4byte	.LASF79
 1077 048e 04       		.byte	0x4
 1078 048f 09       		.byte	0x9
 1079 0490 89       		.byte	0x89
 1080 0491 A1040000 		.4byte	0x4a1
 1081 0495 07       		.uleb128 0x7
 1082 0496 737000   		.ascii	"sp\000"
 1083 0499 09       		.byte	0x9
 1084 049a 8A       		.byte	0x8a
 1085 049b ED050000 		.4byte	0x5ed
 1086 049f 00       		.byte	0
 1087 04a0 00       		.byte	0
 1088 04a1 0B       		.uleb128 0xb
 1089 04a2 6F000000 		.4byte	.LASF80
 1090 04a6 64       		.byte	0x64
 1091 04a7 0A       		.byte	0xa
 1092 04a8 5901     		.2byte	0x159
 1093 04aa ED050000 		.4byte	0x5ed
 1094 04ae 08       		.uleb128 0x8
 1095 04af 73313600 		.ascii	"s16\000"
 1096 04b3 0A       		.byte	0xa
 1097 04b4 5B01     		.2byte	0x15b
 1098 04b6 73040000 		.4byte	0x473
 1099 04ba 00       		.byte	0
 1100 04bb 08       		.uleb128 0x8
 1101 04bc 73313700 		.ascii	"s17\000"
 1102 04c0 0A       		.byte	0xa
 1103 04c1 5C01     		.2byte	0x15c
 1104 04c3 73040000 		.4byte	0x473
 1105 04c7 04       		.byte	0x4
 1106 04c8 08       		.uleb128 0x8
 1107 04c9 73313800 		.ascii	"s18\000"
 1108 04cd 0A       		.byte	0xa
 1109 04ce 5D01     		.2byte	0x15d
 1110 04d0 73040000 		.4byte	0x473
 1111 04d4 08       		.byte	0x8
 1112 04d5 08       		.uleb128 0x8
 1113 04d6 73313900 		.ascii	"s19\000"
 1114 04da 0A       		.byte	0xa
 1115 04db 5E01     		.2byte	0x15e
 1116 04dd 73040000 		.4byte	0x473
 1117 04e1 0C       		.byte	0xc
 1118 04e2 08       		.uleb128 0x8
 1119 04e3 73323000 		.ascii	"s20\000"
 1120 04e7 0A       		.byte	0xa
 1121 04e8 5F01     		.2byte	0x15f
 1122 04ea 73040000 		.4byte	0x473
 1123 04ee 10       		.byte	0x10
 1124 04ef 08       		.uleb128 0x8
 1125 04f0 73323100 		.ascii	"s21\000"
 1126 04f4 0A       		.byte	0xa
 1127 04f5 6001     		.2byte	0x160
 1128 04f7 73040000 		.4byte	0x473
 1129 04fb 14       		.byte	0x14
 1130 04fc 08       		.uleb128 0x8
 1131 04fd 73323200 		.ascii	"s22\000"
 1132 0501 0A       		.byte	0xa
ARM GAS  /tmp/ccXbCD6P.s 			page 21


 1133 0502 6101     		.2byte	0x161
 1134 0504 73040000 		.4byte	0x473
 1135 0508 18       		.byte	0x18
 1136 0509 08       		.uleb128 0x8
 1137 050a 73323300 		.ascii	"s23\000"
 1138 050e 0A       		.byte	0xa
 1139 050f 6201     		.2byte	0x162
 1140 0511 73040000 		.4byte	0x473
 1141 0515 1C       		.byte	0x1c
 1142 0516 08       		.uleb128 0x8
 1143 0517 73323400 		.ascii	"s24\000"
 1144 051b 0A       		.byte	0xa
 1145 051c 6301     		.2byte	0x163
 1146 051e 73040000 		.4byte	0x473
 1147 0522 20       		.byte	0x20
 1148 0523 08       		.uleb128 0x8
 1149 0524 73323500 		.ascii	"s25\000"
 1150 0528 0A       		.byte	0xa
 1151 0529 6401     		.2byte	0x164
 1152 052b 73040000 		.4byte	0x473
 1153 052f 24       		.byte	0x24
 1154 0530 08       		.uleb128 0x8
 1155 0531 73323600 		.ascii	"s26\000"
 1156 0535 0A       		.byte	0xa
 1157 0536 6501     		.2byte	0x165
 1158 0538 73040000 		.4byte	0x473
 1159 053c 28       		.byte	0x28
 1160 053d 08       		.uleb128 0x8
 1161 053e 73323700 		.ascii	"s27\000"
 1162 0542 0A       		.byte	0xa
 1163 0543 6601     		.2byte	0x166
 1164 0545 73040000 		.4byte	0x473
 1165 0549 2C       		.byte	0x2c
 1166 054a 08       		.uleb128 0x8
 1167 054b 73323800 		.ascii	"s28\000"
 1168 054f 0A       		.byte	0xa
 1169 0550 6701     		.2byte	0x167
 1170 0552 73040000 		.4byte	0x473
 1171 0556 30       		.byte	0x30
 1172 0557 08       		.uleb128 0x8
 1173 0558 73323900 		.ascii	"s29\000"
 1174 055c 0A       		.byte	0xa
 1175 055d 6801     		.2byte	0x168
 1176 055f 73040000 		.4byte	0x473
 1177 0563 34       		.byte	0x34
 1178 0564 08       		.uleb128 0x8
 1179 0565 73333000 		.ascii	"s30\000"
 1180 0569 0A       		.byte	0xa
 1181 056a 6901     		.2byte	0x169
 1182 056c 73040000 		.4byte	0x473
 1183 0570 38       		.byte	0x38
 1184 0571 08       		.uleb128 0x8
 1185 0572 73333100 		.ascii	"s31\000"
 1186 0576 0A       		.byte	0xa
 1187 0577 6A01     		.2byte	0x16a
 1188 0579 73040000 		.4byte	0x473
 1189 057d 3C       		.byte	0x3c
ARM GAS  /tmp/ccXbCD6P.s 			page 22


 1190 057e 08       		.uleb128 0x8
 1191 057f 723400   		.ascii	"r4\000"
 1192 0582 0A       		.byte	0xa
 1193 0583 6C01     		.2byte	0x16c
 1194 0585 73040000 		.4byte	0x473
 1195 0589 40       		.byte	0x40
 1196 058a 08       		.uleb128 0x8
 1197 058b 723500   		.ascii	"r5\000"
 1198 058e 0A       		.byte	0xa
 1199 058f 6D01     		.2byte	0x16d
 1200 0591 73040000 		.4byte	0x473
 1201 0595 44       		.byte	0x44
 1202 0596 08       		.uleb128 0x8
 1203 0597 723600   		.ascii	"r6\000"
 1204 059a 0A       		.byte	0xa
 1205 059b 6E01     		.2byte	0x16e
 1206 059d 73040000 		.4byte	0x473
 1207 05a1 48       		.byte	0x48
 1208 05a2 08       		.uleb128 0x8
 1209 05a3 723700   		.ascii	"r7\000"
 1210 05a6 0A       		.byte	0xa
 1211 05a7 6F01     		.2byte	0x16f
 1212 05a9 73040000 		.4byte	0x473
 1213 05ad 4C       		.byte	0x4c
 1214 05ae 08       		.uleb128 0x8
 1215 05af 723800   		.ascii	"r8\000"
 1216 05b2 0A       		.byte	0xa
 1217 05b3 7001     		.2byte	0x170
 1218 05b5 73040000 		.4byte	0x473
 1219 05b9 50       		.byte	0x50
 1220 05ba 08       		.uleb128 0x8
 1221 05bb 723900   		.ascii	"r9\000"
 1222 05be 0A       		.byte	0xa
 1223 05bf 7101     		.2byte	0x171
 1224 05c1 73040000 		.4byte	0x473
 1225 05c5 54       		.byte	0x54
 1226 05c6 08       		.uleb128 0x8
 1227 05c7 72313000 		.ascii	"r10\000"
 1228 05cb 0A       		.byte	0xa
 1229 05cc 7201     		.2byte	0x172
 1230 05ce 73040000 		.4byte	0x473
 1231 05d2 58       		.byte	0x58
 1232 05d3 08       		.uleb128 0x8
 1233 05d4 72313100 		.ascii	"r11\000"
 1234 05d8 0A       		.byte	0xa
 1235 05d9 7301     		.2byte	0x173
 1236 05db 73040000 		.4byte	0x473
 1237 05df 5C       		.byte	0x5c
 1238 05e0 08       		.uleb128 0x8
 1239 05e1 6C7200   		.ascii	"lr\000"
 1240 05e4 0A       		.byte	0xa
 1241 05e5 7401     		.2byte	0x174
 1242 05e7 73040000 		.4byte	0x473
 1243 05eb 60       		.byte	0x60
 1244 05ec 00       		.byte	0
 1245 05ed 0A       		.uleb128 0xa
 1246 05ee 04       		.byte	0x4
ARM GAS  /tmp/ccXbCD6P.s 			page 23


 1247 05ef A1040000 		.4byte	0x4a1
 1248 05f3 0F       		.uleb128 0xf
 1249 05f4 04       		.byte	0x4
 1250 05f5 0B       		.byte	0xb
 1251 05f6 38       		.byte	0x38
 1252 05f7 08060000 		.4byte	0x608
 1253 05fb 06       		.uleb128 0x6
 1254 05fc 7C060000 		.4byte	.LASF81
 1255 0600 0B       		.byte	0xb
 1256 0601 3C       		.byte	0x3c
 1257 0602 D5000000 		.4byte	0xd5
 1258 0606 00       		.byte	0
 1259 0607 00       		.byte	0
 1260 0608 03       		.uleb128 0x3
 1261 0609 69040000 		.4byte	.LASF82
 1262 060d 0B       		.byte	0xb
 1263 060e 3D       		.byte	0x3d
 1264 060f F3050000 		.4byte	0x5f3
 1265 0613 0F       		.uleb128 0xf
 1266 0614 18       		.byte	0x18
 1267 0615 0B       		.byte	0xb
 1268 0616 48       		.byte	0x48
 1269 0617 56060000 		.4byte	0x656
 1270 061b 06       		.uleb128 0x6
 1271 061c 55060000 		.4byte	.LASF83
 1272 0620 0B       		.byte	0xb
 1273 0621 49       		.byte	0x49
 1274 0622 D5000000 		.4byte	0xd5
 1275 0626 00       		.byte	0
 1276 0627 06       		.uleb128 0x6
 1277 0628 75010000 		.4byte	.LASF84
 1278 062c 0B       		.byte	0xb
 1279 062d 4A       		.byte	0x4a
 1280 062e D5000000 		.4byte	0xd5
 1281 0632 04       		.byte	0x4
 1282 0633 06       		.uleb128 0x6
 1283 0634 7B030000 		.4byte	.LASF85
 1284 0638 0B       		.byte	0xb
 1285 0639 4B       		.byte	0x4b
 1286 063a D5000000 		.4byte	0xd5
 1287 063e 08       		.byte	0x8
 1288 063f 07       		.uleb128 0x7
 1289 0640 6E00     		.ascii	"n\000"
 1290 0642 0B       		.byte	0xb
 1291 0643 4C       		.byte	0x4c
 1292 0644 38010000 		.4byte	0x138
 1293 0648 0C       		.byte	0xc
 1294 0649 06       		.uleb128 0x6
 1295 064a AC040000 		.4byte	.LASF86
 1296 064e 0B       		.byte	0xb
 1297 064f 4D       		.byte	0x4d
 1298 0650 E0000000 		.4byte	0xe0
 1299 0654 10       		.byte	0x10
 1300 0655 00       		.byte	0
 1301 0656 03       		.uleb128 0x3
 1302 0657 7B010000 		.4byte	.LASF87
 1303 065b 0B       		.byte	0xb
ARM GAS  /tmp/ccXbCD6P.s 			page 24


 1304 065c 4E       		.byte	0x4e
 1305 065d 13060000 		.4byte	0x613
 1306 0661 0F       		.uleb128 0xf
 1307 0662 38       		.byte	0x38
 1308 0663 0C       		.byte	0xc
 1309 0664 38       		.byte	0x38
 1310 0665 9A060000 		.4byte	0x69a
 1311 0669 06       		.uleb128 0x6
 1312 066a 2E030000 		.4byte	.LASF88
 1313 066e 0C       		.byte	0xc
 1314 066f 39       		.byte	0x39
 1315 0670 38010000 		.4byte	0x138
 1316 0674 00       		.byte	0
 1317 0675 06       		.uleb128 0x6
 1318 0676 14050000 		.4byte	.LASF89
 1319 067a 0C       		.byte	0xc
 1320 067b 3A       		.byte	0x3a
 1321 067c 38010000 		.4byte	0x138
 1322 0680 04       		.byte	0x4
 1323 0681 06       		.uleb128 0x6
 1324 0682 4D070000 		.4byte	.LASF90
 1325 0686 0C       		.byte	0xc
 1326 0687 3B       		.byte	0x3b
 1327 0688 56060000 		.4byte	0x656
 1328 068c 08       		.byte	0x8
 1329 068d 06       		.uleb128 0x6
 1330 068e A4030000 		.4byte	.LASF91
 1331 0692 0C       		.byte	0xc
 1332 0693 3D       		.byte	0x3d
 1333 0694 56060000 		.4byte	0x656
 1334 0698 20       		.byte	0x20
 1335 0699 00       		.byte	0
 1336 069a 03       		.uleb128 0x3
 1337 069b 5C030000 		.4byte	.LASF92
 1338 069f 0C       		.byte	0xc
 1339 06a0 3F       		.byte	0x3f
 1340 06a1 61060000 		.4byte	0x661
 1341 06a5 10       		.uleb128 0x10
 1342 06a6 04       		.byte	0x4
 1343 06a7 07       		.byte	0x7
 1344 06a8 C6       		.byte	0xc6
 1345 06a9 07070000 		.4byte	0x707
 1346 06ad 11       		.uleb128 0x11
 1347 06ae C4060000 		.4byte	.LASF93
 1348 06b2 07       		.byte	0x7
 1349 06b3 CD       		.byte	0xcd
 1350 06b4 17010000 		.4byte	0x117
 1351 06b8 11       		.uleb128 0x11
 1352 06b9 A8020000 		.4byte	.LASF94
 1353 06bd 07       		.byte	0x7
 1354 06be D4       		.byte	0xd4
 1355 06bf 17010000 		.4byte	0x117
 1356 06c3 11       		.uleb128 0x11
 1357 06c4 61020000 		.4byte	.LASF95
 1358 06c8 07       		.byte	0x7
 1359 06c9 DB       		.byte	0xdb
 1360 06ca 21030000 		.4byte	0x321
ARM GAS  /tmp/ccXbCD6P.s 			page 25


 1361 06ce 11       		.uleb128 0x11
 1362 06cf 3F040000 		.4byte	.LASF96
 1363 06d3 07       		.byte	0x7
 1364 06d4 E2       		.byte	0xe2
 1365 06d5 07070000 		.4byte	0x707
 1366 06d9 11       		.uleb128 0x11
 1367 06da B0010000 		.4byte	.LASF97
 1368 06de 07       		.byte	0x7
 1369 06df E7       		.byte	0xe7
 1370 06e0 17010000 		.4byte	0x117
 1371 06e4 11       		.uleb128 0x11
 1372 06e5 12030000 		.4byte	.LASF98
 1373 06e9 07       		.byte	0x7
 1374 06ea F0       		.byte	0xf0
 1375 06eb 32070000 		.4byte	0x732
 1376 06ef 11       		.uleb128 0x11
 1377 06f0 0C060000 		.4byte	.LASF99
 1378 06f4 07       		.byte	0x7
 1379 06f5 F9       		.byte	0xf9
 1380 06f6 69070000 		.4byte	0x769
 1381 06fa 12       		.uleb128 0x12
 1382 06fb 6C050000 		.4byte	.LASF100
 1383 06ff 07       		.byte	0x7
 1384 0700 0101     		.2byte	0x101
 1385 0702 22010000 		.4byte	0x122
 1386 0706 00       		.byte	0
 1387 0707 0A       		.uleb128 0xa
 1388 0708 04       		.byte	0x4
 1389 0709 39020000 		.4byte	0x239
 1390 070d 05       		.uleb128 0x5
 1391 070e AB050000 		.4byte	.LASF101
 1392 0712 0C       		.byte	0xc
 1393 0713 0D       		.byte	0xd
 1394 0714 34       		.byte	0x34
 1395 0715 32070000 		.4byte	0x732
 1396 0719 06       		.uleb128 0x6
 1397 071a 34030000 		.4byte	.LASF30
 1398 071e 0D       		.byte	0xd
 1399 071f 35       		.byte	0x35
 1400 0720 6E020000 		.4byte	0x26e
 1401 0724 00       		.byte	0
 1402 0725 07       		.uleb128 0x7
 1403 0726 636E7400 		.ascii	"cnt\000"
 1404 072a 0D       		.byte	0xd
 1405 072b 37       		.byte	0x37
 1406 072c 2D010000 		.4byte	0x12d
 1407 0730 08       		.byte	0x8
 1408 0731 00       		.byte	0
 1409 0732 0A       		.uleb128 0xa
 1410 0733 04       		.byte	0x4
 1411 0734 0D070000 		.4byte	0x70d
 1412 0738 05       		.uleb128 0x5
 1413 0739 13070000 		.4byte	.LASF102
 1414 073d 10       		.byte	0x10
 1415 073e 0E       		.byte	0xe
 1416 073f 39       		.byte	0x39
 1417 0740 69070000 		.4byte	0x769
ARM GAS  /tmp/ccXbCD6P.s 			page 26


 1418 0744 06       		.uleb128 0x6
 1419 0745 34030000 		.4byte	.LASF30
 1420 0749 0E       		.byte	0xe
 1421 074a 3A       		.byte	0x3a
 1422 074b 6E020000 		.4byte	0x26e
 1423 074f 00       		.byte	0
 1424 0750 06       		.uleb128 0x6
 1425 0751 23060000 		.4byte	.LASF103
 1426 0755 0E       		.byte	0xe
 1427 0756 3C       		.byte	0x3c
 1428 0757 44020000 		.4byte	0x244
 1429 075b 08       		.byte	0x8
 1430 075c 06       		.uleb128 0x6
 1431 075d CB010000 		.4byte	.LASF50
 1432 0761 0E       		.byte	0xe
 1433 0762 3E       		.byte	0x3e
 1434 0763 A8070000 		.4byte	0x7a8
 1435 0767 0C       		.byte	0xc
 1436 0768 00       		.byte	0
 1437 0769 0A       		.uleb128 0xa
 1438 076a 04       		.byte	0x4
 1439 076b 38070000 		.4byte	0x738
 1440 076f 0A       		.uleb128 0xa
 1441 0770 04       		.byte	0x4
 1442 0771 7C070000 		.4byte	0x77c
 1443 0775 02       		.uleb128 0x2
 1444 0776 01       		.byte	0x1
 1445 0777 08       		.byte	0x8
 1446 0778 41060000 		.4byte	.LASF104
 1447 077c 13       		.uleb128 0x13
 1448 077d 75070000 		.4byte	0x775
 1449 0781 0A       		.uleb128 0xa
 1450 0782 04       		.byte	0x4
 1451 0783 7E040000 		.4byte	0x47e
 1452 0787 0A       		.uleb128 0xa
 1453 0788 04       		.byte	0x4
 1454 0789 23030000 		.4byte	0x323
 1455 078d 14       		.uleb128 0x14
 1456 078e 6F070000 		.4byte	0x76f
 1457 0792 03       		.uleb128 0x3
 1458 0793 09000000 		.4byte	.LASF105
 1459 0797 0F       		.byte	0xf
 1460 0798 34       		.byte	0x34
 1461 0799 10030000 		.4byte	0x310
 1462 079d 03       		.uleb128 0x3
 1463 079e E9020000 		.4byte	.LASF106
 1464 07a2 0E       		.byte	0xe
 1465 07a3 34       		.byte	0x34
 1466 07a4 38070000 		.4byte	0x738
 1467 07a8 0A       		.uleb128 0xa
 1468 07a9 04       		.byte	0x4
 1469 07aa 9D070000 		.4byte	0x79d
 1470 07ae 02       		.uleb128 0x2
 1471 07af 01       		.byte	0x1
 1472 07b0 02       		.byte	0x2
 1473 07b1 1D050000 		.4byte	.LASF107
 1474 07b5 03       		.uleb128 0x3
ARM GAS  /tmp/ccXbCD6P.s 			page 27


 1475 07b6 7A040000 		.4byte	.LASF108
 1476 07ba 10       		.byte	0x10
 1477 07bb 4C       		.byte	0x4c
 1478 07bc C0070000 		.4byte	0x7c0
 1479 07c0 0A       		.uleb128 0xa
 1480 07c1 04       		.byte	0x4
 1481 07c2 C6070000 		.4byte	0x7c6
 1482 07c6 15       		.uleb128 0x15
 1483 07c7 21030000 		.4byte	0x321
 1484 07cb DF070000 		.4byte	0x7df
 1485 07cf 0D       		.uleb128 0xd
 1486 07d0 C3000000 		.4byte	0xc3
 1487 07d4 0D       		.uleb128 0xd
 1488 07d5 90000000 		.4byte	0x90
 1489 07d9 0D       		.uleb128 0xd
 1490 07da C3000000 		.4byte	0xc3
 1491 07de 00       		.byte	0
 1492 07df 03       		.uleb128 0x3
 1493 07e0 F4040000 		.4byte	.LASF109
 1494 07e4 11       		.byte	0x11
 1495 07e5 48       		.byte	0x48
 1496 07e6 EA070000 		.4byte	0x7ea
 1497 07ea 05       		.uleb128 0x5
 1498 07eb 68070000 		.4byte	.LASF110
 1499 07ef 1C       		.byte	0x1c
 1500 07f0 11       		.byte	0x11
 1501 07f1 60       		.byte	0x60
 1502 07f2 1B080000 		.4byte	0x81b
 1503 07f6 06       		.uleb128 0x6
 1504 07f7 88000000 		.4byte	.LASF111
 1505 07fb 11       		.byte	0x11
 1506 07fc 61       		.byte	0x61
 1507 07fd B5070000 		.4byte	0x7b5
 1508 0801 00       		.byte	0
 1509 0802 06       		.uleb128 0x6
 1510 0803 58070000 		.4byte	.LASF112
 1511 0807 11       		.byte	0x11
 1512 0808 63       		.byte	0x63
 1513 0809 1B080000 		.4byte	0x81b
 1514 080d 04       		.byte	0x4
 1515 080e 07       		.uleb128 0x7
 1516 080f 6D747800 		.ascii	"mtx\000"
 1517 0813 11       		.byte	0x11
 1518 0814 65       		.byte	0x65
 1519 0815 9D070000 		.4byte	0x79d
 1520 0819 0C       		.byte	0xc
 1521 081a 00       		.byte	0
 1522 081b 03       		.uleb128 0x3
 1523 081c 64060000 		.4byte	.LASF113
 1524 0820 11       		.byte	0x11
 1525 0821 4D       		.byte	0x4d
 1526 0822 26080000 		.4byte	0x826
 1527 0826 16       		.uleb128 0x16
 1528 0827 39050000 		.4byte	.LASF148
 1529 082b 08       		.byte	0x8
 1530 082c 11       		.byte	0x11
 1531 082d 52       		.byte	0x52
ARM GAS  /tmp/ccXbCD6P.s 			page 28


 1532 082e 49080000 		.4byte	0x849
 1533 0832 11       		.uleb128 0x11
 1534 0833 96060000 		.4byte	.LASF114
 1535 0837 11       		.byte	0x11
 1536 0838 56       		.byte	0x56
 1537 0839 49080000 		.4byte	0x849
 1538 083d 11       		.uleb128 0x11
 1539 083e B7040000 		.4byte	.LASF115
 1540 0842 11       		.byte	0x11
 1541 0843 5A       		.byte	0x5a
 1542 0844 70080000 		.4byte	0x870
 1543 0848 00       		.byte	0
 1544 0849 0F       		.uleb128 0xf
 1545 084a 08       		.byte	0x8
 1546 084b 11       		.byte	0x11
 1547 084c 53       		.byte	0x53
 1548 084d 6A080000 		.4byte	0x86a
 1549 0851 06       		.uleb128 0x6
 1550 0852 CB010000 		.4byte	.LASF50
 1551 0856 11       		.byte	0x11
 1552 0857 54       		.byte	0x54
 1553 0858 6A080000 		.4byte	0x86a
 1554 085c 00       		.byte	0
 1555 085d 06       		.uleb128 0x6
 1556 085e 7B000000 		.4byte	.LASF116
 1557 0862 11       		.byte	0x11
 1558 0863 55       		.byte	0x55
 1559 0864 C3000000 		.4byte	0xc3
 1560 0868 04       		.byte	0x4
 1561 0869 00       		.byte	0
 1562 086a 0A       		.uleb128 0xa
 1563 086b 04       		.byte	0x4
 1564 086c 1B080000 		.4byte	0x81b
 1565 0870 0F       		.uleb128 0xf
 1566 0871 08       		.byte	0x8
 1567 0872 11       		.byte	0x11
 1568 0873 57       		.byte	0x57
 1569 0874 91080000 		.4byte	0x891
 1570 0878 06       		.uleb128 0x6
 1571 0879 29060000 		.4byte	.LASF117
 1572 087d 11       		.byte	0x11
 1573 087e 58       		.byte	0x58
 1574 087f 91080000 		.4byte	0x891
 1575 0883 00       		.byte	0
 1576 0884 06       		.uleb128 0x6
 1577 0885 51020000 		.4byte	.LASF118
 1578 0889 11       		.byte	0x11
 1579 088a 59       		.byte	0x59
 1580 088b C3000000 		.4byte	0xc3
 1581 088f 04       		.byte	0x4
 1582 0890 00       		.byte	0
 1583 0891 0A       		.uleb128 0xa
 1584 0892 04       		.byte	0x4
 1585 0893 DF070000 		.4byte	0x7df
 1586 0897 13       		.uleb128 0x13
 1587 0898 97000000 		.4byte	0x97
 1588 089c 05       		.uleb128 0x5
ARM GAS  /tmp/ccXbCD6P.s 			page 29


 1589 089d 16020000 		.4byte	.LASF119
 1590 08a1 0C       		.byte	0xc
 1591 08a2 01       		.byte	0x1
 1592 08a3 26       		.byte	0x26
 1593 08a4 CD080000 		.4byte	0x8cd
 1594 08a8 06       		.uleb128 0x6
 1595 08a9 45040000 		.4byte	.LASF120
 1596 08ad 01       		.byte	0x1
 1597 08ae 27       		.byte	0x27
 1598 08af 21030000 		.4byte	0x321
 1599 08b3 00       		.byte	0
 1600 08b4 06       		.uleb128 0x6
 1601 08b5 51020000 		.4byte	.LASF118
 1602 08b9 01       		.byte	0x1
 1603 08ba 28       		.byte	0x28
 1604 08bb AD000000 		.4byte	0xad
 1605 08bf 04       		.byte	0x4
 1606 08c0 06       		.uleb128 0x6
 1607 08c1 F1060000 		.4byte	.LASF37
 1608 08c5 01       		.byte	0x1
 1609 08c6 29       		.byte	0x29
 1610 08c7 AD000000 		.4byte	0xad
 1611 08cb 08       		.byte	0x8
 1612 08cc 00       		.byte	0
 1613 08cd 17       		.uleb128 0x17
 1614 08ce 86050000 		.4byte	.LASF149
 1615 08d2 01       		.byte	0x1
 1616 08d3 5A       		.byte	0x5a
 1617 08d4 21030000 		.4byte	0x321
 1618 08d8 00000000 		.4byte	.LFB324
 1619 08dc 84000000 		.4byte	.LFE324-.LFB324
 1620 08e0 01       		.uleb128 0x1
 1621 08e1 9C       		.byte	0x9c
 1622 08e2 F4090000 		.4byte	0x9f4
 1623 08e6 18       		.uleb128 0x18
 1624 08e7 51020000 		.4byte	.LASF118
 1625 08eb 01       		.byte	0x1
 1626 08ec 5A       		.byte	0x5a
 1627 08ed C3000000 		.4byte	0xc3
 1628 08f1 00000000 		.4byte	.LLST0
 1629 08f5 18       		.uleb128 0x18
 1630 08f6 F1060000 		.4byte	.LASF37
 1631 08fa 01       		.byte	0x1
 1632 08fb 5A       		.byte	0x5a
 1633 08fc AD000000 		.4byte	0xad
 1634 0900 60000000 		.4byte	.LLST1
 1635 0904 19       		.uleb128 0x19
 1636 0905 0A050000 		.4byte	.LASF121
 1637 0909 01       		.byte	0x1
 1638 090a 5F       		.byte	0x5f
 1639 090b 97080000 		.4byte	0x897
 1640 090f 9A000000 		.4byte	.LLST2
 1641 0913 19       		.uleb128 0x19
 1642 0914 D5040000 		.4byte	.LASF122
 1643 0918 01       		.byte	0x1
 1644 0919 60       		.byte	0x60
 1645 091a 97080000 		.4byte	0x897
ARM GAS  /tmp/ccXbCD6P.s 			page 30


 1646 091e BA000000 		.4byte	.LLST3
 1647 0922 1A       		.uleb128 0x1a
 1648 0923 7000     		.ascii	"p\000"
 1649 0925 01       		.byte	0x1
 1650 0926 61       		.byte	0x61
 1651 0927 21030000 		.4byte	0x321
 1652 092b DA000000 		.4byte	.LLST4
 1653 092f 1A       		.uleb128 0x1a
 1654 0930 6900     		.ascii	"i\000"
 1655 0932 01       		.byte	0x1
 1656 0933 62       		.byte	0x62
 1657 0934 97000000 		.4byte	0x97
 1658 0938 5C010000 		.4byte	.LLST5
 1659 093c 1B       		.uleb128 0x1b
 1660 093d A1060000 		.4byte	.LASF150
 1661 0941 01       		.byte	0x1
 1662 0942 A2       		.byte	0xa2
 1663 0943 68000000 		.4byte	.L7
 1664 0947 1C       		.uleb128 0x1c
 1665 0948 26000000 		.4byte	.LVL7
 1666 094c 2D0E0000 		.4byte	0xe2d
 1667 0950 65090000 		.4byte	0x965
 1668 0954 1D       		.uleb128 0x1d
 1669 0955 01       		.uleb128 0x1
 1670 0956 50       		.byte	0x50
 1671 0957 01       		.uleb128 0x1
 1672 0958 30       		.byte	0x30
 1673 0959 1D       		.uleb128 0x1d
 1674 095a 01       		.uleb128 0x1
 1675 095b 51       		.byte	0x51
 1676 095c 02       		.uleb128 0x2
 1677 095d 75       		.byte	0x75
 1678 095e 00       		.sleb128 0
 1679 095f 1D       		.uleb128 0x1d
 1680 0960 01       		.uleb128 0x1
 1681 0961 52       		.byte	0x52
 1682 0962 01       		.uleb128 0x1
 1683 0963 38       		.byte	0x38
 1684 0964 00       		.byte	0
 1685 0965 1C       		.uleb128 0x1c
 1686 0966 36000000 		.4byte	.LVL10
 1687 096a 2D0E0000 		.4byte	0xe2d
 1688 096e 87090000 		.4byte	0x987
 1689 0972 1D       		.uleb128 0x1d
 1690 0973 01       		.uleb128 0x1
 1691 0974 50       		.byte	0x50
 1692 0975 05       		.uleb128 0x5
 1693 0976 03       		.byte	0x3
 1694 0977 1C000000 		.4byte	.LANCHOR0+28
 1695 097b 1D       		.uleb128 0x1d
 1696 097c 01       		.uleb128 0x1
 1697 097d 51       		.byte	0x51
 1698 097e 02       		.uleb128 0x2
 1699 097f 75       		.byte	0x75
 1700 0980 00       		.sleb128 0
 1701 0981 1D       		.uleb128 0x1d
 1702 0982 01       		.uleb128 0x1
ARM GAS  /tmp/ccXbCD6P.s 			page 31


 1703 0983 52       		.byte	0x52
 1704 0984 01       		.uleb128 0x1
 1705 0985 38       		.byte	0x38
 1706 0986 00       		.byte	0
 1707 0987 1C       		.uleb128 0x1c
 1708 0988 44000000 		.4byte	.LVL12
 1709 098c 2D0E0000 		.4byte	0xe2d
 1710 0990 A9090000 		.4byte	0x9a9
 1711 0994 1D       		.uleb128 0x1d
 1712 0995 01       		.uleb128 0x1
 1713 0996 50       		.byte	0x50
 1714 0997 05       		.uleb128 0x5
 1715 0998 03       		.byte	0x3
 1716 0999 1C000000 		.4byte	.LANCHOR0+28
 1717 099d 1D       		.uleb128 0x1d
 1718 099e 01       		.uleb128 0x1
 1719 099f 51       		.byte	0x51
 1720 09a0 02       		.uleb128 0x2
 1721 09a1 75       		.byte	0x75
 1722 09a2 00       		.sleb128 0
 1723 09a3 1D       		.uleb128 0x1d
 1724 09a4 01       		.uleb128 0x1
 1725 09a5 52       		.byte	0x52
 1726 09a6 01       		.uleb128 0x1
 1727 09a7 38       		.byte	0x38
 1728 09a8 00       		.byte	0
 1729 09a9 1C       		.uleb128 0x1c
 1730 09aa 50000000 		.4byte	.LVL14
 1731 09ae 2D0E0000 		.4byte	0xe2d
 1732 09b2 C8090000 		.4byte	0x9c8
 1733 09b6 1D       		.uleb128 0x1d
 1734 09b7 01       		.uleb128 0x1
 1735 09b8 50       		.byte	0x50
 1736 09b9 02       		.uleb128 0x2
 1737 09ba 74       		.byte	0x74
 1738 09bb 00       		.sleb128 0
 1739 09bc 1D       		.uleb128 0x1d
 1740 09bd 01       		.uleb128 0x1
 1741 09be 51       		.byte	0x51
 1742 09bf 02       		.uleb128 0x2
 1743 09c0 75       		.byte	0x75
 1744 09c1 00       		.sleb128 0
 1745 09c2 1D       		.uleb128 0x1d
 1746 09c3 01       		.uleb128 0x1
 1747 09c4 52       		.byte	0x52
 1748 09c5 01       		.uleb128 0x1
 1749 09c6 38       		.byte	0x38
 1750 09c7 00       		.byte	0
 1751 09c8 1C       		.uleb128 0x1c
 1752 09c9 5E000000 		.4byte	.LVL16
 1753 09cd 2D0E0000 		.4byte	0xe2d
 1754 09d1 EA090000 		.4byte	0x9ea
 1755 09d5 1D       		.uleb128 0x1d
 1756 09d6 01       		.uleb128 0x1
 1757 09d7 50       		.byte	0x50
 1758 09d8 05       		.uleb128 0x5
 1759 09d9 03       		.byte	0x3
ARM GAS  /tmp/ccXbCD6P.s 			page 32


 1760 09da 00000000 		.4byte	.LANCHOR1
 1761 09de 1D       		.uleb128 0x1d
 1762 09df 01       		.uleb128 0x1
 1763 09e0 51       		.byte	0x51
 1764 09e1 02       		.uleb128 0x2
 1765 09e2 75       		.byte	0x75
 1766 09e3 00       		.sleb128 0
 1767 09e4 1D       		.uleb128 0x1d
 1768 09e5 01       		.uleb128 0x1
 1769 09e6 52       		.byte	0x52
 1770 09e7 01       		.uleb128 0x1
 1771 09e8 38       		.byte	0x38
 1772 09e9 00       		.byte	0
 1773 09ea 1E       		.uleb128 0x1e
 1774 09eb 72000000 		.4byte	.LVL18
 1775 09ef 380E0000 		.4byte	0xe38
 1776 09f3 00       		.byte	0
 1777 09f4 1F       		.uleb128 0x1f
 1778 09f5 93050000 		.4byte	.LASF123
 1779 09f9 01       		.byte	0x1
 1780 09fa A9       		.byte	0xa9
 1781 09fb 21030000 		.4byte	0x321
 1782 09ff 00000000 		.4byte	.LFB325
 1783 0a03 06000000 		.4byte	.LFE325-.LFB325
 1784 0a07 01       		.uleb128 0x1
 1785 0a08 9C       		.byte	0x9c
 1786 0a09 330A0000 		.4byte	0xa33
 1787 0a0d 18       		.uleb128 0x18
 1788 0a0e 51020000 		.4byte	.LASF118
 1789 0a12 01       		.byte	0x1
 1790 0a13 A9       		.byte	0xa9
 1791 0a14 C3000000 		.4byte	0xc3
 1792 0a18 7C010000 		.4byte	.LLST6
 1793 0a1c 20       		.uleb128 0x20
 1794 0a1d 06000000 		.4byte	.LVL23
 1795 0a21 CD080000 		.4byte	0x8cd
 1796 0a25 1D       		.uleb128 0x1d
 1797 0a26 01       		.uleb128 0x1
 1798 0a27 50       		.byte	0x50
 1799 0a28 03       		.uleb128 0x3
 1800 0a29 F3       		.byte	0xf3
 1801 0a2a 01       		.uleb128 0x1
 1802 0a2b 50       		.byte	0x50
 1803 0a2c 1D       		.uleb128 0x1d
 1804 0a2d 01       		.uleb128 0x1
 1805 0a2e 51       		.byte	0x51
 1806 0a2f 01       		.uleb128 0x1
 1807 0a30 30       		.byte	0x30
 1808 0a31 00       		.byte	0
 1809 0a32 00       		.byte	0
 1810 0a33 1F       		.uleb128 0x1f
 1811 0a34 2C000000 		.4byte	.LASF124
 1812 0a38 01       		.byte	0x1
 1813 0a39 BA       		.byte	0xba
 1814 0a3a 21030000 		.4byte	0x321
 1815 0a3e 00000000 		.4byte	.LFB327
 1816 0a42 06000000 		.4byte	.LFE327-.LFB327
ARM GAS  /tmp/ccXbCD6P.s 			page 33


 1817 0a46 01       		.uleb128 0x1
 1818 0a47 9C       		.byte	0x9c
 1819 0a48 720A0000 		.4byte	0xa72
 1820 0a4c 18       		.uleb128 0x18
 1821 0a4d 51020000 		.4byte	.LASF118
 1822 0a51 01       		.byte	0x1
 1823 0a52 BA       		.byte	0xba
 1824 0a53 C3000000 		.4byte	0xc3
 1825 0a57 9D010000 		.4byte	.LLST7
 1826 0a5b 20       		.uleb128 0x20
 1827 0a5c 06000000 		.4byte	.LVL25
 1828 0a60 CD080000 		.4byte	0x8cd
 1829 0a64 1D       		.uleb128 0x1d
 1830 0a65 01       		.uleb128 0x1
 1831 0a66 50       		.byte	0x50
 1832 0a67 03       		.uleb128 0x3
 1833 0a68 F3       		.byte	0xf3
 1834 0a69 01       		.uleb128 0x1
 1835 0a6a 50       		.byte	0x50
 1836 0a6b 1D       		.uleb128 0x1d
 1837 0a6c 01       		.uleb128 0x1
 1838 0a6d 51       		.byte	0x51
 1839 0a6e 01       		.uleb128 0x1
 1840 0a6f 31       		.byte	0x31
 1841 0a70 00       		.byte	0
 1842 0a71 00       		.byte	0
 1843 0a72 21       		.uleb128 0x21
 1844 0a73 88040000 		.4byte	.LASF129
 1845 0a77 01       		.byte	0x1
 1846 0a78 48       		.byte	0x48
 1847 0a79 00000000 		.4byte	.LFB323
 1848 0a7d 30000000 		.4byte	.LFE323-.LFB323
 1849 0a81 01       		.uleb128 0x1
 1850 0a82 9C       		.byte	0x9c
 1851 0a83 010B0000 		.4byte	0xb01
 1852 0a87 1A       		.uleb128 0x1a
 1853 0a88 6900     		.ascii	"i\000"
 1854 0a8a 01       		.byte	0x1
 1855 0a8b 4A       		.byte	0x4a
 1856 0a8c 97000000 		.4byte	0x97
 1857 0a90 BE010000 		.4byte	.LLST8
 1858 0a94 19       		.uleb128 0x19
 1859 0a95 B1020000 		.4byte	.LASF125
 1860 0a99 01       		.byte	0x1
 1861 0a9a 54       		.byte	0x54
 1862 0a9b 21030000 		.4byte	0x321
 1863 0a9f DE010000 		.4byte	.LLST9
 1864 0aa3 22       		.uleb128 0x22
 1865 0aa4 7D050000 		.4byte	.LASF151
 1866 0aa8 110B0000 		.4byte	0xb11
 1867 0aac 1C       		.uleb128 0x1c
 1868 0aad 10000000 		.4byte	.LVL27
 1869 0ab1 410E0000 		.4byte	0xe41
 1870 0ab5 D10A0000 		.4byte	0xad1
 1871 0ab9 1D       		.uleb128 0x1d
 1872 0aba 01       		.uleb128 0x1
 1873 0abb 50       		.byte	0x50
ARM GAS  /tmp/ccXbCD6P.s 			page 34


 1874 0abc 05       		.uleb128 0x5
 1875 0abd 03       		.byte	0x3
 1876 0abe 1C000000 		.4byte	.LANCHOR0+28
 1877 0ac2 1D       		.uleb128 0x1d
 1878 0ac3 01       		.uleb128 0x1
 1879 0ac4 51       		.byte	0x51
 1880 0ac5 03       		.uleb128 0x3
 1881 0ac6 40       		.byte	0x40
 1882 0ac7 48       		.byte	0x48
 1883 0ac8 24       		.byte	0x24
 1884 0ac9 1D       		.uleb128 0x1d
 1885 0aca 01       		.uleb128 0x1
 1886 0acb 52       		.byte	0x52
 1887 0acc 03       		.uleb128 0x3
 1888 0acd 40       		.byte	0x40
 1889 0ace 3C       		.byte	0x3c
 1890 0acf 24       		.byte	0x24
 1891 0ad0 00       		.byte	0
 1892 0ad1 1C       		.uleb128 0x1c
 1893 0ad2 18000000 		.4byte	.LVL28
 1894 0ad6 330A0000 		.4byte	0xa33
 1895 0ada E60A0000 		.4byte	0xae6
 1896 0ade 1D       		.uleb128 0x1d
 1897 0adf 01       		.uleb128 0x1
 1898 0ae0 50       		.byte	0x50
 1899 0ae1 03       		.uleb128 0x3
 1900 0ae2 0A       		.byte	0xa
 1901 0ae3 0010     		.2byte	0x1000
 1902 0ae5 00       		.byte	0
 1903 0ae6 20       		.uleb128 0x20
 1904 0ae7 28000000 		.4byte	.LVL30
 1905 0aeb 410E0000 		.4byte	0xe41
 1906 0aef 1D       		.uleb128 0x1d
 1907 0af0 01       		.uleb128 0x1
 1908 0af1 50       		.byte	0x50
 1909 0af2 05       		.uleb128 0x5
 1910 0af3 03       		.byte	0x3
 1911 0af4 00000000 		.4byte	.LANCHOR1
 1912 0af8 1D       		.uleb128 0x1d
 1913 0af9 01       		.uleb128 0x1
 1914 0afa 52       		.byte	0x52
 1915 0afb 03       		.uleb128 0x3
 1916 0afc 0A       		.byte	0xa
 1917 0afd 0010     		.2byte	0x1000
 1918 0aff 00       		.byte	0
 1919 0b00 00       		.byte	0
 1920 0b01 23       		.uleb128 0x23
 1921 0b02 7C070000 		.4byte	0x77c
 1922 0b06 110B0000 		.4byte	0xb11
 1923 0b0a 24       		.uleb128 0x24
 1924 0b0b 6C040000 		.4byte	0x46c
 1925 0b0f 0B       		.byte	0xb
 1926 0b10 00       		.byte	0
 1927 0b11 13       		.uleb128 0x13
 1928 0b12 010B0000 		.4byte	0xb01
 1929 0b16 1F       		.uleb128 0x1f
 1930 0b17 30020000 		.4byte	.LASF126
ARM GAS  /tmp/ccXbCD6P.s 			page 35


 1931 0b1b 01       		.byte	0x1
 1932 0b1c C6       		.byte	0xc6
 1933 0b1d 21030000 		.4byte	0x321
 1934 0b21 00000000 		.4byte	.LFB328
 1935 0b25 06000000 		.4byte	.LFE328-.LFB328
 1936 0b29 01       		.uleb128 0x1
 1937 0b2a 9C       		.byte	0x9c
 1938 0b2b 550B0000 		.4byte	0xb55
 1939 0b2f 18       		.uleb128 0x18
 1940 0b30 51020000 		.4byte	.LASF118
 1941 0b34 01       		.byte	0x1
 1942 0b35 C6       		.byte	0xc6
 1943 0b36 C3000000 		.4byte	0xc3
 1944 0b3a FC010000 		.4byte	.LLST10
 1945 0b3e 20       		.uleb128 0x20
 1946 0b3f 06000000 		.4byte	.LVL32
 1947 0b43 CD080000 		.4byte	0x8cd
 1948 0b47 1D       		.uleb128 0x1d
 1949 0b48 01       		.uleb128 0x1
 1950 0b49 50       		.byte	0x50
 1951 0b4a 03       		.uleb128 0x3
 1952 0b4b F3       		.byte	0xf3
 1953 0b4c 01       		.uleb128 0x1
 1954 0b4d 50       		.byte	0x50
 1955 0b4e 1D       		.uleb128 0x1d
 1956 0b4f 01       		.uleb128 0x1
 1957 0b50 51       		.byte	0x51
 1958 0b51 01       		.uleb128 0x1
 1959 0b52 32       		.byte	0x32
 1960 0b53 00       		.byte	0
 1961 0b54 00       		.byte	0
 1962 0b55 1F       		.uleb128 0x1f
 1963 0b56 DC060000 		.4byte	.LASF127
 1964 0b5a 01       		.byte	0x1
 1965 0b5b CB       		.byte	0xcb
 1966 0b5c 21030000 		.4byte	0x321
 1967 0b60 00000000 		.4byte	.LFB329
 1968 0b64 06000000 		.4byte	.LFE329-.LFB329
 1969 0b68 01       		.uleb128 0x1
 1970 0b69 9C       		.byte	0x9c
 1971 0b6a A20B0000 		.4byte	0xba2
 1972 0b6e 18       		.uleb128 0x18
 1973 0b6f A7060000 		.4byte	.LASF128
 1974 0b73 01       		.byte	0x1
 1975 0b74 CB       		.byte	0xcb
 1976 0b75 C3000000 		.4byte	0xc3
 1977 0b79 1D020000 		.4byte	.LLST11
 1978 0b7d 18       		.uleb128 0x18
 1979 0b7e 51020000 		.4byte	.LASF118
 1980 0b82 01       		.byte	0x1
 1981 0b83 CB       		.byte	0xcb
 1982 0b84 C3000000 		.4byte	0xc3
 1983 0b88 3E020000 		.4byte	.LLST12
 1984 0b8c 20       		.uleb128 0x20
 1985 0b8d 06000000 		.4byte	.LVL35
 1986 0b91 F4090000 		.4byte	0x9f4
 1987 0b95 1D       		.uleb128 0x1d
ARM GAS  /tmp/ccXbCD6P.s 			page 36


 1988 0b96 01       		.uleb128 0x1
 1989 0b97 50       		.byte	0x50
 1990 0b98 07       		.uleb128 0x7
 1991 0b99 F3       		.byte	0xf3
 1992 0b9a 01       		.uleb128 0x1
 1993 0b9b 51       		.byte	0x51
 1994 0b9c F3       		.byte	0xf3
 1995 0b9d 01       		.uleb128 0x1
 1996 0b9e 50       		.byte	0x50
 1997 0b9f 1E       		.byte	0x1e
 1998 0ba0 00       		.byte	0
 1999 0ba1 00       		.byte	0
 2000 0ba2 21       		.uleb128 0x21
 2001 0ba3 96060000 		.4byte	.LASF114
 2002 0ba7 01       		.byte	0x1
 2003 0ba8 D0       		.byte	0xd0
 2004 0ba9 00000000 		.4byte	.LFB330
 2005 0bad 08000000 		.4byte	.LFE330-.LFB330
 2006 0bb1 01       		.uleb128 0x1
 2007 0bb2 9C       		.byte	0x9c
 2008 0bb3 D80B0000 		.4byte	0xbd8
 2009 0bb7 25       		.uleb128 0x25
 2010 0bb8 70747200 		.ascii	"ptr\000"
 2011 0bbc 01       		.byte	0x1
 2012 0bbd D0       		.byte	0xd0
 2013 0bbe 21030000 		.4byte	0x321
 2014 0bc2 5F020000 		.4byte	.LLST13
 2015 0bc6 20       		.uleb128 0x20
 2016 0bc7 06000000 		.4byte	.LVL37
 2017 0bcb 4C0E0000 		.4byte	0xe4c
 2018 0bcf 1D       		.uleb128 0x1d
 2019 0bd0 01       		.uleb128 0x1
 2020 0bd1 50       		.byte	0x50
 2021 0bd2 03       		.uleb128 0x3
 2022 0bd3 F3       		.byte	0xf3
 2023 0bd4 01       		.uleb128 0x1
 2024 0bd5 50       		.byte	0x50
 2025 0bd6 00       		.byte	0
 2026 0bd7 00       		.byte	0
 2027 0bd8 1F       		.uleb128 0x1f
 2028 0bd9 BD030000 		.4byte	.LASF130
 2029 0bdd 01       		.byte	0x1
 2030 0bde DA       		.byte	0xda
 2031 0bdf C3000000 		.4byte	0xc3
 2032 0be3 00000000 		.4byte	.LFB331
 2033 0be7 54000000 		.4byte	.LFE331-.LFB331
 2034 0beb 01       		.uleb128 0x1
 2035 0bec 9C       		.byte	0x9c
 2036 0bed 980C0000 		.4byte	0xc98
 2037 0bf1 19       		.uleb128 0x19
 2038 0bf2 11000000 		.4byte	.LASF131
 2039 0bf6 01       		.byte	0x1
 2040 0bf7 DC       		.byte	0xdc
 2041 0bf8 C3000000 		.4byte	0xc3
 2042 0bfc 8B020000 		.4byte	.LLST14
 2043 0c00 26       		.uleb128 0x26
 2044 0c01 6900     		.ascii	"i\000"
ARM GAS  /tmp/ccXbCD6P.s 			page 37


 2045 0c03 01       		.byte	0x1
 2046 0c04 DD       		.byte	0xdd
 2047 0c05 97000000 		.4byte	0x97
 2048 0c09 01       		.byte	0x1
 2049 0c0a 27       		.uleb128 0x27
 2050 0c0b 3F030000 		.4byte	.LASF132
 2051 0c0f 01       		.byte	0x1
 2052 0c10 EE       		.byte	0xee
 2053 0c11 C3000000 		.4byte	0xc3
 2054 0c15 02       		.uleb128 0x2
 2055 0c16 91       		.byte	0x91
 2056 0c17 6C       		.sleb128 -20
 2057 0c18 28       		.uleb128 0x28
 2058 0c19 00000000 		.4byte	.Ldebug_ranges0+0
 2059 0c1d 4F0C0000 		.4byte	0xc4f
 2060 0c21 27       		.uleb128 0x27
 2061 0c22 3F030000 		.4byte	.LASF132
 2062 0c26 01       		.byte	0x1
 2063 0c27 E7       		.byte	0xe7
 2064 0c28 C3000000 		.4byte	0xc3
 2065 0c2c 02       		.uleb128 0x2
 2066 0c2d 91       		.byte	0x91
 2067 0c2e 6C       		.sleb128 -20
 2068 0c2f 29       		.uleb128 0x29
 2069 0c30 2C000000 		.4byte	.LVL41
 2070 0c34 570E0000 		.4byte	0xe57
 2071 0c38 1D       		.uleb128 0x1d
 2072 0c39 01       		.uleb128 0x1
 2073 0c3a 50       		.byte	0x50
 2074 0c3b 05       		.uleb128 0x5
 2075 0c3c 03       		.byte	0x3
 2076 0c3d 1C000000 		.4byte	.LANCHOR0+28
 2077 0c41 1D       		.uleb128 0x1d
 2078 0c42 01       		.uleb128 0x1
 2079 0c43 51       		.byte	0x51
 2080 0c44 02       		.uleb128 0x2
 2081 0c45 75       		.byte	0x75
 2082 0c46 00       		.sleb128 0
 2083 0c47 1D       		.uleb128 0x1d
 2084 0c48 01       		.uleb128 0x1
 2085 0c49 52       		.byte	0x52
 2086 0c4a 02       		.uleb128 0x2
 2087 0c4b 74       		.byte	0x74
 2088 0c4c 00       		.sleb128 0
 2089 0c4d 00       		.byte	0
 2090 0c4e 00       		.byte	0
 2091 0c4f 1C       		.uleb128 0x1c
 2092 0c50 12000000 		.4byte	.LVL38
 2093 0c54 570E0000 		.4byte	0xe57
 2094 0c58 6F0C0000 		.4byte	0xc6f
 2095 0c5c 1D       		.uleb128 0x1d
 2096 0c5d 01       		.uleb128 0x1
 2097 0c5e 50       		.byte	0x50
 2098 0c5f 02       		.uleb128 0x2
 2099 0c60 74       		.byte	0x74
 2100 0c61 00       		.sleb128 0
 2101 0c62 1D       		.uleb128 0x1d
ARM GAS  /tmp/ccXbCD6P.s 			page 38


 2102 0c63 01       		.uleb128 0x1
 2103 0c64 51       		.byte	0x51
 2104 0c65 02       		.uleb128 0x2
 2105 0c66 91       		.byte	0x91
 2106 0c67 68       		.sleb128 -24
 2107 0c68 1D       		.uleb128 0x1d
 2108 0c69 01       		.uleb128 0x1
 2109 0c6a 52       		.byte	0x52
 2110 0c6b 02       		.uleb128 0x2
 2111 0c6c 74       		.byte	0x74
 2112 0c6d 00       		.sleb128 0
 2113 0c6e 00       		.byte	0
 2114 0c6f 1E       		.uleb128 0x1e
 2115 0c70 18000000 		.4byte	.LVL39
 2116 0c74 620E0000 		.4byte	0xe62
 2117 0c78 29       		.uleb128 0x29
 2118 0c79 40000000 		.4byte	.LVL42
 2119 0c7d 570E0000 		.4byte	0xe57
 2120 0c81 1D       		.uleb128 0x1d
 2121 0c82 01       		.uleb128 0x1
 2122 0c83 50       		.byte	0x50
 2123 0c84 05       		.uleb128 0x5
 2124 0c85 03       		.byte	0x3
 2125 0c86 00000000 		.4byte	.LANCHOR1
 2126 0c8a 1D       		.uleb128 0x1d
 2127 0c8b 01       		.uleb128 0x1
 2128 0c8c 51       		.byte	0x51
 2129 0c8d 02       		.uleb128 0x2
 2130 0c8e 75       		.byte	0x75
 2131 0c8f 00       		.sleb128 0
 2132 0c90 1D       		.uleb128 0x1d
 2133 0c91 01       		.uleb128 0x1
 2134 0c92 52       		.byte	0x52
 2135 0c93 02       		.uleb128 0x2
 2136 0c94 74       		.byte	0x74
 2137 0c95 00       		.sleb128 0
 2138 0c96 00       		.byte	0
 2139 0c97 00       		.byte	0
 2140 0c98 1F       		.uleb128 0x1f
 2141 0c99 58050000 		.4byte	.LASF133
 2142 0c9d 01       		.byte	0x1
 2143 0c9e F9       		.byte	0xf9
 2144 0c9f 44020000 		.4byte	0x244
 2145 0ca3 00000000 		.4byte	.LFB332
 2146 0ca7 3C000000 		.4byte	.LFE332-.LFB332
 2147 0cab 01       		.uleb128 0x1
 2148 0cac 9C       		.byte	0x9c
 2149 0cad 7F0D0000 		.4byte	0xd7f
 2150 0cb1 18       		.uleb128 0x18
 2151 0cb2 51020000 		.4byte	.LASF118
 2152 0cb6 01       		.byte	0x1
 2153 0cb7 F9       		.byte	0xf9
 2154 0cb8 C3000000 		.4byte	0xc3
 2155 0cbc B0020000 		.4byte	.LLST15
 2156 0cc0 18       		.uleb128 0x18
 2157 0cc1 3A030000 		.4byte	.LASF34
 2158 0cc5 01       		.byte	0x1
ARM GAS  /tmp/ccXbCD6P.s 			page 39


 2159 0cc6 FA       		.byte	0xfa
 2160 0cc7 6F070000 		.4byte	0x76f
 2161 0ccb E7020000 		.4byte	.LLST16
 2162 0ccf 18       		.uleb128 0x18
 2163 0cd0 94040000 		.4byte	.LASF31
 2164 0cd4 01       		.byte	0x1
 2165 0cd5 FA       		.byte	0xfa
 2166 0cd6 0C010000 		.4byte	0x10c
 2167 0cda 1E030000 		.4byte	.LLST17
 2168 0cde 25       		.uleb128 0x25
 2169 0cdf 706600   		.ascii	"pf\000"
 2170 0ce2 01       		.byte	0x1
 2171 0ce3 FB       		.byte	0xfb
 2172 0ce4 92070000 		.4byte	0x792
 2173 0ce8 55030000 		.4byte	.LLST18
 2174 0cec 25       		.uleb128 0x25
 2175 0ced 61726700 		.ascii	"arg\000"
 2176 0cf1 01       		.byte	0x1
 2177 0cf2 FB       		.byte	0xfb
 2178 0cf3 21030000 		.4byte	0x321
 2179 0cf7 81030000 		.4byte	.LLST19
 2180 0cfb 1A       		.uleb128 0x1a
 2181 0cfc 72657400 		.ascii	"ret\000"
 2182 0d00 01       		.byte	0x1
 2183 0d01 FD       		.byte	0xfd
 2184 0d02 44020000 		.4byte	0x244
 2185 0d06 A1030000 		.4byte	.LLST20
 2186 0d0a 2A       		.uleb128 0x2a
 2187 0d0b 6900     		.ascii	"i\000"
 2188 0d0d 01       		.byte	0x1
 2189 0d0e 0501     		.2byte	0x105
 2190 0d10 97000000 		.4byte	0x97
 2191 0d14 B4030000 		.4byte	.LLST21
 2192 0d18 1C       		.uleb128 0x1c
 2193 0d19 20000000 		.4byte	.LVL49
 2194 0d1d 6D0E0000 		.4byte	0xe6d
 2195 0d21 4B0D0000 		.4byte	0xd4b
 2196 0d25 1D       		.uleb128 0x1d
 2197 0d26 01       		.uleb128 0x1
 2198 0d27 50       		.byte	0x50
 2199 0d28 01       		.uleb128 0x1
 2200 0d29 30       		.byte	0x30
 2201 0d2a 1D       		.uleb128 0x1d
 2202 0d2b 01       		.uleb128 0x1
 2203 0d2c 51       		.byte	0x51
 2204 0d2d 02       		.uleb128 0x2
 2205 0d2e 74       		.byte	0x74
 2206 0d2f 00       		.sleb128 0
 2207 0d30 1D       		.uleb128 0x1d
 2208 0d31 01       		.uleb128 0x1
 2209 0d32 52       		.byte	0x52
 2210 0d33 02       		.uleb128 0x2
 2211 0d34 75       		.byte	0x75
 2212 0d35 00       		.sleb128 0
 2213 0d36 1D       		.uleb128 0x1d
 2214 0d37 01       		.uleb128 0x1
 2215 0d38 53       		.byte	0x53
ARM GAS  /tmp/ccXbCD6P.s 			page 40


 2216 0d39 02       		.uleb128 0x2
 2217 0d3a 76       		.byte	0x76
 2218 0d3b 00       		.sleb128 0
 2219 0d3c 1D       		.uleb128 0x1d
 2220 0d3d 02       		.uleb128 0x2
 2221 0d3e 7D       		.byte	0x7d
 2222 0d3f 00       		.sleb128 0
 2223 0d40 02       		.uleb128 0x2
 2224 0d41 77       		.byte	0x77
 2225 0d42 00       		.sleb128 0
 2226 0d43 1D       		.uleb128 0x1d
 2227 0d44 02       		.uleb128 0x2
 2228 0d45 7D       		.byte	0x7d
 2229 0d46 04       		.sleb128 4
 2230 0d47 02       		.uleb128 0x2
 2231 0d48 78       		.byte	0x78
 2232 0d49 00       		.sleb128 0
 2233 0d4a 00       		.byte	0
 2234 0d4b 29       		.uleb128 0x29
 2235 0d4c 32000000 		.4byte	.LVL52
 2236 0d50 6D0E0000 		.4byte	0xe6d
 2237 0d54 1D       		.uleb128 0x1d
 2238 0d55 01       		.uleb128 0x1
 2239 0d56 50       		.byte	0x50
 2240 0d57 05       		.uleb128 0x5
 2241 0d58 03       		.byte	0x3
 2242 0d59 1C000000 		.4byte	.LANCHOR0+28
 2243 0d5d 1D       		.uleb128 0x1d
 2244 0d5e 01       		.uleb128 0x1
 2245 0d5f 51       		.byte	0x51
 2246 0d60 02       		.uleb128 0x2
 2247 0d61 74       		.byte	0x74
 2248 0d62 00       		.sleb128 0
 2249 0d63 1D       		.uleb128 0x1d
 2250 0d64 01       		.uleb128 0x1
 2251 0d65 52       		.byte	0x52
 2252 0d66 02       		.uleb128 0x2
 2253 0d67 75       		.byte	0x75
 2254 0d68 00       		.sleb128 0
 2255 0d69 1D       		.uleb128 0x1d
 2256 0d6a 01       		.uleb128 0x1
 2257 0d6b 53       		.byte	0x53
 2258 0d6c 02       		.uleb128 0x2
 2259 0d6d 76       		.byte	0x76
 2260 0d6e 00       		.sleb128 0
 2261 0d6f 1D       		.uleb128 0x1d
 2262 0d70 02       		.uleb128 0x2
 2263 0d71 7D       		.byte	0x7d
 2264 0d72 00       		.sleb128 0
 2265 0d73 02       		.uleb128 0x2
 2266 0d74 77       		.byte	0x77
 2267 0d75 00       		.sleb128 0
 2268 0d76 1D       		.uleb128 0x1d
 2269 0d77 02       		.uleb128 0x2
 2270 0d78 7D       		.byte	0x7d
 2271 0d79 04       		.sleb128 4
 2272 0d7a 02       		.uleb128 0x2
ARM GAS  /tmp/ccXbCD6P.s 			page 41


 2273 0d7b 78       		.byte	0x78
 2274 0d7c 00       		.sleb128 0
 2275 0d7d 00       		.byte	0
 2276 0d7e 00       		.byte	0
 2277 0d7f 2B       		.uleb128 0x2b
 2278 0d80 34070000 		.4byte	.LASF134
 2279 0d84 01       		.byte	0x1
 2280 0d85 1501     		.2byte	0x115
 2281 0d87 00000000 		.4byte	.LFB333
 2282 0d8b 02000000 		.4byte	.LFE333-.LFB333
 2283 0d8f 01       		.uleb128 0x1
 2284 0d90 9C       		.byte	0x9c
 2285 0d91 A10D0000 		.4byte	0xda1
 2286 0d95 2C       		.uleb128 0x2c
 2287 0d96 6900     		.ascii	"i\000"
 2288 0d98 01       		.byte	0x1
 2289 0d99 1701     		.2byte	0x117
 2290 0d9b 97000000 		.4byte	0x97
 2291 0d9f 00       		.byte	0
 2292 0da0 00       		.byte	0
 2293 0da1 23       		.uleb128 0x23
 2294 0da2 B10D0000 		.4byte	0xdb1
 2295 0da6 B10D0000 		.4byte	0xdb1
 2296 0daa 24       		.uleb128 0x24
 2297 0dab 6C040000 		.4byte	0x46c
 2298 0daf 01       		.byte	0x1
 2299 0db0 00       		.byte	0
 2300 0db1 13       		.uleb128 0x13
 2301 0db2 9C080000 		.4byte	0x89c
 2302 0db6 2D       		.uleb128 0x2d
 2303 0db7 4D040000 		.4byte	.LASF135
 2304 0dbb 01       		.byte	0x1
 2305 0dbc 2A       		.byte	0x2a
 2306 0dbd DA0D0000 		.4byte	0xdda
 2307 0dc1 18       		.byte	0x18
 2308 0dc2 00       		.byte	0
 2309 0dc3 00       		.byte	0
 2310 0dc4 00       		.byte	0
 2311 0dc5 20       		.byte	0x20
 2312 0dc6 00       		.byte	0
 2313 0dc7 00       		.byte	0
 2314 0dc8 03       		.byte	0x3
 2315 0dc9 00       		.byte	0
 2316 0dca 01       		.byte	0x1
 2317 0dcb 00       		.byte	0
 2318 0dcc 00       		.byte	0
 2319 0dcd 00       		.byte	0
 2320 0dce 00       		.byte	0
 2321 0dcf 00       		.byte	0
 2322 0dd0 00       		.byte	0
 2323 0dd1 10       		.byte	0x10
 2324 0dd2 00       		.byte	0
 2325 0dd3 00       		.byte	0
 2326 0dd4 01       		.byte	0x1
 2327 0dd5 00       		.byte	0
 2328 0dd6 02       		.byte	0x2
 2329 0dd7 00       		.byte	0
ARM GAS  /tmp/ccXbCD6P.s 			page 42


 2330 0dd8 00       		.byte	0
 2331 0dd9 00       		.byte	0
 2332 0dda 13       		.uleb128 0x13
 2333 0ddb A10D0000 		.4byte	0xda1
 2334 0ddf 23       		.uleb128 0x23
 2335 0de0 DF070000 		.4byte	0x7df
 2336 0de4 EF0D0000 		.4byte	0xdef
 2337 0de8 24       		.uleb128 0x24
 2338 0de9 6C040000 		.4byte	0x46c
 2339 0ded 01       		.byte	0x1
 2340 0dee 00       		.byte	0
 2341 0def 27       		.uleb128 0x27
 2342 0df0 28030000 		.4byte	.LASF136
 2343 0df4 01       		.byte	0x1
 2344 0df5 32       		.byte	0x32
 2345 0df6 DF0D0000 		.4byte	0xddf
 2346 0dfa 05       		.uleb128 0x5
 2347 0dfb 03       		.byte	0x3
 2348 0dfc 00000000 		.4byte	heaps
 2349 0e00 27       		.uleb128 0x27
 2350 0e01 CB060000 		.4byte	.LASF137
 2351 0e05 01       		.byte	0x1
 2352 0e06 42       		.byte	0x42
 2353 0e07 DF070000 		.4byte	0x7df
 2354 0e0b 05       		.uleb128 0x5
 2355 0e0c 03       		.byte	0x3
 2356 0e0d 00000000 		.4byte	dma_reserve_heap
 2357 0e11 2E       		.uleb128 0x2e
 2358 0e12 BE010000 		.4byte	.LASF138
 2359 0e16 13       		.byte	0x13
 2360 0e17 0408     		.2byte	0x804
 2361 0e19 1D0E0000 		.4byte	0xe1d
 2362 0e1d 14       		.uleb128 0x14
 2363 0e1e A2000000 		.4byte	0xa2
 2364 0e22 2F       		.uleb128 0x2f
 2365 0e23 636800   		.ascii	"ch\000"
 2366 0e26 07       		.byte	0x7
 2367 0e27 C701     		.2byte	0x1c7
 2368 0e29 F0030000 		.4byte	0x3f0
 2369 0e2d 30       		.uleb128 0x30
 2370 0e2e 83060000 		.4byte	.LASF139
 2371 0e32 83060000 		.4byte	.LASF139
 2372 0e36 11       		.byte	0x11
 2373 0e37 7F       		.byte	0x7f
 2374 0e38 31       		.uleb128 0x31
 2375 0e39 AD060000 		.4byte	.LASF152
 2376 0e3d AD060000 		.4byte	.LASF152
 2377 0e41 30       		.uleb128 0x30
 2378 0e42 BC040000 		.4byte	.LASF140
 2379 0e46 BC040000 		.4byte	.LASF140
 2380 0e4a 11       		.byte	0x11
 2381 0e4b 7E       		.byte	0x7e
 2382 0e4c 30       		.uleb128 0x30
 2383 0e4d 56020000 		.4byte	.LASF141
 2384 0e51 56020000 		.4byte	.LASF141
 2385 0e55 11       		.byte	0x11
 2386 0e56 80       		.byte	0x80
ARM GAS  /tmp/ccXbCD6P.s 			page 43


 2387 0e57 30       		.uleb128 0x30
 2388 0e58 1B040000 		.4byte	.LASF142
 2389 0e5c 1B040000 		.4byte	.LASF142
 2390 0e60 11       		.byte	0x11
 2391 0e61 81       		.byte	0x81
 2392 0e62 30       		.uleb128 0x30
 2393 0e63 B8050000 		.4byte	.LASF143
 2394 0e67 B8050000 		.4byte	.LASF143
 2395 0e6b 10       		.byte	0x10
 2396 0e6c 72       		.byte	0x72
 2397 0e6d 30       		.uleb128 0x30
 2398 0e6e 80020000 		.4byte	.LASF144
 2399 0e72 80020000 		.4byte	.LASF144
 2400 0e76 12       		.byte	0x12
 2401 0e77 4F       		.byte	0x4f
 2402 0e78 00       		.byte	0
 2403              		.section	.debug_abbrev,"",%progbits
 2404              	.Ldebug_abbrev0:
 2405 0000 01       		.uleb128 0x1
 2406 0001 11       		.uleb128 0x11
 2407 0002 01       		.byte	0x1
 2408 0003 25       		.uleb128 0x25
 2409 0004 0E       		.uleb128 0xe
 2410 0005 13       		.uleb128 0x13
 2411 0006 0B       		.uleb128 0xb
 2412 0007 03       		.uleb128 0x3
 2413 0008 0E       		.uleb128 0xe
 2414 0009 1B       		.uleb128 0x1b
 2415 000a 0E       		.uleb128 0xe
 2416 000b 55       		.uleb128 0x55
 2417 000c 17       		.uleb128 0x17
 2418 000d 11       		.uleb128 0x11
 2419 000e 01       		.uleb128 0x1
 2420 000f 10       		.uleb128 0x10
 2421 0010 17       		.uleb128 0x17
 2422 0011 00       		.byte	0
 2423 0012 00       		.byte	0
 2424 0013 02       		.uleb128 0x2
 2425 0014 24       		.uleb128 0x24
 2426 0015 00       		.byte	0
 2427 0016 0B       		.uleb128 0xb
 2428 0017 0B       		.uleb128 0xb
 2429 0018 3E       		.uleb128 0x3e
 2430 0019 0B       		.uleb128 0xb
 2431 001a 03       		.uleb128 0x3
 2432 001b 0E       		.uleb128 0xe
 2433 001c 00       		.byte	0
 2434 001d 00       		.byte	0
 2435 001e 03       		.uleb128 0x3
 2436 001f 16       		.uleb128 0x16
 2437 0020 00       		.byte	0
 2438 0021 03       		.uleb128 0x3
 2439 0022 0E       		.uleb128 0xe
 2440 0023 3A       		.uleb128 0x3a
 2441 0024 0B       		.uleb128 0xb
 2442 0025 3B       		.uleb128 0x3b
 2443 0026 0B       		.uleb128 0xb
ARM GAS  /tmp/ccXbCD6P.s 			page 44


 2444 0027 49       		.uleb128 0x49
 2445 0028 13       		.uleb128 0x13
 2446 0029 00       		.byte	0
 2447 002a 00       		.byte	0
 2448 002b 04       		.uleb128 0x4
 2449 002c 24       		.uleb128 0x24
 2450 002d 00       		.byte	0
 2451 002e 0B       		.uleb128 0xb
 2452 002f 0B       		.uleb128 0xb
 2453 0030 3E       		.uleb128 0x3e
 2454 0031 0B       		.uleb128 0xb
 2455 0032 03       		.uleb128 0x3
 2456 0033 08       		.uleb128 0x8
 2457 0034 00       		.byte	0
 2458 0035 00       		.byte	0
 2459 0036 05       		.uleb128 0x5
 2460 0037 13       		.uleb128 0x13
 2461 0038 01       		.byte	0x1
 2462 0039 03       		.uleb128 0x3
 2463 003a 0E       		.uleb128 0xe
 2464 003b 0B       		.uleb128 0xb
 2465 003c 0B       		.uleb128 0xb
 2466 003d 3A       		.uleb128 0x3a
 2467 003e 0B       		.uleb128 0xb
 2468 003f 3B       		.uleb128 0x3b
 2469 0040 0B       		.uleb128 0xb
 2470 0041 01       		.uleb128 0x1
 2471 0042 13       		.uleb128 0x13
 2472 0043 00       		.byte	0
 2473 0044 00       		.byte	0
 2474 0045 06       		.uleb128 0x6
 2475 0046 0D       		.uleb128 0xd
 2476 0047 00       		.byte	0
 2477 0048 03       		.uleb128 0x3
 2478 0049 0E       		.uleb128 0xe
 2479 004a 3A       		.uleb128 0x3a
 2480 004b 0B       		.uleb128 0xb
 2481 004c 3B       		.uleb128 0x3b
 2482 004d 0B       		.uleb128 0xb
 2483 004e 49       		.uleb128 0x49
 2484 004f 13       		.uleb128 0x13
 2485 0050 38       		.uleb128 0x38
 2486 0051 0B       		.uleb128 0xb
 2487 0052 00       		.byte	0
 2488 0053 00       		.byte	0
 2489 0054 07       		.uleb128 0x7
 2490 0055 0D       		.uleb128 0xd
 2491 0056 00       		.byte	0
 2492 0057 03       		.uleb128 0x3
 2493 0058 08       		.uleb128 0x8
 2494 0059 3A       		.uleb128 0x3a
 2495 005a 0B       		.uleb128 0xb
 2496 005b 3B       		.uleb128 0x3b
 2497 005c 0B       		.uleb128 0xb
 2498 005d 49       		.uleb128 0x49
 2499 005e 13       		.uleb128 0x13
 2500 005f 38       		.uleb128 0x38
ARM GAS  /tmp/ccXbCD6P.s 			page 45


 2501 0060 0B       		.uleb128 0xb
 2502 0061 00       		.byte	0
 2503 0062 00       		.byte	0
 2504 0063 08       		.uleb128 0x8
 2505 0064 0D       		.uleb128 0xd
 2506 0065 00       		.byte	0
 2507 0066 03       		.uleb128 0x3
 2508 0067 08       		.uleb128 0x8
 2509 0068 3A       		.uleb128 0x3a
 2510 0069 0B       		.uleb128 0xb
 2511 006a 3B       		.uleb128 0x3b
 2512 006b 05       		.uleb128 0x5
 2513 006c 49       		.uleb128 0x49
 2514 006d 13       		.uleb128 0x13
 2515 006e 38       		.uleb128 0x38
 2516 006f 0B       		.uleb128 0xb
 2517 0070 00       		.byte	0
 2518 0071 00       		.byte	0
 2519 0072 09       		.uleb128 0x9
 2520 0073 0D       		.uleb128 0xd
 2521 0074 00       		.byte	0
 2522 0075 03       		.uleb128 0x3
 2523 0076 0E       		.uleb128 0xe
 2524 0077 3A       		.uleb128 0x3a
 2525 0078 0B       		.uleb128 0xb
 2526 0079 3B       		.uleb128 0x3b
 2527 007a 05       		.uleb128 0x5
 2528 007b 49       		.uleb128 0x49
 2529 007c 13       		.uleb128 0x13
 2530 007d 38       		.uleb128 0x38
 2531 007e 0B       		.uleb128 0xb
 2532 007f 00       		.byte	0
 2533 0080 00       		.byte	0
 2534 0081 0A       		.uleb128 0xa
 2535 0082 0F       		.uleb128 0xf
 2536 0083 00       		.byte	0
 2537 0084 0B       		.uleb128 0xb
 2538 0085 0B       		.uleb128 0xb
 2539 0086 49       		.uleb128 0x49
 2540 0087 13       		.uleb128 0x13
 2541 0088 00       		.byte	0
 2542 0089 00       		.byte	0
 2543 008a 0B       		.uleb128 0xb
 2544 008b 13       		.uleb128 0x13
 2545 008c 01       		.byte	0x1
 2546 008d 03       		.uleb128 0x3
 2547 008e 0E       		.uleb128 0xe
 2548 008f 0B       		.uleb128 0xb
 2549 0090 0B       		.uleb128 0xb
 2550 0091 3A       		.uleb128 0x3a
 2551 0092 0B       		.uleb128 0xb
 2552 0093 3B       		.uleb128 0x3b
 2553 0094 05       		.uleb128 0x5
 2554 0095 01       		.uleb128 0x1
 2555 0096 13       		.uleb128 0x13
 2556 0097 00       		.byte	0
 2557 0098 00       		.byte	0
ARM GAS  /tmp/ccXbCD6P.s 			page 46


 2558 0099 0C       		.uleb128 0xc
 2559 009a 15       		.uleb128 0x15
 2560 009b 01       		.byte	0x1
 2561 009c 27       		.uleb128 0x27
 2562 009d 19       		.uleb128 0x19
 2563 009e 01       		.uleb128 0x1
 2564 009f 13       		.uleb128 0x13
 2565 00a0 00       		.byte	0
 2566 00a1 00       		.byte	0
 2567 00a2 0D       		.uleb128 0xd
 2568 00a3 05       		.uleb128 0x5
 2569 00a4 00       		.byte	0
 2570 00a5 49       		.uleb128 0x49
 2571 00a6 13       		.uleb128 0x13
 2572 00a7 00       		.byte	0
 2573 00a8 00       		.byte	0
 2574 00a9 0E       		.uleb128 0xe
 2575 00aa 0F       		.uleb128 0xf
 2576 00ab 00       		.byte	0
 2577 00ac 0B       		.uleb128 0xb
 2578 00ad 0B       		.uleb128 0xb
 2579 00ae 00       		.byte	0
 2580 00af 00       		.byte	0
 2581 00b0 0F       		.uleb128 0xf
 2582 00b1 13       		.uleb128 0x13
 2583 00b2 01       		.byte	0x1
 2584 00b3 0B       		.uleb128 0xb
 2585 00b4 0B       		.uleb128 0xb
 2586 00b5 3A       		.uleb128 0x3a
 2587 00b6 0B       		.uleb128 0xb
 2588 00b7 3B       		.uleb128 0x3b
 2589 00b8 0B       		.uleb128 0xb
 2590 00b9 01       		.uleb128 0x1
 2591 00ba 13       		.uleb128 0x13
 2592 00bb 00       		.byte	0
 2593 00bc 00       		.byte	0
 2594 00bd 10       		.uleb128 0x10
 2595 00be 17       		.uleb128 0x17
 2596 00bf 01       		.byte	0x1
 2597 00c0 0B       		.uleb128 0xb
 2598 00c1 0B       		.uleb128 0xb
 2599 00c2 3A       		.uleb128 0x3a
 2600 00c3 0B       		.uleb128 0xb
 2601 00c4 3B       		.uleb128 0x3b
 2602 00c5 0B       		.uleb128 0xb
 2603 00c6 01       		.uleb128 0x1
 2604 00c7 13       		.uleb128 0x13
 2605 00c8 00       		.byte	0
 2606 00c9 00       		.byte	0
 2607 00ca 11       		.uleb128 0x11
 2608 00cb 0D       		.uleb128 0xd
 2609 00cc 00       		.byte	0
 2610 00cd 03       		.uleb128 0x3
 2611 00ce 0E       		.uleb128 0xe
 2612 00cf 3A       		.uleb128 0x3a
 2613 00d0 0B       		.uleb128 0xb
 2614 00d1 3B       		.uleb128 0x3b
ARM GAS  /tmp/ccXbCD6P.s 			page 47


 2615 00d2 0B       		.uleb128 0xb
 2616 00d3 49       		.uleb128 0x49
 2617 00d4 13       		.uleb128 0x13
 2618 00d5 00       		.byte	0
 2619 00d6 00       		.byte	0
 2620 00d7 12       		.uleb128 0x12
 2621 00d8 0D       		.uleb128 0xd
 2622 00d9 00       		.byte	0
 2623 00da 03       		.uleb128 0x3
 2624 00db 0E       		.uleb128 0xe
 2625 00dc 3A       		.uleb128 0x3a
 2626 00dd 0B       		.uleb128 0xb
 2627 00de 3B       		.uleb128 0x3b
 2628 00df 05       		.uleb128 0x5
 2629 00e0 49       		.uleb128 0x49
 2630 00e1 13       		.uleb128 0x13
 2631 00e2 00       		.byte	0
 2632 00e3 00       		.byte	0
 2633 00e4 13       		.uleb128 0x13
 2634 00e5 26       		.uleb128 0x26
 2635 00e6 00       		.byte	0
 2636 00e7 49       		.uleb128 0x49
 2637 00e8 13       		.uleb128 0x13
 2638 00e9 00       		.byte	0
 2639 00ea 00       		.byte	0
 2640 00eb 14       		.uleb128 0x14
 2641 00ec 35       		.uleb128 0x35
 2642 00ed 00       		.byte	0
 2643 00ee 49       		.uleb128 0x49
 2644 00ef 13       		.uleb128 0x13
 2645 00f0 00       		.byte	0
 2646 00f1 00       		.byte	0
 2647 00f2 15       		.uleb128 0x15
 2648 00f3 15       		.uleb128 0x15
 2649 00f4 01       		.byte	0x1
 2650 00f5 27       		.uleb128 0x27
 2651 00f6 19       		.uleb128 0x19
 2652 00f7 49       		.uleb128 0x49
 2653 00f8 13       		.uleb128 0x13
 2654 00f9 01       		.uleb128 0x1
 2655 00fa 13       		.uleb128 0x13
 2656 00fb 00       		.byte	0
 2657 00fc 00       		.byte	0
 2658 00fd 16       		.uleb128 0x16
 2659 00fe 17       		.uleb128 0x17
 2660 00ff 01       		.byte	0x1
 2661 0100 03       		.uleb128 0x3
 2662 0101 0E       		.uleb128 0xe
 2663 0102 0B       		.uleb128 0xb
 2664 0103 0B       		.uleb128 0xb
 2665 0104 3A       		.uleb128 0x3a
 2666 0105 0B       		.uleb128 0xb
 2667 0106 3B       		.uleb128 0x3b
 2668 0107 0B       		.uleb128 0xb
 2669 0108 01       		.uleb128 0x1
 2670 0109 13       		.uleb128 0x13
 2671 010a 00       		.byte	0
ARM GAS  /tmp/ccXbCD6P.s 			page 48


 2672 010b 00       		.byte	0
 2673 010c 17       		.uleb128 0x17
 2674 010d 2E       		.uleb128 0x2e
 2675 010e 01       		.byte	0x1
 2676 010f 03       		.uleb128 0x3
 2677 0110 0E       		.uleb128 0xe
 2678 0111 3A       		.uleb128 0x3a
 2679 0112 0B       		.uleb128 0xb
 2680 0113 3B       		.uleb128 0x3b
 2681 0114 0B       		.uleb128 0xb
 2682 0115 27       		.uleb128 0x27
 2683 0116 19       		.uleb128 0x19
 2684 0117 49       		.uleb128 0x49
 2685 0118 13       		.uleb128 0x13
 2686 0119 11       		.uleb128 0x11
 2687 011a 01       		.uleb128 0x1
 2688 011b 12       		.uleb128 0x12
 2689 011c 06       		.uleb128 0x6
 2690 011d 40       		.uleb128 0x40
 2691 011e 18       		.uleb128 0x18
 2692 011f 9742     		.uleb128 0x2117
 2693 0121 19       		.uleb128 0x19
 2694 0122 01       		.uleb128 0x1
 2695 0123 13       		.uleb128 0x13
 2696 0124 00       		.byte	0
 2697 0125 00       		.byte	0
 2698 0126 18       		.uleb128 0x18
 2699 0127 05       		.uleb128 0x5
 2700 0128 00       		.byte	0
 2701 0129 03       		.uleb128 0x3
 2702 012a 0E       		.uleb128 0xe
 2703 012b 3A       		.uleb128 0x3a
 2704 012c 0B       		.uleb128 0xb
 2705 012d 3B       		.uleb128 0x3b
 2706 012e 0B       		.uleb128 0xb
 2707 012f 49       		.uleb128 0x49
 2708 0130 13       		.uleb128 0x13
 2709 0131 02       		.uleb128 0x2
 2710 0132 17       		.uleb128 0x17
 2711 0133 00       		.byte	0
 2712 0134 00       		.byte	0
 2713 0135 19       		.uleb128 0x19
 2714 0136 34       		.uleb128 0x34
 2715 0137 00       		.byte	0
 2716 0138 03       		.uleb128 0x3
 2717 0139 0E       		.uleb128 0xe
 2718 013a 3A       		.uleb128 0x3a
 2719 013b 0B       		.uleb128 0xb
 2720 013c 3B       		.uleb128 0x3b
 2721 013d 0B       		.uleb128 0xb
 2722 013e 49       		.uleb128 0x49
 2723 013f 13       		.uleb128 0x13
 2724 0140 02       		.uleb128 0x2
 2725 0141 17       		.uleb128 0x17
 2726 0142 00       		.byte	0
 2727 0143 00       		.byte	0
 2728 0144 1A       		.uleb128 0x1a
ARM GAS  /tmp/ccXbCD6P.s 			page 49


 2729 0145 34       		.uleb128 0x34
 2730 0146 00       		.byte	0
 2731 0147 03       		.uleb128 0x3
 2732 0148 08       		.uleb128 0x8
 2733 0149 3A       		.uleb128 0x3a
 2734 014a 0B       		.uleb128 0xb
 2735 014b 3B       		.uleb128 0x3b
 2736 014c 0B       		.uleb128 0xb
 2737 014d 49       		.uleb128 0x49
 2738 014e 13       		.uleb128 0x13
 2739 014f 02       		.uleb128 0x2
 2740 0150 17       		.uleb128 0x17
 2741 0151 00       		.byte	0
 2742 0152 00       		.byte	0
 2743 0153 1B       		.uleb128 0x1b
 2744 0154 0A       		.uleb128 0xa
 2745 0155 00       		.byte	0
 2746 0156 03       		.uleb128 0x3
 2747 0157 0E       		.uleb128 0xe
 2748 0158 3A       		.uleb128 0x3a
 2749 0159 0B       		.uleb128 0xb
 2750 015a 3B       		.uleb128 0x3b
 2751 015b 0B       		.uleb128 0xb
 2752 015c 11       		.uleb128 0x11
 2753 015d 01       		.uleb128 0x1
 2754 015e 00       		.byte	0
 2755 015f 00       		.byte	0
 2756 0160 1C       		.uleb128 0x1c
 2757 0161 898201   		.uleb128 0x4109
 2758 0164 01       		.byte	0x1
 2759 0165 11       		.uleb128 0x11
 2760 0166 01       		.uleb128 0x1
 2761 0167 31       		.uleb128 0x31
 2762 0168 13       		.uleb128 0x13
 2763 0169 01       		.uleb128 0x1
 2764 016a 13       		.uleb128 0x13
 2765 016b 00       		.byte	0
 2766 016c 00       		.byte	0
 2767 016d 1D       		.uleb128 0x1d
 2768 016e 8A8201   		.uleb128 0x410a
 2769 0171 00       		.byte	0
 2770 0172 02       		.uleb128 0x2
 2771 0173 18       		.uleb128 0x18
 2772 0174 9142     		.uleb128 0x2111
 2773 0176 18       		.uleb128 0x18
 2774 0177 00       		.byte	0
 2775 0178 00       		.byte	0
 2776 0179 1E       		.uleb128 0x1e
 2777 017a 898201   		.uleb128 0x4109
 2778 017d 00       		.byte	0
 2779 017e 11       		.uleb128 0x11
 2780 017f 01       		.uleb128 0x1
 2781 0180 31       		.uleb128 0x31
 2782 0181 13       		.uleb128 0x13
 2783 0182 00       		.byte	0
 2784 0183 00       		.byte	0
 2785 0184 1F       		.uleb128 0x1f
ARM GAS  /tmp/ccXbCD6P.s 			page 50


 2786 0185 2E       		.uleb128 0x2e
 2787 0186 01       		.byte	0x1
 2788 0187 3F       		.uleb128 0x3f
 2789 0188 19       		.uleb128 0x19
 2790 0189 03       		.uleb128 0x3
 2791 018a 0E       		.uleb128 0xe
 2792 018b 3A       		.uleb128 0x3a
 2793 018c 0B       		.uleb128 0xb
 2794 018d 3B       		.uleb128 0x3b
 2795 018e 0B       		.uleb128 0xb
 2796 018f 27       		.uleb128 0x27
 2797 0190 19       		.uleb128 0x19
 2798 0191 49       		.uleb128 0x49
 2799 0192 13       		.uleb128 0x13
 2800 0193 11       		.uleb128 0x11
 2801 0194 01       		.uleb128 0x1
 2802 0195 12       		.uleb128 0x12
 2803 0196 06       		.uleb128 0x6
 2804 0197 40       		.uleb128 0x40
 2805 0198 18       		.uleb128 0x18
 2806 0199 9742     		.uleb128 0x2117
 2807 019b 19       		.uleb128 0x19
 2808 019c 01       		.uleb128 0x1
 2809 019d 13       		.uleb128 0x13
 2810 019e 00       		.byte	0
 2811 019f 00       		.byte	0
 2812 01a0 20       		.uleb128 0x20
 2813 01a1 898201   		.uleb128 0x4109
 2814 01a4 01       		.byte	0x1
 2815 01a5 11       		.uleb128 0x11
 2816 01a6 01       		.uleb128 0x1
 2817 01a7 9542     		.uleb128 0x2115
 2818 01a9 19       		.uleb128 0x19
 2819 01aa 31       		.uleb128 0x31
 2820 01ab 13       		.uleb128 0x13
 2821 01ac 00       		.byte	0
 2822 01ad 00       		.byte	0
 2823 01ae 21       		.uleb128 0x21
 2824 01af 2E       		.uleb128 0x2e
 2825 01b0 01       		.byte	0x1
 2826 01b1 3F       		.uleb128 0x3f
 2827 01b2 19       		.uleb128 0x19
 2828 01b3 03       		.uleb128 0x3
 2829 01b4 0E       		.uleb128 0xe
 2830 01b5 3A       		.uleb128 0x3a
 2831 01b6 0B       		.uleb128 0xb
 2832 01b7 3B       		.uleb128 0x3b
 2833 01b8 0B       		.uleb128 0xb
 2834 01b9 27       		.uleb128 0x27
 2835 01ba 19       		.uleb128 0x19
 2836 01bb 11       		.uleb128 0x11
 2837 01bc 01       		.uleb128 0x1
 2838 01bd 12       		.uleb128 0x12
 2839 01be 06       		.uleb128 0x6
 2840 01bf 40       		.uleb128 0x40
 2841 01c0 18       		.uleb128 0x18
 2842 01c1 9742     		.uleb128 0x2117
ARM GAS  /tmp/ccXbCD6P.s 			page 51


 2843 01c3 19       		.uleb128 0x19
 2844 01c4 01       		.uleb128 0x1
 2845 01c5 13       		.uleb128 0x13
 2846 01c6 00       		.byte	0
 2847 01c7 00       		.byte	0
 2848 01c8 22       		.uleb128 0x22
 2849 01c9 34       		.uleb128 0x34
 2850 01ca 00       		.byte	0
 2851 01cb 03       		.uleb128 0x3
 2852 01cc 0E       		.uleb128 0xe
 2853 01cd 49       		.uleb128 0x49
 2854 01ce 13       		.uleb128 0x13
 2855 01cf 34       		.uleb128 0x34
 2856 01d0 19       		.uleb128 0x19
 2857 01d1 00       		.byte	0
 2858 01d2 00       		.byte	0
 2859 01d3 23       		.uleb128 0x23
 2860 01d4 01       		.uleb128 0x1
 2861 01d5 01       		.byte	0x1
 2862 01d6 49       		.uleb128 0x49
 2863 01d7 13       		.uleb128 0x13
 2864 01d8 01       		.uleb128 0x1
 2865 01d9 13       		.uleb128 0x13
 2866 01da 00       		.byte	0
 2867 01db 00       		.byte	0
 2868 01dc 24       		.uleb128 0x24
 2869 01dd 21       		.uleb128 0x21
 2870 01de 00       		.byte	0
 2871 01df 49       		.uleb128 0x49
 2872 01e0 13       		.uleb128 0x13
 2873 01e1 2F       		.uleb128 0x2f
 2874 01e2 0B       		.uleb128 0xb
 2875 01e3 00       		.byte	0
 2876 01e4 00       		.byte	0
 2877 01e5 25       		.uleb128 0x25
 2878 01e6 05       		.uleb128 0x5
 2879 01e7 00       		.byte	0
 2880 01e8 03       		.uleb128 0x3
 2881 01e9 08       		.uleb128 0x8
 2882 01ea 3A       		.uleb128 0x3a
 2883 01eb 0B       		.uleb128 0xb
 2884 01ec 3B       		.uleb128 0x3b
 2885 01ed 0B       		.uleb128 0xb
 2886 01ee 49       		.uleb128 0x49
 2887 01ef 13       		.uleb128 0x13
 2888 01f0 02       		.uleb128 0x2
 2889 01f1 17       		.uleb128 0x17
 2890 01f2 00       		.byte	0
 2891 01f3 00       		.byte	0
 2892 01f4 26       		.uleb128 0x26
 2893 01f5 34       		.uleb128 0x34
 2894 01f6 00       		.byte	0
 2895 01f7 03       		.uleb128 0x3
 2896 01f8 08       		.uleb128 0x8
 2897 01f9 3A       		.uleb128 0x3a
 2898 01fa 0B       		.uleb128 0xb
 2899 01fb 3B       		.uleb128 0x3b
ARM GAS  /tmp/ccXbCD6P.s 			page 52


 2900 01fc 0B       		.uleb128 0xb
 2901 01fd 49       		.uleb128 0x49
 2902 01fe 13       		.uleb128 0x13
 2903 01ff 1C       		.uleb128 0x1c
 2904 0200 0B       		.uleb128 0xb
 2905 0201 00       		.byte	0
 2906 0202 00       		.byte	0
 2907 0203 27       		.uleb128 0x27
 2908 0204 34       		.uleb128 0x34
 2909 0205 00       		.byte	0
 2910 0206 03       		.uleb128 0x3
 2911 0207 0E       		.uleb128 0xe
 2912 0208 3A       		.uleb128 0x3a
 2913 0209 0B       		.uleb128 0xb
 2914 020a 3B       		.uleb128 0x3b
 2915 020b 0B       		.uleb128 0xb
 2916 020c 49       		.uleb128 0x49
 2917 020d 13       		.uleb128 0x13
 2918 020e 02       		.uleb128 0x2
 2919 020f 18       		.uleb128 0x18
 2920 0210 00       		.byte	0
 2921 0211 00       		.byte	0
 2922 0212 28       		.uleb128 0x28
 2923 0213 0B       		.uleb128 0xb
 2924 0214 01       		.byte	0x1
 2925 0215 55       		.uleb128 0x55
 2926 0216 17       		.uleb128 0x17
 2927 0217 01       		.uleb128 0x1
 2928 0218 13       		.uleb128 0x13
 2929 0219 00       		.byte	0
 2930 021a 00       		.byte	0
 2931 021b 29       		.uleb128 0x29
 2932 021c 898201   		.uleb128 0x4109
 2933 021f 01       		.byte	0x1
 2934 0220 11       		.uleb128 0x11
 2935 0221 01       		.uleb128 0x1
 2936 0222 31       		.uleb128 0x31
 2937 0223 13       		.uleb128 0x13
 2938 0224 00       		.byte	0
 2939 0225 00       		.byte	0
 2940 0226 2A       		.uleb128 0x2a
 2941 0227 34       		.uleb128 0x34
 2942 0228 00       		.byte	0
 2943 0229 03       		.uleb128 0x3
 2944 022a 08       		.uleb128 0x8
 2945 022b 3A       		.uleb128 0x3a
 2946 022c 0B       		.uleb128 0xb
 2947 022d 3B       		.uleb128 0x3b
 2948 022e 05       		.uleb128 0x5
 2949 022f 49       		.uleb128 0x49
 2950 0230 13       		.uleb128 0x13
 2951 0231 02       		.uleb128 0x2
 2952 0232 17       		.uleb128 0x17
 2953 0233 00       		.byte	0
 2954 0234 00       		.byte	0
 2955 0235 2B       		.uleb128 0x2b
 2956 0236 2E       		.uleb128 0x2e
ARM GAS  /tmp/ccXbCD6P.s 			page 53


 2957 0237 01       		.byte	0x1
 2958 0238 3F       		.uleb128 0x3f
 2959 0239 19       		.uleb128 0x19
 2960 023a 03       		.uleb128 0x3
 2961 023b 0E       		.uleb128 0xe
 2962 023c 3A       		.uleb128 0x3a
 2963 023d 0B       		.uleb128 0xb
 2964 023e 3B       		.uleb128 0x3b
 2965 023f 05       		.uleb128 0x5
 2966 0240 27       		.uleb128 0x27
 2967 0241 19       		.uleb128 0x19
 2968 0242 11       		.uleb128 0x11
 2969 0243 01       		.uleb128 0x1
 2970 0244 12       		.uleb128 0x12
 2971 0245 06       		.uleb128 0x6
 2972 0246 40       		.uleb128 0x40
 2973 0247 18       		.uleb128 0x18
 2974 0248 9742     		.uleb128 0x2117
 2975 024a 19       		.uleb128 0x19
 2976 024b 01       		.uleb128 0x1
 2977 024c 13       		.uleb128 0x13
 2978 024d 00       		.byte	0
 2979 024e 00       		.byte	0
 2980 024f 2C       		.uleb128 0x2c
 2981 0250 34       		.uleb128 0x34
 2982 0251 00       		.byte	0
 2983 0252 03       		.uleb128 0x3
 2984 0253 08       		.uleb128 0x8
 2985 0254 3A       		.uleb128 0x3a
 2986 0255 0B       		.uleb128 0xb
 2987 0256 3B       		.uleb128 0x3b
 2988 0257 05       		.uleb128 0x5
 2989 0258 49       		.uleb128 0x49
 2990 0259 13       		.uleb128 0x13
 2991 025a 1C       		.uleb128 0x1c
 2992 025b 0B       		.uleb128 0xb
 2993 025c 00       		.byte	0
 2994 025d 00       		.byte	0
 2995 025e 2D       		.uleb128 0x2d
 2996 025f 34       		.uleb128 0x34
 2997 0260 00       		.byte	0
 2998 0261 03       		.uleb128 0x3
 2999 0262 0E       		.uleb128 0xe
 3000 0263 3A       		.uleb128 0x3a
 3001 0264 0B       		.uleb128 0xb
 3002 0265 3B       		.uleb128 0x3b
 3003 0266 0B       		.uleb128 0xb
 3004 0267 49       		.uleb128 0x49
 3005 0268 13       		.uleb128 0x13
 3006 0269 1C       		.uleb128 0x1c
 3007 026a 0A       		.uleb128 0xa
 3008 026b 00       		.byte	0
 3009 026c 00       		.byte	0
 3010 026d 2E       		.uleb128 0x2e
 3011 026e 34       		.uleb128 0x34
 3012 026f 00       		.byte	0
 3013 0270 03       		.uleb128 0x3
ARM GAS  /tmp/ccXbCD6P.s 			page 54


 3014 0271 0E       		.uleb128 0xe
 3015 0272 3A       		.uleb128 0x3a
 3016 0273 0B       		.uleb128 0xb
 3017 0274 3B       		.uleb128 0x3b
 3018 0275 05       		.uleb128 0x5
 3019 0276 49       		.uleb128 0x49
 3020 0277 13       		.uleb128 0x13
 3021 0278 3F       		.uleb128 0x3f
 3022 0279 19       		.uleb128 0x19
 3023 027a 3C       		.uleb128 0x3c
 3024 027b 19       		.uleb128 0x19
 3025 027c 00       		.byte	0
 3026 027d 00       		.byte	0
 3027 027e 2F       		.uleb128 0x2f
 3028 027f 34       		.uleb128 0x34
 3029 0280 00       		.byte	0
 3030 0281 03       		.uleb128 0x3
 3031 0282 08       		.uleb128 0x8
 3032 0283 3A       		.uleb128 0x3a
 3033 0284 0B       		.uleb128 0xb
 3034 0285 3B       		.uleb128 0x3b
 3035 0286 05       		.uleb128 0x5
 3036 0287 49       		.uleb128 0x49
 3037 0288 13       		.uleb128 0x13
 3038 0289 3F       		.uleb128 0x3f
 3039 028a 19       		.uleb128 0x19
 3040 028b 3C       		.uleb128 0x3c
 3041 028c 19       		.uleb128 0x19
 3042 028d 00       		.byte	0
 3043 028e 00       		.byte	0
 3044 028f 30       		.uleb128 0x30
 3045 0290 2E       		.uleb128 0x2e
 3046 0291 00       		.byte	0
 3047 0292 3F       		.uleb128 0x3f
 3048 0293 19       		.uleb128 0x19
 3049 0294 3C       		.uleb128 0x3c
 3050 0295 19       		.uleb128 0x19
 3051 0296 6E       		.uleb128 0x6e
 3052 0297 0E       		.uleb128 0xe
 3053 0298 03       		.uleb128 0x3
 3054 0299 0E       		.uleb128 0xe
 3055 029a 3A       		.uleb128 0x3a
 3056 029b 0B       		.uleb128 0xb
 3057 029c 3B       		.uleb128 0x3b
 3058 029d 0B       		.uleb128 0xb
 3059 029e 00       		.byte	0
 3060 029f 00       		.byte	0
 3061 02a0 31       		.uleb128 0x31
 3062 02a1 2E       		.uleb128 0x2e
 3063 02a2 00       		.byte	0
 3064 02a3 3F       		.uleb128 0x3f
 3065 02a4 19       		.uleb128 0x19
 3066 02a5 3C       		.uleb128 0x3c
 3067 02a6 19       		.uleb128 0x19
 3068 02a7 6E       		.uleb128 0x6e
 3069 02a8 0E       		.uleb128 0xe
 3070 02a9 03       		.uleb128 0x3
ARM GAS  /tmp/ccXbCD6P.s 			page 55


 3071 02aa 0E       		.uleb128 0xe
 3072 02ab 00       		.byte	0
 3073 02ac 00       		.byte	0
 3074 02ad 00       		.byte	0
 3075              		.section	.debug_loc,"",%progbits
 3076              	.Ldebug_loc0:
 3077              	.LLST0:
 3078 0000 00000000 		.4byte	.LVL0
 3079 0004 0E000000 		.4byte	.LVL2
 3080 0008 0100     		.2byte	0x1
 3081 000a 50       		.byte	0x50
 3082 000b 0E000000 		.4byte	.LVL2
 3083 000f 18000000 		.4byte	.LVL4
 3084 0013 0100     		.2byte	0x1
 3085 0015 55       		.byte	0x55
 3086 0016 18000000 		.4byte	.LVL4
 3087 001a 1C000000 		.4byte	.LVL5
 3088 001e 0100     		.2byte	0x1
 3089 0020 50       		.byte	0x50
 3090 0021 1C000000 		.4byte	.LVL5
 3091 0025 6E000000 		.4byte	.LVL17
 3092 0029 0100     		.2byte	0x1
 3093 002b 55       		.byte	0x55
 3094 002c 6E000000 		.4byte	.LVL17
 3095 0030 71000000 		.4byte	.LVL18-1
 3096 0034 0100     		.2byte	0x1
 3097 0036 52       		.byte	0x52
 3098 0037 71000000 		.4byte	.LVL18-1
 3099 003b 74000000 		.4byte	.LVL19
 3100 003f 0100     		.2byte	0x1
 3101 0041 55       		.byte	0x55
 3102 0042 74000000 		.4byte	.LVL19
 3103 0046 76000000 		.4byte	.LVL20
 3104 004a 0100     		.2byte	0x1
 3105 004c 50       		.byte	0x50
 3106 004d 76000000 		.4byte	.LVL20
 3107 0051 7A000000 		.4byte	.LVL21
 3108 0055 0100     		.2byte	0x1
 3109 0057 55       		.byte	0x55
 3110 0058 00000000 		.4byte	0
 3111 005c 00000000 		.4byte	0
 3112              	.LLST1:
 3113 0060 00000000 		.4byte	.LVL0
 3114 0064 20000000 		.4byte	.LVL6
 3115 0068 0100     		.2byte	0x1
 3116 006a 51       		.byte	0x51
 3117 006b 20000000 		.4byte	.LVL6
 3118 006f 74000000 		.4byte	.LVL19
 3119 0073 0400     		.2byte	0x4
 3120 0075 F3       		.byte	0xf3
 3121 0076 01       		.uleb128 0x1
 3122 0077 51       		.byte	0x51
 3123 0078 9F       		.byte	0x9f
 3124 0079 74000000 		.4byte	.LVL19
 3125 007d 76000000 		.4byte	.LVL20
 3126 0081 0100     		.2byte	0x1
 3127 0083 51       		.byte	0x51
ARM GAS  /tmp/ccXbCD6P.s 			page 56


 3128 0084 76000000 		.4byte	.LVL20
 3129 0088 84000000 		.4byte	.LFE324
 3130 008c 0400     		.2byte	0x4
 3131 008e F3       		.byte	0xf3
 3132 008f 01       		.uleb128 0x1
 3133 0090 51       		.byte	0x51
 3134 0091 9F       		.byte	0x9f
 3135 0092 00000000 		.4byte	0
 3136 0096 00000000 		.4byte	0
 3137              	.LLST2:
 3138 009a 06000000 		.4byte	.LVL1
 3139 009e 74000000 		.4byte	.LVL19
 3140 00a2 0200     		.2byte	0x2
 3141 00a4 35       		.byte	0x35
 3142 00a5 9F       		.byte	0x9f
 3143 00a6 76000000 		.4byte	.LVL20
 3144 00aa 84000000 		.4byte	.LFE324
 3145 00ae 0200     		.2byte	0x2
 3146 00b0 35       		.byte	0x35
 3147 00b1 9F       		.byte	0x9f
 3148 00b2 00000000 		.4byte	0
 3149 00b6 00000000 		.4byte	0
 3150              	.LLST3:
 3151 00ba 06000000 		.4byte	.LVL1
 3152 00be 74000000 		.4byte	.LVL19
 3153 00c2 0200     		.2byte	0x2
 3154 00c4 38       		.byte	0x38
 3155 00c5 9F       		.byte	0x9f
 3156 00c6 76000000 		.4byte	.LVL20
 3157 00ca 84000000 		.4byte	.LFE324
 3158 00ce 0200     		.2byte	0x2
 3159 00d0 38       		.byte	0x38
 3160 00d1 9F       		.byte	0x9f
 3161 00d2 00000000 		.4byte	0
 3162 00d6 00000000 		.4byte	0
 3163              	.LLST4:
 3164 00da 06000000 		.4byte	.LVL1
 3165 00de 26000000 		.4byte	.LVL7
 3166 00e2 0200     		.2byte	0x2
 3167 00e4 30       		.byte	0x30
 3168 00e5 9F       		.byte	0x9f
 3169 00e6 26000000 		.4byte	.LVL7
 3170 00ea 2C000000 		.4byte	.LVL9
 3171 00ee 0100     		.2byte	0x1
 3172 00f0 50       		.byte	0x50
 3173 00f1 36000000 		.4byte	.LVL10
 3174 00f5 40000000 		.4byte	.LVL11
 3175 00f9 0100     		.2byte	0x1
 3176 00fb 50       		.byte	0x50
 3177 00fc 40000000 		.4byte	.LVL11
 3178 0100 44000000 		.4byte	.LVL12
 3179 0104 0100     		.2byte	0x1
 3180 0106 54       		.byte	0x54
 3181 0107 44000000 		.4byte	.LVL12
 3182 010b 4F000000 		.4byte	.LVL14-1
 3183 010f 0100     		.2byte	0x1
 3184 0111 50       		.byte	0x50
ARM GAS  /tmp/ccXbCD6P.s 			page 57


 3185 0112 4F000000 		.4byte	.LVL14-1
 3186 0116 50000000 		.4byte	.LVL14
 3187 011a 0100     		.2byte	0x1
 3188 011c 54       		.byte	0x54
 3189 011d 50000000 		.4byte	.LVL14
 3190 0121 54000000 		.4byte	.LVL15
 3191 0125 0100     		.2byte	0x1
 3192 0127 50       		.byte	0x50
 3193 0128 5E000000 		.4byte	.LVL16
 3194 012c 71000000 		.4byte	.LVL18-1
 3195 0130 0100     		.2byte	0x1
 3196 0132 50       		.byte	0x50
 3197 0133 71000000 		.4byte	.LVL18-1
 3198 0137 74000000 		.4byte	.LVL19
 3199 013b 0100     		.2byte	0x1
 3200 013d 54       		.byte	0x54
 3201 013e 76000000 		.4byte	.LVL20
 3202 0142 7A000000 		.4byte	.LVL21
 3203 0146 0100     		.2byte	0x1
 3204 0148 54       		.byte	0x54
 3205 0149 7A000000 		.4byte	.LVL21
 3206 014d 84000000 		.4byte	.LFE324
 3207 0151 0100     		.2byte	0x1
 3208 0153 50       		.byte	0x50
 3209 0154 00000000 		.4byte	0
 3210 0158 00000000 		.4byte	0
 3211              	.LLST5:
 3212 015c 2A000000 		.4byte	.LVL8
 3213 0160 48000000 		.4byte	.LVL13
 3214 0164 0200     		.2byte	0x2
 3215 0166 31       		.byte	0x31
 3216 0167 9F       		.byte	0x9f
 3217 0168 48000000 		.4byte	.LVL13
 3218 016c 54000000 		.4byte	.LVL15
 3219 0170 0200     		.2byte	0x2
 3220 0172 32       		.byte	0x32
 3221 0173 9F       		.byte	0x9f
 3222 0174 00000000 		.4byte	0
 3223 0178 00000000 		.4byte	0
 3224              	.LLST6:
 3225 017c 00000000 		.4byte	.LVL22
 3226 0180 05000000 		.4byte	.LVL23-1
 3227 0184 0100     		.2byte	0x1
 3228 0186 50       		.byte	0x50
 3229 0187 05000000 		.4byte	.LVL23-1
 3230 018b 06000000 		.4byte	.LFE325
 3231 018f 0400     		.2byte	0x4
 3232 0191 F3       		.byte	0xf3
 3233 0192 01       		.uleb128 0x1
 3234 0193 50       		.byte	0x50
 3235 0194 9F       		.byte	0x9f
 3236 0195 00000000 		.4byte	0
 3237 0199 00000000 		.4byte	0
 3238              	.LLST7:
 3239 019d 00000000 		.4byte	.LVL24
 3240 01a1 05000000 		.4byte	.LVL25-1
 3241 01a5 0100     		.2byte	0x1
ARM GAS  /tmp/ccXbCD6P.s 			page 58


 3242 01a7 50       		.byte	0x50
 3243 01a8 05000000 		.4byte	.LVL25-1
 3244 01ac 06000000 		.4byte	.LFE327
 3245 01b0 0400     		.2byte	0x4
 3246 01b2 F3       		.byte	0xf3
 3247 01b3 01       		.uleb128 0x1
 3248 01b4 50       		.byte	0x50
 3249 01b5 9F       		.byte	0x9f
 3250 01b6 00000000 		.4byte	0
 3251 01ba 00000000 		.4byte	0
 3252              	.LLST8:
 3253 01be 00000000 		.4byte	.LVL26
 3254 01c2 10000000 		.4byte	.LVL27
 3255 01c6 0200     		.2byte	0x2
 3256 01c8 31       		.byte	0x31
 3257 01c9 9F       		.byte	0x9f
 3258 01ca 10000000 		.4byte	.LVL27
 3259 01ce 30000000 		.4byte	.LFE323
 3260 01d2 0200     		.2byte	0x2
 3261 01d4 32       		.byte	0x32
 3262 01d5 9F       		.byte	0x9f
 3263 01d6 00000000 		.4byte	0
 3264 01da 00000000 		.4byte	0
 3265              	.LLST9:
 3266 01de 18000000 		.4byte	.LVL28
 3267 01e2 24000000 		.4byte	.LVL29
 3268 01e6 0100     		.2byte	0x1
 3269 01e8 50       		.byte	0x50
 3270 01e9 24000000 		.4byte	.LVL29
 3271 01ed 27000000 		.4byte	.LVL30-1
 3272 01f1 0100     		.2byte	0x1
 3273 01f3 51       		.byte	0x51
 3274 01f4 00000000 		.4byte	0
 3275 01f8 00000000 		.4byte	0
 3276              	.LLST10:
 3277 01fc 00000000 		.4byte	.LVL31
 3278 0200 05000000 		.4byte	.LVL32-1
 3279 0204 0100     		.2byte	0x1
 3280 0206 50       		.byte	0x50
 3281 0207 05000000 		.4byte	.LVL32-1
 3282 020b 06000000 		.4byte	.LFE328
 3283 020f 0400     		.2byte	0x4
 3284 0211 F3       		.byte	0xf3
 3285 0212 01       		.uleb128 0x1
 3286 0213 50       		.byte	0x50
 3287 0214 9F       		.byte	0x9f
 3288 0215 00000000 		.4byte	0
 3289 0219 00000000 		.4byte	0
 3290              	.LLST11:
 3291 021d 00000000 		.4byte	.LVL33
 3292 0221 02000000 		.4byte	.LVL34
 3293 0225 0100     		.2byte	0x1
 3294 0227 50       		.byte	0x50
 3295 0228 02000000 		.4byte	.LVL34
 3296 022c 06000000 		.4byte	.LFE329
 3297 0230 0400     		.2byte	0x4
 3298 0232 F3       		.byte	0xf3
ARM GAS  /tmp/ccXbCD6P.s 			page 59


 3299 0233 01       		.uleb128 0x1
 3300 0234 50       		.byte	0x50
 3301 0235 9F       		.byte	0x9f
 3302 0236 00000000 		.4byte	0
 3303 023a 00000000 		.4byte	0
 3304              	.LLST12:
 3305 023e 00000000 		.4byte	.LVL33
 3306 0242 05000000 		.4byte	.LVL35-1
 3307 0246 0100     		.2byte	0x1
 3308 0248 51       		.byte	0x51
 3309 0249 05000000 		.4byte	.LVL35-1
 3310 024d 06000000 		.4byte	.LFE329
 3311 0251 0400     		.2byte	0x4
 3312 0253 F3       		.byte	0xf3
 3313 0254 01       		.uleb128 0x1
 3314 0255 51       		.byte	0x51
 3315 0256 9F       		.byte	0x9f
 3316 0257 00000000 		.4byte	0
 3317 025b 00000000 		.4byte	0
 3318              	.LLST13:
 3319 025f 00000000 		.4byte	.LVL36
 3320 0263 05000000 		.4byte	.LVL37-1
 3321 0267 0100     		.2byte	0x1
 3322 0269 50       		.byte	0x50
 3323 026a 05000000 		.4byte	.LVL37-1
 3324 026e 06000000 		.4byte	.LVL37
 3325 0272 0400     		.2byte	0x4
 3326 0274 F3       		.byte	0xf3
 3327 0275 01       		.uleb128 0x1
 3328 0276 50       		.byte	0x50
 3329 0277 9F       		.byte	0x9f
 3330 0278 06000000 		.4byte	.LVL37
 3331 027c 08000000 		.4byte	.LFE330
 3332 0280 0100     		.2byte	0x1
 3333 0282 50       		.byte	0x50
 3334 0283 00000000 		.4byte	0
 3335 0287 00000000 		.4byte	0
 3336              	.LLST14:
 3337 028b 40000000 		.4byte	.LVL42
 3338 028f 46000000 		.4byte	.LVL43
 3339 0293 0800     		.2byte	0x8
 3340 0295 7D       		.byte	0x7d
 3341 0296 00       		.sleb128 0
 3342 0297 06       		.byte	0x6
 3343 0298 91       		.byte	0x91
 3344 0299 6C       		.sleb128 -20
 3345 029a 06       		.byte	0x6
 3346 029b 22       		.byte	0x22
 3347 029c 9F       		.byte	0x9f
 3348 029d 46000000 		.4byte	.LVL43
 3349 02a1 54000000 		.4byte	.LFE331
 3350 02a5 0100     		.2byte	0x1
 3351 02a7 50       		.byte	0x50
 3352 02a8 00000000 		.4byte	0
 3353 02ac 00000000 		.4byte	0
 3354              	.LLST15:
 3355 02b0 00000000 		.4byte	.LVL44
ARM GAS  /tmp/ccXbCD6P.s 			page 60


 3356 02b4 1C000000 		.4byte	.LVL48
 3357 02b8 0100     		.2byte	0x1
 3358 02ba 50       		.byte	0x50
 3359 02bb 1C000000 		.4byte	.LVL48
 3360 02bf 1F000000 		.4byte	.LVL49-1
 3361 02c3 0100     		.2byte	0x1
 3362 02c5 51       		.byte	0x51
 3363 02c6 1F000000 		.4byte	.LVL49-1
 3364 02ca 38000000 		.4byte	.LVL53
 3365 02ce 0100     		.2byte	0x1
 3366 02d0 54       		.byte	0x54
 3367 02d1 38000000 		.4byte	.LVL53
 3368 02d5 3C000000 		.4byte	.LFE332
 3369 02d9 0400     		.2byte	0x4
 3370 02db F3       		.byte	0xf3
 3371 02dc 01       		.uleb128 0x1
 3372 02dd 50       		.byte	0x50
 3373 02de 9F       		.byte	0x9f
 3374 02df 00000000 		.4byte	0
 3375 02e3 00000000 		.4byte	0
 3376              	.LLST16:
 3377 02e7 00000000 		.4byte	.LVL44
 3378 02eb 1A000000 		.4byte	.LVL47
 3379 02ef 0100     		.2byte	0x1
 3380 02f1 51       		.byte	0x51
 3381 02f2 1A000000 		.4byte	.LVL47
 3382 02f6 1F000000 		.4byte	.LVL49-1
 3383 02fa 0100     		.2byte	0x1
 3384 02fc 52       		.byte	0x52
 3385 02fd 1F000000 		.4byte	.LVL49-1
 3386 0301 38000000 		.4byte	.LVL53
 3387 0305 0100     		.2byte	0x1
 3388 0307 55       		.byte	0x55
 3389 0308 38000000 		.4byte	.LVL53
 3390 030c 3C000000 		.4byte	.LFE332
 3391 0310 0400     		.2byte	0x4
 3392 0312 F3       		.byte	0xf3
 3393 0313 01       		.uleb128 0x1
 3394 0314 51       		.byte	0x51
 3395 0315 9F       		.byte	0x9f
 3396 0316 00000000 		.4byte	0
 3397 031a 00000000 		.4byte	0
 3398              	.LLST17:
 3399 031e 00000000 		.4byte	.LVL44
 3400 0322 18000000 		.4byte	.LVL46
 3401 0326 0100     		.2byte	0x1
 3402 0328 52       		.byte	0x52
 3403 0329 18000000 		.4byte	.LVL46
 3404 032d 1F000000 		.4byte	.LVL49-1
 3405 0331 0100     		.2byte	0x1
 3406 0333 53       		.byte	0x53
 3407 0334 1F000000 		.4byte	.LVL49-1
 3408 0338 38000000 		.4byte	.LVL53
 3409 033c 0100     		.2byte	0x1
 3410 033e 56       		.byte	0x56
 3411 033f 38000000 		.4byte	.LVL53
 3412 0343 3C000000 		.4byte	.LFE332
ARM GAS  /tmp/ccXbCD6P.s 			page 61


 3413 0347 0400     		.2byte	0x4
 3414 0349 F3       		.byte	0xf3
 3415 034a 01       		.uleb128 0x1
 3416 034b 52       		.byte	0x52
 3417 034c 9F       		.byte	0x9f
 3418 034d 00000000 		.4byte	0
 3419 0351 00000000 		.4byte	0
 3420              	.LLST18:
 3421 0355 00000000 		.4byte	.LVL44
 3422 0359 12000000 		.4byte	.LVL45
 3423 035d 0100     		.2byte	0x1
 3424 035f 53       		.byte	0x53
 3425 0360 12000000 		.4byte	.LVL45
 3426 0364 38000000 		.4byte	.LVL53
 3427 0368 0100     		.2byte	0x1
 3428 036a 57       		.byte	0x57
 3429 036b 38000000 		.4byte	.LVL53
 3430 036f 3C000000 		.4byte	.LFE332
 3431 0373 0400     		.2byte	0x4
 3432 0375 F3       		.byte	0xf3
 3433 0376 01       		.uleb128 0x1
 3434 0377 53       		.byte	0x53
 3435 0378 9F       		.byte	0x9f
 3436 0379 00000000 		.4byte	0
 3437 037d 00000000 		.4byte	0
 3438              	.LLST19:
 3439 0381 00000000 		.4byte	.LVL44
 3440 0385 38000000 		.4byte	.LVL53
 3441 0389 0200     		.2byte	0x2
 3442 038b 91       		.byte	0x91
 3443 038c 00       		.sleb128 0
 3444 038d 38000000 		.4byte	.LVL53
 3445 0391 3C000000 		.4byte	.LFE332
 3446 0395 0200     		.2byte	0x2
 3447 0397 7D       		.byte	0x7d
 3448 0398 00       		.sleb128 0
 3449 0399 00000000 		.4byte	0
 3450 039d 00000000 		.4byte	0
 3451              	.LLST20:
 3452 03a1 20000000 		.4byte	.LVL49
 3453 03a5 2E000000 		.4byte	.LVL51
 3454 03a9 0100     		.2byte	0x1
 3455 03ab 50       		.byte	0x50
 3456 03ac 00000000 		.4byte	0
 3457 03b0 00000000 		.4byte	0
 3458              	.LLST21:
 3459 03b4 22000000 		.4byte	.LVL50
 3460 03b8 32000000 		.4byte	.LVL52
 3461 03bc 0200     		.2byte	0x2
 3462 03be 31       		.byte	0x31
 3463 03bf 9F       		.byte	0x9f
 3464 03c0 00000000 		.4byte	0
 3465 03c4 00000000 		.4byte	0
 3466              		.section	.debug_aranges,"",%progbits
 3467 0000 64000000 		.4byte	0x64
 3468 0004 0200     		.2byte	0x2
 3469 0006 00000000 		.4byte	.Ldebug_info0
ARM GAS  /tmp/ccXbCD6P.s 			page 62


 3470 000a 04       		.byte	0x4
 3471 000b 00       		.byte	0
 3472 000c 0000     		.2byte	0
 3473 000e 0000     		.2byte	0
 3474 0010 00000000 		.4byte	.LFB324
 3475 0014 84000000 		.4byte	.LFE324-.LFB324
 3476 0018 00000000 		.4byte	.LFB325
 3477 001c 06000000 		.4byte	.LFE325-.LFB325
 3478 0020 00000000 		.4byte	.LFB327
 3479 0024 06000000 		.4byte	.LFE327-.LFB327
 3480 0028 00000000 		.4byte	.LFB323
 3481 002c 30000000 		.4byte	.LFE323-.LFB323
 3482 0030 00000000 		.4byte	.LFB328
 3483 0034 06000000 		.4byte	.LFE328-.LFB328
 3484 0038 00000000 		.4byte	.LFB329
 3485 003c 06000000 		.4byte	.LFE329-.LFB329
 3486 0040 00000000 		.4byte	.LFB330
 3487 0044 08000000 		.4byte	.LFE330-.LFB330
 3488 0048 00000000 		.4byte	.LFB331
 3489 004c 54000000 		.4byte	.LFE331-.LFB331
 3490 0050 00000000 		.4byte	.LFB332
 3491 0054 3C000000 		.4byte	.LFE332-.LFB332
 3492 0058 00000000 		.4byte	.LFB333
 3493 005c 02000000 		.4byte	.LFE333-.LFB333
 3494 0060 00000000 		.4byte	0
 3495 0064 00000000 		.4byte	0
 3496              		.section	.debug_ranges,"",%progbits
 3497              	.Ldebug_ranges0:
 3498 0000 12000000 		.4byte	.LBB2
 3499 0004 14000000 		.4byte	.LBE2
 3500 0008 1A000000 		.4byte	.LBB3
 3501 000c 1E000000 		.4byte	.LBE3
 3502 0010 22000000 		.4byte	.LBB4
 3503 0014 30000000 		.4byte	.LBE4
 3504 0018 32000000 		.4byte	.LBB5
 3505 001c 34000000 		.4byte	.LBE5
 3506 0020 00000000 		.4byte	0
 3507 0024 00000000 		.4byte	0
 3508 0028 00000000 		.4byte	.LFB324
 3509 002c 84000000 		.4byte	.LFE324
 3510 0030 00000000 		.4byte	.LFB325
 3511 0034 06000000 		.4byte	.LFE325
 3512 0038 00000000 		.4byte	.LFB327
 3513 003c 06000000 		.4byte	.LFE327
 3514 0040 00000000 		.4byte	.LFB323
 3515 0044 30000000 		.4byte	.LFE323
 3516 0048 00000000 		.4byte	.LFB328
 3517 004c 06000000 		.4byte	.LFE328
 3518 0050 00000000 		.4byte	.LFB329
 3519 0054 06000000 		.4byte	.LFE329
 3520 0058 00000000 		.4byte	.LFB330
 3521 005c 08000000 		.4byte	.LFE330
 3522 0060 00000000 		.4byte	.LFB331
 3523 0064 54000000 		.4byte	.LFE331
 3524 0068 00000000 		.4byte	.LFB332
 3525 006c 3C000000 		.4byte	.LFE332
 3526 0070 00000000 		.4byte	.LFB333
ARM GAS  /tmp/ccXbCD6P.s 			page 63


 3527 0074 02000000 		.4byte	.LFE333
 3528 0078 00000000 		.4byte	0
 3529 007c 00000000 		.4byte	0
 3530              		.section	.debug_line,"",%progbits
 3531              	.Ldebug_line0:
 3532 0000 72030000 		.section	.debug_str,"MS",%progbits,1
 3532      02008C02 
 3532      00000201 
 3532      FB0E0D00 
 3532      01010101 
 3533              	.LASF20:
 3534 0000 72747469 		.ascii	"rttime_t\000"
 3534      6D655F74 
 3534      00
 3535              	.LASF105:
 3536 0009 7466756E 		.ascii	"tfunc_t\000"
 3536      635F7400 
 3537              	.LASF131:
 3538 0011 746F7461 		.ascii	"totalp\000"
 3538      6C7000
 3539              	.LASF54:
 3540 0018 72656164 		.ascii	"ready_list_t\000"
 3540      795F6C69 
 3540      73745F74 
 3540      00
 3541              	.LASF17:
 3542 0025 73697A65 		.ascii	"size_t\000"
 3542      5F7400
 3543              	.LASF124:
 3544 002c 6D616C6C 		.ascii	"malloc_sdcard_dma\000"
 3544      6F635F73 
 3544      64636172 
 3544      645F646D 
 3544      6100
 3545              	.LASF16:
 3546 003e 75696E74 		.ascii	"uint64_t\000"
 3546      36345F74 
 3546      00
 3547              	.LASF73:
 3548 0047 6B65726E 		.ascii	"kernel_stats\000"
 3548      656C5F73 
 3548      74617473 
 3548      00
 3549              	.LASF26:
 3550 0054 6576656E 		.ascii	"eventmask_t\000"
 3550      746D6173 
 3550      6B5F7400 
 3551              	.LASF4:
 3552 0060 5F5F7569 		.ascii	"__uint8_t\000"
 3552      6E74385F 
 3552      7400
 3553              	.LASF53:
 3554 006a 70726576 		.ascii	"prev\000"
 3554      00
 3555              	.LASF80:
 3556 006f 706F7274 		.ascii	"port_intctx\000"
 3556      5F696E74 
ARM GAS  /tmp/ccXbCD6P.s 			page 64


 3556      63747800 
 3557              	.LASF116:
 3558 007b 70616765 		.ascii	"pages\000"
 3558      7300
 3559              	.LASF71:
 3560 0081 76746C69 		.ascii	"vtlist\000"
 3560      737400
 3561              	.LASF111:
 3562 0088 70726F76 		.ascii	"provider\000"
 3562      69646572 
 3562      00
 3563              	.LASF145:
 3564 0091 474E5520 		.ascii	"GNU C11 5.4.1 20160919 -mcpu=cortex-m4 -mfloat-abi="
 3564      43313120 
 3564      352E342E 
 3564      31203230 
 3564      31363039 
 3565 00c4 68617264 		.ascii	"hard -mfpu=fpv4-sp-d16 -mno-thumb-interwork -mthumb"
 3565      202D6D66 
 3565      70753D66 
 3565      7076342D 
 3565      73702D64 
 3566 00f7 202D6720 		.ascii	" -g -Os -fomit-frame-pointer -falign-functions=16 -"
 3566      2D4F7320 
 3566      2D666F6D 
 3566      69742D66 
 3566      72616D65 
 3567 012a 6666756E 		.ascii	"ffunction-sections -fdata-sections -fno-common -fsi"
 3567      6374696F 
 3567      6E2D7365 
 3567      6374696F 
 3567      6E73202D 
 3568 015d 6E676C65 		.ascii	"ngle-precision-constant\000"
 3568      2D707265 
 3568      63697369 
 3568      6F6E2D63 
 3568      6F6E7374 
 3569              	.LASF84:
 3570 0175 776F7273 		.ascii	"worst\000"
 3570      7400
 3571              	.LASF87:
 3572 017b 74696D65 		.ascii	"time_measurement_t\000"
 3572      5F6D6561 
 3572      73757265 
 3572      6D656E74 
 3572      5F7400
 3573              	.LASF11:
 3574 018e 6C6F6E67 		.ascii	"long long unsigned int\000"
 3574      206C6F6E 
 3574      6720756E 
 3574      7369676E 
 3574      65642069 
 3575              	.LASF72:
 3576 01a5 6D61696E 		.ascii	"mainthread\000"
 3576      74687265 
 3576      616400
 3577              	.LASF97:
ARM GAS  /tmp/ccXbCD6P.s 			page 65


 3578 01b0 73656E74 		.ascii	"sentmsg\000"
 3578      6D736700 
 3579              	.LASF60:
 3580 01b8 64656C74 		.ascii	"delta\000"
 3580      6100
 3581              	.LASF138:
 3582 01be 49544D5F 		.ascii	"ITM_RxBuffer\000"
 3582      52784275 
 3582      66666572 
 3582      00
 3583              	.LASF50:
 3584 01cb 6E657874 		.ascii	"next\000"
 3584      00
 3585              	.LASF52:
 3586 01d0 63685F74 		.ascii	"ch_threads_queue\000"
 3586      68726561 
 3586      64735F71 
 3586      75657565 
 3586      00
 3587              	.LASF146:
 3588 01e1 2E2E2F2E 		.ascii	"../../libraries/AP_HAL_ChibiOS/hwdef/common/malloc."
 3588      2E2F6C69 
 3588      62726172 
 3588      6965732F 
 3588      41505F48 
 3589 0214 6300     		.ascii	"c\000"
 3590              	.LASF119:
 3591 0216 6D656D6F 		.ascii	"memory_region\000"
 3591      72795F72 
 3591      6567696F 
 3591      6E00
 3592              	.LASF0:
 3593 0224 7369676E 		.ascii	"signed char\000"
 3593      65642063 
 3593      68617200 
 3594              	.LASF126:
 3595 0230 6D616C6C 		.ascii	"malloc_fastmem\000"
 3595      6F635F66 
 3595      6173746D 
 3595      656D00
 3596              	.LASF8:
 3597 023f 6C6F6E67 		.ascii	"long unsigned int\000"
 3597      20756E73 
 3597      69676E65 
 3597      6420696E 
 3597      7400
 3598              	.LASF118:
 3599 0251 73697A65 		.ascii	"size\000"
 3599      00
 3600              	.LASF141:
 3601 0256 63684865 		.ascii	"chHeapFree\000"
 3601      61704672 
 3601      656500
 3602              	.LASF95:
 3603 0261 77746F62 		.ascii	"wtobjp\000"
 3603      6A7000
 3604              	.LASF40:
ARM GAS  /tmp/ccXbCD6P.s 			page 66


 3605 0268 6D736771 		.ascii	"msgqueue\000"
 3605      75657565 
 3605      00
 3606              	.LASF36:
 3607 0271 73746174 		.ascii	"state\000"
 3607      6500
 3608              	.LASF6:
 3609 0277 6C6F6E67 		.ascii	"long int\000"
 3609      20696E74 
 3609      00
 3610              	.LASF144:
 3611 0280 63685468 		.ascii	"chThdCreateFromHeap\000"
 3611      64437265 
 3611      61746546 
 3611      726F6D48 
 3611      65617000 
 3612              	.LASF22:
 3613 0294 74737461 		.ascii	"tstate_t\000"
 3613      74655F74 
 3613      00
 3614              	.LASF61:
 3615 029d 66756E63 		.ascii	"func\000"
 3615      00
 3616              	.LASF45:
 3617 02a2 73746174 		.ascii	"stats\000"
 3617      7300
 3618              	.LASF94:
 3619 02a8 65786974 		.ascii	"exitcode\000"
 3619      636F6465 
 3619      00
 3620              	.LASF125:
 3621 02b1 646D615F 		.ascii	"dma_reserve\000"
 3621      72657365 
 3621      72766500 
 3622              	.LASF7:
 3623 02bd 5F5F7569 		.ascii	"__uint32_t\000"
 3623      6E743332 
 3623      5F7400
 3624              	.LASF77:
 3625 02c8 72656761 		.ascii	"regarm_t\000"
 3625      726D5F74 
 3625      00
 3626              	.LASF66:
 3627 02d1 63685F73 		.ascii	"ch_system_debug\000"
 3627      79737465 
 3627      6D5F6465 
 3627      62756700 
 3628              	.LASF39:
 3629 02e1 77616974 		.ascii	"waiting\000"
 3629      696E6700 
 3630              	.LASF106:
 3631 02e9 6D757465 		.ascii	"mutex_t\000"
 3631      785F7400 
 3632              	.LASF75:
 3633 02f1 73797369 		.ascii	"sysinterval_t\000"
 3633      6E746572 
 3633      76616C5F 
ARM GAS  /tmp/ccXbCD6P.s 			page 67


 3633      7400
 3634              	.LASF27:
 3635 02ff 636E745F 		.ascii	"cnt_t\000"
 3635      7400
 3636              	.LASF12:
 3637 0305 756E7369 		.ascii	"unsigned int\000"
 3637      676E6564 
 3637      20696E74 
 3637      00
 3638              	.LASF98:
 3639 0312 77747365 		.ascii	"wtsemp\000"
 3639      6D7000
 3640              	.LASF65:
 3641 0319 73797374 		.ascii	"system_debug_t\000"
 3641      656D5F64 
 3641      65627567 
 3641      5F7400
 3642              	.LASF136:
 3643 0328 68656170 		.ascii	"heaps\000"
 3643      7300
 3644              	.LASF88:
 3645 032e 6E5F6972 		.ascii	"n_irq\000"
 3645      7100
 3646              	.LASF30:
 3647 0334 71756575 		.ascii	"queue\000"
 3647      6500
 3648              	.LASF34:
 3649 033a 6E616D65 		.ascii	"name\000"
 3649      00
 3650              	.LASF132:
 3651 033f 61766169 		.ascii	"available\000"
 3651      6C61626C 
 3651      6500
 3652              	.LASF3:
 3653 0349 73686F72 		.ascii	"short unsigned int\000"
 3653      7420756E 
 3653      7369676E 
 3653      65642069 
 3653      6E7400
 3654              	.LASF92:
 3655 035c 6B65726E 		.ascii	"kernel_stats_t\000"
 3655      656C5F73 
 3655      74617473 
 3655      5F7400
 3656              	.LASF48:
 3657 036b 63685F74 		.ascii	"ch_thread\000"
 3657      68726561 
 3657      6400
 3658              	.LASF25:
 3659 0375 6D73675F 		.ascii	"msg_t\000"
 3659      7400
 3660              	.LASF85:
 3661 037b 6C617374 		.ascii	"last\000"
 3661      00
 3662              	.LASF28:
 3663 0380 75636E74 		.ascii	"ucnt_t\000"
 3663      5F7400
ARM GAS  /tmp/ccXbCD6P.s 			page 68


 3664              	.LASF41:
 3665 0387 6570656E 		.ascii	"epending\000"
 3665      64696E67 
 3665      00
 3666              	.LASF68:
 3667 0390 63685F73 		.ascii	"ch_system_t\000"
 3667      79737465 
 3667      6D5F7400 
 3668              	.LASF21:
 3669 039c 746D6F64 		.ascii	"tmode_t\000"
 3669      655F7400 
 3670              	.LASF91:
 3671 03a4 6D5F6372 		.ascii	"m_crit_isr\000"
 3671      69745F69 
 3671      737200
 3672              	.LASF55:
 3673 03af 63685F72 		.ascii	"ch_ready_list\000"
 3673      65616479 
 3673      5F6C6973 
 3673      7400
 3674              	.LASF130:
 3675 03bd 6D656D5F 		.ascii	"mem_available\000"
 3675      61766169 
 3675      6C61626C 
 3675      6500
 3676              	.LASF5:
 3677 03cb 5F5F696E 		.ascii	"__int32_t\000"
 3677      7433325F 
 3677      7400
 3678              	.LASF62:
 3679 03d5 76697274 		.ascii	"virtual_timers_list_t\000"
 3679      75616C5F 
 3679      74696D65 
 3679      72735F6C 
 3679      6973745F 
 3680              	.LASF78:
 3681 03eb 73746B61 		.ascii	"stkalign_t\000"
 3681      6C69676E 
 3681      5F7400
 3682              	.LASF32:
 3683 03f6 6E657765 		.ascii	"newer\000"
 3683      7200
 3684              	.LASF9:
 3685 03fc 6C6F6E67 		.ascii	"long long int\000"
 3685      206C6F6E 
 3685      6720696E 
 3685      7400
 3686              	.LASF43:
 3687 040a 7265616C 		.ascii	"realprio\000"
 3687      7072696F 
 3687      00
 3688              	.LASF19:
 3689 0413 7274636E 		.ascii	"rtcnt_t\000"
 3689      745F7400 
 3690              	.LASF142:
 3691 041b 63684865 		.ascii	"chHeapStatus\000"
 3691      61705374 
ARM GAS  /tmp/ccXbCD6P.s 			page 69


 3691      61747573 
 3691      00
 3692              	.LASF63:
 3693 0428 63685F76 		.ascii	"ch_virtual_timers_list\000"
 3693      69727475 
 3693      616C5F74 
 3693      696D6572 
 3693      735F6C69 
 3694              	.LASF96:
 3695 043f 77747472 		.ascii	"wttrp\000"
 3695      7000
 3696              	.LASF120:
 3697 0445 61646472 		.ascii	"address\000"
 3697      65737300 
 3698              	.LASF135:
 3699 044d 6D656D6F 		.ascii	"memory_regions\000"
 3699      72795F72 
 3699      6567696F 
 3699      6E7300
 3700              	.LASF79:
 3701 045c 706F7274 		.ascii	"port_context\000"
 3701      5F636F6E 
 3701      74657874 
 3701      00
 3702              	.LASF82:
 3703 0469 746D5F63 		.ascii	"tm_calibration_t\000"
 3703      616C6962 
 3703      72617469 
 3703      6F6E5F74 
 3703      00
 3704              	.LASF108:
 3705 047a 6D656D67 		.ascii	"memgetfunc2_t\000"
 3705      65746675 
 3705      6E63325F 
 3705      7400
 3706              	.LASF129:
 3707 0488 6D616C6C 		.ascii	"malloc_init\000"
 3707      6F635F69 
 3707      6E697400 
 3708              	.LASF31:
 3709 0494 7072696F 		.ascii	"prio\000"
 3709      00
 3710              	.LASF56:
 3711 0499 63757272 		.ascii	"current\000"
 3711      656E7400 
 3712              	.LASF10:
 3713 04a1 5F5F7569 		.ascii	"__uint64_t\000"
 3713      6E743634 
 3713      5F7400
 3714              	.LASF86:
 3715 04ac 63756D75 		.ascii	"cumulative\000"
 3715      6C617469 
 3715      766500
 3716              	.LASF115:
 3717 04b7 75736564 		.ascii	"used\000"
 3717      00
 3718              	.LASF140:
ARM GAS  /tmp/ccXbCD6P.s 			page 70


 3719 04bc 63684865 		.ascii	"chHeapObjectInit\000"
 3719      61704F62 
 3719      6A656374 
 3719      496E6974 
 3719      00
 3720              	.LASF23:
 3721 04cd 74726566 		.ascii	"trefs_t\000"
 3721      735F7400 
 3722              	.LASF122:
 3723 04d5 616C6967 		.ascii	"alignment\000"
 3723      6E6D656E 
 3723      7400
 3724              	.LASF38:
 3725 04df 72656673 		.ascii	"refs\000"
 3725      00
 3726              	.LASF58:
 3727 04e4 76697274 		.ascii	"virtual_timer_t\000"
 3727      75616C5F 
 3727      74696D65 
 3727      725F7400 
 3728              	.LASF109:
 3729 04f4 6D656D6F 		.ascii	"memory_heap_t\000"
 3729      72795F68 
 3729      6561705F 
 3729      7400
 3730              	.LASF24:
 3731 0502 74707269 		.ascii	"tprio_t\000"
 3731      6F5F7400 
 3732              	.LASF121:
 3733 050a 646D615F 		.ascii	"dma_flags\000"
 3733      666C6167 
 3733      7300
 3734              	.LASF89:
 3735 0514 6E5F6374 		.ascii	"n_ctxswc\000"
 3735      78737763 
 3735      00
 3736              	.LASF107:
 3737 051d 5F426F6F 		.ascii	"_Bool\000"
 3737      6C00
 3738              	.LASF14:
 3739 0523 696E7433 		.ascii	"int32_t\000"
 3739      325F7400 
 3740              	.LASF1:
 3741 052b 756E7369 		.ascii	"unsigned char\000"
 3741      676E6564 
 3741      20636861 
 3741      7200
 3742              	.LASF148:
 3743 0539 68656170 		.ascii	"heap_header\000"
 3743      5F686561 
 3743      64657200 
 3744              	.LASF2:
 3745 0545 73686F72 		.ascii	"short int\000"
 3745      7420696E 
 3745      7400
 3746              	.LASF64:
 3747 054f 6C617374 		.ascii	"lasttime\000"
ARM GAS  /tmp/ccXbCD6P.s 			page 71


 3747      74696D65 
 3747      00
 3748              	.LASF133:
 3749 0558 74687265 		.ascii	"thread_create_alloc\000"
 3749      61645F63 
 3749      72656174 
 3749      655F616C 
 3749      6C6F6300 
 3750              	.LASF100:
 3751 056c 65776D61 		.ascii	"ewmask\000"
 3751      736B00
 3752              	.LASF69:
 3753 0573 63685F73 		.ascii	"ch_system\000"
 3753      79737465 
 3753      6D00
 3754              	.LASF151:
 3755 057d 5F5F6675 		.ascii	"__func__\000"
 3755      6E635F5F 
 3755      00
 3756              	.LASF149:
 3757 0586 6D616C6C 		.ascii	"malloc_flags\000"
 3757      6F635F66 
 3757      6C616773 
 3757      00
 3758              	.LASF123:
 3759 0593 6D616C6C 		.ascii	"malloc\000"
 3759      6F6300
 3760              	.LASF59:
 3761 059a 63685F76 		.ascii	"ch_virtual_timer\000"
 3761      69727475 
 3761      616C5F74 
 3761      696D6572 
 3761      00
 3762              	.LASF101:
 3763 05ab 63685F73 		.ascii	"ch_semaphore\000"
 3763      656D6170 
 3763      686F7265 
 3763      00
 3764              	.LASF143:
 3765 05b8 6368436F 		.ascii	"chCoreGetStatusX\000"
 3765      72654765 
 3765      74537461 
 3765      74757358 
 3765      00
 3766              	.LASF147:
 3767 05c9 2F686F6D 		.ascii	"/home/user/csse4011/project/4011-surfbee/ardupilot/"
 3767      652F7573 
 3767      65722F63 
 3767      73736534 
 3767      3031312F 
 3768 05fc 6275696C 		.ascii	"build/stm32l475\000"
 3768      642F7374 
 3768      6D33326C 
 3768      34373500 
 3769              	.LASF99:
 3770 060c 77746D74 		.ascii	"wtmtxp\000"
 3770      787000
ARM GAS  /tmp/ccXbCD6P.s 			page 72


 3771              	.LASF49:
 3772 0613 63685F74 		.ascii	"ch_threads_list\000"
 3772      68726561 
 3772      64735F6C 
 3772      69737400 
 3773              	.LASF103:
 3774 0623 6F776E65 		.ascii	"owner\000"
 3774      7200
 3775              	.LASF117:
 3776 0629 68656170 		.ascii	"heap\000"
 3776      00
 3777              	.LASF18:
 3778 062e 6C6F6E67 		.ascii	"long double\000"
 3778      20646F75 
 3778      626C6500 
 3779              	.LASF35:
 3780 063a 77616261 		.ascii	"wabase\000"
 3780      736500
 3781              	.LASF104:
 3782 0641 63686172 		.ascii	"char\000"
 3782      00
 3783              	.LASF33:
 3784 0646 6F6C6465 		.ascii	"older\000"
 3784      7200
 3785              	.LASF29:
 3786 064c 74687265 		.ascii	"thread_t\000"
 3786      61645F74 
 3786      00
 3787              	.LASF83:
 3788 0655 62657374 		.ascii	"best\000"
 3788      00
 3789              	.LASF74:
 3790 065a 73797374 		.ascii	"systime_t\000"
 3790      696D655F 
 3790      7400
 3791              	.LASF113:
 3792 0664 68656170 		.ascii	"heap_header_t\000"
 3792      5F686561 
 3792      6465725F 
 3792      7400
 3793              	.LASF67:
 3794 0672 70616E69 		.ascii	"panic_msg\000"
 3794      635F6D73 
 3794      6700
 3795              	.LASF81:
 3796 067c 6F666673 		.ascii	"offset\000"
 3796      657400
 3797              	.LASF139:
 3798 0683 63684865 		.ascii	"chHeapAllocAligned\000"
 3798      6170416C 
 3798      6C6F6341 
 3798      6C69676E 
 3798      656400
 3799              	.LASF114:
 3800 0696 66726565 		.ascii	"free\000"
 3800      00
 3801              	.LASF44:
ARM GAS  /tmp/ccXbCD6P.s 			page 73


 3802 069b 6D706F6F 		.ascii	"mpool\000"
 3802      6C00
 3803              	.LASF150:
 3804 06a1 666F756E 		.ascii	"found\000"
 3804      6400
 3805              	.LASF128:
 3806 06a7 6E6D656D 		.ascii	"nmemb\000"
 3806      6200
 3807              	.LASF152:
 3808 06ad 6D656D73 		.ascii	"memset\000"
 3808      657400
 3809              	.LASF51:
 3810 06b4 74687265 		.ascii	"threads_queue_t\000"
 3810      6164735F 
 3810      71756575 
 3810      655F7400 
 3811              	.LASF93:
 3812 06c4 7264796D 		.ascii	"rdymsg\000"
 3812      736700
 3813              	.LASF137:
 3814 06cb 646D615F 		.ascii	"dma_reserve_heap\000"
 3814      72657365 
 3814      7276655F 
 3814      68656170 
 3814      00
 3815              	.LASF127:
 3816 06dc 63616C6C 		.ascii	"calloc\000"
 3816      6F6300
 3817              	.LASF70:
 3818 06e3 726C6973 		.ascii	"rlist\000"
 3818      7400
 3819              	.LASF13:
 3820 06e9 75696E74 		.ascii	"uint8_t\000"
 3820      385F7400 
 3821              	.LASF37:
 3822 06f1 666C6167 		.ascii	"flags\000"
 3822      7300
 3823              	.LASF76:
 3824 06f7 73697A65 		.ascii	"sizetype\000"
 3824      74797065 
 3824      00
 3825              	.LASF46:
 3826 0700 74687265 		.ascii	"thread_reference_t\000"
 3826      61645F72 
 3826      65666572 
 3826      656E6365 
 3826      5F7400
 3827              	.LASF102:
 3828 0713 63685F6D 		.ascii	"ch_mutex\000"
 3828      75746578 
 3828      00
 3829              	.LASF47:
 3830 071c 74687265 		.ascii	"threads_list_t\000"
 3830      6164735F 
 3830      6C697374 
 3830      5F7400
 3831              	.LASF57:
ARM GAS  /tmp/ccXbCD6P.s 			page 74


 3832 072b 76746675 		.ascii	"vtfunc_t\000"
 3832      6E635F74 
 3832      00
 3833              	.LASF134:
 3834 0734 6D656D6F 		.ascii	"memory_flush_all\000"
 3834      72795F66 
 3834      6C757368 
 3834      5F616C6C 
 3834      00
 3835              	.LASF42:
 3836 0745 6D74786C 		.ascii	"mtxlist\000"
 3836      69737400 
 3837              	.LASF90:
 3838 074d 6D5F6372 		.ascii	"m_crit_thd\000"
 3838      69745F74 
 3838      686400
 3839              	.LASF112:
 3840 0758 68656164 		.ascii	"header\000"
 3840      657200
 3841              	.LASF15:
 3842 075f 75696E74 		.ascii	"uint32_t\000"
 3842      33325F74 
 3842      00
 3843              	.LASF110:
 3844 0768 6D656D6F 		.ascii	"memory_heap\000"
 3844      72795F68 
 3844      65617000 
 3845              		.ident	"GCC: (15:5.4.1+svn241155-1) 5.4.1 20160919"
ARM GAS  /tmp/ccXbCD6P.s 			page 75


DEFINED SYMBOLS
                            *ABS*:0000000000000000 malloc.c
     /tmp/ccXbCD6P.s:22     .text.malloc_flags:0000000000000000 $t
     /tmp/ccXbCD6P.s:26     .text.malloc_flags:0000000000000000 malloc_flags
     /tmp/ccXbCD6P.s:144    .text.malloc_flags:000000000000007c $d
     /tmp/ccXbCD6P.s:150    .text.malloc:0000000000000000 $t
     /tmp/ccXbCD6P.s:155    .text.malloc:0000000000000000 malloc
     /tmp/ccXbCD6P.s:171    .text.malloc_sdcard_dma:0000000000000000 $t
     /tmp/ccXbCD6P.s:176    .text.malloc_sdcard_dma:0000000000000000 malloc_sdcard_dma
     /tmp/ccXbCD6P.s:192    .text.malloc_init:0000000000000000 $t
     /tmp/ccXbCD6P.s:197    .text.malloc_init:0000000000000000 malloc_init
     /tmp/ccXbCD6P.s:234    .text.malloc_init:0000000000000028 $d
     /tmp/ccXbCD6P.s:240    .text.malloc_dma:0000000000000000 $t
     /tmp/ccXbCD6P.s:245    .text.malloc_dma:0000000000000000 malloc_dma
     /tmp/ccXbCD6P.s:256    .text.malloc_fastmem:0000000000000000 $t
     /tmp/ccXbCD6P.s:261    .text.malloc_fastmem:0000000000000000 malloc_fastmem
     /tmp/ccXbCD6P.s:277    .text.calloc:0000000000000000 $t
     /tmp/ccXbCD6P.s:282    .text.calloc:0000000000000000 calloc
     /tmp/ccXbCD6P.s:299    .text.free:0000000000000000 $t
     /tmp/ccXbCD6P.s:304    .text.free:0000000000000000 free
     /tmp/ccXbCD6P.s:323    .text.mem_available:0000000000000000 $t
     /tmp/ccXbCD6P.s:328    .text.mem_available:0000000000000000 mem_available
     /tmp/ccXbCD6P.s:399    .text.mem_available:000000000000004c $d
     /tmp/ccXbCD6P.s:405    .text.thread_create_alloc:0000000000000000 $t
     /tmp/ccXbCD6P.s:410    .text.thread_create_alloc:0000000000000000 thread_create_alloc
     /tmp/ccXbCD6P.s:465    .text.thread_create_alloc:0000000000000038 $d
     /tmp/ccXbCD6P.s:470    .text.memory_flush_all:0000000000000000 $t
     /tmp/ccXbCD6P.s:475    .text.memory_flush_all:0000000000000000 memory_flush_all
     /tmp/ccXbCD6P.s:488    .bss.dma_reserve_heap:0000000000000000 $d
     /tmp/ccXbCD6P.s:492    .bss.dma_reserve_heap:0000000000000000 dma_reserve_heap
     /tmp/ccXbCD6P.s:495    .bss.heaps:0000000000000000 $d
     /tmp/ccXbCD6P.s:499    .bss.heaps:0000000000000000 heaps
                     .debug_frame:0000000000000010 $d

UNDEFINED SYMBOLS
chHeapAllocAligned
memset
chHeapObjectInit
chHeapFree
chHeapStatus
chCoreGetStatusX
chThdCreateFromHeap
