ARM GAS  /tmp/ccJGNaHf.s 			page 1


   1              		.syntax unified
   2              		.cpu cortex-m4
   3              		.eabi_attribute 27, 1
   4              		.eabi_attribute 28, 1
   5              		.fpu fpv4-sp-d16
   6              		.eabi_attribute 20, 1
   7              		.eabi_attribute 21, 1
   8              		.eabi_attribute 23, 3
   9              		.eabi_attribute 24, 1
  10              		.eabi_attribute 25, 1
  11              		.eabi_attribute 26, 1
  12              		.eabi_attribute 30, 4
  13              		.eabi_attribute 34, 1
  14              		.eabi_attribute 18, 4
  15              		.thumb
  16              		.syntax unified
  17              		.file	"stm32_isr.c"
  18              		.text
  19              	.Ltext0:
  20              		.cfi_sections	.debug_frame
  21              		.section	.text.Vector58,"ax",%progbits
  22              		.align	1
  23              		.global	Vector58
  24              		.thumb
  25              		.thumb_func
  26              		.type	Vector58, %function
  27              	Vector58:
  28              	.LFB323:
  29              		.file 1 "../../modules/ChibiOS/os/hal/ports/STM32/STM32F4xx/stm32_isr.c"
  30              		.loc 1 61 0
  31              		.cfi_startproc
  32              		@ args = 0, pretend = 0, frame = 0
  33              		@ frame_needed = 0, uses_anonymous_args = 0
  34 0000 08B5     		push	{r3, lr}
  35              		.cfi_def_cfa_offset 8
  36              		.cfi_offset 3, -8
  37              		.cfi_offset 14, -4
  38              		.loc 1 64 0
  39 0002 FFF7FEFF 		bl	_stats_increase_irq
  40              	.LVL0:
  41              		.loc 1 66 0
  42 0006 084A     		ldr	r2, .L10
  43 0008 5169     		ldr	r1, [r2, #20]
  44              	.LVL1:
  45              		.loc 1 67 0
  46 000a 1368     		ldr	r3, [r2]
  47 000c 0B40     		ands	r3, r3, r1
  48 000e 03F00103 		and	r3, r3, #1
  49              	.LVL2:
  50              		.loc 1 68 0
  51 0012 5361     		str	r3, [r2, #20]
  52              		.loc 1 70 0
  53 0014 23B1     		cbz	r3, .L2
  54              		.loc 1 70 0 is_stmt 0 discriminator 1
  55 0016 054A     		ldr	r2, .L10+4
  56 0018 1368     		ldr	r3, [r2]
  57              	.LVL3:
ARM GAS  /tmp/ccJGNaHf.s 			page 2


  58 001a 0BB1     		cbz	r3, .L2
  59              		.loc 1 70 0 discriminator 2
  60 001c 5068     		ldr	r0, [r2, #4]
  61 001e 9847     		blx	r3
  62              	.LVL4:
  63              	.L2:
  64              		.loc 1 73 0 is_stmt 1
  65 0020 BDE80840 		pop	{r3, lr}
  66              		.cfi_restore 14
  67              		.cfi_restore 3
  68              		.cfi_def_cfa_offset 0
  69              		.loc 1 72 0
  70 0024 FFF7FEBF 		b	_port_irq_epilogue
  71              	.LVL5:
  72              	.L11:
  73              		.align	2
  74              	.L10:
  75 0028 003C0140 		.word	1073822720
  76 002c 00000000 		.word	_pal_events
  77              		.cfi_endproc
  78              	.LFE323:
  79              		.size	Vector58, .-Vector58
  80              		.section	.text.Vector5C,"ax",%progbits
  81              		.align	1
  82              		.global	Vector5C
  83              		.thumb
  84              		.thumb_func
  85              		.type	Vector5C, %function
  86              	Vector5C:
  87              	.LFB324:
  88              		.loc 1 82 0
  89              		.cfi_startproc
  90              		@ args = 0, pretend = 0, frame = 0
  91              		@ frame_needed = 0, uses_anonymous_args = 0
  92 0000 08B5     		push	{r3, lr}
  93              		.cfi_def_cfa_offset 8
  94              		.cfi_offset 3, -8
  95              		.cfi_offset 14, -4
  96              		.loc 1 85 0
  97 0002 FFF7FEFF 		bl	_stats_increase_irq
  98              	.LVL6:
  99              		.loc 1 87 0
 100 0006 084A     		ldr	r2, .L20
 101 0008 5169     		ldr	r1, [r2, #20]
 102              	.LVL7:
 103              		.loc 1 88 0
 104 000a 1368     		ldr	r3, [r2]
 105 000c 0B40     		ands	r3, r3, r1
 106 000e 03F00203 		and	r3, r3, #2
 107              	.LVL8:
 108              		.loc 1 89 0
 109 0012 5361     		str	r3, [r2, #20]
 110              		.loc 1 91 0
 111 0014 23B1     		cbz	r3, .L13
 112              		.loc 1 91 0 is_stmt 0 discriminator 1
 113 0016 054A     		ldr	r2, .L20+4
 114 0018 9368     		ldr	r3, [r2, #8]
ARM GAS  /tmp/ccJGNaHf.s 			page 3


 115              	.LVL9:
 116 001a 0BB1     		cbz	r3, .L13
 117              		.loc 1 91 0 discriminator 2
 118 001c D068     		ldr	r0, [r2, #12]
 119 001e 9847     		blx	r3
 120              	.LVL10:
 121              	.L13:
 122              		.loc 1 94 0 is_stmt 1
 123 0020 BDE80840 		pop	{r3, lr}
 124              		.cfi_restore 14
 125              		.cfi_restore 3
 126              		.cfi_def_cfa_offset 0
 127              		.loc 1 93 0
 128 0024 FFF7FEBF 		b	_port_irq_epilogue
 129              	.LVL11:
 130              	.L21:
 131              		.align	2
 132              	.L20:
 133 0028 003C0140 		.word	1073822720
 134 002c 00000000 		.word	_pal_events
 135              		.cfi_endproc
 136              	.LFE324:
 137              		.size	Vector5C, .-Vector5C
 138              		.section	.text.Vector60,"ax",%progbits
 139              		.align	1
 140              		.global	Vector60
 141              		.thumb
 142              		.thumb_func
 143              		.type	Vector60, %function
 144              	Vector60:
 145              	.LFB325:
 146              		.loc 1 103 0
 147              		.cfi_startproc
 148              		@ args = 0, pretend = 0, frame = 0
 149              		@ frame_needed = 0, uses_anonymous_args = 0
 150 0000 08B5     		push	{r3, lr}
 151              		.cfi_def_cfa_offset 8
 152              		.cfi_offset 3, -8
 153              		.cfi_offset 14, -4
 154              		.loc 1 106 0
 155 0002 FFF7FEFF 		bl	_stats_increase_irq
 156              	.LVL12:
 157              		.loc 1 108 0
 158 0006 084A     		ldr	r2, .L30
 159 0008 5169     		ldr	r1, [r2, #20]
 160              	.LVL13:
 161              		.loc 1 109 0
 162 000a 1368     		ldr	r3, [r2]
 163 000c 0B40     		ands	r3, r3, r1
 164 000e 03F00403 		and	r3, r3, #4
 165              	.LVL14:
 166              		.loc 1 110 0
 167 0012 5361     		str	r3, [r2, #20]
 168              		.loc 1 112 0
 169 0014 23B1     		cbz	r3, .L23
 170              		.loc 1 112 0 is_stmt 0 discriminator 1
 171 0016 054A     		ldr	r2, .L30+4
ARM GAS  /tmp/ccJGNaHf.s 			page 4


 172 0018 1369     		ldr	r3, [r2, #16]
 173              	.LVL15:
 174 001a 0BB1     		cbz	r3, .L23
 175              		.loc 1 112 0 discriminator 2
 176 001c 5069     		ldr	r0, [r2, #20]
 177 001e 9847     		blx	r3
 178              	.LVL16:
 179              	.L23:
 180              		.loc 1 115 0 is_stmt 1
 181 0020 BDE80840 		pop	{r3, lr}
 182              		.cfi_restore 14
 183              		.cfi_restore 3
 184              		.cfi_def_cfa_offset 0
 185              		.loc 1 114 0
 186 0024 FFF7FEBF 		b	_port_irq_epilogue
 187              	.LVL17:
 188              	.L31:
 189              		.align	2
 190              	.L30:
 191 0028 003C0140 		.word	1073822720
 192 002c 00000000 		.word	_pal_events
 193              		.cfi_endproc
 194              	.LFE325:
 195              		.size	Vector60, .-Vector60
 196              		.section	.text.Vector64,"ax",%progbits
 197              		.align	1
 198              		.global	Vector64
 199              		.thumb
 200              		.thumb_func
 201              		.type	Vector64, %function
 202              	Vector64:
 203              	.LFB326:
 204              		.loc 1 124 0
 205              		.cfi_startproc
 206              		@ args = 0, pretend = 0, frame = 0
 207              		@ frame_needed = 0, uses_anonymous_args = 0
 208 0000 08B5     		push	{r3, lr}
 209              		.cfi_def_cfa_offset 8
 210              		.cfi_offset 3, -8
 211              		.cfi_offset 14, -4
 212              		.loc 1 127 0
 213 0002 FFF7FEFF 		bl	_stats_increase_irq
 214              	.LVL18:
 215              		.loc 1 129 0
 216 0006 084A     		ldr	r2, .L40
 217 0008 5169     		ldr	r1, [r2, #20]
 218              	.LVL19:
 219              		.loc 1 130 0
 220 000a 1368     		ldr	r3, [r2]
 221 000c 0B40     		ands	r3, r3, r1
 222 000e 03F00803 		and	r3, r3, #8
 223              	.LVL20:
 224              		.loc 1 131 0
 225 0012 5361     		str	r3, [r2, #20]
 226              		.loc 1 133 0
 227 0014 23B1     		cbz	r3, .L33
 228              		.loc 1 133 0 is_stmt 0 discriminator 1
ARM GAS  /tmp/ccJGNaHf.s 			page 5


 229 0016 054A     		ldr	r2, .L40+4
 230 0018 9369     		ldr	r3, [r2, #24]
 231              	.LVL21:
 232 001a 0BB1     		cbz	r3, .L33
 233              		.loc 1 133 0 discriminator 2
 234 001c D069     		ldr	r0, [r2, #28]
 235 001e 9847     		blx	r3
 236              	.LVL22:
 237              	.L33:
 238              		.loc 1 136 0 is_stmt 1
 239 0020 BDE80840 		pop	{r3, lr}
 240              		.cfi_restore 14
 241              		.cfi_restore 3
 242              		.cfi_def_cfa_offset 0
 243              		.loc 1 135 0
 244 0024 FFF7FEBF 		b	_port_irq_epilogue
 245              	.LVL23:
 246              	.L41:
 247              		.align	2
 248              	.L40:
 249 0028 003C0140 		.word	1073822720
 250 002c 00000000 		.word	_pal_events
 251              		.cfi_endproc
 252              	.LFE326:
 253              		.size	Vector64, .-Vector64
 254              		.section	.text.Vector68,"ax",%progbits
 255              		.align	1
 256              		.global	Vector68
 257              		.thumb
 258              		.thumb_func
 259              		.type	Vector68, %function
 260              	Vector68:
 261              	.LFB327:
 262              		.loc 1 145 0
 263              		.cfi_startproc
 264              		@ args = 0, pretend = 0, frame = 0
 265              		@ frame_needed = 0, uses_anonymous_args = 0
 266 0000 08B5     		push	{r3, lr}
 267              		.cfi_def_cfa_offset 8
 268              		.cfi_offset 3, -8
 269              		.cfi_offset 14, -4
 270              		.loc 1 148 0
 271 0002 FFF7FEFF 		bl	_stats_increase_irq
 272              	.LVL24:
 273              		.loc 1 150 0
 274 0006 084A     		ldr	r2, .L50
 275 0008 5169     		ldr	r1, [r2, #20]
 276              	.LVL25:
 277              		.loc 1 151 0
 278 000a 1368     		ldr	r3, [r2]
 279 000c 0B40     		ands	r3, r3, r1
 280 000e 03F01003 		and	r3, r3, #16
 281              	.LVL26:
 282              		.loc 1 152 0
 283 0012 5361     		str	r3, [r2, #20]
 284              		.loc 1 154 0
 285 0014 23B1     		cbz	r3, .L43
ARM GAS  /tmp/ccJGNaHf.s 			page 6


 286              		.loc 1 154 0 is_stmt 0 discriminator 1
 287 0016 054A     		ldr	r2, .L50+4
 288 0018 136A     		ldr	r3, [r2, #32]
 289              	.LVL27:
 290 001a 0BB1     		cbz	r3, .L43
 291              		.loc 1 154 0 discriminator 2
 292 001c 506A     		ldr	r0, [r2, #36]
 293 001e 9847     		blx	r3
 294              	.LVL28:
 295              	.L43:
 296              		.loc 1 157 0 is_stmt 1
 297 0020 BDE80840 		pop	{r3, lr}
 298              		.cfi_restore 14
 299              		.cfi_restore 3
 300              		.cfi_def_cfa_offset 0
 301              		.loc 1 156 0
 302 0024 FFF7FEBF 		b	_port_irq_epilogue
 303              	.LVL29:
 304              	.L51:
 305              		.align	2
 306              	.L50:
 307 0028 003C0140 		.word	1073822720
 308 002c 00000000 		.word	_pal_events
 309              		.cfi_endproc
 310              	.LFE327:
 311              		.size	Vector68, .-Vector68
 312              		.section	.text.Vector9C,"ax",%progbits
 313              		.align	1
 314              		.global	Vector9C
 315              		.thumb
 316              		.thumb_func
 317              		.type	Vector9C, %function
 318              	Vector9C:
 319              	.LFB328:
 320              		.loc 1 166 0
 321              		.cfi_startproc
 322              		@ args = 0, pretend = 0, frame = 0
 323              		@ frame_needed = 0, uses_anonymous_args = 0
 324 0000 10B5     		push	{r4, lr}
 325              		.cfi_def_cfa_offset 8
 326              		.cfi_offset 4, -8
 327              		.cfi_offset 14, -4
 328              		.loc 1 169 0
 329 0002 FFF7FEFF 		bl	_stats_increase_irq
 330              	.LVL30:
 331              		.loc 1 171 0
 332 0006 174B     		ldr	r3, .L88
 333 0008 5C69     		ldr	r4, [r3, #20]
 334              	.LVL31:
 335              		.loc 1 172 0
 336 000a 1A68     		ldr	r2, [r3]
 337 000c 1440     		ands	r4, r4, r2
 338              	.LVL32:
 339 000e 04F47872 		and	r2, r4, #992
 340              	.LVL33:
 341              		.loc 1 174 0
 342 0012 5A61     		str	r2, [r3, #20]
ARM GAS  /tmp/ccJGNaHf.s 			page 7


 343              		.loc 1 176 0
 344 0014 A306     		lsls	r3, r4, #26
 345 0016 04D5     		bpl	.L53
 346              		.loc 1 176 0 is_stmt 0 discriminator 1
 347 0018 134A     		ldr	r2, .L88+4
 348              	.LVL34:
 349 001a 936A     		ldr	r3, [r2, #40]
 350 001c 0BB1     		cbz	r3, .L53
 351              		.loc 1 176 0 discriminator 2
 352 001e D06A     		ldr	r0, [r2, #44]
 353 0020 9847     		blx	r3
 354              	.LVL35:
 355              	.L53:
 356              		.loc 1 177 0 is_stmt 1
 357 0022 6006     		lsls	r0, r4, #25
 358 0024 04D5     		bpl	.L54
 359              		.loc 1 177 0 is_stmt 0 discriminator 1
 360 0026 104A     		ldr	r2, .L88+4
 361 0028 136B     		ldr	r3, [r2, #48]
 362 002a 0BB1     		cbz	r3, .L54
 363              		.loc 1 177 0 discriminator 2
 364 002c 506B     		ldr	r0, [r2, #52]
 365 002e 9847     		blx	r3
 366              	.LVL36:
 367              	.L54:
 368              		.loc 1 178 0 is_stmt 1
 369 0030 2106     		lsls	r1, r4, #24
 370 0032 04D5     		bpl	.L55
 371              		.loc 1 178 0 is_stmt 0 discriminator 1
 372 0034 0C4A     		ldr	r2, .L88+4
 373 0036 936B     		ldr	r3, [r2, #56]
 374 0038 0BB1     		cbz	r3, .L55
 375              		.loc 1 178 0 discriminator 2
 376 003a D06B     		ldr	r0, [r2, #60]
 377 003c 9847     		blx	r3
 378              	.LVL37:
 379              	.L55:
 380              		.loc 1 179 0 is_stmt 1
 381 003e E205     		lsls	r2, r4, #23
 382 0040 04D5     		bpl	.L56
 383              		.loc 1 179 0 is_stmt 0 discriminator 1
 384 0042 094A     		ldr	r2, .L88+4
 385 0044 136C     		ldr	r3, [r2, #64]
 386 0046 0BB1     		cbz	r3, .L56
 387              		.loc 1 179 0 discriminator 2
 388 0048 506C     		ldr	r0, [r2, #68]
 389 004a 9847     		blx	r3
 390              	.LVL38:
 391              	.L56:
 392              		.loc 1 180 0 is_stmt 1
 393 004c A305     		lsls	r3, r4, #22
 394 004e 04D5     		bpl	.L57
 395              		.loc 1 180 0 is_stmt 0 discriminator 1
 396 0050 054A     		ldr	r2, .L88+4
 397 0052 936C     		ldr	r3, [r2, #72]
 398 0054 0BB1     		cbz	r3, .L57
 399              		.loc 1 180 0 discriminator 2
ARM GAS  /tmp/ccJGNaHf.s 			page 8


 400 0056 D06C     		ldr	r0, [r2, #76]
 401 0058 9847     		blx	r3
 402              	.LVL39:
 403              	.L57:
 404              		.loc 1 183 0 is_stmt 1
 405 005a BDE81040 		pop	{r4, lr}
 406              		.cfi_restore 14
 407              		.cfi_restore 4
 408              		.cfi_def_cfa_offset 0
 409              	.LVL40:
 410              		.loc 1 182 0
 411 005e FFF7FEBF 		b	_port_irq_epilogue
 412              	.LVL41:
 413              	.L89:
 414 0062 00BF     		.align	2
 415              	.L88:
 416 0064 003C0140 		.word	1073822720
 417 0068 00000000 		.word	_pal_events
 418              		.cfi_endproc
 419              	.LFE328:
 420              		.size	Vector9C, .-Vector9C
 421              		.section	.text.VectorE0,"ax",%progbits
 422              		.align	1
 423              		.global	VectorE0
 424              		.thumb
 425              		.thumb_func
 426              		.type	VectorE0, %function
 427              	VectorE0:
 428              	.LFB329:
 429              		.loc 1 192 0
 430              		.cfi_startproc
 431              		@ args = 0, pretend = 0, frame = 0
 432              		@ frame_needed = 0, uses_anonymous_args = 0
 433 0000 10B5     		push	{r4, lr}
 434              		.cfi_def_cfa_offset 8
 435              		.cfi_offset 4, -8
 436              		.cfi_offset 14, -4
 437              		.loc 1 195 0
 438 0002 FFF7FEFF 		bl	_stats_increase_irq
 439              	.LVL42:
 440              		.loc 1 197 0
 441 0006 1A4B     		ldr	r3, .L133
 442 0008 5C69     		ldr	r4, [r3, #20]
 443              	.LVL43:
 444              		.loc 1 198 0
 445 000a 1A68     		ldr	r2, [r3]
 446 000c 1440     		ands	r4, r4, r2
 447              	.LVL44:
 448 000e 04F47C42 		and	r2, r4, #64512
 449              	.LVL45:
 450              		.loc 1 200 0
 451 0012 5A61     		str	r2, [r3, #20]
 452              		.loc 1 202 0
 453 0014 6205     		lsls	r2, r4, #21
 454              	.LVL46:
 455 0016 04D5     		bpl	.L91
 456              		.loc 1 202 0 is_stmt 0 discriminator 1
ARM GAS  /tmp/ccJGNaHf.s 			page 9


 457 0018 164A     		ldr	r2, .L133+4
 458 001a 136D     		ldr	r3, [r2, #80]
 459              	.LVL47:
 460 001c 0BB1     		cbz	r3, .L91
 461              		.loc 1 202 0 discriminator 2
 462 001e 506D     		ldr	r0, [r2, #84]
 463 0020 9847     		blx	r3
 464              	.LVL48:
 465              	.L91:
 466              		.loc 1 203 0 is_stmt 1
 467 0022 2305     		lsls	r3, r4, #20
 468 0024 04D5     		bpl	.L92
 469              		.loc 1 203 0 is_stmt 0 discriminator 1
 470 0026 134A     		ldr	r2, .L133+4
 471 0028 936D     		ldr	r3, [r2, #88]
 472 002a 0BB1     		cbz	r3, .L92
 473              		.loc 1 203 0 discriminator 2
 474 002c D06D     		ldr	r0, [r2, #92]
 475 002e 9847     		blx	r3
 476              	.LVL49:
 477              	.L92:
 478              		.loc 1 204 0 is_stmt 1
 479 0030 E004     		lsls	r0, r4, #19
 480 0032 04D5     		bpl	.L93
 481              		.loc 1 204 0 is_stmt 0 discriminator 1
 482 0034 0F4A     		ldr	r2, .L133+4
 483 0036 136E     		ldr	r3, [r2, #96]
 484 0038 0BB1     		cbz	r3, .L93
 485              		.loc 1 204 0 discriminator 2
 486 003a 506E     		ldr	r0, [r2, #100]
 487 003c 9847     		blx	r3
 488              	.LVL50:
 489              	.L93:
 490              		.loc 1 205 0 is_stmt 1
 491 003e A104     		lsls	r1, r4, #18
 492 0040 04D5     		bpl	.L94
 493              		.loc 1 205 0 is_stmt 0 discriminator 1
 494 0042 0C4A     		ldr	r2, .L133+4
 495 0044 936E     		ldr	r3, [r2, #104]
 496 0046 0BB1     		cbz	r3, .L94
 497              		.loc 1 205 0 discriminator 2
 498 0048 D06E     		ldr	r0, [r2, #108]
 499 004a 9847     		blx	r3
 500              	.LVL51:
 501              	.L94:
 502              		.loc 1 206 0 is_stmt 1
 503 004c 6204     		lsls	r2, r4, #17
 504 004e 04D5     		bpl	.L95
 505              		.loc 1 206 0 is_stmt 0 discriminator 1
 506 0050 084A     		ldr	r2, .L133+4
 507 0052 136F     		ldr	r3, [r2, #112]
 508 0054 0BB1     		cbz	r3, .L95
 509              		.loc 1 206 0 discriminator 2
 510 0056 506F     		ldr	r0, [r2, #116]
 511 0058 9847     		blx	r3
 512              	.LVL52:
 513              	.L95:
ARM GAS  /tmp/ccJGNaHf.s 			page 10


 514              		.loc 1 207 0 is_stmt 1
 515 005a 2304     		lsls	r3, r4, #16
 516 005c 04D5     		bpl	.L96
 517              		.loc 1 207 0 is_stmt 0 discriminator 1
 518 005e 054A     		ldr	r2, .L133+4
 519 0060 936F     		ldr	r3, [r2, #120]
 520 0062 0BB1     		cbz	r3, .L96
 521              		.loc 1 207 0 discriminator 2
 522 0064 D06F     		ldr	r0, [r2, #124]
 523 0066 9847     		blx	r3
 524              	.LVL53:
 525              	.L96:
 526              		.loc 1 210 0 is_stmt 1
 527 0068 BDE81040 		pop	{r4, lr}
 528              		.cfi_restore 14
 529              		.cfi_restore 4
 530              		.cfi_def_cfa_offset 0
 531              	.LVL54:
 532              		.loc 1 209 0
 533 006c FFF7FEBF 		b	_port_irq_epilogue
 534              	.LVL55:
 535              	.L134:
 536              		.align	2
 537              	.L133:
 538 0070 003C0140 		.word	1073822720
 539 0074 00000000 		.word	_pal_events
 540              		.cfi_endproc
 541              	.LFE329:
 542              		.size	VectorE0, .-VectorE0
 543              		.section	.text.irqInit,"ax",%progbits
 544              		.align	1
 545              		.global	irqInit
 546              		.thumb
 547              		.thumb_func
 548              		.type	irqInit, %function
 549              	irqInit:
 550              	.LFB330:
 551              		.loc 1 224 0
 552              		.cfi_startproc
 553              		@ args = 0, pretend = 0, frame = 0
 554              		@ frame_needed = 0, uses_anonymous_args = 0
 555              		.loc 1 227 0
 556 0000 0621     		movs	r1, #6
 557              		.loc 1 224 0
 558 0002 08B5     		push	{r3, lr}
 559              		.cfi_def_cfa_offset 8
 560              		.cfi_offset 3, -8
 561              		.cfi_offset 14, -4
 562              		.loc 1 227 0
 563 0004 0846     		mov	r0, r1
 564 0006 FFF7FEFF 		bl	nvicEnableVector
 565              	.LVL56:
 566              		.loc 1 228 0
 567 000a 0621     		movs	r1, #6
 568 000c 0720     		movs	r0, #7
 569 000e FFF7FEFF 		bl	nvicEnableVector
 570              	.LVL57:
ARM GAS  /tmp/ccJGNaHf.s 			page 11


 571              		.loc 1 229 0
 572 0012 0621     		movs	r1, #6
 573 0014 0820     		movs	r0, #8
 574 0016 FFF7FEFF 		bl	nvicEnableVector
 575              	.LVL58:
 576              		.loc 1 230 0
 577 001a 0621     		movs	r1, #6
 578 001c 0920     		movs	r0, #9
 579 001e FFF7FEFF 		bl	nvicEnableVector
 580              	.LVL59:
 581              		.loc 1 231 0
 582 0022 0621     		movs	r1, #6
 583 0024 0A20     		movs	r0, #10
 584 0026 FFF7FEFF 		bl	nvicEnableVector
 585              	.LVL60:
 586              		.loc 1 232 0
 587 002a 0621     		movs	r1, #6
 588 002c 1720     		movs	r0, #23
 589 002e FFF7FEFF 		bl	nvicEnableVector
 590              	.LVL61:
 591              		.loc 1 233 0
 592 0032 0621     		movs	r1, #6
 593 0034 2820     		movs	r0, #40
 594              		.loc 1 235 0
 595 0036 BDE80840 		pop	{r3, lr}
 596              		.cfi_restore 14
 597              		.cfi_restore 3
 598              		.cfi_def_cfa_offset 0
 599              		.loc 1 233 0
 600 003a FFF7FEBF 		b	nvicEnableVector
 601              	.LVL62:
 602              		.cfi_endproc
 603              	.LFE330:
 604              		.size	irqInit, .-irqInit
 605              		.section	.text.irqDeinit,"ax",%progbits
 606              		.align	1
 607              		.global	irqDeinit
 608              		.thumb
 609              		.thumb_func
 610              		.type	irqDeinit, %function
 611              	irqDeinit:
 612              	.LFB331:
 613              		.loc 1 242 0
 614              		.cfi_startproc
 615              		@ args = 0, pretend = 0, frame = 0
 616              		@ frame_needed = 0, uses_anonymous_args = 0
 617 0000 08B5     		push	{r3, lr}
 618              		.cfi_def_cfa_offset 8
 619              		.cfi_offset 3, -8
 620              		.cfi_offset 14, -4
 621              		.loc 1 245 0
 622 0002 0620     		movs	r0, #6
 623 0004 FFF7FEFF 		bl	nvicDisableVector
 624              	.LVL63:
 625              		.loc 1 246 0
 626 0008 0720     		movs	r0, #7
 627 000a FFF7FEFF 		bl	nvicDisableVector
ARM GAS  /tmp/ccJGNaHf.s 			page 12


 628              	.LVL64:
 629              		.loc 1 247 0
 630 000e 0820     		movs	r0, #8
 631 0010 FFF7FEFF 		bl	nvicDisableVector
 632              	.LVL65:
 633              		.loc 1 248 0
 634 0014 0920     		movs	r0, #9
 635 0016 FFF7FEFF 		bl	nvicDisableVector
 636              	.LVL66:
 637              		.loc 1 249 0
 638 001a 0A20     		movs	r0, #10
 639 001c FFF7FEFF 		bl	nvicDisableVector
 640              	.LVL67:
 641              		.loc 1 250 0
 642 0020 1720     		movs	r0, #23
 643 0022 FFF7FEFF 		bl	nvicDisableVector
 644              	.LVL68:
 645              		.loc 1 251 0
 646 0026 2820     		movs	r0, #40
 647              		.loc 1 253 0
 648 0028 BDE80840 		pop	{r3, lr}
 649              		.cfi_restore 14
 650              		.cfi_restore 3
 651              		.cfi_def_cfa_offset 0
 652              		.loc 1 251 0
 653 002c FFF7FEBF 		b	nvicDisableVector
 654              	.LVL69:
 655              		.cfi_endproc
 656              	.LFE331:
 657              		.size	irqDeinit, .-irqDeinit
 658              		.text
 659              	.Letext0:
 660              		.file 2 "/usr/include/newlib/machine/_default_types.h"
 661              		.file 3 "/usr/include/newlib/sys/_stdint.h"
 662              		.file 4 "../../modules/ChibiOS/os/common/ports/ARMCMx/compilers/GCC/chtypes.h"
 663              		.file 5 "../../modules/ChibiOS/os/rt/include/chsystypes.h"
 664              		.file 6 "../../modules/ChibiOS/os/rt/include/chschd.h"
 665              		.file 7 "../../modules/ChibiOS/os/rt/include/chtime.h"
 666              		.file 8 "../../modules/ChibiOS/os/common/ext/ST/STM32F4xx/stm32f427xx.h"
 667              		.file 9 "../../modules/ChibiOS/os/common/ports/ARMCMx/chcore.h"
 668              		.file 10 "../../modules/ChibiOS/os/common/ports/ARMCMx/chcore_v7m.h"
 669              		.file 11 "../../modules/ChibiOS/os/rt/include/chtm.h"
 670              		.file 12 "../../modules/ChibiOS/os/rt/include/chstats.h"
 671              		.file 13 "../../modules/ChibiOS/os/rt/include/chsem.h"
 672              		.file 14 "../../modules/ChibiOS/os/rt/include/chmtx.h"
 673              		.file 15 "../../modules/ChibiOS/os/hal/include/hal_pal.h"
 674              		.file 16 "../../modules/ChibiOS/os/common/ext/ARM/CMSIS/Core/Include/core_cm4.h"
 675              		.file 17 "../../modules/ChibiOS/os/hal/ports/STM32/LLD/GPIOv2/hal_pal_lld.h"
 676              		.file 18 "../../modules/ChibiOS/os/hal/ports/common/ARMCMx/nvic.h"