ARM GAS  /tmp/ccNOotcN.s 			page 1


   1              		.syntax unified
   2              		.cpu cortex-m4
   3              		.eabi_attribute 27, 1
   4              		.eabi_attribute 28, 1
   5              		.fpu fpv4-sp-d16
   6              		.eabi_attribute 20, 1
   7              		.eabi_attribute 21, 1
   8              		.eabi_attribute 23, 3
   9              		.eabi_attribute 24, 1
  10              		.eabi_attribute 25, 1
  11              		.eabi_attribute 26, 1
  12              		.eabi_attribute 30, 4
  13              		.eabi_attribute 34, 1
  14              		.eabi_attribute 18, 4
  15              		.thumb
  16              		.syntax unified
  17              		.file	"stm32_dma.c"
  18              		.text
  19              	.Ltext0:
  20              		.cfi_sections	.debug_frame
  21              		.section	.text.Vector6C,"ax",%progbits
  22              		.align	1
  23              		.global	Vector6C
  24              		.thumb
  25              		.thumb_func
  26              		.type	Vector6C, %function
  27              	Vector6C:
  28              	.LFB323:
  29              		.file 1 "../../modules/ChibiOS/os/hal/ports/STM32/LLD/DMAv2/stm32_dma.c"
  30              		.loc 1 163 0
  31              		.cfi_startproc
  32              		@ args = 0, pretend = 0, frame = 0
  33              		@ frame_needed = 0, uses_anonymous_args = 0
  34 0000 08B5     		push	{r3, lr}
  35              		.cfi_def_cfa_offset 8
  36              		.cfi_offset 3, -8
  37              		.cfi_offset 14, -4
  38              		.loc 1 166 0
  39 0002 FFF7FEFF 		bl	_stats_increase_irq
  40              	.LVL0:
  41              		.loc 1 168 0
  42 0006 074B     		ldr	r3, .L7
  43              		.loc 1 170 0
  44 0008 074A     		ldr	r2, .L7+4
  45              		.loc 1 168 0
  46 000a 1968     		ldr	r1, [r3]
  47 000c 01F03D01 		and	r1, r1, #61
  48              	.LVL1:
  49              		.loc 1 169 0
  50 0010 9960     		str	r1, [r3, #8]
  51              		.loc 1 170 0
  52 0012 5368     		ldr	r3, [r2, #4]
  53 0014 0BB1     		cbz	r3, .L2
  54              		.loc 1 171 0
  55 0016 9068     		ldr	r0, [r2, #8]
  56 0018 9847     		blx	r3
  57              	.LVL2:
ARM GAS  /tmp/ccNOotcN.s 			page 2


  58              	.L2:
  59              		.loc 1 174 0
  60 001a BDE80840 		pop	{r3, lr}
  61              		.cfi_restore 14
  62              		.cfi_restore 3
  63              		.cfi_def_cfa_offset 0
  64              		.loc 1 173 0
  65 001e FFF7FEBF 		b	_port_irq_epilogue
  66              	.LVL3:
  67              	.L8:
  68 0022 00BF     		.align	2
  69              	.L7:
  70 0024 00600240 		.word	1073897472
  71 0028 00000000 		.word	.LANCHOR0
  72              		.cfi_endproc
  73              	.LFE323:
  74              		.size	Vector6C, .-Vector6C
  75              		.section	.text.Vector70,"ax",%progbits
  76              		.align	1
  77              		.global	Vector70
  78              		.thumb
  79              		.thumb_func
  80              		.type	Vector70, %function
  81              	Vector70:
  82              	.LFB324:
  83              		.loc 1 181 0
  84              		.cfi_startproc
  85              		@ args = 0, pretend = 0, frame = 0
  86              		@ frame_needed = 0, uses_anonymous_args = 0
  87 0000 08B5     		push	{r3, lr}
  88              		.cfi_def_cfa_offset 8
  89              		.cfi_offset 3, -8
  90              		.cfi_offset 14, -4
  91              		.loc 1 184 0
  92 0002 FFF7FEFF 		bl	_stats_increase_irq
  93              	.LVL4:
  94              		.loc 1 186 0
  95 0006 084B     		ldr	r3, .L14
  96 0008 1968     		ldr	r1, [r3]
  97 000a 8909     		lsrs	r1, r1, #6
  98 000c 01F03D01 		and	r1, r1, #61
  99              	.LVL5:
 100              		.loc 1 187 0
 101 0010 8A01     		lsls	r2, r1, #6
 102 0012 9A60     		str	r2, [r3, #8]
 103              		.loc 1 188 0
 104 0014 054A     		ldr	r2, .L14+4
 105 0016 D368     		ldr	r3, [r2, #12]
 106 0018 0BB1     		cbz	r3, .L10
 107              		.loc 1 189 0
 108 001a 1069     		ldr	r0, [r2, #16]
 109 001c 9847     		blx	r3
 110              	.LVL6:
 111              	.L10:
 112              		.loc 1 192 0
 113 001e BDE80840 		pop	{r3, lr}
 114              		.cfi_restore 14
ARM GAS  /tmp/ccNOotcN.s 			page 3


 115              		.cfi_restore 3
 116              		.cfi_def_cfa_offset 0
 117              		.loc 1 191 0
 118 0022 FFF7FEBF 		b	_port_irq_epilogue
 119              	.LVL7:
 120              	.L15:
 121 0026 00BF     		.align	2
 122              	.L14:
 123 0028 00600240 		.word	1073897472
 124 002c 00000000 		.word	.LANCHOR0
 125              		.cfi_endproc
 126              	.LFE324:
 127              		.size	Vector70, .-Vector70
 128              		.section	.text.Vector74,"ax",%progbits
 129              		.align	1
 130              		.global	Vector74
 131              		.thumb
 132              		.thumb_func
 133              		.type	Vector74, %function
 134              	Vector74:
 135              	.LFB325:
 136              		.loc 1 199 0
 137              		.cfi_startproc
 138              		@ args = 0, pretend = 0, frame = 0
 139              		@ frame_needed = 0, uses_anonymous_args = 0
 140 0000 08B5     		push	{r3, lr}
 141              		.cfi_def_cfa_offset 8
 142              		.cfi_offset 3, -8
 143              		.cfi_offset 14, -4
 144              		.loc 1 202 0
 145 0002 FFF7FEFF 		bl	_stats_increase_irq
 146              	.LVL8:
 147              		.loc 1 204 0
 148 0006 084B     		ldr	r3, .L21
 149 0008 1968     		ldr	r1, [r3]
 150 000a 090C     		lsrs	r1, r1, #16
 151 000c 01F03D01 		and	r1, r1, #61
 152              	.LVL9:
 153              		.loc 1 205 0
 154 0010 0A04     		lsls	r2, r1, #16
 155 0012 9A60     		str	r2, [r3, #8]
 156              		.loc 1 206 0
 157 0014 054A     		ldr	r2, .L21+4
 158 0016 5369     		ldr	r3, [r2, #20]
 159 0018 0BB1     		cbz	r3, .L17
 160              		.loc 1 207 0
 161 001a 9069     		ldr	r0, [r2, #24]
 162 001c 9847     		blx	r3
 163              	.LVL10:
 164              	.L17:
 165              		.loc 1 210 0
 166 001e BDE80840 		pop	{r3, lr}
 167              		.cfi_restore 14
 168              		.cfi_restore 3
 169              		.cfi_def_cfa_offset 0
 170              		.loc 1 209 0
 171 0022 FFF7FEBF 		b	_port_irq_epilogue
ARM GAS  /tmp/ccNOotcN.s 			page 4


 172              	.LVL11:
 173              	.L22:
 174 0026 00BF     		.align	2
 175              	.L21:
 176 0028 00600240 		.word	1073897472
 177 002c 00000000 		.word	.LANCHOR0
 178              		.cfi_endproc
 179              	.LFE325:
 180              		.size	Vector74, .-Vector74
 181              		.section	.text.Vector78,"ax",%progbits
 182              		.align	1
 183              		.global	Vector78
 184              		.thumb
 185              		.thumb_func
 186              		.type	Vector78, %function
 187              	Vector78:
 188              	.LFB326:
 189              		.loc 1 217 0
 190              		.cfi_startproc
 191              		@ args = 0, pretend = 0, frame = 0
 192              		@ frame_needed = 0, uses_anonymous_args = 0
 193 0000 08B5     		push	{r3, lr}
 194              		.cfi_def_cfa_offset 8
 195              		.cfi_offset 3, -8
 196              		.cfi_offset 14, -4
 197              		.loc 1 220 0
 198 0002 FFF7FEFF 		bl	_stats_increase_irq
 199              	.LVL12:
 200              		.loc 1 222 0
 201 0006 084B     		ldr	r3, .L28
 202 0008 1968     		ldr	r1, [r3]
 203 000a 890D     		lsrs	r1, r1, #22
 204 000c 01F03D01 		and	r1, r1, #61
 205              	.LVL13:
 206              		.loc 1 223 0
 207 0010 8A05     		lsls	r2, r1, #22
 208 0012 9A60     		str	r2, [r3, #8]
 209              		.loc 1 224 0
 210 0014 054A     		ldr	r2, .L28+4
 211 0016 D369     		ldr	r3, [r2, #28]
 212 0018 0BB1     		cbz	r3, .L24
 213              		.loc 1 225 0
 214 001a 106A     		ldr	r0, [r2, #32]
 215 001c 9847     		blx	r3
 216              	.LVL14:
 217              	.L24:
 218              		.loc 1 228 0
 219 001e BDE80840 		pop	{r3, lr}
 220              		.cfi_restore 14
 221              		.cfi_restore 3
 222              		.cfi_def_cfa_offset 0
 223              		.loc 1 227 0
 224 0022 FFF7FEBF 		b	_port_irq_epilogue
 225              	.LVL15:
 226              	.L29:
 227 0026 00BF     		.align	2
 228              	.L28:
ARM GAS  /tmp/ccNOotcN.s 			page 5


 229 0028 00600240 		.word	1073897472
 230 002c 00000000 		.word	.LANCHOR0
 231              		.cfi_endproc
 232              	.LFE326:
 233              		.size	Vector78, .-Vector78
 234              		.section	.text.Vector7C,"ax",%progbits
 235              		.align	1
 236              		.global	Vector7C
 237              		.thumb
 238              		.thumb_func
 239              		.type	Vector7C, %function
 240              	Vector7C:
 241              	.LFB327:
 242              		.loc 1 235 0
 243              		.cfi_startproc
 244              		@ args = 0, pretend = 0, frame = 0
 245              		@ frame_needed = 0, uses_anonymous_args = 0
 246 0000 08B5     		push	{r3, lr}
 247              		.cfi_def_cfa_offset 8
 248              		.cfi_offset 3, -8
 249              		.cfi_offset 14, -4
 250              		.loc 1 238 0
 251 0002 FFF7FEFF 		bl	_stats_increase_irq
 252              	.LVL16:
 253              		.loc 1 240 0
 254 0006 074B     		ldr	r3, .L35
 255              		.loc 1 242 0
 256 0008 074A     		ldr	r2, .L35+4
 257              		.loc 1 240 0
 258 000a 5968     		ldr	r1, [r3, #4]
 259 000c 01F03D01 		and	r1, r1, #61
 260              	.LVL17:
 261              		.loc 1 241 0
 262 0010 D960     		str	r1, [r3, #12]
 263              		.loc 1 242 0
 264 0012 536A     		ldr	r3, [r2, #36]
 265 0014 0BB1     		cbz	r3, .L31
 266              		.loc 1 243 0
 267 0016 906A     		ldr	r0, [r2, #40]
 268 0018 9847     		blx	r3
 269              	.LVL18:
 270              	.L31:
 271              		.loc 1 246 0
 272 001a BDE80840 		pop	{r3, lr}
 273              		.cfi_restore 14
 274              		.cfi_restore 3
 275              		.cfi_def_cfa_offset 0
 276              		.loc 1 245 0
 277 001e FFF7FEBF 		b	_port_irq_epilogue
 278              	.LVL19:
 279              	.L36:
 280 0022 00BF     		.align	2
 281              	.L35:
 282 0024 00600240 		.word	1073897472
 283 0028 00000000 		.word	.LANCHOR0
 284              		.cfi_endproc
 285              	.LFE327:
ARM GAS  /tmp/ccNOotcN.s 			page 6


 286              		.size	Vector7C, .-Vector7C
 287              		.section	.text.Vector80,"ax",%progbits
 288              		.align	1
 289              		.global	Vector80
 290              		.thumb
 291              		.thumb_func
 292              		.type	Vector80, %function
 293              	Vector80:
 294              	.LFB328:
 295              		.loc 1 253 0
 296              		.cfi_startproc
 297              		@ args = 0, pretend = 0, frame = 0
 298              		@ frame_needed = 0, uses_anonymous_args = 0
 299 0000 08B5     		push	{r3, lr}
 300              		.cfi_def_cfa_offset 8
 301              		.cfi_offset 3, -8
 302              		.cfi_offset 14, -4
 303              		.loc 1 256 0
 304 0002 FFF7FEFF 		bl	_stats_increase_irq
 305              	.LVL20:
 306              		.loc 1 258 0
 307 0006 084B     		ldr	r3, .L42
 308 0008 5968     		ldr	r1, [r3, #4]
 309 000a 8909     		lsrs	r1, r1, #6
 310 000c 01F03D01 		and	r1, r1, #61
 311              	.LVL21:
 312              		.loc 1 259 0
 313 0010 8A01     		lsls	r2, r1, #6
 314 0012 DA60     		str	r2, [r3, #12]
 315              		.loc 1 260 0
 316 0014 054A     		ldr	r2, .L42+4
 317 0016 D36A     		ldr	r3, [r2, #44]
 318 0018 0BB1     		cbz	r3, .L38
 319              		.loc 1 261 0
 320 001a 106B     		ldr	r0, [r2, #48]
 321 001c 9847     		blx	r3
 322              	.LVL22:
 323              	.L38:
 324              		.loc 1 264 0
 325 001e BDE80840 		pop	{r3, lr}
 326              		.cfi_restore 14
 327              		.cfi_restore 3
 328              		.cfi_def_cfa_offset 0
 329              		.loc 1 263 0
 330 0022 FFF7FEBF 		b	_port_irq_epilogue
 331              	.LVL23:
 332              	.L43:
 333 0026 00BF     		.align	2
 334              	.L42:
 335 0028 00600240 		.word	1073897472
 336 002c 00000000 		.word	.LANCHOR0
 337              		.cfi_endproc
 338              	.LFE328:
 339              		.size	Vector80, .-Vector80
 340              		.section	.text.Vector84,"ax",%progbits
 341              		.align	1
 342              		.global	Vector84
ARM GAS  /tmp/ccNOotcN.s 			page 7


 343              		.thumb
 344              		.thumb_func
 345              		.type	Vector84, %function
 346              	Vector84:
 347              	.LFB329:
 348              		.loc 1 271 0
 349              		.cfi_startproc
 350              		@ args = 0, pretend = 0, frame = 0
 351              		@ frame_needed = 0, uses_anonymous_args = 0
 352 0000 08B5     		push	{r3, lr}
 353              		.cfi_def_cfa_offset 8
 354              		.cfi_offset 3, -8
 355              		.cfi_offset 14, -4
 356              		.loc 1 274 0
 357 0002 FFF7FEFF 		bl	_stats_increase_irq
 358              	.LVL24:
 359              		.loc 1 276 0
 360 0006 084B     		ldr	r3, .L49
 361 0008 5968     		ldr	r1, [r3, #4]
 362 000a 090C     		lsrs	r1, r1, #16
 363 000c 01F03D01 		and	r1, r1, #61
 364              	.LVL25:
 365              		.loc 1 277 0
 366 0010 0A04     		lsls	r2, r1, #16
 367 0012 DA60     		str	r2, [r3, #12]
 368              		.loc 1 278 0
 369 0014 054A     		ldr	r2, .L49+4
 370 0016 536B     		ldr	r3, [r2, #52]
 371 0018 0BB1     		cbz	r3, .L45
 372              		.loc 1 279 0
 373 001a 906B     		ldr	r0, [r2, #56]
 374 001c 9847     		blx	r3
 375              	.LVL26:
 376              	.L45:
 377              		.loc 1 282 0
 378 001e BDE80840 		pop	{r3, lr}
 379              		.cfi_restore 14
 380              		.cfi_restore 3
 381              		.cfi_def_cfa_offset 0
 382              		.loc 1 281 0
 383 0022 FFF7FEBF 		b	_port_irq_epilogue
 384              	.LVL27:
 385              	.L50:
 386 0026 00BF     		.align	2
 387              	.L49:
 388 0028 00600240 		.word	1073897472
 389 002c 00000000 		.word	.LANCHOR0
 390              		.cfi_endproc
 391              	.LFE329:
 392              		.size	Vector84, .-Vector84
 393              		.section	.text.VectorFC,"ax",%progbits
 394              		.align	1
 395              		.global	VectorFC
 396              		.thumb
 397              		.thumb_func
 398              		.type	VectorFC, %function
 399              	VectorFC:
ARM GAS  /tmp/ccNOotcN.s 			page 8


 400              	.LFB330:
 401              		.loc 1 289 0
 402              		.cfi_startproc
 403              		@ args = 0, pretend = 0, frame = 0
 404              		@ frame_needed = 0, uses_anonymous_args = 0
 405 0000 08B5     		push	{r3, lr}
 406              		.cfi_def_cfa_offset 8
 407              		.cfi_offset 3, -8
 408              		.cfi_offset 14, -4
 409              		.loc 1 292 0
 410 0002 FFF7FEFF 		bl	_stats_increase_irq
 411              	.LVL28:
 412              		.loc 1 294 0
 413 0006 084B     		ldr	r3, .L56
 414 0008 5968     		ldr	r1, [r3, #4]
 415 000a 890D     		lsrs	r1, r1, #22
 416 000c 01F03D01 		and	r1, r1, #61
 417              	.LVL29:
 418              		.loc 1 295 0
 419 0010 8A05     		lsls	r2, r1, #22
 420 0012 DA60     		str	r2, [r3, #12]
 421              		.loc 1 296 0
 422 0014 054A     		ldr	r2, .L56+4
 423 0016 D36B     		ldr	r3, [r2, #60]
 424 0018 0BB1     		cbz	r3, .L52
 425              		.loc 1 297 0
 426 001a 106C     		ldr	r0, [r2, #64]
 427 001c 9847     		blx	r3
 428              	.LVL30:
 429              	.L52:
 430              		.loc 1 300 0
 431 001e BDE80840 		pop	{r3, lr}
 432              		.cfi_restore 14
 433              		.cfi_restore 3
 434              		.cfi_def_cfa_offset 0
 435              		.loc 1 299 0
 436 0022 FFF7FEBF 		b	_port_irq_epilogue
 437              	.LVL31:
 438              	.L57:
 439 0026 00BF     		.align	2
 440              	.L56:
 441 0028 00600240 		.word	1073897472
 442 002c 00000000 		.word	.LANCHOR0
 443              		.cfi_endproc
 444              	.LFE330:
 445              		.size	VectorFC, .-VectorFC
 446              		.section	.text.Vector120,"ax",%progbits
 447              		.align	1
 448              		.global	Vector120
 449              		.thumb
 450              		.thumb_func
 451              		.type	Vector120, %function
 452              	Vector120:
 453              	.LFB331:
 454              		.loc 1 307 0
 455              		.cfi_startproc
 456              		@ args = 0, pretend = 0, frame = 0
ARM GAS  /tmp/ccNOotcN.s 			page 9


 457              		@ frame_needed = 0, uses_anonymous_args = 0
 458 0000 08B5     		push	{r3, lr}
 459              		.cfi_def_cfa_offset 8
 460              		.cfi_offset 3, -8
 461              		.cfi_offset 14, -4
 462              		.loc 1 310 0
 463 0002 FFF7FEFF 		bl	_stats_increase_irq
 464              	.LVL32:
 465              		.loc 1 312 0
 466 0006 074B     		ldr	r3, .L63
 467              		.loc 1 314 0
 468 0008 074A     		ldr	r2, .L63+4
 469              		.loc 1 312 0
 470 000a 1968     		ldr	r1, [r3]
 471 000c 01F03D01 		and	r1, r1, #61
 472              	.LVL33:
 473              		.loc 1 313 0
 474 0010 9960     		str	r1, [r3, #8]
 475              		.loc 1 314 0
 476 0012 536C     		ldr	r3, [r2, #68]
 477 0014 0BB1     		cbz	r3, .L59
 478              		.loc 1 315 0
 479 0016 906C     		ldr	r0, [r2, #72]
 480 0018 9847     		blx	r3
 481              	.LVL34:
 482              	.L59:
 483              		.loc 1 318 0
 484 001a BDE80840 		pop	{r3, lr}
 485              		.cfi_restore 14
 486              		.cfi_restore 3
 487              		.cfi_def_cfa_offset 0
 488              		.loc 1 317 0
 489 001e FFF7FEBF 		b	_port_irq_epilogue
 490              	.LVL35:
 491              	.L64:
 492 0022 00BF     		.align	2
 493              	.L63:
 494 0024 00640240 		.word	1073898496
 495 0028 00000000 		.word	.LANCHOR0
 496              		.cfi_endproc
 497              	.LFE331:
 498              		.size	Vector120, .-Vector120
 499              		.section	.text.Vector124,"ax",%progbits
 500              		.align	1
 501              		.global	Vector124
 502              		.thumb
 503              		.thumb_func
 504              		.type	Vector124, %function
 505              	Vector124:
 506              	.LFB332:
 507              		.loc 1 325 0
 508              		.cfi_startproc
 509              		@ args = 0, pretend = 0, frame = 0
 510              		@ frame_needed = 0, uses_anonymous_args = 0
 511 0000 08B5     		push	{r3, lr}
 512              		.cfi_def_cfa_offset 8
 513              		.cfi_offset 3, -8
ARM GAS  /tmp/ccNOotcN.s 			page 10


 514              		.cfi_offset 14, -4
 515              		.loc 1 328 0
 516 0002 FFF7FEFF 		bl	_stats_increase_irq
 517              	.LVL36:
 518              		.loc 1 330 0
 519 0006 084B     		ldr	r3, .L70
 520 0008 1968     		ldr	r1, [r3]
 521 000a 8909     		lsrs	r1, r1, #6
 522 000c 01F03D01 		and	r1, r1, #61
 523              	.LVL37:
 524              		.loc 1 331 0
 525 0010 8A01     		lsls	r2, r1, #6
 526 0012 9A60     		str	r2, [r3, #8]
 527              		.loc 1 332 0
 528 0014 054A     		ldr	r2, .L70+4
 529 0016 D36C     		ldr	r3, [r2, #76]
 530 0018 0BB1     		cbz	r3, .L66
 531              		.loc 1 333 0
 532 001a 106D     		ldr	r0, [r2, #80]
 533 001c 9847     		blx	r3
 534              	.LVL38:
 535              	.L66:
 536              		.loc 1 336 0
 537 001e BDE80840 		pop	{r3, lr}
 538              		.cfi_restore 14
 539              		.cfi_restore 3
 540              		.cfi_def_cfa_offset 0
 541              		.loc 1 335 0
 542 0022 FFF7FEBF 		b	_port_irq_epilogue
 543              	.LVL39:
 544              	.L71:
 545 0026 00BF     		.align	2
 546              	.L70:
 547 0028 00640240 		.word	1073898496
 548 002c 00000000 		.word	.LANCHOR0
 549              		.cfi_endproc
 550              	.LFE332:
 551              		.size	Vector124, .-Vector124
 552              		.section	.text.Vector128,"ax",%progbits
 553              		.align	1
 554              		.global	Vector128
 555              		.thumb
 556              		.thumb_func
 557              		.type	Vector128, %function
 558              	Vector128:
 559              	.LFB333:
 560              		.loc 1 343 0
 561              		.cfi_startproc
 562              		@ args = 0, pretend = 0, frame = 0
 563              		@ frame_needed = 0, uses_anonymous_args = 0
 564 0000 08B5     		push	{r3, lr}
 565              		.cfi_def_cfa_offset 8
 566              		.cfi_offset 3, -8
 567              		.cfi_offset 14, -4
 568              		.loc 1 346 0
 569 0002 FFF7FEFF 		bl	_stats_increase_irq
 570              	.LVL40:
ARM GAS  /tmp/ccNOotcN.s 			page 11


 571              		.loc 1 348 0
 572 0006 084B     		ldr	r3, .L77
 573 0008 1968     		ldr	r1, [r3]
 574 000a 090C     		lsrs	r1, r1, #16
 575 000c 01F03D01 		and	r1, r1, #61
 576              	.LVL41:
 577              		.loc 1 349 0
 578 0010 0A04     		lsls	r2, r1, #16
 579 0012 9A60     		str	r2, [r3, #8]
 580              		.loc 1 350 0
 581 0014 054A     		ldr	r2, .L77+4
 582 0016 536D     		ldr	r3, [r2, #84]
 583 0018 0BB1     		cbz	r3, .L73
 584              		.loc 1 351 0
 585 001a 906D     		ldr	r0, [r2, #88]
 586 001c 9847     		blx	r3
 587              	.LVL42:
 588              	.L73:
 589              		.loc 1 354 0
 590 001e BDE80840 		pop	{r3, lr}
 591              		.cfi_restore 14
 592              		.cfi_restore 3
 593              		.cfi_def_cfa_offset 0
 594              		.loc 1 353 0
 595 0022 FFF7FEBF 		b	_port_irq_epilogue
 596              	.LVL43:
 597              	.L78:
 598 0026 00BF     		.align	2
 599              	.L77:
 600 0028 00640240 		.word	1073898496
 601 002c 00000000 		.word	.LANCHOR0
 602              		.cfi_endproc
 603              	.LFE333:
 604              		.size	Vector128, .-Vector128
 605              		.section	.text.Vector12C,"ax",%progbits
 606              		.align	1
 607              		.global	Vector12C
 608              		.thumb
 609              		.thumb_func
 610              		.type	Vector12C, %function
 611              	Vector12C:
 612              	.LFB334:
 613              		.loc 1 361 0
 614              		.cfi_startproc
 615              		@ args = 0, pretend = 0, frame = 0
 616              		@ frame_needed = 0, uses_anonymous_args = 0
 617 0000 08B5     		push	{r3, lr}
 618              		.cfi_def_cfa_offset 8
 619              		.cfi_offset 3, -8
 620              		.cfi_offset 14, -4
 621              		.loc 1 364 0
 622 0002 FFF7FEFF 		bl	_stats_increase_irq
 623              	.LVL44:
 624              		.loc 1 366 0
 625 0006 084B     		ldr	r3, .L84
 626 0008 1968     		ldr	r1, [r3]
 627 000a 890D     		lsrs	r1, r1, #22
ARM GAS  /tmp/ccNOotcN.s 			page 12


 628 000c 01F03D01 		and	r1, r1, #61
 629              	.LVL45:
 630              		.loc 1 367 0
 631 0010 8A05     		lsls	r2, r1, #22
 632 0012 9A60     		str	r2, [r3, #8]
 633              		.loc 1 368 0
 634 0014 054A     		ldr	r2, .L84+4
 635 0016 D36D     		ldr	r3, [r2, #92]
 636 0018 0BB1     		cbz	r3, .L80
 637              		.loc 1 369 0
 638 001a 106E     		ldr	r0, [r2, #96]
 639 001c 9847     		blx	r3
 640              	.LVL46:
 641              	.L80:
 642              		.loc 1 372 0
 643 001e BDE80840 		pop	{r3, lr}
 644              		.cfi_restore 14
 645              		.cfi_restore 3
 646              		.cfi_def_cfa_offset 0
 647              		.loc 1 371 0
 648 0022 FFF7FEBF 		b	_port_irq_epilogue
 649              	.LVL47:
 650              	.L85:
 651 0026 00BF     		.align	2
 652              	.L84:
 653 0028 00640240 		.word	1073898496
 654 002c 00000000 		.word	.LANCHOR0
 655              		.cfi_endproc
 656              	.LFE334:
 657              		.size	Vector12C, .-Vector12C
 658              		.section	.text.Vector130,"ax",%progbits
 659              		.align	1
 660              		.global	Vector130
 661              		.thumb
 662              		.thumb_func
 663              		.type	Vector130, %function
 664              	Vector130:
 665              	.LFB335:
 666              		.loc 1 379 0
 667              		.cfi_startproc
 668              		@ args = 0, pretend = 0, frame = 0
 669              		@ frame_needed = 0, uses_anonymous_args = 0
 670 0000 08B5     		push	{r3, lr}
 671              		.cfi_def_cfa_offset 8
 672              		.cfi_offset 3, -8
 673              		.cfi_offset 14, -4
 674              		.loc 1 382 0
 675 0002 FFF7FEFF 		bl	_stats_increase_irq
 676              	.LVL48:
 677              		.loc 1 384 0
 678 0006 074B     		ldr	r3, .L91
 679              		.loc 1 386 0
 680 0008 074A     		ldr	r2, .L91+4
 681              		.loc 1 384 0
 682 000a 5968     		ldr	r1, [r3, #4]
 683 000c 01F03D01 		and	r1, r1, #61
 684              	.LVL49:
ARM GAS  /tmp/ccNOotcN.s 			page 13


 685              		.loc 1 385 0
 686 0010 D960     		str	r1, [r3, #12]
 687              		.loc 1 386 0
 688 0012 536E     		ldr	r3, [r2, #100]
 689 0014 0BB1     		cbz	r3, .L87
 690              		.loc 1 387 0
 691 0016 906E     		ldr	r0, [r2, #104]
 692 0018 9847     		blx	r3
 693              	.LVL50:
 694              	.L87:
 695              		.loc 1 390 0
 696 001a BDE80840 		pop	{r3, lr}
 697              		.cfi_restore 14
 698              		.cfi_restore 3
 699              		.cfi_def_cfa_offset 0
 700              		.loc 1 389 0
 701 001e FFF7FEBF 		b	_port_irq_epilogue
 702              	.LVL51:
 703              	.L92:
 704 0022 00BF     		.align	2
 705              	.L91:
 706 0024 00640240 		.word	1073898496
 707 0028 00000000 		.word	.LANCHOR0
 708              		.cfi_endproc
 709              	.LFE335:
 710              		.size	Vector130, .-Vector130
 711              		.section	.text.Vector150,"ax",%progbits
 712              		.align	1
 713              		.global	Vector150
 714              		.thumb
 715              		.thumb_func
 716              		.type	Vector150, %function
 717              	Vector150:
 718              	.LFB336:
 719              		.loc 1 397 0
 720              		.cfi_startproc
 721              		@ args = 0, pretend = 0, frame = 0
 722              		@ frame_needed = 0, uses_anonymous_args = 0
 723 0000 08B5     		push	{r3, lr}
 724              		.cfi_def_cfa_offset 8
 725              		.cfi_offset 3, -8
 726              		.cfi_offset 14, -4
 727              		.loc 1 400 0
 728 0002 FFF7FEFF 		bl	_stats_increase_irq
 729              	.LVL52:
 730              		.loc 1 402 0
 731 0006 084B     		ldr	r3, .L98
 732 0008 5968     		ldr	r1, [r3, #4]
 733 000a 8909     		lsrs	r1, r1, #6
 734 000c 01F03D01 		and	r1, r1, #61
 735              	.LVL53:
 736              		.loc 1 403 0
 737 0010 8A01     		lsls	r2, r1, #6
 738 0012 DA60     		str	r2, [r3, #12]
 739              		.loc 1 404 0
 740 0014 054A     		ldr	r2, .L98+4
 741 0016 D36E     		ldr	r3, [r2, #108]
ARM GAS  /tmp/ccNOotcN.s 			page 14


 742 0018 0BB1     		cbz	r3, .L94
 743              		.loc 1 405 0
 744 001a 106F     		ldr	r0, [r2, #112]
 745 001c 9847     		blx	r3
 746              	.LVL54:
 747              	.L94:
 748              		.loc 1 408 0
 749 001e BDE80840 		pop	{r3, lr}
 750              		.cfi_restore 14
 751              		.cfi_restore 3
 752              		.cfi_def_cfa_offset 0
 753              		.loc 1 407 0
 754 0022 FFF7FEBF 		b	_port_irq_epilogue
 755              	.LVL55:
 756              	.L99:
 757 0026 00BF     		.align	2
 758              	.L98:
 759 0028 00640240 		.word	1073898496
 760 002c 00000000 		.word	.LANCHOR0
 761              		.cfi_endproc
 762              	.LFE336:
 763              		.size	Vector150, .-Vector150
 764              		.section	.text.Vector154,"ax",%progbits
 765              		.align	1
 766              		.global	Vector154
 767              		.thumb
 768              		.thumb_func
 769              		.type	Vector154, %function
 770              	Vector154:
 771              	.LFB337:
 772              		.loc 1 415 0
 773              		.cfi_startproc
 774              		@ args = 0, pretend = 0, frame = 0
 775              		@ frame_needed = 0, uses_anonymous_args = 0
 776 0000 08B5     		push	{r3, lr}
 777              		.cfi_def_cfa_offset 8
 778              		.cfi_offset 3, -8
 779              		.cfi_offset 14, -4
 780              		.loc 1 418 0
 781 0002 FFF7FEFF 		bl	_stats_increase_irq
 782              	.LVL56:
 783              		.loc 1 420 0
 784 0006 084B     		ldr	r3, .L105
 785 0008 5968     		ldr	r1, [r3, #4]
 786 000a 090C     		lsrs	r1, r1, #16
 787 000c 01F03D01 		and	r1, r1, #61
 788              	.LVL57:
 789              		.loc 1 421 0
 790 0010 0A04     		lsls	r2, r1, #16
 791 0012 DA60     		str	r2, [r3, #12]
 792              		.loc 1 422 0
 793 0014 054A     		ldr	r2, .L105+4
 794 0016 536F     		ldr	r3, [r2, #116]
 795 0018 0BB1     		cbz	r3, .L101
 796              		.loc 1 423 0
 797 001a 906F     		ldr	r0, [r2, #120]
 798 001c 9847     		blx	r3
ARM GAS  /tmp/ccNOotcN.s 			page 15


 799              	.LVL58:
 800              	.L101:
 801              		.loc 1 426 0
 802 001e BDE80840 		pop	{r3, lr}
 803              		.cfi_restore 14
 804              		.cfi_restore 3
 805              		.cfi_def_cfa_offset 0
 806              		.loc 1 425 0
 807 0022 FFF7FEBF 		b	_port_irq_epilogue
 808              	.LVL59:
 809              	.L106:
 810 0026 00BF     		.align	2
 811              	.L105:
 812 0028 00640240 		.word	1073898496
 813 002c 00000000 		.word	.LANCHOR0
 814              		.cfi_endproc
 815              	.LFE337:
 816              		.size	Vector154, .-Vector154
 817              		.section	.text.Vector158,"ax",%progbits
 818              		.align	1
 819              		.global	Vector158
 820              		.thumb
 821              		.thumb_func
 822              		.type	Vector158, %function
 823              	Vector158:
 824              	.LFB338:
 825              		.loc 1 433 0
 826              		.cfi_startproc
 827              		@ args = 0, pretend = 0, frame = 0
 828              		@ frame_needed = 0, uses_anonymous_args = 0
 829 0000 08B5     		push	{r3, lr}
 830              		.cfi_def_cfa_offset 8
 831              		.cfi_offset 3, -8
 832              		.cfi_offset 14, -4
 833              		.loc 1 436 0
 834 0002 FFF7FEFF 		bl	_stats_increase_irq
 835              	.LVL60:
 836              		.loc 1 438 0
 837 0006 084B     		ldr	r3, .L112
 838 0008 5968     		ldr	r1, [r3, #4]
 839 000a 890D     		lsrs	r1, r1, #22
 840 000c 01F03D01 		and	r1, r1, #61
 841              	.LVL61:
 842              		.loc 1 439 0
 843 0010 8A05     		lsls	r2, r1, #22
 844 0012 DA60     		str	r2, [r3, #12]
 845              		.loc 1 440 0
 846 0014 054A     		ldr	r2, .L112+4
 847 0016 D36F     		ldr	r3, [r2, #124]
 848 0018 13B1     		cbz	r3, .L108
 849              		.loc 1 441 0
 850 001a D2F88000 		ldr	r0, [r2, #128]
 851 001e 9847     		blx	r3
 852              	.LVL62:
 853              	.L108:
 854              		.loc 1 444 0
 855 0020 BDE80840 		pop	{r3, lr}
ARM GAS  /tmp/ccNOotcN.s 			page 16


 856              		.cfi_restore 14
 857              		.cfi_restore 3
 858              		.cfi_def_cfa_offset 0
 859              		.loc 1 443 0
 860 0024 FFF7FEBF 		b	_port_irq_epilogue
 861              	.LVL63:
 862              	.L113:
 863              		.align	2
 864              	.L112:
 865 0028 00640240 		.word	1073898496
 866 002c 00000000 		.word	.LANCHOR0
 867              		.cfi_endproc
 868              	.LFE338:
 869              		.size	Vector158, .-Vector158
 870              		.section	.text.dmaInit,"ax",%progbits
 871              		.align	1
 872              		.global	dmaInit
 873              		.thumb
 874              		.thumb_func
 875              		.type	dmaInit, %function
 876              	dmaInit:
 877              	.LFB339:
 878              		.loc 1 455 0
 879              		.cfi_startproc
 880              		@ args = 0, pretend = 0, frame = 0
 881              		@ frame_needed = 0, uses_anonymous_args = 0
 882              		.loc 1 458 0
 883 0000 0D4A     		ldr	r2, .L117
 884              		.loc 1 455 0
 885 0002 30B5     		push	{r4, r5, lr}
 886              		.cfi_def_cfa_offset 12
 887              		.cfi_offset 4, -12
 888              		.cfi_offset 5, -8
 889              		.cfi_offset 14, -4
 890              		.loc 1 458 0
 891 0004 0023     		movs	r3, #0
 892              		.loc 1 460 0
 893 0006 0D4C     		ldr	r4, .L117+4
 894              		.loc 1 458 0
 895 0008 1360     		str	r3, [r2]
 896              	.LVL64:
 897              		.loc 1 460 0
 898 000a 0C25     		movs	r5, #12
 899 000c 1946     		mov	r1, r3
 900              	.LVL65:
 901              	.L115:
 902              		.loc 1 460 0 is_stmt 0 discriminator 3
 903 000e 05FB03F0 		mul	r0, r5, r3
 904 0012 0059     		ldr	r0, [r0, r4]
 905 0014 0160     		str	r1, [r0]
 906              		.loc 1 461 0 is_stmt 1 discriminator 3
 907 0016 02EBC300 		add	r0, r2, r3, lsl #3
 908              		.loc 1 459 0 discriminator 3
 909 001a 0133     		adds	r3, r3, #1
 910              	.LVL66:
 911 001c 102B     		cmp	r3, #16
 912              		.loc 1 461 0 discriminator 3
ARM GAS  /tmp/ccNOotcN.s 			page 17


 913 001e 4160     		str	r1, [r0, #4]
 914              		.loc 1 459 0 discriminator 3
 915 0020 F5D1     		bne	.L115
 916              		.loc 1 463 0
 917 0022 074A     		ldr	r2, .L117+8
 918 0024 4FF0FF33 		mov	r3, #-1
 919              	.LVL67:
 920 0028 9360     		str	r3, [r2, #8]
 921              		.loc 1 464 0
 922 002a D360     		str	r3, [r2, #12]
 923              		.loc 1 465 0
 924 002c C2F80834 		str	r3, [r2, #1032]
 925              		.loc 1 466 0
 926 0030 C2F80C34 		str	r3, [r2, #1036]
 927              		.loc 1 465 0
 928 0034 30BD     		pop	{r4, r5, pc}
 929              	.L118:
 930 0036 00BF     		.align	2
 931              	.L117:
 932 0038 00000000 		.word	.LANCHOR0
 933 003c 00000000 		.word	.LANCHOR1
 934 0040 00600240 		.word	1073897472
 935              		.cfi_endproc
 936              	.LFE339:
 937              		.size	dmaInit, .-dmaInit
 938              		.section	.text.dmaStreamAllocI,"ax",%progbits
 939              		.align	1
 940              		.global	dmaStreamAllocI
 941              		.thumb
 942              		.thumb_func
 943              		.type	dmaStreamAllocI, %function
 944              	dmaStreamAllocI:
 945              	.LFB340:
 946              		.loc 1 494 0
 947              		.cfi_startproc
 948              		@ args = 0, pretend = 0, frame = 0
 949              		@ frame_needed = 0, uses_anonymous_args = 0
 950              	.LVL68:
 951              		.loc 1 499 0
 952 0000 0F28     		cmp	r0, #15
 953              		.loc 1 494 0
 954 0002 F8B5     		push	{r3, r4, r5, r6, r7, lr}
 955              		.cfi_def_cfa_offset 24
 956              		.cfi_offset 3, -24
 957              		.cfi_offset 4, -20
 958              		.cfi_offset 5, -16
 959              		.cfi_offset 6, -12
 960              		.cfi_offset 7, -8
 961              		.cfi_offset 14, -4
 962              		.loc 1 494 0
 963 0004 9C46     		mov	ip, r3
 964              		.loc 1 499 0
 965 0006 48D8     		bhi	.L125
 966              	.LVL69:
 967              	.LBB22:
 968              		.loc 1 523 0 discriminator 1
 969 0008 264F     		ldr	r7, .L134
ARM GAS  /tmp/ccNOotcN.s 			page 18


 970              		.loc 1 522 0 discriminator 1
 971 000a 0125     		movs	r5, #1
 972              		.loc 1 523 0 discriminator 1
 973 000c 3E68     		ldr	r6, [r7]
 974              		.loc 1 522 0 discriminator 1
 975 000e 8540     		lsls	r5, r5, r0
 976              	.LVL70:
 977              		.loc 1 523 0 discriminator 1
 978 0010 3542     		tst	r5, r6
 979 0012 42D1     		bne	.L125
 980              	.LBB23:
 981              		.loc 1 527 0
 982 0014 07EBC00E 		add	lr, r7, r0, lsl #3
 983              		.loc 1 524 0
 984 0018 234B     		ldr	r3, .L134+4
 985              	.LVL71:
 986              		.loc 1 527 0
 987 001a CEF80420 		str	r2, [lr, #4]
 988              		.loc 1 524 0
 989 001e 0C24     		movs	r4, #12
 990              		.loc 1 529 0
 991 0020 2E43     		orrs	r6, r6, r5
 992              		.loc 1 532 0
 993 0022 15F0FF0F 		tst	r5, #255
 994              		.loc 1 524 0
 995 0026 04FB0034 		mla	r4, r4, r0, r3
 996              	.LVL72:
 997              		.loc 1 528 0
 998 002a CEF808C0 		str	ip, [lr, #8]
 999              		.loc 1 529 0
 1000 002e 3E60     		str	r6, [r7]
 1001              		.loc 1 532 0
 1002 0030 09D0     		beq	.L121
 1003              		.loc 1 533 0
 1004 0032 1E4E     		ldr	r6, .L134+8
 1005 0034 376B     		ldr	r7, [r6, #48]
 1006 0036 47F40017 		orr	r7, r7, #2097152
 1007 003a 3763     		str	r7, [r6, #48]
 1008 003c 376D     		ldr	r7, [r6, #80]
 1009 003e 47F40017 		orr	r7, r7, #2097152
 1010 0042 3765     		str	r7, [r6, #80]
 1011 0044 366D     		ldr	r6, [r6, #80]
 1012              	.L121:
 1013              		.loc 1 535 0
 1014 0046 15F47F4F 		tst	r5, #65280
 1015 004a 09D0     		beq	.L122
 1016              		.loc 1 536 0
 1017 004c 174D     		ldr	r5, .L134+8
 1018              	.LVL73:
 1019 004e 2E6B     		ldr	r6, [r5, #48]
 1020 0050 46F48006 		orr	r6, r6, #4194304
 1021 0054 2E63     		str	r6, [r5, #48]
 1022 0056 2E6D     		ldr	r6, [r5, #80]
 1023 0058 46F48006 		orr	r6, r6, #4194304
 1024 005c 2E65     		str	r6, [r5, #80]
 1025 005e 2D6D     		ldr	r5, [r5, #80]
 1026              	.L122:
ARM GAS  /tmp/ccNOotcN.s 			page 19


 1027              		.loc 1 547 0
 1028 0060 0C25     		movs	r5, #12
 1029 0062 4543     		muls	r5, r0, r5
 1030 0064 5D59     		ldr	r5, [r3, r5]
 1031 0066 2E68     		ldr	r6, [r5]
 1032 0068 26F01F06 		bic	r6, r6, #31
 1033 006c 2E60     		str	r6, [r5]
 1034              	.L123:
 1035              		.loc 1 547 0 is_stmt 0 discriminator 2
 1036 006e 2E68     		ldr	r6, [r5]
 1037 0070 16F00106 		ands	r6, r6, #1
 1038 0074 FBD1     		bne	.L123
 1039              		.loc 1 547 0 discriminator 3
 1040 0076 0C27     		movs	r7, #12
 1041 0078 07FB0033 		mla	r3, r7, r0, r3
 1042 007c 3D20     		movs	r0, #61
 1043              	.LVL74:
 1044 007e 93F809E0 		ldrb	lr, [r3, #9]	@ zero_extendqisi2
 1045 0082 5F68     		ldr	r7, [r3, #4]
 1046 0084 00FA0EF0 		lsl	r0, r0, lr
 1047 0088 3860     		str	r0, [r7]
 1048              		.loc 1 549 0 is_stmt 1 discriminator 3
 1049 008a 2120     		movs	r0, #33
 1050              		.loc 1 548 0 discriminator 3
 1051 008c 2E60     		str	r6, [r5]
 1052              		.loc 1 549 0 discriminator 3
 1053 008e 6861     		str	r0, [r5, #20]
 1054              		.loc 1 552 0 discriminator 3
 1055 0090 2AB1     		cbz	r2, .L126
 1056              		.loc 1 553 0
 1057 0092 D87A     		ldrb	r0, [r3, #11]	@ zero_extendqisi2
 1058 0094 FFF7FEFF 		bl	nvicEnableVector
 1059              	.LVL75:
 1060 0098 01E0     		b	.L126
 1061              	.LVL76:
 1062              	.L125:
 1063              	.LBE23:
 1064              	.LBE22:
 1065              		.loc 1 518 0
 1066 009a 0020     		movs	r0, #0
 1067              	.LVL77:
 1068 009c F8BD     		pop	{r3, r4, r5, r6, r7, pc}
 1069              	.LVL78:
 1070              	.L126:
 1071              	.LBB25:
 1072              	.LBB24:
 1073              		.loc 1 556 0
 1074 009e 2046     		mov	r0, r4
 1075              	.LBE24:
 1076              	.LBE25:
 1077              		.loc 1 561 0
 1078 00a0 F8BD     		pop	{r3, r4, r5, r6, r7, pc}
 1079              	.LVL79:
 1080              	.L135:
 1081 00a2 00BF     		.align	2
 1082              	.L134:
 1083 00a4 00000000 		.word	.LANCHOR0
ARM GAS  /tmp/ccNOotcN.s 			page 20


 1084 00a8 00000000 		.word	.LANCHOR1
 1085 00ac 00380240 		.word	1073887232
 1086              		.cfi_endproc
 1087              	.LFE340:
 1088              		.size	dmaStreamAllocI, .-dmaStreamAllocI
 1089              		.section	.text.dmaStreamAlloc,"ax",%progbits
 1090              		.align	1
 1091              		.global	dmaStreamAlloc
 1092              		.thumb
 1093              		.thumb_func
 1094              		.type	dmaStreamAlloc, %function
 1095              	dmaStreamAlloc:
 1096              	.LFB341:
 1097              		.loc 1 588 0
 1098              		.cfi_startproc
 1099              		@ args = 0, pretend = 0, frame = 0
 1100              		@ frame_needed = 0, uses_anonymous_args = 0
 1101              	.LVL80:
 1102 0000 F8B5     		push	{r3, r4, r5, r6, r7, lr}
 1103              		.cfi_def_cfa_offset 24
 1104              		.cfi_offset 3, -24
 1105              		.cfi_offset 4, -20
 1106              		.cfi_offset 5, -16
 1107              		.cfi_offset 6, -12
 1108              		.cfi_offset 7, -8
 1109              		.cfi_offset 14, -4
 1110              		.loc 1 588 0
 1111 0002 1F46     		mov	r7, r3
 1112 0004 0446     		mov	r4, r0
 1113 0006 0D46     		mov	r5, r1
 1114 0008 1646     		mov	r6, r2
 1115              	.LBB40:
 1116              	.LBB41:
 1117              	.LBB42:
 1118              	.LBB43:
 1119              	.LBB44:
 1120              	.LBB45:
 1121              		.file 2 "../../modules/ChibiOS/os/common/ext/ARM/CMSIS/Core/Include/cmsis_gcc.h"
 1122              		.loc 2 493 0
 1123 000a 2023     		movs	r3, #32
 1124              	.LVL81:
 1125              		.syntax unified
 1126              	@ 493 "../../modules/ChibiOS/os/common/ext/ARM/CMSIS/Core/Include/cmsis_gcc.h" 1
 1127 000c 83F31188 		MSR basepri, r3
 1128              	@ 0 "" 2
 1129              	.LVL82:
 1130              		.thumb
 1131              		.syntax unified
 1132              	.LBE45:
 1133              	.LBE44:
 1134              	.LBE43:
 1135              		.file 3 "../../modules/ChibiOS/os/rt/include/chsys.h"
 1136              		.loc 3 356 0
 1137 0010 FFF7FEFF 		bl	_stats_start_measure_crit_thd
 1138              	.LVL83:
 1139              	.LBE42:
 1140              	.LBE41:
ARM GAS  /tmp/ccNOotcN.s 			page 21


 1141              	.LBE40:
 1142              		.loc 1 592 0
 1143 0014 3B46     		mov	r3, r7
 1144 0016 3246     		mov	r2, r6
 1145 0018 2946     		mov	r1, r5
 1146 001a 2046     		mov	r0, r4
 1147 001c FFF7FEFF 		bl	dmaStreamAllocI
 1148              	.LVL84:
 1149 0020 0446     		mov	r4, r0
 1150              	.LVL85:
 1151              	.LBB46:
 1152              	.LBB47:
 1153              	.LBB48:
 1154              		.loc 3 368 0
 1155 0022 FFF7FEFF 		bl	_stats_stop_measure_crit_thd
 1156              	.LVL86:
 1157              	.LBB49:
 1158              	.LBB50:
 1159              	.LBB51:
 1160              		.loc 2 493 0
 1161 0026 0023     		movs	r3, #0
 1162              		.syntax unified
 1163              	@ 493 "../../modules/ChibiOS/os/common/ext/ARM/CMSIS/Core/Include/cmsis_gcc.h" 1
 1164 0028 83F31188 		MSR basepri, r3
 1165              	@ 0 "" 2
 1166              	.LVL87:
 1167              		.thumb
 1168              		.syntax unified
 1169              	.LBE51:
 1170              	.LBE50:
 1171              	.LBE49:
 1172              	.LBE48:
 1173              	.LBE47:
 1174              	.LBE46:
 1175              		.loc 1 596 0
 1176 002c 2046     		mov	r0, r4
 1177 002e F8BD     		pop	{r3, r4, r5, r6, r7, pc}
 1178              		.cfi_endproc
 1179              	.LFE341:
 1180              		.size	dmaStreamAlloc, .-dmaStreamAlloc
 1181              		.section	.text.dmaStreamFreeI,"ax",%progbits
 1182              		.align	1
 1183              		.global	dmaStreamFreeI
 1184              		.thumb
 1185              		.thumb_func
 1186              		.type	dmaStreamFreeI, %function
 1187              	dmaStreamFreeI:
 1188              	.LFB342:
 1189              		.loc 1 608 0
 1190              		.cfi_startproc
 1191              		@ args = 0, pretend = 0, frame = 0
 1192              		@ frame_needed = 0, uses_anonymous_args = 0
 1193              	.LVL88:
 1194 0000 10B5     		push	{r4, lr}
 1195              		.cfi_def_cfa_offset 8
 1196              		.cfi_offset 4, -8
 1197              		.cfi_offset 14, -4
ARM GAS  /tmp/ccNOotcN.s 			page 22


 1198              		.loc 1 608 0
 1199 0002 0446     		mov	r4, r0
 1200              		.loc 1 617 0
 1201 0004 C07A     		ldrb	r0, [r0, #11]	@ zero_extendqisi2
 1202              	.LVL89:
 1203 0006 FFF7FEFF 		bl	nvicDisableVector
 1204              	.LVL90:
 1205              		.loc 1 620 0
 1206 000a 1249     		ldr	r1, .L140
 1207 000c A27A     		ldrb	r2, [r4, #10]	@ zero_extendqisi2
 1208 000e 0123     		movs	r3, #1
 1209 0010 03FA02F2 		lsl	r2, r3, r2
 1210 0014 0B68     		ldr	r3, [r1]
 1211 0016 23EA0203 		bic	r3, r3, r2
 1212              		.loc 1 623 0
 1213 001a 13F0FF0F 		tst	r3, #255
 1214              		.loc 1 620 0
 1215 001e 0B60     		str	r3, [r1]
 1216              		.loc 1 623 0
 1217 0020 09D1     		bne	.L138
 1218              		.loc 1 624 0
 1219 0022 0D4A     		ldr	r2, .L140+4
 1220 0024 116B     		ldr	r1, [r2, #48]
 1221 0026 21F40011 		bic	r1, r1, #2097152
 1222 002a 1163     		str	r1, [r2, #48]
 1223 002c 116D     		ldr	r1, [r2, #80]
 1224 002e 21F40011 		bic	r1, r1, #2097152
 1225 0032 1165     		str	r1, [r2, #80]
 1226 0034 126D     		ldr	r2, [r2, #80]
 1227              	.L138:
 1228              		.loc 1 626 0
 1229 0036 13F47F4F 		tst	r3, #65280
 1230 003a 09D1     		bne	.L137
 1231              	.LVL91:
 1232              	.LBB54:
 1233              	.LBB55:
 1234              		.loc 1 627 0
 1235 003c 064B     		ldr	r3, .L140+4
 1236 003e 1A6B     		ldr	r2, [r3, #48]
 1237 0040 22F48002 		bic	r2, r2, #4194304
 1238 0044 1A63     		str	r2, [r3, #48]
 1239 0046 1A6D     		ldr	r2, [r3, #80]
 1240 0048 22F48002 		bic	r2, r2, #4194304
 1241 004c 1A65     		str	r2, [r3, #80]
 1242 004e 1B6D     		ldr	r3, [r3, #80]
 1243              	.LVL92:
 1244              	.L137:
 1245 0050 10BD     		pop	{r4, pc}
 1246              	.LVL93:
 1247              	.L141:
 1248 0052 00BF     		.align	2
 1249              	.L140:
 1250 0054 00000000 		.word	.LANCHOR0
 1251 0058 00380240 		.word	1073887232
 1252              	.LBE55:
 1253              	.LBE54:
 1254              		.cfi_endproc
ARM GAS  /tmp/ccNOotcN.s 			page 23


 1255              	.LFE342:
 1256              		.size	dmaStreamFreeI, .-dmaStreamFreeI
 1257              		.section	.text.dmaStreamFree,"ax",%progbits
 1258              		.align	1
 1259              		.global	dmaStreamFree
 1260              		.thumb
 1261              		.thumb_func
 1262              		.type	dmaStreamFree, %function
 1263              	dmaStreamFree:
 1264              	.LFB343:
 1265              		.loc 1 648 0
 1266              		.cfi_startproc
 1267              		@ args = 0, pretend = 0, frame = 0
 1268              		@ frame_needed = 0, uses_anonymous_args = 0
 1269              	.LVL94:
 1270 0000 10B5     		push	{r4, lr}
 1271              		.cfi_def_cfa_offset 8
 1272              		.cfi_offset 4, -8
 1273              		.cfi_offset 14, -4
 1274              	.LBB70:
 1275              	.LBB71:
 1276              	.LBB72:
 1277              	.LBB73:
 1278              	.LBB74:
 1279              	.LBB75:
 1280              		.loc 2 493 0
 1281 0002 2023     		movs	r3, #32
 1282              	.LBE75:
 1283              	.LBE74:
 1284              	.LBE73:
 1285              	.LBE72:
 1286              	.LBE71:
 1287              	.LBE70:
 1288              		.loc 1 648 0
 1289 0004 0446     		mov	r4, r0
 1290              	.LBB81:
 1291              	.LBB80:
 1292              	.LBB79:
 1293              	.LBB78:
 1294              	.LBB77:
 1295              	.LBB76:
 1296              		.loc 2 493 0
 1297              		.syntax unified
 1298              	@ 493 "../../modules/ChibiOS/os/common/ext/ARM/CMSIS/Core/Include/cmsis_gcc.h" 1
 1299 0006 83F31188 		MSR basepri, r3
 1300              	@ 0 "" 2
 1301              	.LVL95:
 1302              		.thumb
 1303              		.syntax unified
 1304              	.LBE76:
 1305              	.LBE77:
 1306              	.LBE78:
 1307              		.loc 3 356 0
 1308 000a FFF7FEFF 		bl	_stats_start_measure_crit_thd
 1309              	.LVL96:
 1310              	.LBE79:
 1311              	.LBE80:
ARM GAS  /tmp/ccNOotcN.s 			page 24


 1312              	.LBE81:
 1313              		.loc 1 651 0
 1314 000e 2046     		mov	r0, r4
 1315 0010 FFF7FEFF 		bl	dmaStreamFreeI
 1316              	.LVL97:
 1317              	.LBB82:
 1318              	.LBB83:
 1319              	.LBB84:
 1320              		.loc 3 368 0
 1321 0014 FFF7FEFF 		bl	_stats_stop_measure_crit_thd
 1322              	.LVL98:
 1323              	.LBB85:
 1324              	.LBB86:
 1325              	.LBB87:
 1326              		.loc 2 493 0
 1327 0018 0023     		movs	r3, #0
 1328              		.syntax unified
 1329              	@ 493 "../../modules/ChibiOS/os/common/ext/ARM/CMSIS/Core/Include/cmsis_gcc.h" 1
 1330 001a 83F31188 		MSR basepri, r3
 1331              	@ 0 "" 2
 1332              	.LVL99:
 1333              		.thumb
 1334              		.syntax unified
 1335 001e 10BD     		pop	{r4, pc}
 1336              	.LBE87:
 1337              	.LBE86:
 1338              	.LBE85:
 1339              	.LBE84:
 1340              	.LBE83:
 1341              	.LBE82:
 1342              		.cfi_endproc
 1343              	.LFE343:
 1344              		.size	dmaStreamFree, .-dmaStreamFree
 1345              		.global	_stm32_dma_streams
 1346              		.section	.rodata._stm32_dma_streams,"a",%progbits
 1347              		.align	2
 1348              		.set	.LANCHOR1,. + 0
 1349              		.type	_stm32_dma_streams, %object
 1350              		.size	_stm32_dma_streams, 192
 1351              	_stm32_dma_streams:
 1352 0000 10600240 		.word	1073897488
 1353 0004 08600240 		.word	1073897480
 1354 0008 00       		.byte	0
 1355 0009 00       		.byte	0
 1356 000a 00       		.byte	0
 1357 000b 0B       		.byte	11
 1358 000c 28600240 		.word	1073897512
 1359 0010 08600240 		.word	1073897480
 1360 0014 00       		.byte	0
 1361 0015 06       		.byte	6
 1362 0016 01       		.byte	1
 1363 0017 0C       		.byte	12
 1364 0018 40600240 		.word	1073897536
 1365 001c 08600240 		.word	1073897480
 1366 0020 00       		.byte	0
 1367 0021 10       		.byte	16
 1368 0022 02       		.byte	2
ARM GAS  /tmp/ccNOotcN.s 			page 25


 1369 0023 0D       		.byte	13
 1370 0024 58600240 		.word	1073897560
 1371 0028 08600240 		.word	1073897480
 1372 002c 00       		.byte	0
 1373 002d 16       		.byte	22
 1374 002e 03       		.byte	3
 1375 002f 0E       		.byte	14
 1376 0030 70600240 		.word	1073897584
 1377 0034 0C600240 		.word	1073897484
 1378 0038 00       		.byte	0
 1379 0039 00       		.byte	0
 1380 003a 04       		.byte	4
 1381 003b 0F       		.byte	15
 1382 003c 88600240 		.word	1073897608
 1383 0040 0C600240 		.word	1073897484
 1384 0044 00       		.byte	0
 1385 0045 06       		.byte	6
 1386 0046 05       		.byte	5
 1387 0047 10       		.byte	16
 1388 0048 A0600240 		.word	1073897632
 1389 004c 0C600240 		.word	1073897484
 1390 0050 00       		.byte	0
 1391 0051 10       		.byte	16
 1392 0052 06       		.byte	6
 1393 0053 11       		.byte	17
 1394 0054 B8600240 		.word	1073897656
 1395 0058 0C600240 		.word	1073897484
 1396 005c 00       		.byte	0
 1397 005d 16       		.byte	22
 1398 005e 07       		.byte	7
 1399 005f 2F       		.byte	47
 1400 0060 10640240 		.word	1073898512
 1401 0064 08640240 		.word	1073898504
 1402 0068 00       		.byte	0
 1403 0069 00       		.byte	0
 1404 006a 08       		.byte	8
 1405 006b 38       		.byte	56
 1406 006c 28640240 		.word	1073898536
 1407 0070 08640240 		.word	1073898504
 1408 0074 00       		.byte	0
 1409 0075 06       		.byte	6
 1410 0076 09       		.byte	9
 1411 0077 39       		.byte	57
 1412 0078 40640240 		.word	1073898560
 1413 007c 08640240 		.word	1073898504
 1414 0080 00       		.byte	0
 1415 0081 10       		.byte	16
 1416 0082 0A       		.byte	10
 1417 0083 3A       		.byte	58
 1418 0084 58640240 		.word	1073898584
 1419 0088 08640240 		.word	1073898504
 1420 008c 00       		.byte	0
 1421 008d 16       		.byte	22
 1422 008e 0B       		.byte	11
 1423 008f 3B       		.byte	59
 1424 0090 70640240 		.word	1073898608
 1425 0094 0C640240 		.word	1073898508
ARM GAS  /tmp/ccNOotcN.s 			page 26


 1426 0098 00       		.byte	0
 1427 0099 00       		.byte	0
 1428 009a 0C       		.byte	12
 1429 009b 3C       		.byte	60
 1430 009c 88640240 		.word	1073898632
 1431 00a0 0C640240 		.word	1073898508
 1432 00a4 00       		.byte	0
 1433 00a5 06       		.byte	6
 1434 00a6 0D       		.byte	13
 1435 00a7 44       		.byte	68
 1436 00a8 A0640240 		.word	1073898656
 1437 00ac 0C640240 		.word	1073898508
 1438 00b0 00       		.byte	0
 1439 00b1 10       		.byte	16
 1440 00b2 0E       		.byte	14
 1441 00b3 45       		.byte	69
 1442 00b4 B8640240 		.word	1073898680
 1443 00b8 0C640240 		.word	1073898508
 1444 00bc 00       		.byte	0
 1445 00bd 16       		.byte	22
 1446 00be 0F       		.byte	15
 1447 00bf 46       		.byte	70
 1448              		.section	.bss.dma,"aw",%nobits
 1449              		.align	2
 1450              		.set	.LANCHOR0,. + 0
 1451              		.type	dma, %object
 1452              		.size	dma, 132
 1453              	dma:
 1454 0000 00000000 		.space	132
 1454      00000000 
 1454      00000000 
 1454      00000000 
 1454      00000000 
 1455              		.text
 1456              	.Letext0:
 1457              		.file 4 "/usr/lib/gcc/arm-none-eabi/5.4.1/include/stddef.h"
 1458              		.file 5 "/usr/include/newlib/machine/_default_types.h"
 1459              		.file 6 "/usr/include/newlib/sys/_stdint.h"
 1460              		.file 7 "../../modules/ChibiOS/os/common/ports/ARMCMx/compilers/GCC/chtypes.h"
 1461              		.file 8 "../../modules/ChibiOS/os/rt/include/chsystypes.h"
 1462              		.file 9 "../../modules/ChibiOS/os/rt/include/chschd.h"
 1463              		.file 10 "../../modules/ChibiOS/os/rt/include/chtime.h"
 1464              		.file 11 "../../modules/ChibiOS/os/common/ext/ST/STM32F4xx/stm32f427xx.h"
 1465              		.file 12 "../../modules/ChibiOS/os/common/ports/ARMCMx/chcore.h"
 1466              		.file 13 "../../modules/ChibiOS/os/common/ports/ARMCMx/chcore_v7m.h"
 1467              		.file 14 "../../modules/ChibiOS/os/rt/include/chtm.h"
 1468              		.file 15 "../../modules/ChibiOS/os/rt/include/chstats.h"
 1469              		.file 16 "../../modules/ChibiOS/os/rt/include/chsem.h"
 1470              		.file 17 "../../modules/ChibiOS/os/rt/include/chmtx.h"
 1471              		.file 18 "../../modules/ChibiOS/os/hal/ports/STM32/LLD/DMAv2/stm32_dma.h"
 1472              		.file 19 "../../modules/ChibiOS/os/hal/osal/rt/osal.h"
 1473              		.file 20 "../../modules/ChibiOS/os/common/ext/ARM/CMSIS/Core/Include/core_cm4.h"
 1474              		.file 21 "../../modules/ChibiOS/os/hal/ports/common/ARMCMx/nvic.h"