ARM GAS  /tmp/ccJGNaHf.s 			page 1


   1              		.syntax unified
   2              		.cpu cortex-m4
   3              		.eabi_attribute 27, 1
   4              		.eabi_attribute 28, 1
   5              		.fpu fpv4-sp-d16
   6              		.eabi_attribute 20, 1
   7              		.eabi_attribute 21, 1
   8              		.eabi_attribute 23, 3
   9              		.eabi_attribute 24, 1
  10              		.eabi_attribute 25, 1
  11              		.eabi_attribute 26, 1
  12              		.eabi_attribute 30, 4
  13              		.eabi_attribute 34, 1
  14              		.eabi_attribute 18, 4
  15              		.thumb
  16              		.syntax unified
  17              		.file	"stm32_isr.c"
  18              		.text
  19              	.Ltext0:
  20              		.cfi_sections	.debug_frame
  21              		.section	.text.Vector58,"ax",%progbits
  22              		.align	1
  23              		.global	Vector58
  24              		.thumb
  25              		.thumb_func
  26              		.type	Vector58, %function
  27              	Vector58:
  28              	.LFB323:
  29              		.file 1 "../../modules/ChibiOS/os/hal/ports/STM32/STM32F4xx/stm32_isr.c"
  30              		.loc 1 61 0
  31              		.cfi_startproc
  32              		@ args = 0, pretend = 0, frame = 0
  33              		@ frame_needed = 0, uses_anonymous_args = 0
  34 0000 08B5     		push	{r3, lr}
  35              		.cfi_def_cfa_offset 8
  36              		.cfi_offset 3, -8
  37              		.cfi_offset 14, -4
  38              		.loc 1 64 0
  39 0002 FFF7FEFF 		bl	_stats_increase_irq
  40              	.LVL0:
  41              		.loc 1 66 0
  42 0006 084A     		ldr	r2, .L10
  43 0008 5169     		ldr	r1, [r2, #20]
  44              	.LVL1:
  45              		.loc 1 67 0
  46 000a 1368     		ldr	r3, [r2]
  47 000c 0B40     		ands	r3, r3, r1
  48 000e 03F00103 		and	r3, r3, #1
  49              	.LVL2:
  50              		.loc 1 68 0
  51 0012 5361     		str	r3, [r2, #20]
  52              		.loc 1 70 0
  53 0014 23B1     		cbz	r3, .L2
  54              		.loc 1 70 0 is_stmt 0 discriminator 1
  55 0016 054A     		ldr	r2, .L10+4
  56 0018 1368     		ldr	r3, [r2]
  57              	.LVL3:
ARM GAS  /tmp/ccJGNaHf.s 			page 2


  58 001a 0BB1     		cbz	r3, .L2
  59              		.loc 1 70 0 discriminator 2
  60 001c 5068     		ldr	r0, [r2, #4]
  61 001e 9847     		blx	r3
  62              	.LVL4:
  63              	.L2:
  64              		.loc 1 73 0 is_stmt 1
  65 0020 BDE80840 		pop	{r3, lr}
  66              		.cfi_restore 14
  67              		.cfi_restore 3
  68              		.cfi_def_cfa_offset 0
  69              		.loc 1 72 0
  70 0024 FFF7FEBF 		b	_port_irq_epilogue
  71              	.LVL5:
  72              	.L11:
  73              		.align	2
  74              	.L10:
  75 0028 003C0140 		.word	1073822720
  76 002c 00000000 		.word	_pal_events
  77              		.cfi_endproc
  78              	.LFE323:
  79              		.size	Vector58, .-Vector58
  80              		.section	.text.Vector5C,"ax",%progbits
  81              		.align	1
  82              		.global	Vector5C
  83              		.thumb
  84              		.thumb_func
  85              		.type	Vector5C, %function
  86              	Vector5C:
  87              	.LFB324:
  88              		.loc 1 82 0
  89              		.cfi_startproc
  90              		@ args = 0, pretend = 0, frame = 0
  91              		@ frame_needed = 0, uses_anonymous_args = 0
  92 0000 08B5     		push	{r3, lr}
  93              		.cfi_def_cfa_offset 8
  94              		.cfi_offset 3, -8
  95              		.cfi_offset 14, -4
  96              		.loc 1 85 0
  97 0002 FFF7FEFF 		bl	_stats_increase_irq
  98              	.LVL6:
  99              		.loc 1 87 0
 100 0006 084A     		ldr	r2, .L20
 101 0008 5169     		ldr	r1, [r2, #20]
 102              	.LVL7:
 103              		.loc 1 88 0
 104 000a 1368     		ldr	r3, [r2]
 105 000c 0B40     		ands	r3, r3, r1
 106 000e 03F00203 		and	r3, r3, #2
 107              	.LVL8:
 108              		.loc 1 89 0
 109 0012 5361     		str	r3, [r2, #20]
 110              		.loc 1 91 0
 111 0014 23B1     		cbz	r3, .L13
 112              		.loc 1 91 0 is_stmt 0 discriminator 1
 113 0016 054A     		ldr	r2, .L20+4
 114 0018 9368     		ldr	r3, [r2, #8]
ARM GAS  /tmp/ccJGNaHf.s 			page 3


 115              	.LVL9:
 116 001a 0BB1     		cbz	r3, .L13
 117              		.loc 1 91 0 discriminator 2
 118 001c D068     		ldr	r0, [r2, #12]
 119 001e 9847     		blx	r3
 120              	.LVL10:
 121              	.L13:
 122              		.loc 1 94 0 is_stmt 1
 123 0020 BDE80840 		pop	{r3, lr}
 124              		.cfi_restore 14
 125              		.cfi_restore 3
 126              		.cfi_def_cfa_offset 0
 127              		.loc 1 93 0
 128 0024 FFF7FEBF 		b	_port_irq_epilogue
 129              	.LVL11:
 130              	.L21:
 131              		.align	2
 132              	.L20:
 133 0028 003C0140 		.word	1073822720
 134 002c 00000000 		.word	_pal_events
 135              		.cfi_endproc
 136              	.LFE324:
 137              		.size	Vector5C, .-Vector5C
 138              		.section	.text.Vector60,"ax",%progbits
 139              		.align	1
 140              		.global	Vector60
 141              		.thumb
 142              		.thumb_func
 143              		.type	Vector60, %function
 144              	Vector60:
 145              	.LFB325:
 146              		.loc 1 103 0
 147              		.cfi_startproc
 148              		@ args = 0, pretend = 0, frame = 0
 149              		@ frame_needed = 0, uses_anonymous_args = 0
 150 0000 08B5     		push	{r3, lr}
 151              		.cfi_def_cfa_offset 8
 152              		.cfi_offset 3, -8
 153              		.cfi_offset 14, -4
 154              		.loc 1 106 0
 155 0002 FFF7FEFF 		bl	_stats_increase_irq
 156              	.LVL12:
 157              		.loc 1 108 0
 158 0006 084A     		ldr	r2, .L30
 159 0008 5169     		ldr	r1, [r2, #20]
 160              	.LVL13:
 161              		.loc 1 109 0
 162 000a 1368     		ldr	r3, [r2]
 163 000c 0B40     		ands	r3, r3, r1
 164 000e 03F00403 		and	r3, r3, #4
 165              	.LVL14:
 166              		.loc 1 110 0
 167 0012 5361     		str	r3, [r2, #20]
 168              		.loc 1 112 0
 169 0014 23B1     		cbz	r3, .L23
 170              		.loc 1 112 0 is_stmt 0 discriminator 1
 171 0016 054A     		ldr	r2, .L30+4
ARM GAS  /tmp/ccJGNaHf.s 			page 4


 172 0018 1369     		ldr	r3, [r2, #16]
 173              	.LVL15:
 174 001a 0BB1     		cbz	r3, .L23
 175              		.loc 1 112 0 discriminator 2
 176 001c 5069     		ldr	r0, [r2, #20]
 177 001e 9847     		blx	r3
 178              	.LVL16:
 179              	.L23:
 180              		.loc 1 115 0 is_stmt 1
 181 0020 BDE80840 		pop	{r3, lr}
 182              		.cfi_restore 14
 183              		.cfi_restore 3
 184              		.cfi_def_cfa_offset 0
 185              		.loc 1 114 0
 186 0024 FFF7FEBF 		b	_port_irq_epilogue
 187              	.LVL17:
 188              	.L31:
 189              		.align	2
 190              	.L30:
 191 0028 003C0140 		.word	1073822720
 192 002c 00000000 		.word	_pal_events
 193              		.cfi_endproc
 194              	.LFE325:
 195              		.size	Vector60, .-Vector60
 196              		.section	.text.Vector64,"ax",%progbits
 197              		.align	1
 198              		.global	Vector64
 199              		.thumb
 200              		.thumb_func
 201              		.type	Vector64, %function
 202              	Vector64:
 203              	.LFB326:
 204              		.loc 1 124 0
 205              		.cfi_startproc
 206              		@ args = 0, pretend = 0, frame = 0
 207              		@ frame_needed = 0, uses_anonymous_args = 0
 208 0000 08B5     		push	{r3, lr}
 209              		.cfi_def_cfa_offset 8
 210              		.cfi_offset 3, -8
 211              		.cfi_offset 14, -4
 212              		.loc 1 127 0
 213 0002 FFF7FEFF 		bl	_stats_increase_irq
 214              	.LVL18:
 215              		.loc 1 129 0
 216 0006 084A     		ldr	r2, .L40
 217 0008 5169     		ldr	r1, [r2, #20]
 218              	.LVL19:
 219              		.loc 1 130 0
 220 000a 1368     		ldr	r3, [r2]
 221 000c 0B40     		ands	r3, r3, r1
 222 000e 03F00803 		and	r3, r3, #8
 223              	.LVL20:
 224              		.loc 1 131 0
 225 0012 5361     		str	r3, [r2, #20]
 226              		.loc 1 133 0
 227 0014 23B1     		cbz	r3, .L33
 228              		.loc 1 133 0 is_stmt 0 discriminator 1
ARM GAS  /tmp/ccJGNaHf.s 			page 5


 229 0016 054A     		ldr	r2, .L40+4
 230 0018 9369     		ldr	r3, [r2, #24]
 231              	.LVL21:
 232 001a 0BB1     		cbz	r3, .L33
 233              		.loc 1 133 0 discriminator 2
 234 001c D069     		ldr	r0, [r2, #28]
 235 001e 9847     		blx	r3
 236              	.LVL22:
 237              	.L33:
 238              		.loc 1 136 0 is_stmt 1
 239 0020 BDE80840 		pop	{r3, lr}
 240              		.cfi_restore 14
 241              		.cfi_restore 3
 242              		.cfi_def_cfa_offset 0
 243              		.loc 1 135 0
 244 0024 FFF7FEBF 		b	_port_irq_epilogue
 245              	.LVL23:
 246              	.L41:
 247              		.align	2
 248              	.L40:
 249 0028 003C0140 		.word	1073822720
 250 002c 00000000 		.word	_pal_events
 251              		.cfi_endproc
 252              	.LFE326:
 253              		.size	Vector64, .-Vector64
 254              		.section	.text.Vector68,"ax",%progbits
 255              		.align	1
 256              		.global	Vector68
 257              		.thumb
 258              		.thumb_func
 259              		.type	Vector68, %function
 260              	Vector68:
 261              	.LFB327:
 262              		.loc 1 145 0
 263              		.cfi_startproc
 264              		@ args = 0, pretend = 0, frame = 0
 265              		@ frame_needed = 0, uses_anonymous_args = 0
 266 0000 08B5     		push	{r3, lr}
 267              		.cfi_def_cfa_offset 8
 268              		.cfi_offset 3, -8
 269              		.cfi_offset 14, -4
 270              		.loc 1 148 0
 271 0002 FFF7FEFF 		bl	_stats_increase_irq
 272              	.LVL24:
 273              		.loc 1 150 0
 274 0006 084A     		ldr	r2, .L50
 275 0008 5169     		ldr	r1, [r2, #20]
 276              	.LVL25:
 277              		.loc 1 151 0
 278 000a 1368     		ldr	r3, [r2]
 279 000c 0B40     		ands	r3, r3, r1
 280 000e 03F01003 		and	r3, r3, #16
 281              	.LVL26:
 282              		.loc 1 152 0
 283 0012 5361     		str	r3, [r2, #20]
 284              		.loc 1 154 0
 285 0014 23B1     		cbz	r3, .L43
ARM GAS  /tmp/ccJGNaHf.s 			page 6


 286              		.loc 1 154 0 is_stmt 0 discriminator 1
 287 0016 054A     		ldr	r2, .L50+4
 288 0018 136A     		ldr	r3, [r2, #32]
 289              	.LVL27:
 290 001a 0BB1     		cbz	r3, .L43
 291              		.loc 1 154 0 discriminator 2
 292 001c 506A     		ldr	r0, [r2, #36]
 293 001e 9847     		blx	r3
 294              	.LVL28:
 295              	.L43:
 296              		.loc 1 157 0 is_stmt 1
 297 0020 BDE80840 		pop	{r3, lr}
 298              		.cfi_restore 14
 299              		.cfi_restore 3
 300              		.cfi_def_cfa_offset 0
 301              		.loc 1 156 0
 302 0024 FFF7FEBF 		b	_port_irq_epilogue
 303              	.LVL29:
 304              	.L51:
 305              		.align	2
 306              	.L50:
 307 0028 003C0140 		.word	1073822720
 308 002c 00000000 		.word	_pal_events
 309              		.cfi_endproc
 310              	.LFE327:
 311              		.size	Vector68, .-Vector68
 312              		.section	.text.Vector9C,"ax",%progbits
 313              		.align	1
 314              		.global	Vector9C
 315              		.thumb
 316              		.thumb_func
 317              		.type	Vector9C, %function
 318              	Vector9C:
 319              	.LFB328:
 320              		.loc 1 166 0
 321              		.cfi_startproc
 322              		@ args = 0, pretend = 0, frame = 0
 323              		@ frame_needed = 0, uses_anonymous_args = 0
 324 0000 10B5     		push	{r4, lr}
 325              		.cfi_def_cfa_offset 8
 326              		.cfi_offset 4, -8
 327              		.cfi_offset 14, -4
 328              		.loc 1 169 0
 329 0002 FFF7FEFF 		bl	_stats_increase_irq
 330              	.LVL30:
 331              		.loc 1 171 0
 332 0006 174B     		ldr	r3, .L88
 333 0008 5C69     		ldr	r4, [r3, #20]
 334              	.LVL31:
 335              		.loc 1 172 0
 336 000a 1A68     		ldr	r2, [r3]
 337 000c 1440     		ands	r4, r4, r2
 338              	.LVL32:
 339 000e 04F47872 		and	r2, r4, #992
 340              	.LVL33:
 341              		.loc 1 174 0
 342 0012 5A61     		str	r2, [r3, #20]
ARM GAS  /tmp/ccJGNaHf.s 			page 7


 343              		.loc 1 176 0
 344 0014 A306     		lsls	r3, r4, #26
 345 0016 04D5     		bpl	.L53
 346              		.loc 1 176 0 is_stmt 0 discriminator 1
 347 0018 134A     		ldr	r2, .L88+4
 348              	.LVL34:
 349 001a 936A     		ldr	r3, [r2, #40]
 350 001c 0BB1     		cbz	r3, .L53
 351              		.loc 1 176 0 discriminator 2
 352 001e D06A     		ldr	r0, [r2, #44]
 353 0020 9847     		blx	r3
 354              	.LVL35:
 355              	.L53:
 356              		.loc 1 177 0 is_stmt 1
 357 0022 6006     		lsls	r0, r4, #25
 358 0024 04D5     		bpl	.L54
 359              		.loc 1 177 0 is_stmt 0 discriminator 1
 360 0026 104A     		ldr	r2, .L88+4
 361 0028 136B     		ldr	r3, [r2, #48]
 362 002a 0BB1     		cbz	r3, .L54
 363              		.loc 1 177 0 discriminator 2
 364 002c 506B     		ldr	r0, [r2, #52]
 365 002e 9847     		blx	r3
 366              	.LVL36:
 367              	.L54:
 368              		.loc 1 178 0 is_stmt 1
 369 0030 2106     		lsls	r1, r4, #24
 370 0032 04D5     		bpl	.L55
 371              		.loc 1 178 0 is_stmt 0 discriminator 1
 372 0034 0C4A     		ldr	r2, .L88+4
 373 0036 936B     		ldr	r3, [r2, #56]
 374 0038 0BB1     		cbz	r3, .L55
 375              		.loc 1 178 0 discriminator 2
 376 003a D06B     		ldr	r0, [r2, #60]
 377 003c 9847     		blx	r3
 378              	.LVL37:
 379              	.L55:
 380              		.loc 1 179 0 is_stmt 1
 381 003e E205     		lsls	r2, r4, #23
 382 0040 04D5     		bpl	.L56
 383              		.loc 1 179 0 is_stmt 0 discriminator 1
 384 0042 094A     		ldr	r2, .L88+4
 385 0044 136C     		ldr	r3, [r2, #64]
 386 0046 0BB1     		cbz	r3, .L56
 387              		.loc 1 179 0 discriminator 2
 388 0048 506C     		ldr	r0, [r2, #68]
 389 004a 9847     		blx	r3
 390              	.LVL38:
 391              	.L56:
 392              		.loc 1 180 0 is_stmt 1
 393 004c A305     		lsls	r3, r4, #22
 394 004e 04D5     		bpl	.L57
 395              		.loc 1 180 0 is_stmt 0 discriminator 1
 396 0050 054A     		ldr	r2, .L88+4
 397 0052 936C     		ldr	r3, [r2, #72]
 398 0054 0BB1     		cbz	r3, .L57
 399              		.loc 1 180 0 discriminator 2
ARM GAS  /tmp/ccJGNaHf.s 			page 8


 400 0056 D06C     		ldr	r0, [r2, #76]
 401 0058 9847     		blx	r3
 402              	.LVL39:
 403              	.L57:
 404              		.loc 1 183 0 is_stmt 1
 405 005a BDE81040 		pop	{r4, lr}
 406              		.cfi_restore 14
 407              		.cfi_restore 4
 408              		.cfi_def_cfa_offset 0
 409              	.LVL40:
 410              		.loc 1 182 0
 411 005e FFF7FEBF 		b	_port_irq_epilogue
 412              	.LVL41:
 413              	.L89:
 414 0062 00BF     		.align	2
 415              	.L88:
 416 0064 003C0140 		.word	1073822720
 417 0068 00000000 		.word	_pal_events
 418              		.cfi_endproc
 419              	.LFE328:
 420              		.size	Vector9C, .-Vector9C
 421              		.section	.text.VectorE0,"ax",%progbits
 422              		.align	1
 423              		.global	VectorE0
 424              		.thumb
 425              		.thumb_func
 426              		.type	VectorE0, %function
 427              	VectorE0:
 428              	.LFB329:
 429              		.loc 1 192 0
 430              		.cfi_startproc
 431              		@ args = 0, pretend = 0, frame = 0
 432              		@ frame_needed = 0, uses_anonymous_args = 0
 433 0000 10B5     		push	{r4, lr}
 434              		.cfi_def_cfa_offset 8
 435              		.cfi_offset 4, -8
 436              		.cfi_offset 14, -4
 437              		.loc 1 195 0
 438 0002 FFF7FEFF 		bl	_stats_increase_irq
 439              	.LVL42:
 440              		.loc 1 197 0
 441 0006 1A4B     		ldr	r3, .L133
 442 0008 5C69     		ldr	r4, [r3, #20]
 443              	.LVL43:
 444              		.loc 1 198 0
 445 000a 1A68     		ldr	r2, [r3]
 446 000c 1440     		ands	r4, r4, r2
 447              	.LVL44:
 448 000e 04F47C42 		and	r2, r4, #64512
 449              	.LVL45:
 450              		.loc 1 200 0
 451 0012 5A61     		str	r2, [r3, #20]
 452              		.loc 1 202 0
 453 0014 6205     		lsls	r2, r4, #21
 454              	.LVL46:
 455 0016 04D5     		bpl	.L91
 456              		.loc 1 202 0 is_stmt 0 discriminator 1
ARM GAS  /tmp/ccJGNaHf.s 			page 9


 457 0018 164A     		ldr	r2, .L133+4
 458 001a 136D     		ldr	r3, [r2, #80]
 459              	.LVL47:
 460 001c 0BB1     		cbz	r3, .L91
 461              		.loc 1 202 0 discriminator 2
 462 001e 506D     		ldr	r0, [r2, #84]
 463 0020 9847     		blx	r3
 464              	.LVL48:
 465              	.L91:
 466              		.loc 1 203 0 is_stmt 1
 467 0022 2305     		lsls	r3, r4, #20
 468 0024 04D5     		bpl	.L92
 469              		.loc 1 203 0 is_stmt 0 discriminator 1
 470 0026 134A     		ldr	r2, .L133+4
 471 0028 936D     		ldr	r3, [r2, #88]
 472 002a 0BB1     		cbz	r3, .L92
 473              		.loc 1 203 0 discriminator 2
 474 002c D06D     		ldr	r0, [r2, #92]
 475 002e 9847     		blx	r3
 476              	.LVL49:
 477              	.L92:
 478              		.loc 1 204 0 is_stmt 1
 479 0030 E004     		lsls	r0, r4, #19
 480 0032 04D5     		bpl	.L93
 481              		.loc 1 204 0 is_stmt 0 discriminator 1
 482 0034 0F4A     		ldr	r2, .L133+4
 483 0036 136E     		ldr	r3, [r2, #96]
 484 0038 0BB1     		cbz	r3, .L93
 485              		.loc 1 204 0 discriminator 2
 486 003a 506E     		ldr	r0, [r2, #100]
 487 003c 9847     		blx	r3
 488              	.LVL50:
 489              	.L93:
 490              		.loc 1 205 0 is_stmt 1
 491 003e A104     		lsls	r1, r4, #18
 492 0040 04D5     		bpl	.L94
 493              		.loc 1 205 0 is_stmt 0 discriminator 1
 494 0042 0C4A     		ldr	r2, .L133+4
 495 0044 936E     		ldr	r3, [r2, #104]
 496 0046 0BB1     		cbz	r3, .L94
 497              		.loc 1 205 0 discriminator 2
 498 0048 D06E     		ldr	r0, [r2, #108]
 499 004a 9847     		blx	r3
 500              	.LVL51:
 501              	.L94:
 502              		.loc 1 206 0 is_stmt 1
 503 004c 6204     		lsls	r2, r4, #17
 504 004e 04D5     		bpl	.L95
 505              		.loc 1 206 0 is_stmt 0 discriminator 1
 506 0050 084A     		ldr	r2, .L133+4
 507 0052 136F     		ldr	r3, [r2, #112]
 508 0054 0BB1     		cbz	r3, .L95
 509              		.loc 1 206 0 discriminator 2
 510 0056 506F     		ldr	r0, [r2, #116]
 511 0058 9847     		blx	r3
 512              	.LVL52:
 513              	.L95:
ARM GAS  /tmp/ccJGNaHf.s 			page 10


 514              		.loc 1 207 0 is_stmt 1
 515 005a 2304     		lsls	r3, r4, #16
 516 005c 04D5     		bpl	.L96
 517              		.loc 1 207 0 is_stmt 0 discriminator 1
 518 005e 054A     		ldr	r2, .L133+4
 519 0060 936F     		ldr	r3, [r2, #120]
 520 0062 0BB1     		cbz	r3, .L96
 521              		.loc 1 207 0 discriminator 2
 522 0064 D06F     		ldr	r0, [r2, #124]
 523 0066 9847     		blx	r3
 524              	.LVL53:
 525              	.L96:
 526              		.loc 1 210 0 is_stmt 1
 527 0068 BDE81040 		pop	{r4, lr}
 528              		.cfi_restore 14
 529              		.cfi_restore 4
 530              		.cfi_def_cfa_offset 0
 531              	.LVL54:
 532              		.loc 1 209 0
 533 006c FFF7FEBF 		b	_port_irq_epilogue
 534              	.LVL55:
 535              	.L134:
 536              		.align	2
 537              	.L133:
 538 0070 003C0140 		.word	1073822720
 539 0074 00000000 		.word	_pal_events
 540              		.cfi_endproc
 541              	.LFE329:
 542              		.size	VectorE0, .-VectorE0
 543              		.section	.text.irqInit,"ax",%progbits
 544              		.align	1
 545              		.global	irqInit
 546              		.thumb
 547              		.thumb_func
 548              		.type	irqInit, %function
 549              	irqInit:
 550              	.LFB330:
 551              		.loc 1 224 0
 552              		.cfi_startproc
 553              		@ args = 0, pretend = 0, frame = 0
 554              		@ frame_needed = 0, uses_anonymous_args = 0
 555              		.loc 1 227 0
 556 0000 0621     		movs	r1, #6
 557              		.loc 1 224 0
 558 0002 08B5     		push	{r3, lr}
 559              		.cfi_def_cfa_offset 8
 560              		.cfi_offset 3, -8
 561              		.cfi_offset 14, -4
 562              		.loc 1 227 0
 563 0004 0846     		mov	r0, r1
 564 0006 FFF7FEFF 		bl	nvicEnableVector
 565              	.LVL56:
 566              		.loc 1 228 0
 567 000a 0621     		movs	r1, #6
 568 000c 0720     		movs	r0, #7
 569 000e FFF7FEFF 		bl	nvicEnableVector
 570              	.LVL57:
ARM GAS  /tmp/ccJGNaHf.s 			page 11


 571              		.loc 1 229 0
 572 0012 0621     		movs	r1, #6
 573 0014 0820     		movs	r0, #8
 574 0016 FFF7FEFF 		bl	nvicEnableVector
 575              	.LVL58:
 576              		.loc 1 230 0
 577 001a 0621     		movs	r1, #6
 578 001c 0920     		movs	r0, #9
 579 001e FFF7FEFF 		bl	nvicEnableVector
 580              	.LVL59:
 581              		.loc 1 231 0
 582 0022 0621     		movs	r1, #6
 583 0024 0A20     		movs	r0, #10
 584 0026 FFF7FEFF 		bl	nvicEnableVector
 585              	.LVL60:
 586              		.loc 1 232 0
 587 002a 0621     		movs	r1, #6
 588 002c 1720     		movs	r0, #23
 589 002e FFF7FEFF 		bl	nvicEnableVector
 590              	.LVL61:
 591              		.loc 1 233 0
 592 0032 0621     		movs	r1, #6
 593 0034 2820     		movs	r0, #40
 594              		.loc 1 235 0
 595 0036 BDE80840 		pop	{r3, lr}
 596              		.cfi_restore 14
 597              		.cfi_restore 3
 598              		.cfi_def_cfa_offset 0
 599              		.loc 1 233 0
 600 003a FFF7FEBF 		b	nvicEnableVector
 601              	.LVL62:
 602              		.cfi_endproc
 603              	.LFE330:
 604              		.size	irqInit, .-irqInit
 605              		.section	.text.irqDeinit,"ax",%progbits
 606              		.align	1
 607              		.global	irqDeinit
 608              		.thumb
 609              		.thumb_func
 610              		.type	irqDeinit, %function
 611              	irqDeinit:
 612              	.LFB331:
 613              		.loc 1 242 0
 614              		.cfi_startproc
 615              		@ args = 0, pretend = 0, frame = 0
 616              		@ frame_needed = 0, uses_anonymous_args = 0
 617 0000 08B5     		push	{r3, lr}
 618              		.cfi_def_cfa_offset 8
 619              		.cfi_offset 3, -8
 620              		.cfi_offset 14, -4
 621              		.loc 1 245 0
 622 0002 0620     		movs	r0, #6
 623 0004 FFF7FEFF 		bl	nvicDisableVector
 624              	.LVL63:
 625              		.loc 1 246 0
 626 0008 0720     		movs	r0, #7
 627 000a FFF7FEFF 		bl	nvicDisableVector
ARM GAS  /tmp/ccJGNaHf.s 			page 12


 628              	.LVL64:
 629              		.loc 1 247 0
 630 000e 0820     		movs	r0, #8
 631 0010 FFF7FEFF 		bl	nvicDisableVector
 632              	.LVL65:
 633              		.loc 1 248 0
 634 0014 0920     		movs	r0, #9
 635 0016 FFF7FEFF 		bl	nvicDisableVector
 636              	.LVL66:
 637              		.loc 1 249 0
 638 001a 0A20     		movs	r0, #10
 639 001c FFF7FEFF 		bl	nvicDisableVector
 640              	.LVL67:
 641              		.loc 1 250 0
 642 0020 1720     		movs	r0, #23
 643 0022 FFF7FEFF 		bl	nvicDisableVector
 644              	.LVL68:
 645              		.loc 1 251 0
 646 0026 2820     		movs	r0, #40
 647              		.loc 1 253 0
 648 0028 BDE80840 		pop	{r3, lr}
 649              		.cfi_restore 14
 650              		.cfi_restore 3
 651              		.cfi_def_cfa_offset 0
 652              		.loc 1 251 0
 653 002c FFF7FEBF 		b	nvicDisableVector
 654              	.LVL69:
 655              		.cfi_endproc
 656              	.LFE331:
 657              		.size	irqDeinit, .-irqDeinit
 658              		.text
 659              	.Letext0:
 660              		.file 2 "/usr/include/newlib/machine/_default_types.h"
 661              		.file 3 "/usr/include/newlib/sys/_stdint.h"
 662              		.file 4 "../../modules/ChibiOS/os/common/ports/ARMCMx/compilers/GCC/chtypes.h"
 663              		.file 5 "../../modules/ChibiOS/os/rt/include/chsystypes.h"
 664              		.file 6 "../../modules/ChibiOS/os/rt/include/chschd.h"
 665              		.file 7 "../../modules/ChibiOS/os/rt/include/chtime.h"
 666              		.file 8 "../../modules/ChibiOS/os/common/ext/ST/STM32F4xx/stm32f427xx.h"
 667              		.file 9 "../../modules/ChibiOS/os/common/ports/ARMCMx/chcore.h"
 668              		.file 10 "../../modules/ChibiOS/os/common/ports/ARMCMx/chcore_v7m.h"
 669              		.file 11 "../../modules/ChibiOS/os/rt/include/chtm.h"
 670              		.file 12 "../../modules/ChibiOS/os/rt/include/chstats.h"
 671              		.file 13 "../../modules/ChibiOS/os/rt/include/chsem.h"
 672              		.file 14 "../../modules/ChibiOS/os/rt/include/chmtx.h"
 673              		.file 15 "../../modules/ChibiOS/os/hal/include/hal_pal.h"
 674              		.file 16 "../../modules/ChibiOS/os/common/ext/ARM/CMSIS/Core/Include/core_cm4.h"
 675              		.file 17 "../../modules/ChibiOS/os/hal/ports/STM32/LLD/GPIOv2/hal_pal_lld.h"
 676              		.file 18 "../../modules/ChibiOS/os/hal/ports/common/ARMCMx/nvic.h"
 677              		.section	.debug_info,"",%progbits
 678              	.Ldebug_info0:
 679 0000 B90D0000 		.4byte	0xdb9
 680 0004 0400     		.2byte	0x4
 681 0006 00000000 		.4byte	.Ldebug_abbrev0
 682 000a 04       		.byte	0x4
 683 000b 01       		.uleb128 0x1
 684 000c 6C070000 		.4byte	.LASF223
ARM GAS  /tmp/ccJGNaHf.s 			page 13


 685 0010 0C       		.byte	0xc
 686 0011 DE000000 		.4byte	.LASF224
 687 0015 CF060000 		.4byte	.LASF225
 688 0019 00000000 		.4byte	.Ldebug_ranges0+0
 689 001d 00000000 		.4byte	0
 690 0021 00000000 		.4byte	.Ldebug_line0
 691 0025 02       		.uleb128 0x2
 692 0026 04       		.byte	0x4
 693 0027 05       		.byte	0x5
 694 0028 696E7400 		.ascii	"int\000"
 695 002c 03       		.uleb128 0x3
 696 002d 04       		.byte	0x4
 697 002e 07       		.byte	0x7
 698 002f 37060000 		.4byte	.LASF0
 699 0033 03       		.uleb128 0x3
 700 0034 08       		.byte	0x8
 701 0035 05       		.byte	0x5
 702 0036 9F050000 		.4byte	.LASF1
 703 003a 03       		.uleb128 0x3
 704 003b 08       		.byte	0x8
 705 003c 04       		.byte	0x4
 706 003d 27070000 		.4byte	.LASF2
 707 0041 03       		.uleb128 0x3
 708 0042 01       		.byte	0x1
 709 0043 06       		.byte	0x6
 710 0044 22020000 		.4byte	.LASF3
 711 0048 04       		.uleb128 0x4
 712 0049 4A010000 		.4byte	.LASF7
 713 004d 02       		.byte	0x2
 714 004e 1D       		.byte	0x1d
 715 004f 53000000 		.4byte	0x53
 716 0053 03       		.uleb128 0x3
 717 0054 01       		.byte	0x1
 718 0055 08       		.byte	0x8
 719 0056 61020000 		.4byte	.LASF4
 720 005a 03       		.uleb128 0x3
 721 005b 02       		.byte	0x2
 722 005c 05       		.byte	0x5
 723 005d DF090000 		.4byte	.LASF5
 724 0061 03       		.uleb128 0x3
 725 0062 02       		.byte	0x2
 726 0063 07       		.byte	0x7
 727 0064 020B0000 		.4byte	.LASF6
 728 0068 04       		.uleb128 0x4
 729 0069 7D0B0000 		.4byte	.LASF8
 730 006d 02       		.byte	0x2
 731 006e 3F       		.byte	0x3f
 732 006f 73000000 		.4byte	0x73
 733 0073 03       		.uleb128 0x3
 734 0074 04       		.byte	0x4
 735 0075 05       		.byte	0x5
 736 0076 83010000 		.4byte	.LASF9
 737 007a 04       		.uleb128 0x4
 738 007b 82050000 		.4byte	.LASF10
 739 007f 02       		.byte	0x2
 740 0080 41       		.byte	0x41
 741 0081 85000000 		.4byte	0x85
ARM GAS  /tmp/ccJGNaHf.s 			page 14


 742 0085 03       		.uleb128 0x3
 743 0086 04       		.byte	0x4
 744 0087 07       		.byte	0x7
 745 0088 57040000 		.4byte	.LASF11
 746 008c 04       		.uleb128 0x4
 747 008d 42040000 		.4byte	.LASF12
 748 0091 02       		.byte	0x2
 749 0092 5B       		.byte	0x5b
 750 0093 97000000 		.4byte	0x97
 751 0097 03       		.uleb128 0x3
 752 0098 08       		.byte	0x8
 753 0099 07       		.byte	0x7
 754 009a C4080000 		.4byte	.LASF13
 755 009e 04       		.uleb128 0x4
 756 009f 35020000 		.4byte	.LASF14
 757 00a3 03       		.byte	0x3
 758 00a4 18       		.byte	0x18
 759 00a5 48000000 		.4byte	0x48
 760 00a9 04       		.uleb128 0x4
 761 00aa 66000000 		.4byte	.LASF15
 762 00ae 03       		.byte	0x3
 763 00af 2C       		.byte	0x2c
 764 00b0 68000000 		.4byte	0x68
 765 00b4 04       		.uleb128 0x4
 766 00b5 CC0A0000 		.4byte	.LASF16
 767 00b9 03       		.byte	0x3
 768 00ba 30       		.byte	0x30
 769 00bb 7A000000 		.4byte	0x7a
 770 00bf 04       		.uleb128 0x4
 771 00c0 E9090000 		.4byte	.LASF17
 772 00c4 03       		.byte	0x3
 773 00c5 3C       		.byte	0x3c
 774 00c6 8C000000 		.4byte	0x8c
 775 00ca 04       		.uleb128 0x4
 776 00cb 4F060000 		.4byte	.LASF18
 777 00cf 04       		.byte	0x4
 778 00d0 27       		.byte	0x27
 779 00d1 B4000000 		.4byte	0xb4
 780 00d5 04       		.uleb128 0x4
 781 00d6 BB010000 		.4byte	.LASF19
 782 00da 04       		.byte	0x4
 783 00db 28       		.byte	0x28
 784 00dc BF000000 		.4byte	0xbf
 785 00e0 04       		.uleb128 0x4
 786 00e1 75090000 		.4byte	.LASF20
 787 00e5 04       		.byte	0x4
 788 00e6 2A       		.byte	0x2a
 789 00e7 9E000000 		.4byte	0x9e
 790 00eb 04       		.uleb128 0x4
 791 00ec B2010000 		.4byte	.LASF21
 792 00f0 04       		.byte	0x4
 793 00f1 2B       		.byte	0x2b
 794 00f2 9E000000 		.4byte	0x9e
 795 00f6 04       		.uleb128 0x4
 796 00f7 730A0000 		.4byte	.LASF22
 797 00fb 04       		.byte	0x4
 798 00fc 2C       		.byte	0x2c
ARM GAS  /tmp/ccJGNaHf.s 			page 15


 799 00fd 9E000000 		.4byte	0x9e
 800 0101 04       		.uleb128 0x4
 801 0102 5E000000 		.4byte	.LASF23
 802 0106 04       		.byte	0x4
 803 0107 2E       		.byte	0x2e
 804 0108 B4000000 		.4byte	0xb4
 805 010c 04       		.uleb128 0x4
 806 010d DB080000 		.4byte	.LASF24
 807 0111 04       		.byte	0x4
 808 0112 2F       		.byte	0x2f
 809 0113 A9000000 		.4byte	0xa9
 810 0117 04       		.uleb128 0x4
 811 0118 3D020000 		.4byte	.LASF25
 812 011c 04       		.byte	0x4
 813 011d 31       		.byte	0x31
 814 011e B4000000 		.4byte	0xb4
 815 0122 04       		.uleb128 0x4
 816 0123 72030000 		.4byte	.LASF26
 817 0127 04       		.byte	0x4
 818 0128 33       		.byte	0x33
 819 0129 A9000000 		.4byte	0xa9
 820 012d 04       		.uleb128 0x4
 821 012e 2C050000 		.4byte	.LASF27
 822 0132 04       		.byte	0x4
 823 0133 34       		.byte	0x34
 824 0134 B4000000 		.4byte	0xb4
 825 0138 04       		.uleb128 0x4
 826 0139 1E070000 		.4byte	.LASF28
 827 013d 05       		.byte	0x5
 828 013e 34       		.byte	0x34
 829 013f 43010000 		.4byte	0x143
 830 0143 05       		.uleb128 0x5
 831 0144 AE040000 		.4byte	.LASF47
 832 0148 60       		.byte	0x60
 833 0149 06       		.byte	0x6
 834 014a 8E       		.byte	0x8e
 835 014b 2E020000 		.4byte	0x22e
 836 014f 06       		.uleb128 0x6
 837 0150 1E090000 		.4byte	.LASF29
 838 0154 06       		.byte	0x6
 839 0155 8F       		.byte	0x8f
 840 0156 63020000 		.4byte	0x263
 841 015a 00       		.byte	0
 842 015b 06       		.uleb128 0x6
 843 015c 22010000 		.4byte	.LASF30
 844 0160 06       		.byte	0x6
 845 0161 90       		.byte	0x90
 846 0162 01010000 		.4byte	0x101
 847 0166 08       		.byte	0x8
 848 0167 07       		.uleb128 0x7
 849 0168 63747800 		.ascii	"ctx\000"
 850 016c 06       		.byte	0x6
 851 016d 91       		.byte	0x91
 852 016e 33070000 		.4byte	0x733
 853 0172 0C       		.byte	0xc
 854 0173 06       		.uleb128 0x6
 855 0174 B50A0000 		.4byte	.LASF31
ARM GAS  /tmp/ccJGNaHf.s 			page 16


 856 0178 06       		.byte	0x6
 857 0179 93       		.byte	0x93
 858 017a 39020000 		.4byte	0x239
 859 017e 10       		.byte	0x10
 860 017f 06       		.uleb128 0x6
 861 0180 14050000 		.4byte	.LASF32
 862 0184 06       		.byte	0x6
 863 0185 94       		.byte	0x94
 864 0186 39020000 		.4byte	0x239
 865 018a 14       		.byte	0x14
 866 018b 06       		.uleb128 0x6
 867 018c DA090000 		.4byte	.LASF33
 868 0190 06       		.byte	0x6
 869 0191 9B       		.byte	0x9b
 870 0192 190A0000 		.4byte	0xa19
 871 0196 18       		.byte	0x18
 872 0197 06       		.uleb128 0x6
 873 0198 54090000 		.4byte	.LASF34
 874 019c 06       		.byte	0x6
 875 019d A4       		.byte	0xa4
 876 019e 2B0A0000 		.4byte	0xa2b
 877 01a2 1C       		.byte	0x1c
 878 01a3 06       		.uleb128 0x6
 879 01a4 C8000000 		.4byte	.LASF35
 880 01a8 06       		.byte	0x6
 881 01a9 A9       		.byte	0xa9
 882 01aa EB000000 		.4byte	0xeb
 883 01ae 20       		.byte	0x20
 884 01af 06       		.uleb128 0x6
 885 01b0 2A030000 		.4byte	.LASF36
 886 01b4 06       		.byte	0x6
 887 01b5 AD       		.byte	0xad
 888 01b6 E0000000 		.4byte	0xe0
 889 01ba 21       		.byte	0x21
 890 01bb 06       		.uleb128 0x6
 891 01bc 19090000 		.4byte	.LASF37
 892 01c0 06       		.byte	0x6
 893 01c1 B2       		.byte	0xb2
 894 01c2 F6000000 		.4byte	0xf6
 895 01c6 22       		.byte	0x22
 896 01c7 08       		.uleb128 0x8
 897 01c8 7500     		.ascii	"u\000"
 898 01ca 06       		.byte	0x6
 899 01cb 0301     		.2byte	0x103
 900 01cd 4F090000 		.4byte	0x94f
 901 01d1 24       		.byte	0x24
 902 01d2 09       		.uleb128 0x9
 903 01d3 630A0000 		.4byte	.LASF38
 904 01d7 06       		.byte	0x6
 905 01d8 0801     		.2byte	0x108
 906 01da 3F020000 		.4byte	0x23f
 907 01de 28       		.byte	0x28
 908 01df 09       		.uleb128 0x9
 909 01e0 090A0000 		.4byte	.LASF39
 910 01e4 06       		.byte	0x6
 911 01e5 0E01     		.2byte	0x10e
 912 01e7 63020000 		.4byte	0x263
ARM GAS  /tmp/ccJGNaHf.s 			page 17


 913 01eb 2C       		.byte	0x2c
 914 01ec 09       		.uleb128 0x9
 915 01ed 32090000 		.4byte	.LASF40
 916 01f1 06       		.byte	0x6
 917 01f2 1401     		.2byte	0x114
 918 01f4 17010000 		.4byte	0x117
 919 01f8 34       		.byte	0x34
 920 01f9 09       		.uleb128 0x9
 921 01fa 8D050000 		.4byte	.LASF41
 922 01fe 06       		.byte	0x6
 923 01ff 1B01     		.2byte	0x11b
 924 0201 130A0000 		.4byte	0xa13
 925 0205 38       		.byte	0x38
 926 0206 09       		.uleb128 0x9
 927 0207 23050000 		.4byte	.LASF42
 928 020b 06       		.byte	0x6
 929 020c 1F01     		.2byte	0x11f
 930 020e 01010000 		.4byte	0x101
 931 0212 3C       		.byte	0x3c
 932 0213 09       		.uleb128 0x9
 933 0214 45030000 		.4byte	.LASF43
 934 0218 06       		.byte	0x6
 935 0219 2601     		.2byte	0x126
 936 021b 16030000 		.4byte	0x316
 937 021f 40       		.byte	0x40
 938 0220 09       		.uleb128 0x9
 939 0221 CE000000 		.4byte	.LASF44
 940 0225 06       		.byte	0x6
 941 0226 2C01     		.2byte	0x12c
 942 0228 00090000 		.4byte	0x900
 943 022c 48       		.byte	0x48
 944 022d 00       		.byte	0
 945 022e 04       		.uleb128 0x4
 946 022f 45070000 		.4byte	.LASF45
 947 0233 05       		.byte	0x5
 948 0234 39       		.byte	0x39
 949 0235 39020000 		.4byte	0x239
 950 0239 0A       		.uleb128 0xa
 951 023a 04       		.byte	0x4
 952 023b 38010000 		.4byte	0x138
 953 023f 04       		.uleb128 0x4
 954 0240 9C0A0000 		.4byte	.LASF46
 955 0244 05       		.byte	0x5
 956 0245 3E       		.byte	0x3e
 957 0246 4A020000 		.4byte	0x24a
 958 024a 05       		.uleb128 0x5
 959 024b 40050000 		.4byte	.LASF48
 960 024f 04       		.byte	0x4
 961 0250 06       		.byte	0x6
 962 0251 7C       		.byte	0x7c
 963 0252 63020000 		.4byte	0x263
 964 0256 06       		.uleb128 0x6
 965 0257 870B0000 		.4byte	.LASF49
 966 025b 06       		.byte	0x6
 967 025c 7D       		.byte	0x7d
 968 025d 39020000 		.4byte	0x239
 969 0261 00       		.byte	0
ARM GAS  /tmp/ccJGNaHf.s 			page 18


 970 0262 00       		.byte	0
 971 0263 04       		.uleb128 0x4
 972 0264 C4010000 		.4byte	.LASF50
 973 0268 05       		.byte	0x5
 974 0269 45       		.byte	0x45
 975 026a 6E020000 		.4byte	0x26e
 976 026e 05       		.uleb128 0x5
 977 026f E1080000 		.4byte	.LASF51
 978 0273 08       		.byte	0x8
 979 0274 06       		.byte	0x6
 980 0275 83       		.byte	0x83
 981 0276 93020000 		.4byte	0x293
 982 027a 06       		.uleb128 0x6
 983 027b 870B0000 		.4byte	.LASF49
 984 027f 06       		.byte	0x6
 985 0280 84       		.byte	0x84
 986 0281 39020000 		.4byte	0x239
 987 0285 00       		.byte	0
 988 0286 06       		.uleb128 0x6
 989 0287 8C0B0000 		.4byte	.LASF52
 990 028b 06       		.byte	0x6
 991 028c 85       		.byte	0x85
 992 028d 39020000 		.4byte	0x239
 993 0291 04       		.byte	0x4
 994 0292 00       		.byte	0
 995 0293 04       		.uleb128 0x4
 996 0294 07050000 		.4byte	.LASF53
 997 0298 05       		.byte	0x5
 998 0299 4C       		.byte	0x4c
 999 029a 9E020000 		.4byte	0x29e
 1000 029e 0B       		.uleb128 0xb
 1001 029f 8C030000 		.4byte	.LASF54
 1002 02a3 1C       		.byte	0x1c
 1003 02a4 06       		.byte	0x6
 1004 02a5 5E01     		.2byte	0x15e
 1005 02a7 FA020000 		.4byte	0x2fa
 1006 02ab 09       		.uleb128 0x9
 1007 02ac 1E090000 		.4byte	.LASF29
 1008 02b0 06       		.byte	0x6
 1009 02b1 5F01     		.2byte	0x15f
 1010 02b3 63020000 		.4byte	0x263
 1011 02b7 00       		.byte	0
 1012 02b8 09       		.uleb128 0x9
 1013 02b9 22010000 		.4byte	.LASF30
 1014 02bd 06       		.byte	0x6
 1015 02be 6001     		.2byte	0x160
 1016 02c0 01010000 		.4byte	0x101
 1017 02c4 08       		.byte	0x8
 1018 02c5 08       		.uleb128 0x8
 1019 02c6 63747800 		.ascii	"ctx\000"
 1020 02ca 06       		.byte	0x6
 1021 02cb 6201     		.2byte	0x162
 1022 02cd 33070000 		.4byte	0x733
 1023 02d1 0C       		.byte	0xc
 1024 02d2 09       		.uleb128 0x9
 1025 02d3 B50A0000 		.4byte	.LASF31
 1026 02d7 06       		.byte	0x6
ARM GAS  /tmp/ccJGNaHf.s 			page 19


 1027 02d8 6501     		.2byte	0x165
 1028 02da 39020000 		.4byte	0x239
 1029 02de 10       		.byte	0x10
 1030 02df 09       		.uleb128 0x9
 1031 02e0 14050000 		.4byte	.LASF32
 1032 02e4 06       		.byte	0x6
 1033 02e5 6601     		.2byte	0x166
 1034 02e7 39020000 		.4byte	0x239
 1035 02eb 14       		.byte	0x14
 1036 02ec 09       		.uleb128 0x9
 1037 02ed 86060000 		.4byte	.LASF55
 1038 02f1 06       		.byte	0x6
 1039 02f2 6901     		.2byte	0x169
 1040 02f4 39020000 		.4byte	0x239
 1041 02f8 18       		.byte	0x18
 1042 02f9 00       		.byte	0
 1043 02fa 04       		.uleb128 0x4
 1044 02fb 77000000 		.4byte	.LASF56
 1045 02ff 05       		.byte	0x5
 1046 0300 51       		.byte	0x51
 1047 0301 05030000 		.4byte	0x305
 1048 0305 0A       		.uleb128 0xa
 1049 0306 04       		.byte	0x4
 1050 0307 0B030000 		.4byte	0x30b
 1051 030b 0C       		.uleb128 0xc
 1052 030c 16030000 		.4byte	0x316
 1053 0310 0D       		.uleb128 0xd
 1054 0311 16030000 		.4byte	0x316
 1055 0315 00       		.byte	0
 1056 0316 0E       		.uleb128 0xe
 1057 0317 04       		.byte	0x4
 1058 0318 04       		.uleb128 0x4
 1059 0319 F7040000 		.4byte	.LASF57
 1060 031d 05       		.byte	0x5
 1061 031e 56       		.byte	0x56
 1062 031f 23030000 		.4byte	0x323
 1063 0323 0B       		.uleb128 0xb
 1064 0324 68080000 		.4byte	.LASF58
 1065 0328 14       		.byte	0x14
 1066 0329 06       		.byte	0x6
 1067 032a 3901     		.2byte	0x139
 1068 032c 72030000 		.4byte	0x372
 1069 0330 09       		.uleb128 0x9
 1070 0331 870B0000 		.4byte	.LASF49
 1071 0335 06       		.byte	0x6
 1072 0336 3A01     		.2byte	0x13a
 1073 0338 310A0000 		.4byte	0xa31
 1074 033c 00       		.byte	0
 1075 033d 09       		.uleb128 0x9
 1076 033e 8C0B0000 		.4byte	.LASF52
 1077 0342 06       		.byte	0x6
 1078 0343 3B01     		.2byte	0x13b
 1079 0345 310A0000 		.4byte	0xa31
 1080 0349 04       		.byte	0x4
 1081 034a 09       		.uleb128 0x9
 1082 034b 13090000 		.4byte	.LASF59
 1083 034f 06       		.byte	0x6
ARM GAS  /tmp/ccJGNaHf.s 			page 20


 1084 0350 3C01     		.2byte	0x13c
 1085 0352 56040000 		.4byte	0x456
 1086 0356 08       		.byte	0x8
 1087 0357 09       		.uleb128 0x9
 1088 0358 FB090000 		.4byte	.LASF60
 1089 035c 06       		.byte	0x6
 1090 035d 3D01     		.2byte	0x13d
 1091 035f FA020000 		.4byte	0x2fa
 1092 0363 0C       		.byte	0xc
 1093 0364 08       		.uleb128 0x8
 1094 0365 70617200 		.ascii	"par\000"
 1095 0369 06       		.byte	0x6
 1096 036a 3F01     		.2byte	0x13f
 1097 036c 16030000 		.4byte	0x316
 1098 0370 10       		.byte	0x10
 1099 0371 00       		.byte	0
 1100 0372 04       		.uleb128 0x4
 1101 0373 C6040000 		.4byte	.LASF61
 1102 0377 05       		.byte	0x5
 1103 0378 5B       		.byte	0x5b
 1104 0379 7D030000 		.4byte	0x37d
 1105 037d 0B       		.uleb128 0xb
 1106 037e 80000000 		.4byte	.LASF62
 1107 0382 10       		.byte	0x10
 1108 0383 06       		.byte	0x6
 1109 0384 4901     		.2byte	0x149
 1110 0386 BF030000 		.4byte	0x3bf
 1111 038a 09       		.uleb128 0x9
 1112 038b 870B0000 		.4byte	.LASF49
 1113 038f 06       		.byte	0x6
 1114 0390 4A01     		.2byte	0x14a
 1115 0392 310A0000 		.4byte	0xa31
 1116 0396 00       		.byte	0
 1117 0397 09       		.uleb128 0x9
 1118 0398 8C0B0000 		.4byte	.LASF52
 1119 039c 06       		.byte	0x6
 1120 039d 4C01     		.2byte	0x14c
 1121 039f 310A0000 		.4byte	0xa31
 1122 03a3 04       		.byte	0x4
 1123 03a4 09       		.uleb128 0x9
 1124 03a5 13090000 		.4byte	.LASF59
 1125 03a9 06       		.byte	0x6
 1126 03aa 4E01     		.2byte	0x14e
 1127 03ac 56040000 		.4byte	0x456
 1128 03b0 08       		.byte	0x8
 1129 03b1 09       		.uleb128 0x9
 1130 03b2 81020000 		.4byte	.LASF63
 1131 03b6 06       		.byte	0x6
 1132 03b7 5601     		.2byte	0x156
 1133 03b9 4B040000 		.4byte	0x44b
 1134 03bd 0C       		.byte	0xc
 1135 03be 00       		.byte	0
 1136 03bf 04       		.uleb128 0x4
 1137 03c0 AB020000 		.4byte	.LASF64
 1138 03c4 05       		.byte	0x5
 1139 03c5 60       		.byte	0x60
 1140 03c6 CA030000 		.4byte	0x3ca
ARM GAS  /tmp/ccJGNaHf.s 			page 21


 1141 03ca 0B       		.uleb128 0xb
 1142 03cb 240A0000 		.4byte	.LASF65
 1143 03cf 04       		.byte	0x4
 1144 03d0 06       		.byte	0x6
 1145 03d1 7001     		.2byte	0x170
 1146 03d3 E5030000 		.4byte	0x3e5
 1147 03d7 09       		.uleb128 0x9
 1148 03d8 94020000 		.4byte	.LASF66
 1149 03dc 06       		.byte	0x6
 1150 03dd 7801     		.2byte	0x178
 1151 03df 370A0000 		.4byte	0xa37
 1152 03e3 00       		.byte	0
 1153 03e4 00       		.byte	0
 1154 03e5 04       		.uleb128 0x4
 1155 03e6 2C0B0000 		.4byte	.LASF67
 1156 03ea 05       		.byte	0x5
 1157 03eb 65       		.byte	0x65
 1158 03ec F0030000 		.4byte	0x3f0
 1159 03f0 0B       		.uleb128 0xb
 1160 03f1 AB0A0000 		.4byte	.LASF68
 1161 03f5 D0       		.byte	0xd0
 1162 03f6 06       		.byte	0x6
 1163 03f7 9001     		.2byte	0x190
 1164 03f9 4B040000 		.4byte	0x44b
 1165 03fd 09       		.uleb128 0x9
 1166 03fe 6F090000 		.4byte	.LASF69
 1167 0402 06       		.byte	0x6
 1168 0403 9401     		.2byte	0x194
 1169 0405 93020000 		.4byte	0x293
 1170 0409 00       		.byte	0
 1171 040a 09       		.uleb128 0x9
 1172 040b 5C0A0000 		.4byte	.LASF70
 1173 040f 06       		.byte	0x6
 1174 0410 9801     		.2byte	0x198
 1175 0412 72030000 		.4byte	0x372
 1176 0416 1C       		.byte	0x1c
 1177 0417 08       		.uleb128 0x8
 1178 0418 64626700 		.ascii	"dbg\000"
 1179 041c 06       		.byte	0x6
 1180 041d 9C01     		.2byte	0x19c
 1181 041f BF030000 		.4byte	0x3bf
 1182 0423 2C       		.byte	0x2c
 1183 0424 09       		.uleb128 0x9
 1184 0425 44090000 		.4byte	.LASF71
 1185 0429 06       		.byte	0x6
 1186 042a A001     		.2byte	0x1a0
 1187 042c 38010000 		.4byte	0x138
 1188 0430 30       		.byte	0x30
 1189 0431 08       		.uleb128 0x8
 1190 0432 746D00   		.ascii	"tm\000"
 1191 0435 06       		.byte	0x6
 1192 0436 A501     		.2byte	0x1a5
 1193 0438 B2080000 		.4byte	0x8b2
 1194 043c 90       		.byte	0x90
 1195 043d 09       		.uleb128 0x9
 1196 043e 9B080000 		.4byte	.LASF72
 1197 0442 06       		.byte	0x6
ARM GAS  /tmp/ccJGNaHf.s 			page 22


 1198 0443 AB01     		.2byte	0x1ab
 1199 0445 44090000 		.4byte	0x944
 1200 0449 98       		.byte	0x98
 1201 044a 00       		.byte	0
 1202 044b 04       		.uleb128 0x4
 1203 044c 4E000000 		.4byte	.LASF73
 1204 0450 07       		.byte	0x7
 1205 0451 6D       		.byte	0x6d
 1206 0452 B4000000 		.4byte	0xb4
 1207 0456 04       		.uleb128 0x4
 1208 0457 C7050000 		.4byte	.LASF74
 1209 045b 07       		.byte	0x7
 1210 045c 79       		.byte	0x79
 1211 045d B4000000 		.4byte	0xb4
 1212 0461 0F       		.uleb128 0xf
 1213 0462 01       		.byte	0x1
 1214 0463 41000000 		.4byte	0x41
 1215 0467 08       		.byte	0x8
 1216 0468 55       		.byte	0x55
 1217 0469 AE060000 		.4byte	0x6ae
 1218 046d 10       		.uleb128 0x10
 1219 046e 2E040000 		.4byte	.LASF75
 1220 0472 72       		.sleb128 -14
 1221 0473 10       		.uleb128 0x10
 1222 0474 72040000 		.4byte	.LASF76
 1223 0478 74       		.sleb128 -12
 1224 0479 10       		.uleb128 0x10
 1225 047a 56050000 		.4byte	.LASF77
 1226 047e 75       		.sleb128 -11
 1227 047f 10       		.uleb128 0x10
 1228 0480 E2020000 		.4byte	.LASF78
 1229 0484 76       		.sleb128 -10
 1230 0485 10       		.uleb128 0x10
 1231 0486 DF050000 		.4byte	.LASF79
 1232 048a 7B       		.sleb128 -5
 1233 048b 10       		.uleb128 0x10
 1234 048c A1090000 		.4byte	.LASF80
 1235 0490 7C       		.sleb128 -4
 1236 0491 10       		.uleb128 0x10
 1237 0492 4C0B0000 		.4byte	.LASF81
 1238 0496 7E       		.sleb128 -2
 1239 0497 10       		.uleb128 0x10
 1240 0498 FE010000 		.4byte	.LASF82
 1241 049c 7F       		.sleb128 -1
 1242 049d 11       		.uleb128 0x11
 1243 049e 4D040000 		.4byte	.LASF83
 1244 04a2 00       		.byte	0
 1245 04a3 11       		.uleb128 0x11
 1246 04a4 5B090000 		.4byte	.LASF84
 1247 04a8 01       		.byte	0x1
 1248 04a9 11       		.uleb128 0x11
 1249 04aa 9E040000 		.4byte	.LASF85
 1250 04ae 02       		.byte	0x2
 1251 04af 11       		.uleb128 0x11
 1252 04b0 00000000 		.4byte	.LASF86
 1253 04b4 03       		.byte	0x3
 1254 04b5 11       		.uleb128 0x11
ARM GAS  /tmp/ccJGNaHf.s 			page 23


 1255 04b6 B3000000 		.4byte	.LASF87
 1256 04ba 04       		.byte	0x4
 1257 04bb 11       		.uleb128 0x11
 1258 04bc F2090000 		.4byte	.LASF88
 1259 04c0 05       		.byte	0x5
 1260 04c1 11       		.uleb128 0x11
 1261 04c2 64090000 		.4byte	.LASF89
 1262 04c6 06       		.byte	0x6
 1263 04c7 11       		.uleb128 0x11
 1264 04c8 B5030000 		.4byte	.LASF90
 1265 04cc 07       		.byte	0x7
 1266 04cd 11       		.uleb128 0x11
 1267 04ce 0E000000 		.4byte	.LASF91
 1268 04d2 08       		.byte	0x8
 1269 04d3 11       		.uleb128 0x11
 1270 04d4 410B0000 		.4byte	.LASF92
 1271 04d8 09       		.byte	0x9
 1272 04d9 11       		.uleb128 0x11
 1273 04da F70A0000 		.4byte	.LASF93
 1274 04de 0A       		.byte	0xa
 1275 04df 11       		.uleb128 0x11
 1276 04e0 50080000 		.4byte	.LASF94
 1277 04e4 0B       		.byte	0xb
 1278 04e5 11       		.uleb128 0x11
 1279 04e6 95060000 		.4byte	.LASF95
 1280 04ea 0C       		.byte	0xc
 1281 04eb 11       		.uleb128 0x11
 1282 04ec 4F020000 		.4byte	.LASF96
 1283 04f0 0D       		.byte	0xd
 1284 04f1 11       		.uleb128 0x11
 1285 04f2 120A0000 		.4byte	.LASF97
 1286 04f6 0E       		.byte	0xe
 1287 04f7 11       		.uleb128 0x11
 1288 04f8 7D090000 		.4byte	.LASF98
 1289 04fc 0F       		.byte	0xf
 1290 04fd 11       		.uleb128 0x11
 1291 04fe CD030000 		.4byte	.LASF99
 1292 0502 10       		.byte	0x10
 1293 0503 11       		.uleb128 0x11
 1294 0504 19000000 		.4byte	.LASF100
 1295 0508 11       		.byte	0x11
 1296 0509 11       		.uleb128 0x11
 1297 050a 3B090000 		.4byte	.LASF101
 1298 050e 12       		.byte	0x12
 1299 050f 11       		.uleb128 0x11
 1300 0510 C0030000 		.4byte	.LASF102
 1301 0514 13       		.byte	0x13
 1302 0515 11       		.uleb128 0x11
 1303 0516 FE020000 		.4byte	.LASF103
 1304 051a 14       		.byte	0x14
 1305 051b 11       		.uleb128 0x11
 1306 051c D50A0000 		.4byte	.LASF104
 1307 0520 15       		.byte	0x15
 1308 0521 11       		.uleb128 0x11
 1309 0522 B8040000 		.4byte	.LASF105
 1310 0526 16       		.byte	0x16
 1311 0527 11       		.uleb128 0x11
ARM GAS  /tmp/ccJGNaHf.s 			page 24


 1312 0528 E30A0000 		.4byte	.LASF106
 1313 052c 17       		.byte	0x17
 1314 052d 11       		.uleb128 0x11
 1315 052e 6F050000 		.4byte	.LASF107
 1316 0532 18       		.byte	0x18
 1317 0533 11       		.uleb128 0x11
 1318 0534 3C0A0000 		.4byte	.LASF108
 1319 0538 19       		.byte	0x19
 1320 0539 11       		.uleb128 0x11
 1321 053a D4010000 		.4byte	.LASF109
 1322 053e 1A       		.byte	0x1a
 1323 053f 11       		.uleb128 0x11
 1324 0540 9A030000 		.4byte	.LASF110
 1325 0544 1B       		.byte	0x1b
 1326 0545 11       		.uleb128 0x11
 1327 0546 D4000000 		.4byte	.LASF111
 1328 054a 1C       		.byte	0x1c
 1329 054b 11       		.uleb128 0x11
 1330 054c F2080000 		.4byte	.LASF112
 1331 0550 1D       		.byte	0x1d
 1332 0551 11       		.uleb128 0x11
 1333 0552 4B030000 		.4byte	.LASF113
 1334 0556 1E       		.byte	0x1e
 1335 0557 11       		.uleb128 0x11
 1336 0558 78030000 		.4byte	.LASF114
 1337 055c 1F       		.byte	0x1f
 1338 055d 11       		.uleb128 0x11
 1339 055e 9E020000 		.4byte	.LASF115
 1340 0562 20       		.byte	0x20
 1341 0563 11       		.uleb128 0x11
 1342 0564 57060000 		.4byte	.LASF116
 1343 0568 21       		.byte	0x21
 1344 0569 11       		.uleb128 0x11
 1345 056a 33050000 		.4byte	.LASF117
 1346 056e 22       		.byte	0x22
 1347 056f 11       		.uleb128 0x11
 1348 0570 D5050000 		.4byte	.LASF118
 1349 0574 23       		.byte	0x23
 1350 0575 11       		.uleb128 0x11
 1351 0576 65010000 		.4byte	.LASF119
 1352 057a 24       		.byte	0x24
 1353 057b 11       		.uleb128 0x11
 1354 057c FC080000 		.4byte	.LASF120
 1355 0580 25       		.byte	0x25
 1356 0581 11       		.uleb128 0x11
 1357 0582 55030000 		.4byte	.LASF121
 1358 0586 26       		.byte	0x26
 1359 0587 11       		.uleb128 0x11
 1360 0588 0B020000 		.4byte	.LASF122
 1361 058c 27       		.byte	0x27
 1362 058d 11       		.uleb128 0x11
 1363 058e B5080000 		.4byte	.LASF123
 1364 0592 28       		.byte	0x28
 1365 0593 11       		.uleb128 0x11
 1366 0594 79080000 		.4byte	.LASF124
 1367 0598 29       		.byte	0x29
 1368 0599 11       		.uleb128 0x11
ARM GAS  /tmp/ccJGNaHf.s 			page 25


 1369 059a FF050000 		.4byte	.LASF125
 1370 059e 2A       		.byte	0x2a
 1371 059f 11       		.uleb128 0x11
 1372 05a0 6F010000 		.4byte	.LASF126
 1373 05a4 2B       		.byte	0x2b
 1374 05a5 11       		.uleb128 0x11
 1375 05a6 2B000000 		.4byte	.LASF127
 1376 05aa 2C       		.byte	0x2c
 1377 05ab 11       		.uleb128 0x11
 1378 05ac DF030000 		.4byte	.LASF128
 1379 05b0 2D       		.byte	0x2d
 1380 05b1 11       		.uleb128 0x11
 1381 05b2 150B0000 		.4byte	.LASF129
 1382 05b6 2E       		.byte	0x2e
 1383 05b7 11       		.uleb128 0x11
 1384 05b8 6B0B0000 		.4byte	.LASF130
 1385 05bc 2F       		.byte	0x2f
 1386 05bd 11       		.uleb128 0x11
 1387 05be 92080000 		.4byte	.LASF131
 1388 05c2 30       		.byte	0x30
 1389 05c3 11       		.uleb128 0x11
 1390 05c4 220B0000 		.4byte	.LASF132
 1391 05c8 31       		.byte	0x31
 1392 05c9 11       		.uleb128 0x11
 1393 05ca D8020000 		.4byte	.LASF133
 1394 05ce 32       		.byte	0x32
 1395 05cf 11       		.uleb128 0x11
 1396 05d0 A9000000 		.4byte	.LASF134
 1397 05d4 33       		.byte	0x33
 1398 05d5 11       		.uleb128 0x11
 1399 05d6 F4050000 		.4byte	.LASF135
 1400 05da 34       		.byte	0x34
 1401 05db 11       		.uleb128 0x11
 1402 05dc 64050000 		.4byte	.LASF136
 1403 05e0 35       		.byte	0x35
 1404 05e1 11       		.uleb128 0x11
 1405 05e2 910B0000 		.4byte	.LASF137
 1406 05e6 36       		.byte	0x36
 1407 05e7 11       		.uleb128 0x11
 1408 05e8 95050000 		.4byte	.LASF138
 1409 05ec 37       		.byte	0x37
 1410 05ed 11       		.uleb128 0x11
 1411 05ee DC040000 		.4byte	.LASF139
 1412 05f2 38       		.byte	0x38
 1413 05f3 11       		.uleb128 0x11
 1414 05f4 97000000 		.4byte	.LASF140
 1415 05f8 39       		.byte	0x39
 1416 05f9 11       		.uleb128 0x11
 1417 05fa 9F0B0000 		.4byte	.LASF141
 1418 05fe 3A       		.byte	0x3a
 1419 05ff 11       		.uleb128 0x11
 1420 0600 A7060000 		.4byte	.LASF142
 1421 0604 3B       		.byte	0x3b
 1422 0605 11       		.uleb128 0x11
 1423 0606 6F020000 		.4byte	.LASF143
 1424 060a 3C       		.byte	0x3c
 1425 060b 11       		.uleb128 0x11
ARM GAS  /tmp/ccJGNaHf.s 			page 26


 1426 060c D1090000 		.4byte	.LASF144
 1427 0610 3D       		.byte	0x3d
 1428 0611 11       		.uleb128 0x11
 1429 0612 AD050000 		.4byte	.LASF145
 1430 0616 3E       		.byte	0x3e
 1431 0617 11       		.uleb128 0x11
 1432 0618 B9060000 		.4byte	.LASF146
 1433 061c 3F       		.byte	0x3f
 1434 061d 11       		.uleb128 0x11
 1435 061e 27010000 		.4byte	.LASF147
 1436 0622 40       		.byte	0x40
 1437 0623 11       		.uleb128 0x11
 1438 0624 24090000 		.4byte	.LASF148
 1439 0628 41       		.byte	0x41
 1440 0629 11       		.uleb128 0x11
 1441 062a BA020000 		.4byte	.LASF149
 1442 062e 42       		.byte	0x42
 1443 062f 11       		.uleb128 0x11
 1444 0630 09040000 		.4byte	.LASF150
 1445 0634 43       		.byte	0x43
 1446 0635 11       		.uleb128 0x11
 1447 0636 A0010000 		.4byte	.LASF151
 1448 063a 44       		.byte	0x44
 1449 063b 11       		.uleb128 0x11
 1450 063c 8F090000 		.4byte	.LASF152
 1451 0640 45       		.byte	0x45
 1452 0641 11       		.uleb128 0x11
 1453 0642 F7030000 		.4byte	.LASF153
 1454 0646 46       		.byte	0x46
 1455 0647 11       		.uleb128 0x11
 1456 0648 35010000 		.4byte	.LASF154
 1457 064c 47       		.byte	0x47
 1458 064d 11       		.uleb128 0x11
 1459 064e B3090000 		.4byte	.LASF155
 1460 0652 48       		.byte	0x48
 1461 0653 11       		.uleb128 0x11
 1462 0654 A8080000 		.4byte	.LASF156
 1463 0658 49       		.byte	0x49
 1464 0659 11       		.uleb128 0x11
 1465 065a 7B0A0000 		.4byte	.LASF157
 1466 065e 4A       		.byte	0x4a
 1467 065f 11       		.uleb128 0x11
 1468 0660 580B0000 		.4byte	.LASF158
 1469 0664 4B       		.byte	0x4b
 1470 0665 11       		.uleb128 0x11
 1471 0666 54010000 		.4byte	.LASF159
 1472 066a 4C       		.byte	0x4c
 1473 066b 11       		.uleb128 0x11
 1474 066c BB050000 		.4byte	.LASF160
 1475 0670 4D       		.byte	0x4d
 1476 0671 11       		.uleb128 0x11
 1477 0672 BE000000 		.4byte	.LASF161
 1478 0676 4E       		.byte	0x4e
 1479 0677 11       		.uleb128 0x11
 1480 0678 A7030000 		.4byte	.LASF162
 1481 067c 50       		.byte	0x50
 1482 067d 11       		.uleb128 0x11
ARM GAS  /tmp/ccJGNaHf.s 			page 27


 1483 067e EB050000 		.4byte	.LASF163
 1484 0682 51       		.byte	0x51
 1485 0683 11       		.uleb128 0x11
 1486 0684 08090000 		.4byte	.LASF164
 1487 0688 52       		.byte	0x52
 1488 0689 11       		.uleb128 0x11
 1489 068a 61030000 		.4byte	.LASF165
 1490 068e 53       		.byte	0x53
 1491 068f 11       		.uleb128 0x11
 1492 0690 88080000 		.4byte	.LASF166
 1493 0694 54       		.byte	0x54
 1494 0695 11       		.uleb128 0x11
 1495 0696 15030000 		.4byte	.LASF167
 1496 069a 55       		.byte	0x55
 1497 069b 11       		.uleb128 0x11
 1498 069c 8A020000 		.4byte	.LASF168
 1499 06a0 56       		.byte	0x56
 1500 06a1 11       		.uleb128 0x11
 1501 06a2 3B030000 		.4byte	.LASF169
 1502 06a6 57       		.byte	0x57
 1503 06a7 11       		.uleb128 0x11
 1504 06a8 44060000 		.4byte	.LASF170
 1505 06ac 5A       		.byte	0x5a
 1506 06ad 00       		.byte	0
 1507 06ae 03       		.uleb128 0x3
 1508 06af 04       		.byte	0x4
 1509 06b0 07       		.byte	0x7
 1510 06b1 3E000000 		.4byte	.LASF171
 1511 06b5 12       		.uleb128 0x12
 1512 06b6 B4000000 		.4byte	0xb4
 1513 06ba 13       		.uleb128 0x13
 1514 06bb 18       		.byte	0x18
 1515 06bc 08       		.byte	0x8
 1516 06bd F101     		.2byte	0x1f1
 1517 06bf 11070000 		.4byte	0x711
 1518 06c3 08       		.uleb128 0x8
 1519 06c4 494D5200 		.ascii	"IMR\000"
 1520 06c8 08       		.byte	0x8
 1521 06c9 F301     		.2byte	0x1f3
 1522 06cb B5060000 		.4byte	0x6b5
 1523 06cf 00       		.byte	0
 1524 06d0 08       		.uleb128 0x8
 1525 06d1 454D5200 		.ascii	"EMR\000"
 1526 06d5 08       		.byte	0x8
 1527 06d6 F401     		.2byte	0x1f4
 1528 06d8 B5060000 		.4byte	0x6b5
 1529 06dc 04       		.byte	0x4
 1530 06dd 09       		.uleb128 0x9
 1531 06de EC010000 		.4byte	.LASF172
 1532 06e2 08       		.byte	0x8
 1533 06e3 F501     		.2byte	0x1f5
 1534 06e5 B5060000 		.4byte	0x6b5
 1535 06e9 08       		.byte	0x8
 1536 06ea 09       		.uleb128 0x9
 1537 06eb 1D010000 		.4byte	.LASF173
 1538 06ef 08       		.byte	0x8
 1539 06f0 F601     		.2byte	0x1f6
ARM GAS  /tmp/ccJGNaHf.s 			page 28


 1540 06f2 B5060000 		.4byte	0x6b5
 1541 06f6 0C       		.byte	0xc
 1542 06f7 09       		.uleb128 0x9
 1543 06f8 62080000 		.4byte	.LASF174
 1544 06fc 08       		.byte	0x8
 1545 06fd F701     		.2byte	0x1f7
 1546 06ff B5060000 		.4byte	0x6b5
 1547 0703 10       		.byte	0x10
 1548 0704 08       		.uleb128 0x8
 1549 0705 505200   		.ascii	"PR\000"
 1550 0708 08       		.byte	0x8
 1551 0709 F801     		.2byte	0x1f8
 1552 070b B5060000 		.4byte	0x6b5
 1553 070f 14       		.byte	0x14
 1554 0710 00       		.byte	0
 1555 0711 14       		.uleb128 0x14
 1556 0712 F1010000 		.4byte	.LASF175
 1557 0716 08       		.byte	0x8
 1558 0717 F901     		.2byte	0x1f9
 1559 0719 BA060000 		.4byte	0x6ba
 1560 071d 04       		.uleb128 0x4
 1561 071e C6060000 		.4byte	.LASF176
 1562 0722 09       		.byte	0x9
 1563 0723 65       		.byte	0x65
 1564 0724 16030000 		.4byte	0x316
 1565 0728 04       		.uleb128 0x4
 1566 0729 30030000 		.4byte	.LASF177
 1567 072d 09       		.byte	0x9
 1568 072e 6D       		.byte	0x6d
 1569 072f BF000000 		.4byte	0xbf
 1570 0733 05       		.uleb128 0x5
 1571 0734 8F0A0000 		.4byte	.LASF178
 1572 0738 04       		.byte	0x4
 1573 0739 09       		.byte	0x9
 1574 073a 89       		.byte	0x89
 1575 073b 4B070000 		.4byte	0x74b
 1576 073f 07       		.uleb128 0x7
 1577 0740 737000   		.ascii	"sp\000"
 1578 0743 09       		.byte	0x9
 1579 0744 8A       		.byte	0x8a
 1580 0745 97080000 		.4byte	0x897
 1581 0749 00       		.byte	0
 1582 074a 00       		.byte	0
 1583 074b 0B       		.uleb128 0xb
 1584 074c 60070000 		.4byte	.LASF179
 1585 0750 64       		.byte	0x64
 1586 0751 0A       		.byte	0xa
 1587 0752 5901     		.2byte	0x159
 1588 0754 97080000 		.4byte	0x897
 1589 0758 08       		.uleb128 0x8
 1590 0759 73313600 		.ascii	"s16\000"
 1591 075d 0A       		.byte	0xa
 1592 075e 5B01     		.2byte	0x15b
 1593 0760 1D070000 		.4byte	0x71d
 1594 0764 00       		.byte	0
 1595 0765 08       		.uleb128 0x8
 1596 0766 73313700 		.ascii	"s17\000"
ARM GAS  /tmp/ccJGNaHf.s 			page 29


 1597 076a 0A       		.byte	0xa
 1598 076b 5C01     		.2byte	0x15c
 1599 076d 1D070000 		.4byte	0x71d
 1600 0771 04       		.byte	0x4
 1601 0772 08       		.uleb128 0x8
 1602 0773 73313800 		.ascii	"s18\000"
 1603 0777 0A       		.byte	0xa
 1604 0778 5D01     		.2byte	0x15d
 1605 077a 1D070000 		.4byte	0x71d
 1606 077e 08       		.byte	0x8
 1607 077f 08       		.uleb128 0x8
 1608 0780 73313900 		.ascii	"s19\000"
 1609 0784 0A       		.byte	0xa
 1610 0785 5E01     		.2byte	0x15e
 1611 0787 1D070000 		.4byte	0x71d
 1612 078b 0C       		.byte	0xc
 1613 078c 08       		.uleb128 0x8
 1614 078d 73323000 		.ascii	"s20\000"
 1615 0791 0A       		.byte	0xa
 1616 0792 5F01     		.2byte	0x15f
 1617 0794 1D070000 		.4byte	0x71d
 1618 0798 10       		.byte	0x10
 1619 0799 08       		.uleb128 0x8
 1620 079a 73323100 		.ascii	"s21\000"
 1621 079e 0A       		.byte	0xa
 1622 079f 6001     		.2byte	0x160
 1623 07a1 1D070000 		.4byte	0x71d
 1624 07a5 14       		.byte	0x14
 1625 07a6 08       		.uleb128 0x8
 1626 07a7 73323200 		.ascii	"s22\000"
 1627 07ab 0A       		.byte	0xa
 1628 07ac 6101     		.2byte	0x161
 1629 07ae 1D070000 		.4byte	0x71d
 1630 07b2 18       		.byte	0x18
 1631 07b3 08       		.uleb128 0x8
 1632 07b4 73323300 		.ascii	"s23\000"
 1633 07b8 0A       		.byte	0xa
 1634 07b9 6201     		.2byte	0x162
 1635 07bb 1D070000 		.4byte	0x71d
 1636 07bf 1C       		.byte	0x1c
 1637 07c0 08       		.uleb128 0x8
 1638 07c1 73323400 		.ascii	"s24\000"
 1639 07c5 0A       		.byte	0xa
 1640 07c6 6301     		.2byte	0x163
 1641 07c8 1D070000 		.4byte	0x71d
 1642 07cc 20       		.byte	0x20
 1643 07cd 08       		.uleb128 0x8
 1644 07ce 73323500 		.ascii	"s25\000"
 1645 07d2 0A       		.byte	0xa
 1646 07d3 6401     		.2byte	0x164
 1647 07d5 1D070000 		.4byte	0x71d
 1648 07d9 24       		.byte	0x24
 1649 07da 08       		.uleb128 0x8
 1650 07db 73323600 		.ascii	"s26\000"
 1651 07df 0A       		.byte	0xa
 1652 07e0 6501     		.2byte	0x165
 1653 07e2 1D070000 		.4byte	0x71d
ARM GAS  /tmp/ccJGNaHf.s 			page 30


 1654 07e6 28       		.byte	0x28
 1655 07e7 08       		.uleb128 0x8
 1656 07e8 73323700 		.ascii	"s27\000"
 1657 07ec 0A       		.byte	0xa
 1658 07ed 6601     		.2byte	0x166
 1659 07ef 1D070000 		.4byte	0x71d
 1660 07f3 2C       		.byte	0x2c
 1661 07f4 08       		.uleb128 0x8
 1662 07f5 73323800 		.ascii	"s28\000"
 1663 07f9 0A       		.byte	0xa
 1664 07fa 6701     		.2byte	0x167
 1665 07fc 1D070000 		.4byte	0x71d
 1666 0800 30       		.byte	0x30
 1667 0801 08       		.uleb128 0x8
 1668 0802 73323900 		.ascii	"s29\000"
 1669 0806 0A       		.byte	0xa
 1670 0807 6801     		.2byte	0x168
 1671 0809 1D070000 		.4byte	0x71d
 1672 080d 34       		.byte	0x34
 1673 080e 08       		.uleb128 0x8
 1674 080f 73333000 		.ascii	"s30\000"
 1675 0813 0A       		.byte	0xa
 1676 0814 6901     		.2byte	0x169
 1677 0816 1D070000 		.4byte	0x71d
 1678 081a 38       		.byte	0x38
 1679 081b 08       		.uleb128 0x8
 1680 081c 73333100 		.ascii	"s31\000"
 1681 0820 0A       		.byte	0xa
 1682 0821 6A01     		.2byte	0x16a
 1683 0823 1D070000 		.4byte	0x71d
 1684 0827 3C       		.byte	0x3c
 1685 0828 08       		.uleb128 0x8
 1686 0829 723400   		.ascii	"r4\000"
 1687 082c 0A       		.byte	0xa
 1688 082d 6C01     		.2byte	0x16c
 1689 082f 1D070000 		.4byte	0x71d
 1690 0833 40       		.byte	0x40
 1691 0834 08       		.uleb128 0x8
 1692 0835 723500   		.ascii	"r5\000"
 1693 0838 0A       		.byte	0xa
 1694 0839 6D01     		.2byte	0x16d
 1695 083b 1D070000 		.4byte	0x71d
 1696 083f 44       		.byte	0x44
 1697 0840 08       		.uleb128 0x8
 1698 0841 723600   		.ascii	"r6\000"
 1699 0844 0A       		.byte	0xa
 1700 0845 6E01     		.2byte	0x16e
 1701 0847 1D070000 		.4byte	0x71d
 1702 084b 48       		.byte	0x48
 1703 084c 08       		.uleb128 0x8
 1704 084d 723700   		.ascii	"r7\000"
 1705 0850 0A       		.byte	0xa
 1706 0851 6F01     		.2byte	0x16f
 1707 0853 1D070000 		.4byte	0x71d
 1708 0857 4C       		.byte	0x4c
 1709 0858 08       		.uleb128 0x8
 1710 0859 723800   		.ascii	"r8\000"
ARM GAS  /tmp/ccJGNaHf.s 			page 31


 1711 085c 0A       		.byte	0xa
 1712 085d 7001     		.2byte	0x170
 1713 085f 1D070000 		.4byte	0x71d
 1714 0863 50       		.byte	0x50
 1715 0864 08       		.uleb128 0x8
 1716 0865 723900   		.ascii	"r9\000"
 1717 0868 0A       		.byte	0xa
 1718 0869 7101     		.2byte	0x171
 1719 086b 1D070000 		.4byte	0x71d
 1720 086f 54       		.byte	0x54
 1721 0870 08       		.uleb128 0x8
 1722 0871 72313000 		.ascii	"r10\000"
 1723 0875 0A       		.byte	0xa
 1724 0876 7201     		.2byte	0x172
 1725 0878 1D070000 		.4byte	0x71d
 1726 087c 58       		.byte	0x58
 1727 087d 08       		.uleb128 0x8
 1728 087e 72313100 		.ascii	"r11\000"
 1729 0882 0A       		.byte	0xa
 1730 0883 7301     		.2byte	0x173
 1731 0885 1D070000 		.4byte	0x71d
 1732 0889 5C       		.byte	0x5c
 1733 088a 08       		.uleb128 0x8
 1734 088b 6C7200   		.ascii	"lr\000"
 1735 088e 0A       		.byte	0xa
 1736 088f 7401     		.2byte	0x174
 1737 0891 1D070000 		.4byte	0x71d
 1738 0895 60       		.byte	0x60
 1739 0896 00       		.byte	0
 1740 0897 0A       		.uleb128 0xa
 1741 0898 04       		.byte	0x4
 1742 0899 4B070000 		.4byte	0x74b
 1743 089d 15       		.uleb128 0x15
 1744 089e 04       		.byte	0x4
 1745 089f 0B       		.byte	0xb
 1746 08a0 38       		.byte	0x38
 1747 08a1 B2080000 		.4byte	0x8b2
 1748 08a5 06       		.uleb128 0x6
 1749 08a6 8E060000 		.4byte	.LASF180
 1750 08aa 0B       		.byte	0xb
 1751 08ab 3C       		.byte	0x3c
 1752 08ac CA000000 		.4byte	0xca
 1753 08b0 00       		.byte	0
 1754 08b1 00       		.byte	0
 1755 08b2 04       		.uleb128 0x4
 1756 08b3 C0090000 		.4byte	.LASF181
 1757 08b7 0B       		.byte	0xb
 1758 08b8 3D       		.byte	0x3d
 1759 08b9 9D080000 		.4byte	0x89d
 1760 08bd 15       		.uleb128 0x15
 1761 08be 18       		.byte	0x18
 1762 08bf 0B       		.byte	0xb
 1763 08c0 48       		.byte	0x48
 1764 08c1 00090000 		.4byte	0x900
 1765 08c5 06       		.uleb128 0x6
 1766 08c6 4F090000 		.4byte	.LASF182
 1767 08ca 0B       		.byte	0xb
ARM GAS  /tmp/ccJGNaHf.s 			page 32


 1768 08cb 49       		.byte	0x49
 1769 08cc CA000000 		.4byte	0xca
 1770 08d0 00       		.byte	0
 1771 08d1 06       		.uleb128 0x6
 1772 08d2 6C030000 		.4byte	.LASF183
 1773 08d6 0B       		.byte	0xb
 1774 08d7 4A       		.byte	0x4a
 1775 08d8 CA000000 		.4byte	0xca
 1776 08dc 04       		.byte	0x4
 1777 08dd 06       		.uleb128 0x6
 1778 08de B10B0000 		.4byte	.LASF184
 1779 08e2 0B       		.byte	0xb
 1780 08e3 4B       		.byte	0x4b
 1781 08e4 CA000000 		.4byte	0xca
 1782 08e8 08       		.byte	0x8
 1783 08e9 07       		.uleb128 0x7
 1784 08ea 6E00     		.ascii	"n\000"
 1785 08ec 0B       		.byte	0xb
 1786 08ed 4C       		.byte	0x4c
 1787 08ee 2D010000 		.4byte	0x12d
 1788 08f2 0C       		.byte	0xc
 1789 08f3 06       		.uleb128 0x6
 1790 08f4 17020000 		.4byte	.LASF185
 1791 08f8 0B       		.byte	0xb
 1792 08f9 4D       		.byte	0x4d
 1793 08fa D5000000 		.4byte	0xd5
 1794 08fe 10       		.byte	0x10
 1795 08ff 00       		.byte	0
 1796 0900 04       		.uleb128 0x4
 1797 0901 10060000 		.4byte	.LASF186
 1798 0905 0B       		.byte	0xb
 1799 0906 4E       		.byte	0x4e
 1800 0907 BD080000 		.4byte	0x8bd
 1801 090b 15       		.uleb128 0x15
 1802 090c 38       		.byte	0x38
 1803 090d 0C       		.byte	0xc
 1804 090e 38       		.byte	0x38
 1805 090f 44090000 		.4byte	0x944
 1806 0913 06       		.uleb128 0x6
 1807 0914 50050000 		.4byte	.LASF187
 1808 0918 0C       		.byte	0xc
 1809 0919 39       		.byte	0x39
 1810 091a 2D010000 		.4byte	0x12d
 1811 091e 00       		.byte	0
 1812 091f 06       		.uleb128 0x6
 1813 0920 0C030000 		.4byte	.LASF188
 1814 0924 0C       		.byte	0xc
 1815 0925 3A       		.byte	0x3a
 1816 0926 2D010000 		.4byte	0x12d
 1817 092a 04       		.byte	0x4
 1818 092b 06       		.uleb128 0x6
 1819 092c 23040000 		.4byte	.LASF189
 1820 0930 0C       		.byte	0xc
 1821 0931 3B       		.byte	0x3b
 1822 0932 00090000 		.4byte	0x900
 1823 0936 08       		.byte	0x8
 1824 0937 06       		.uleb128 0x6
ARM GAS  /tmp/ccJGNaHf.s 			page 33


 1825 0938 2C060000 		.4byte	.LASF190
 1826 093c 0C       		.byte	0xc
 1827 093d 3D       		.byte	0x3d
 1828 093e 00090000 		.4byte	0x900
 1829 0942 20       		.byte	0x20
 1830 0943 00       		.byte	0
 1831 0944 04       		.uleb128 0x4
 1832 0945 64060000 		.4byte	.LASF191
 1833 0949 0C       		.byte	0xc
 1834 094a 3F       		.byte	0x3f
 1835 094b 0B090000 		.4byte	0x90b
 1836 094f 16       		.uleb128 0x16
 1837 0950 04       		.byte	0x4
 1838 0951 06       		.byte	0x6
 1839 0952 C6       		.byte	0xc6
 1840 0953 B1090000 		.4byte	0x9b1
 1841 0957 17       		.uleb128 0x17
 1842 0958 F00A0000 		.4byte	.LASF192
 1843 095c 06       		.byte	0x6
 1844 095d CD       		.byte	0xcd
 1845 095e 0C010000 		.4byte	0x10c
 1846 0962 17       		.uleb128 0x17
 1847 0963 41010000 		.4byte	.LASF193
 1848 0967 06       		.byte	0x6
 1849 0968 D4       		.byte	0xd4
 1850 0969 0C010000 		.4byte	0x10c
 1851 096d 17       		.uleb128 0x17
 1852 096e F7020000 		.4byte	.LASF194
 1853 0972 06       		.byte	0x6
 1854 0973 DB       		.byte	0xdb
 1855 0974 16030000 		.4byte	0x316
 1856 0978 17       		.uleb128 0x17
 1857 0979 49020000 		.4byte	.LASF195
 1858 097d 06       		.byte	0x6
 1859 097e E2       		.byte	0xe2
 1860 097f B1090000 		.4byte	0x9b1
 1861 0983 17       		.uleb128 0x17
 1862 0984 58070000 		.4byte	.LASF196
 1863 0988 06       		.byte	0x6
 1864 0989 E7       		.byte	0xe7
 1865 098a 0C010000 		.4byte	0x10c
 1866 098e 17       		.uleb128 0x17
 1867 098f 47000000 		.4byte	.LASF197
 1868 0993 06       		.byte	0x6
 1869 0994 F0       		.byte	0xf0
 1870 0995 DC090000 		.4byte	0x9dc
 1871 0999 17       		.uleb128 0x17
 1872 099a 85030000 		.4byte	.LASF198
 1873 099e 06       		.byte	0x6
 1874 099f F9       		.byte	0xf9
 1875 09a0 130A0000 		.4byte	0xa13
 1876 09a4 18       		.uleb128 0x18
 1877 09a5 2E020000 		.4byte	.LASF199
 1878 09a9 06       		.byte	0x6
 1879 09aa 0101     		.2byte	0x101
 1880 09ac 17010000 		.4byte	0x117
 1881 09b0 00       		.byte	0
ARM GAS  /tmp/ccJGNaHf.s 			page 34


 1882 09b1 0A       		.uleb128 0xa
 1883 09b2 04       		.byte	0x4
 1884 09b3 2E020000 		.4byte	0x22e
 1885 09b7 05       		.uleb128 0x5
 1886 09b8 91040000 		.4byte	.LASF200
 1887 09bc 0C       		.byte	0xc
 1888 09bd 0D       		.byte	0xd
 1889 09be 34       		.byte	0x34
 1890 09bf DC090000 		.4byte	0x9dc
 1891 09c3 06       		.uleb128 0x6
 1892 09c4 1E090000 		.4byte	.LASF29
 1893 09c8 0D       		.byte	0xd
 1894 09c9 35       		.byte	0x35
 1895 09ca 63020000 		.4byte	0x263
 1896 09ce 00       		.byte	0
 1897 09cf 07       		.uleb128 0x7
 1898 09d0 636E7400 		.ascii	"cnt\000"
 1899 09d4 0D       		.byte	0xd
 1900 09d5 37       		.byte	0x37
 1901 09d6 22010000 		.4byte	0x122
 1902 09da 08       		.byte	0x8
 1903 09db 00       		.byte	0
 1904 09dc 0A       		.uleb128 0xa
 1905 09dd 04       		.byte	0x4
 1906 09de B7090000 		.4byte	0x9b7
 1907 09e2 05       		.uleb128 0x5
 1908 09e3 000A0000 		.4byte	.LASF201
 1909 09e7 10       		.byte	0x10
 1910 09e8 0E       		.byte	0xe
 1911 09e9 39       		.byte	0x39
 1912 09ea 130A0000 		.4byte	0xa13
 1913 09ee 06       		.uleb128 0x6
 1914 09ef 1E090000 		.4byte	.LASF29
 1915 09f3 0E       		.byte	0xe
 1916 09f4 3A       		.byte	0x3a
 1917 09f5 63020000 		.4byte	0x263
 1918 09f9 00       		.byte	0
 1919 09fa 06       		.uleb128 0x6
 1920 09fb 58000000 		.4byte	.LASF202
 1921 09ff 0E       		.byte	0xe
 1922 0a00 3C       		.byte	0x3c
 1923 0a01 39020000 		.4byte	0x239
 1924 0a05 08       		.byte	0x8
 1925 0a06 06       		.uleb128 0x6
 1926 0a07 870B0000 		.4byte	.LASF49
 1927 0a0b 0E       		.byte	0xe
 1928 0a0c 3E       		.byte	0x3e
 1929 0a0d 470A0000 		.4byte	0xa47
 1930 0a11 0C       		.byte	0xc
 1931 0a12 00       		.byte	0
 1932 0a13 0A       		.uleb128 0xa
 1933 0a14 04       		.byte	0x4
 1934 0a15 E2090000 		.4byte	0x9e2
 1935 0a19 0A       		.uleb128 0xa
 1936 0a1a 04       		.byte	0x4
 1937 0a1b 260A0000 		.4byte	0xa26
 1938 0a1f 03       		.uleb128 0x3
ARM GAS  /tmp/ccJGNaHf.s 			page 35


 1939 0a20 01       		.byte	0x1
 1940 0a21 08       		.byte	0x8
 1941 0a22 F2020000 		.4byte	.LASF203
 1942 0a26 19       		.uleb128 0x19
 1943 0a27 1F0A0000 		.4byte	0xa1f
 1944 0a2b 0A       		.uleb128 0xa
 1945 0a2c 04       		.byte	0x4
 1946 0a2d 28070000 		.4byte	0x728
 1947 0a31 0A       		.uleb128 0xa
 1948 0a32 04       		.byte	0x4
 1949 0a33 18030000 		.4byte	0x318
 1950 0a37 12       		.uleb128 0x12
 1951 0a38 190A0000 		.4byte	0xa19
 1952 0a3c 04       		.uleb128 0x4
 1953 0a3d 6B0A0000 		.4byte	.LASF204
 1954 0a41 0E       		.byte	0xe
 1955 0a42 34       		.byte	0x34
 1956 0a43 E2090000 		.4byte	0x9e2
 1957 0a47 0A       		.uleb128 0xa
 1958 0a48 04       		.byte	0x4
 1959 0a49 3C0A0000 		.4byte	0xa3c
 1960 0a4d 03       		.uleb128 0x3
 1961 0a4e 01       		.byte	0x1
 1962 0a4f 02       		.byte	0x2
 1963 0a50 C8020000 		.4byte	.LASF205
 1964 0a54 04       		.uleb128 0x4
 1965 0a55 15040000 		.4byte	.LASF206
 1966 0a59 0F       		.byte	0xf
 1967 0a5a 94       		.byte	0x94
 1968 0a5b 05030000 		.4byte	0x305
 1969 0a5f 15       		.uleb128 0x15
 1970 0a60 08       		.byte	0x8
 1971 0a61 0F       		.byte	0xf
 1972 0a62 9A       		.byte	0x9a
 1973 0a63 7F0A0000 		.4byte	0xa7f
 1974 0a67 07       		.uleb128 0x7
 1975 0a68 636200   		.ascii	"cb\000"
 1976 0a6b 0F       		.byte	0xf
 1977 0a6c A5       		.byte	0xa5
 1978 0a6d 540A0000 		.4byte	0xa54
 1979 0a71 00       		.byte	0
 1980 0a72 07       		.uleb128 0x7
 1981 0a73 61726700 		.ascii	"arg\000"
 1982 0a77 0F       		.byte	0xf
 1983 0a78 A9       		.byte	0xa9
 1984 0a79 16030000 		.4byte	0x316
 1985 0a7d 04       		.byte	0x4
 1986 0a7e 00       		.byte	0
 1987 0a7f 04       		.uleb128 0x4
 1988 0a80 1F030000 		.4byte	.LASF207
 1989 0a84 0F       		.byte	0xf
 1990 0a85 AB       		.byte	0xab
 1991 0a86 5F0A0000 		.4byte	0xa5f
 1992 0a8a 1A       		.uleb128 0x1a
 1993 0a8b 69040000 		.4byte	.LASF208
 1994 0a8f 01       		.byte	0x1
 1995 0a90 3D       		.byte	0x3d
ARM GAS  /tmp/ccJGNaHf.s 			page 36


 1996 0a91 00000000 		.4byte	.LFB323
 1997 0a95 30000000 		.4byte	.LFE323-.LFB323
 1998 0a99 01       		.uleb128 0x1
 1999 0a9a 9C       		.byte	0x9c
 2000 0a9b C00A0000 		.4byte	0xac0
 2001 0a9f 1B       		.uleb128 0x1b
 2002 0aa0 707200   		.ascii	"pr\000"
 2003 0aa3 01       		.byte	0x1
 2004 0aa4 3E       		.byte	0x3e
 2005 0aa5 B4000000 		.4byte	0xb4
 2006 0aa9 00000000 		.4byte	.LLST0
 2007 0aad 1C       		.uleb128 0x1c
 2008 0aae 06000000 		.4byte	.LVL0
 2009 0ab2 8F0D0000 		.4byte	0xd8f
 2010 0ab6 1D       		.uleb128 0x1d
 2011 0ab7 28000000 		.4byte	.LVL5
 2012 0abb 9A0D0000 		.4byte	0xd9a
 2013 0abf 00       		.byte	0
 2014 0ac0 1A       		.uleb128 0x1a
 2015 0ac1 88040000 		.4byte	.LASF209
 2016 0ac5 01       		.byte	0x1
 2017 0ac6 52       		.byte	0x52
 2018 0ac7 00000000 		.4byte	.LFB324
 2019 0acb 30000000 		.4byte	.LFE324-.LFB324
 2020 0acf 01       		.uleb128 0x1
 2021 0ad0 9C       		.byte	0x9c
 2022 0ad1 F60A0000 		.4byte	0xaf6
 2023 0ad5 1B       		.uleb128 0x1b
 2024 0ad6 707200   		.ascii	"pr\000"
 2025 0ad9 01       		.byte	0x1
 2026 0ada 53       		.byte	0x53
 2027 0adb B4000000 		.4byte	0xb4
 2028 0adf 2D000000 		.4byte	.LLST1
 2029 0ae3 1C       		.uleb128 0x1c
 2030 0ae4 06000000 		.4byte	.LVL6
 2031 0ae8 8F0D0000 		.4byte	0xd8f
 2032 0aec 1D       		.uleb128 0x1d
 2033 0aed 28000000 		.4byte	.LVL11
 2034 0af1 9A0D0000 		.4byte	0xd9a
 2035 0af5 00       		.byte	0
 2036 0af6 1A       		.uleb128 0x1a
 2037 0af7 EE040000 		.4byte	.LASF210
 2038 0afb 01       		.byte	0x1
 2039 0afc 67       		.byte	0x67
 2040 0afd 00000000 		.4byte	.LFB325
 2041 0b01 30000000 		.4byte	.LFE325-.LFB325
 2042 0b05 01       		.uleb128 0x1
 2043 0b06 9C       		.byte	0x9c
 2044 0b07 2C0B0000 		.4byte	0xb2c
 2045 0b0b 1B       		.uleb128 0x1b
 2046 0b0c 707200   		.ascii	"pr\000"
 2047 0b0f 01       		.byte	0x1
 2048 0b10 68       		.byte	0x68
 2049 0b11 B4000000 		.4byte	0xb4
 2050 0b15 5A000000 		.4byte	.LLST2
 2051 0b19 1C       		.uleb128 0x1c
 2052 0b1a 06000000 		.4byte	.LVL12
ARM GAS  /tmp/ccJGNaHf.s 			page 37


 2053 0b1e 8F0D0000 		.4byte	0xd8f
 2054 0b22 1D       		.uleb128 0x1d
 2055 0b23 28000000 		.4byte	.LVL17
 2056 0b27 9A0D0000 		.4byte	0xd9a
 2057 0b2b 00       		.byte	0
 2058 0b2c 1A       		.uleb128 0x1a
 2059 0b2d 6E000000 		.4byte	.LASF211
 2060 0b31 01       		.byte	0x1
 2061 0b32 7C       		.byte	0x7c
 2062 0b33 00000000 		.4byte	.LFB326
 2063 0b37 30000000 		.4byte	.LFE326-.LFB326
 2064 0b3b 01       		.uleb128 0x1
 2065 0b3c 9C       		.byte	0x9c
 2066 0b3d 620B0000 		.4byte	0xb62
 2067 0b41 1B       		.uleb128 0x1b
 2068 0b42 707200   		.ascii	"pr\000"
 2069 0b45 01       		.byte	0x1
 2070 0b46 7D       		.byte	0x7d
 2071 0b47 B4000000 		.4byte	0xb4
 2072 0b4b 87000000 		.4byte	.LLST3
 2073 0b4f 1C       		.uleb128 0x1c
 2074 0b50 06000000 		.4byte	.LVL18
 2075 0b54 8F0D0000 		.4byte	0xd8f
 2076 0b58 1D       		.uleb128 0x1d
 2077 0b59 28000000 		.4byte	.LVL23
 2078 0b5d 9A0D0000 		.4byte	0xd9a
 2079 0b61 00       		.byte	0
 2080 0b62 1A       		.uleb128 0x1a
 2081 0b63 1A050000 		.4byte	.LASF212
 2082 0b67 01       		.byte	0x1
 2083 0b68 91       		.byte	0x91
 2084 0b69 00000000 		.4byte	.LFB327
 2085 0b6d 30000000 		.4byte	.LFE327-.LFB327
 2086 0b71 01       		.uleb128 0x1
 2087 0b72 9C       		.byte	0x9c
 2088 0b73 980B0000 		.4byte	0xb98
 2089 0b77 1B       		.uleb128 0x1b
 2090 0b78 707200   		.ascii	"pr\000"
 2091 0b7b 01       		.byte	0x1
 2092 0b7c 92       		.byte	0x92
 2093 0b7d B4000000 		.4byte	0xb4
 2094 0b81 B4000000 		.4byte	.LLST4
 2095 0b85 1C       		.uleb128 0x1c
 2096 0b86 06000000 		.4byte	.LVL24
 2097 0b8a 8F0D0000 		.4byte	0xd8f
 2098 0b8e 1D       		.uleb128 0x1d
 2099 0b8f 28000000 		.4byte	.LVL29
 2100 0b93 9A0D0000 		.4byte	0xd9a
 2101 0b97 00       		.byte	0
 2102 0b98 1A       		.uleb128 0x1a
 2103 0b99 23060000 		.4byte	.LASF213
 2104 0b9d 01       		.byte	0x1
 2105 0b9e A6       		.byte	0xa6
 2106 0b9f 00000000 		.4byte	.LFB328
 2107 0ba3 6C000000 		.4byte	.LFE328-.LFB328
 2108 0ba7 01       		.uleb128 0x1
 2109 0ba8 9C       		.byte	0x9c
ARM GAS  /tmp/ccJGNaHf.s 			page 38


 2110 0ba9 CE0B0000 		.4byte	0xbce
 2111 0bad 1B       		.uleb128 0x1b
 2112 0bae 707200   		.ascii	"pr\000"
 2113 0bb1 01       		.byte	0x1
 2114 0bb2 A7       		.byte	0xa7
 2115 0bb3 B4000000 		.4byte	0xb4
 2116 0bb7 E1000000 		.4byte	.LLST5
 2117 0bbb 1C       		.uleb128 0x1c
 2118 0bbc 06000000 		.4byte	.LVL30
 2119 0bc0 8F0D0000 		.4byte	0xd8f
 2120 0bc4 1D       		.uleb128 0x1d
 2121 0bc5 62000000 		.4byte	.LVL41
 2122 0bc9 9A0D0000 		.4byte	0xd9a
 2123 0bcd 00       		.byte	0
 2124 0bce 1A       		.uleb128 0x1a
 2125 0bcf 380B0000 		.4byte	.LASF214
 2126 0bd3 01       		.byte	0x1
 2127 0bd4 C0       		.byte	0xc0
 2128 0bd5 00000000 		.4byte	.LFB329
 2129 0bd9 78000000 		.4byte	.LFE329-.LFB329
 2130 0bdd 01       		.uleb128 0x1
 2131 0bde 9C       		.byte	0x9c
 2132 0bdf 040C0000 		.4byte	0xc04
 2133 0be3 1B       		.uleb128 0x1b
 2134 0be4 707200   		.ascii	"pr\000"
 2135 0be7 01       		.byte	0x1
 2136 0be8 C1       		.byte	0xc1
 2137 0be9 B4000000 		.4byte	0xb4
 2138 0bed 1F010000 		.4byte	.LLST6
 2139 0bf1 1C       		.uleb128 0x1c
 2140 0bf2 06000000 		.4byte	.LVL42
 2141 0bf6 8F0D0000 		.4byte	0xd8f
 2142 0bfa 1D       		.uleb128 0x1d
 2143 0bfb 70000000 		.4byte	.LVL55
 2144 0bff 9A0D0000 		.4byte	0xd9a
 2145 0c03 00       		.byte	0
 2146 0c04 1E       		.uleb128 0x1e
 2147 0c05 340A0000 		.4byte	.LASF215
 2148 0c09 01       		.byte	0x1
 2149 0c0a E0       		.byte	0xe0
 2150 0c0b 00000000 		.4byte	.LFB330
 2151 0c0f 3E000000 		.4byte	.LFE330-.LFB330
 2152 0c13 01       		.uleb128 0x1
 2153 0c14 9C       		.byte	0x9c
 2154 0c15 BF0C0000 		.4byte	0xcbf
 2155 0c19 1F       		.uleb128 0x1f
 2156 0c1a 0A000000 		.4byte	.LVL56
 2157 0c1e A60D0000 		.4byte	0xda6
 2158 0c22 310C0000 		.4byte	0xc31
 2159 0c26 20       		.uleb128 0x20
 2160 0c27 01       		.uleb128 0x1
 2161 0c28 50       		.byte	0x50
 2162 0c29 01       		.uleb128 0x1
 2163 0c2a 36       		.byte	0x36
 2164 0c2b 20       		.uleb128 0x20
 2165 0c2c 01       		.uleb128 0x1
 2166 0c2d 51       		.byte	0x51
ARM GAS  /tmp/ccJGNaHf.s 			page 39


 2167 0c2e 01       		.uleb128 0x1
 2168 0c2f 36       		.byte	0x36
 2169 0c30 00       		.byte	0
 2170 0c31 1F       		.uleb128 0x1f
 2171 0c32 12000000 		.4byte	.LVL57
 2172 0c36 A60D0000 		.4byte	0xda6
 2173 0c3a 490C0000 		.4byte	0xc49
 2174 0c3e 20       		.uleb128 0x20
 2175 0c3f 01       		.uleb128 0x1
 2176 0c40 50       		.byte	0x50
 2177 0c41 01       		.uleb128 0x1
 2178 0c42 37       		.byte	0x37
 2179 0c43 20       		.uleb128 0x20
 2180 0c44 01       		.uleb128 0x1
 2181 0c45 51       		.byte	0x51
 2182 0c46 01       		.uleb128 0x1
 2183 0c47 36       		.byte	0x36
 2184 0c48 00       		.byte	0
 2185 0c49 1F       		.uleb128 0x1f
 2186 0c4a 1A000000 		.4byte	.LVL58
 2187 0c4e A60D0000 		.4byte	0xda6
 2188 0c52 610C0000 		.4byte	0xc61
 2189 0c56 20       		.uleb128 0x20
 2190 0c57 01       		.uleb128 0x1
 2191 0c58 50       		.byte	0x50
 2192 0c59 01       		.uleb128 0x1
 2193 0c5a 38       		.byte	0x38
 2194 0c5b 20       		.uleb128 0x20
 2195 0c5c 01       		.uleb128 0x1
 2196 0c5d 51       		.byte	0x51
 2197 0c5e 01       		.uleb128 0x1
 2198 0c5f 36       		.byte	0x36
 2199 0c60 00       		.byte	0
 2200 0c61 1F       		.uleb128 0x1f
 2201 0c62 22000000 		.4byte	.LVL59
 2202 0c66 A60D0000 		.4byte	0xda6
 2203 0c6a 790C0000 		.4byte	0xc79
 2204 0c6e 20       		.uleb128 0x20
 2205 0c6f 01       		.uleb128 0x1
 2206 0c70 50       		.byte	0x50
 2207 0c71 01       		.uleb128 0x1
 2208 0c72 39       		.byte	0x39
 2209 0c73 20       		.uleb128 0x20
 2210 0c74 01       		.uleb128 0x1
 2211 0c75 51       		.byte	0x51
 2212 0c76 01       		.uleb128 0x1
 2213 0c77 36       		.byte	0x36
 2214 0c78 00       		.byte	0
 2215 0c79 1F       		.uleb128 0x1f
 2216 0c7a 2A000000 		.4byte	.LVL60
 2217 0c7e A60D0000 		.4byte	0xda6
 2218 0c82 910C0000 		.4byte	0xc91
 2219 0c86 20       		.uleb128 0x20
 2220 0c87 01       		.uleb128 0x1
 2221 0c88 50       		.byte	0x50
 2222 0c89 01       		.uleb128 0x1
 2223 0c8a 3A       		.byte	0x3a
ARM GAS  /tmp/ccJGNaHf.s 			page 40


 2224 0c8b 20       		.uleb128 0x20
 2225 0c8c 01       		.uleb128 0x1
 2226 0c8d 51       		.byte	0x51
 2227 0c8e 01       		.uleb128 0x1
 2228 0c8f 36       		.byte	0x36
 2229 0c90 00       		.byte	0
 2230 0c91 1F       		.uleb128 0x1f
 2231 0c92 32000000 		.4byte	.LVL61
 2232 0c96 A60D0000 		.4byte	0xda6
 2233 0c9a A90C0000 		.4byte	0xca9
 2234 0c9e 20       		.uleb128 0x20
 2235 0c9f 01       		.uleb128 0x1
 2236 0ca0 50       		.byte	0x50
 2237 0ca1 01       		.uleb128 0x1
 2238 0ca2 47       		.byte	0x47
 2239 0ca3 20       		.uleb128 0x20
 2240 0ca4 01       		.uleb128 0x1
 2241 0ca5 51       		.byte	0x51
 2242 0ca6 01       		.uleb128 0x1
 2243 0ca7 36       		.byte	0x36
 2244 0ca8 00       		.byte	0
 2245 0ca9 21       		.uleb128 0x21
 2246 0caa 3E000000 		.4byte	.LVL62
 2247 0cae A60D0000 		.4byte	0xda6
 2248 0cb2 20       		.uleb128 0x20
 2249 0cb3 01       		.uleb128 0x1
 2250 0cb4 50       		.byte	0x50
 2251 0cb5 02       		.uleb128 0x2
 2252 0cb6 08       		.byte	0x8
 2253 0cb7 28       		.byte	0x28
 2254 0cb8 20       		.uleb128 0x20
 2255 0cb9 01       		.uleb128 0x1
 2256 0cba 51       		.byte	0x51
 2257 0cbb 01       		.uleb128 0x1
 2258 0cbc 36       		.byte	0x36
 2259 0cbd 00       		.byte	0
 2260 0cbe 00       		.byte	0
 2261 0cbf 1E       		.uleb128 0x1e
 2262 0cc0 CE020000 		.4byte	.LASF216
 2263 0cc4 01       		.byte	0x1
 2264 0cc5 F2       		.byte	0xf2
 2265 0cc6 00000000 		.4byte	.LFB331
 2266 0cca 30000000 		.4byte	.LFE331-.LFB331
 2267 0cce 01       		.uleb128 0x1
 2268 0ccf 9C       		.byte	0x9c
 2269 0cd0 570D0000 		.4byte	0xd57
 2270 0cd4 1F       		.uleb128 0x1f
 2271 0cd5 08000000 		.4byte	.LVL63
 2272 0cd9 B10D0000 		.4byte	0xdb1
 2273 0cdd E70C0000 		.4byte	0xce7
 2274 0ce1 20       		.uleb128 0x20
 2275 0ce2 01       		.uleb128 0x1
 2276 0ce3 50       		.byte	0x50
 2277 0ce4 01       		.uleb128 0x1
 2278 0ce5 36       		.byte	0x36
 2279 0ce6 00       		.byte	0
 2280 0ce7 1F       		.uleb128 0x1f
ARM GAS  /tmp/ccJGNaHf.s 			page 41


 2281 0ce8 0E000000 		.4byte	.LVL64
 2282 0cec B10D0000 		.4byte	0xdb1
 2283 0cf0 FA0C0000 		.4byte	0xcfa
 2284 0cf4 20       		.uleb128 0x20
 2285 0cf5 01       		.uleb128 0x1
 2286 0cf6 50       		.byte	0x50
 2287 0cf7 01       		.uleb128 0x1
 2288 0cf8 37       		.byte	0x37
 2289 0cf9 00       		.byte	0
 2290 0cfa 1F       		.uleb128 0x1f
 2291 0cfb 14000000 		.4byte	.LVL65
 2292 0cff B10D0000 		.4byte	0xdb1
 2293 0d03 0D0D0000 		.4byte	0xd0d
 2294 0d07 20       		.uleb128 0x20
 2295 0d08 01       		.uleb128 0x1
 2296 0d09 50       		.byte	0x50
 2297 0d0a 01       		.uleb128 0x1
 2298 0d0b 38       		.byte	0x38
 2299 0d0c 00       		.byte	0
 2300 0d0d 1F       		.uleb128 0x1f
 2301 0d0e 1A000000 		.4byte	.LVL66
 2302 0d12 B10D0000 		.4byte	0xdb1
 2303 0d16 200D0000 		.4byte	0xd20
 2304 0d1a 20       		.uleb128 0x20
 2305 0d1b 01       		.uleb128 0x1
 2306 0d1c 50       		.byte	0x50
 2307 0d1d 01       		.uleb128 0x1
 2308 0d1e 39       		.byte	0x39
 2309 0d1f 00       		.byte	0
 2310 0d20 1F       		.uleb128 0x1f
 2311 0d21 20000000 		.4byte	.LVL67
 2312 0d25 B10D0000 		.4byte	0xdb1
 2313 0d29 330D0000 		.4byte	0xd33
 2314 0d2d 20       		.uleb128 0x20
 2315 0d2e 01       		.uleb128 0x1
 2316 0d2f 50       		.byte	0x50
 2317 0d30 01       		.uleb128 0x1
 2318 0d31 3A       		.byte	0x3a
 2319 0d32 00       		.byte	0
 2320 0d33 1F       		.uleb128 0x1f
 2321 0d34 26000000 		.4byte	.LVL68
 2322 0d38 B10D0000 		.4byte	0xdb1
 2323 0d3c 460D0000 		.4byte	0xd46
 2324 0d40 20       		.uleb128 0x20
 2325 0d41 01       		.uleb128 0x1
 2326 0d42 50       		.byte	0x50
 2327 0d43 01       		.uleb128 0x1
 2328 0d44 47       		.byte	0x47
 2329 0d45 00       		.byte	0
 2330 0d46 21       		.uleb128 0x21
 2331 0d47 30000000 		.4byte	.LVL69
 2332 0d4b B10D0000 		.4byte	0xdb1
 2333 0d4f 20       		.uleb128 0x20
 2334 0d50 01       		.uleb128 0x1
 2335 0d51 50       		.byte	0x50
 2336 0d52 02       		.uleb128 0x2
 2337 0d53 08       		.byte	0x8
ARM GAS  /tmp/ccJGNaHf.s 			page 42


 2338 0d54 28       		.byte	0x28
 2339 0d55 00       		.byte	0
 2340 0d56 00       		.byte	0
 2341 0d57 22       		.uleb128 0x22
 2342 0d58 4F0A0000 		.4byte	.LASF217
 2343 0d5c 10       		.byte	0x10
 2344 0d5d 0408     		.2byte	0x804
 2345 0d5f 630D0000 		.4byte	0xd63
 2346 0d63 12       		.uleb128 0x12
 2347 0d64 A9000000 		.4byte	0xa9
 2348 0d68 23       		.uleb128 0x23
 2349 0d69 636800   		.ascii	"ch\000"
 2350 0d6c 06       		.byte	0x6
 2351 0d6d C701     		.2byte	0x1c7
 2352 0d6f E5030000 		.4byte	0x3e5
 2353 0d73 24       		.uleb128 0x24
 2354 0d74 7F0A0000 		.4byte	0xa7f
 2355 0d78 830D0000 		.4byte	0xd83
 2356 0d7c 25       		.uleb128 0x25
 2357 0d7d AE060000 		.4byte	0x6ae
 2358 0d81 0F       		.byte	0xf
 2359 0d82 00       		.byte	0
 2360 0d83 22       		.uleb128 0x22
 2361 0d84 12070000 		.4byte	.LASF218
 2362 0d88 11       		.byte	0x11
 2363 0d89 EB01     		.2byte	0x1eb
 2364 0d8b 730D0000 		.4byte	0xd73
 2365 0d8f 26       		.uleb128 0x26
 2366 0d90 8C010000 		.4byte	.LASF219
 2367 0d94 8C010000 		.4byte	.LASF219
 2368 0d98 0C       		.byte	0xc
 2369 0d99 4D       		.byte	0x4d
 2370 0d9a 27       		.uleb128 0x27
 2371 0d9b 73060000 		.4byte	.LASF220
 2372 0d9f 73060000 		.4byte	.LASF220
 2373 0da3 0A       		.byte	0xa
 2374 0da4 F201     		.2byte	0x1f2
 2375 0da6 26       		.uleb128 0x26
 2376 0da7 BB0A0000 		.4byte	.LASF221
 2377 0dab BB0A0000 		.4byte	.LASF221
 2378 0daf 12       		.byte	0x12
 2379 0db0 4E       		.byte	0x4e
 2380 0db1 26       		.uleb128 0x26
 2381 0db2 33070000 		.4byte	.LASF222
 2382 0db6 33070000 		.4byte	.LASF222
 2383 0dba 12       		.byte	0x12
 2384 0dbb 4F       		.byte	0x4f
 2385 0dbc 00       		.byte	0
 2386              		.section	.debug_abbrev,"",%progbits
 2387              	.Ldebug_abbrev0:
 2388 0000 01       		.uleb128 0x1
 2389 0001 11       		.uleb128 0x11
 2390 0002 01       		.byte	0x1
 2391 0003 25       		.uleb128 0x25
 2392 0004 0E       		.uleb128 0xe
 2393 0005 13       		.uleb128 0x13
 2394 0006 0B       		.uleb128 0xb
ARM GAS  /tmp/ccJGNaHf.s 			page 43


 2395 0007 03       		.uleb128 0x3
 2396 0008 0E       		.uleb128 0xe
 2397 0009 1B       		.uleb128 0x1b
 2398 000a 0E       		.uleb128 0xe
 2399 000b 55       		.uleb128 0x55
 2400 000c 17       		.uleb128 0x17
 2401 000d 11       		.uleb128 0x11
 2402 000e 01       		.uleb128 0x1
 2403 000f 10       		.uleb128 0x10
 2404 0010 17       		.uleb128 0x17
 2405 0011 00       		.byte	0
 2406 0012 00       		.byte	0
 2407 0013 02       		.uleb128 0x2
 2408 0014 24       		.uleb128 0x24
 2409 0015 00       		.byte	0
 2410 0016 0B       		.uleb128 0xb
 2411 0017 0B       		.uleb128 0xb
 2412 0018 3E       		.uleb128 0x3e
 2413 0019 0B       		.uleb128 0xb
 2414 001a 03       		.uleb128 0x3
 2415 001b 08       		.uleb128 0x8
 2416 001c 00       		.byte	0
 2417 001d 00       		.byte	0
 2418 001e 03       		.uleb128 0x3
 2419 001f 24       		.uleb128 0x24
 2420 0020 00       		.byte	0
 2421 0021 0B       		.uleb128 0xb
 2422 0022 0B       		.uleb128 0xb
 2423 0023 3E       		.uleb128 0x3e
 2424 0024 0B       		.uleb128 0xb
 2425 0025 03       		.uleb128 0x3
 2426 0026 0E       		.uleb128 0xe
 2427 0027 00       		.byte	0
 2428 0028 00       		.byte	0
 2429 0029 04       		.uleb128 0x4
 2430 002a 16       		.uleb128 0x16
 2431 002b 00       		.byte	0
 2432 002c 03       		.uleb128 0x3
 2433 002d 0E       		.uleb128 0xe
 2434 002e 3A       		.uleb128 0x3a
 2435 002f 0B       		.uleb128 0xb
 2436 0030 3B       		.uleb128 0x3b
 2437 0031 0B       		.uleb128 0xb
 2438 0032 49       		.uleb128 0x49
 2439 0033 13       		.uleb128 0x13
 2440 0034 00       		.byte	0
 2441 0035 00       		.byte	0
 2442 0036 05       		.uleb128 0x5
 2443 0037 13       		.uleb128 0x13
 2444 0038 01       		.byte	0x1
 2445 0039 03       		.uleb128 0x3
 2446 003a 0E       		.uleb128 0xe
 2447 003b 0B       		.uleb128 0xb
 2448 003c 0B       		.uleb128 0xb
 2449 003d 3A       		.uleb128 0x3a
 2450 003e 0B       		.uleb128 0xb
 2451 003f 3B       		.uleb128 0x3b
ARM GAS  /tmp/ccJGNaHf.s 			page 44


 2452 0040 0B       		.uleb128 0xb
 2453 0041 01       		.uleb128 0x1
 2454 0042 13       		.uleb128 0x13
 2455 0043 00       		.byte	0
 2456 0044 00       		.byte	0
 2457 0045 06       		.uleb128 0x6
 2458 0046 0D       		.uleb128 0xd
 2459 0047 00       		.byte	0
 2460 0048 03       		.uleb128 0x3
 2461 0049 0E       		.uleb128 0xe
 2462 004a 3A       		.uleb128 0x3a
 2463 004b 0B       		.uleb128 0xb
 2464 004c 3B       		.uleb128 0x3b
 2465 004d 0B       		.uleb128 0xb
 2466 004e 49       		.uleb128 0x49
 2467 004f 13       		.uleb128 0x13
 2468 0050 38       		.uleb128 0x38
 2469 0051 0B       		.uleb128 0xb
 2470 0052 00       		.byte	0
 2471 0053 00       		.byte	0
 2472 0054 07       		.uleb128 0x7
 2473 0055 0D       		.uleb128 0xd
 2474 0056 00       		.byte	0
 2475 0057 03       		.uleb128 0x3
 2476 0058 08       		.uleb128 0x8
 2477 0059 3A       		.uleb128 0x3a
 2478 005a 0B       		.uleb128 0xb
 2479 005b 3B       		.uleb128 0x3b
 2480 005c 0B       		.uleb128 0xb
 2481 005d 49       		.uleb128 0x49
 2482 005e 13       		.uleb128 0x13
 2483 005f 38       		.uleb128 0x38
 2484 0060 0B       		.uleb128 0xb
 2485 0061 00       		.byte	0
 2486 0062 00       		.byte	0
 2487 0063 08       		.uleb128 0x8
 2488 0064 0D       		.uleb128 0xd
 2489 0065 00       		.byte	0
 2490 0066 03       		.uleb128 0x3
 2491 0067 08       		.uleb128 0x8
 2492 0068 3A       		.uleb128 0x3a
 2493 0069 0B       		.uleb128 0xb
 2494 006a 3B       		.uleb128 0x3b
 2495 006b 05       		.uleb128 0x5
 2496 006c 49       		.uleb128 0x49
 2497 006d 13       		.uleb128 0x13
 2498 006e 38       		.uleb128 0x38
 2499 006f 0B       		.uleb128 0xb
 2500 0070 00       		.byte	0
 2501 0071 00       		.byte	0
 2502 0072 09       		.uleb128 0x9
 2503 0073 0D       		.uleb128 0xd
 2504 0074 00       		.byte	0
 2505 0075 03       		.uleb128 0x3
 2506 0076 0E       		.uleb128 0xe
 2507 0077 3A       		.uleb128 0x3a
 2508 0078 0B       		.uleb128 0xb
ARM GAS  /tmp/ccJGNaHf.s 			page 45


 2509 0079 3B       		.uleb128 0x3b
 2510 007a 05       		.uleb128 0x5
 2511 007b 49       		.uleb128 0x49
 2512 007c 13       		.uleb128 0x13
 2513 007d 38       		.uleb128 0x38
 2514 007e 0B       		.uleb128 0xb
 2515 007f 00       		.byte	0
 2516 0080 00       		.byte	0
 2517 0081 0A       		.uleb128 0xa
 2518 0082 0F       		.uleb128 0xf
 2519 0083 00       		.byte	0
 2520 0084 0B       		.uleb128 0xb
 2521 0085 0B       		.uleb128 0xb
 2522 0086 49       		.uleb128 0x49
 2523 0087 13       		.uleb128 0x13
 2524 0088 00       		.byte	0
 2525 0089 00       		.byte	0
 2526 008a 0B       		.uleb128 0xb
 2527 008b 13       		.uleb128 0x13
 2528 008c 01       		.byte	0x1
 2529 008d 03       		.uleb128 0x3
 2530 008e 0E       		.uleb128 0xe
 2531 008f 0B       		.uleb128 0xb
 2532 0090 0B       		.uleb128 0xb
 2533 0091 3A       		.uleb128 0x3a
 2534 0092 0B       		.uleb128 0xb
 2535 0093 3B       		.uleb128 0x3b
 2536 0094 05       		.uleb128 0x5
 2537 0095 01       		.uleb128 0x1
 2538 0096 13       		.uleb128 0x13
 2539 0097 00       		.byte	0
 2540 0098 00       		.byte	0
 2541 0099 0C       		.uleb128 0xc
 2542 009a 15       		.uleb128 0x15
 2543 009b 01       		.byte	0x1
 2544 009c 27       		.uleb128 0x27
 2545 009d 19       		.uleb128 0x19
 2546 009e 01       		.uleb128 0x1
 2547 009f 13       		.uleb128 0x13
 2548 00a0 00       		.byte	0
 2549 00a1 00       		.byte	0
 2550 00a2 0D       		.uleb128 0xd
 2551 00a3 05       		.uleb128 0x5
 2552 00a4 00       		.byte	0
 2553 00a5 49       		.uleb128 0x49
 2554 00a6 13       		.uleb128 0x13
 2555 00a7 00       		.byte	0
 2556 00a8 00       		.byte	0
 2557 00a9 0E       		.uleb128 0xe
 2558 00aa 0F       		.uleb128 0xf
 2559 00ab 00       		.byte	0
 2560 00ac 0B       		.uleb128 0xb
 2561 00ad 0B       		.uleb128 0xb
 2562 00ae 00       		.byte	0
 2563 00af 00       		.byte	0
 2564 00b0 0F       		.uleb128 0xf
 2565 00b1 04       		.uleb128 0x4
ARM GAS  /tmp/ccJGNaHf.s 			page 46


 2566 00b2 01       		.byte	0x1
 2567 00b3 0B       		.uleb128 0xb
 2568 00b4 0B       		.uleb128 0xb
 2569 00b5 49       		.uleb128 0x49
 2570 00b6 13       		.uleb128 0x13
 2571 00b7 3A       		.uleb128 0x3a
 2572 00b8 0B       		.uleb128 0xb
 2573 00b9 3B       		.uleb128 0x3b
 2574 00ba 0B       		.uleb128 0xb
 2575 00bb 01       		.uleb128 0x1
 2576 00bc 13       		.uleb128 0x13
 2577 00bd 00       		.byte	0
 2578 00be 00       		.byte	0
 2579 00bf 10       		.uleb128 0x10
 2580 00c0 28       		.uleb128 0x28
 2581 00c1 00       		.byte	0
 2582 00c2 03       		.uleb128 0x3
 2583 00c3 0E       		.uleb128 0xe
 2584 00c4 1C       		.uleb128 0x1c
 2585 00c5 0D       		.uleb128 0xd
 2586 00c6 00       		.byte	0
 2587 00c7 00       		.byte	0
 2588 00c8 11       		.uleb128 0x11
 2589 00c9 28       		.uleb128 0x28
 2590 00ca 00       		.byte	0
 2591 00cb 03       		.uleb128 0x3
 2592 00cc 0E       		.uleb128 0xe
 2593 00cd 1C       		.uleb128 0x1c
 2594 00ce 0B       		.uleb128 0xb
 2595 00cf 00       		.byte	0
 2596 00d0 00       		.byte	0
 2597 00d1 12       		.uleb128 0x12
 2598 00d2 35       		.uleb128 0x35
 2599 00d3 00       		.byte	0
 2600 00d4 49       		.uleb128 0x49
 2601 00d5 13       		.uleb128 0x13
 2602 00d6 00       		.byte	0
 2603 00d7 00       		.byte	0
 2604 00d8 13       		.uleb128 0x13
 2605 00d9 13       		.uleb128 0x13
 2606 00da 01       		.byte	0x1
 2607 00db 0B       		.uleb128 0xb
 2608 00dc 0B       		.uleb128 0xb
 2609 00dd 3A       		.uleb128 0x3a
 2610 00de 0B       		.uleb128 0xb
 2611 00df 3B       		.uleb128 0x3b
 2612 00e0 05       		.uleb128 0x5
 2613 00e1 01       		.uleb128 0x1
 2614 00e2 13       		.uleb128 0x13
 2615 00e3 00       		.byte	0
 2616 00e4 00       		.byte	0
 2617 00e5 14       		.uleb128 0x14
 2618 00e6 16       		.uleb128 0x16
 2619 00e7 00       		.byte	0
 2620 00e8 03       		.uleb128 0x3
 2621 00e9 0E       		.uleb128 0xe
 2622 00ea 3A       		.uleb128 0x3a
ARM GAS  /tmp/ccJGNaHf.s 			page 47


 2623 00eb 0B       		.uleb128 0xb
 2624 00ec 3B       		.uleb128 0x3b
 2625 00ed 05       		.uleb128 0x5
 2626 00ee 49       		.uleb128 0x49
 2627 00ef 13       		.uleb128 0x13
 2628 00f0 00       		.byte	0
 2629 00f1 00       		.byte	0
 2630 00f2 15       		.uleb128 0x15
 2631 00f3 13       		.uleb128 0x13
 2632 00f4 01       		.byte	0x1
 2633 00f5 0B       		.uleb128 0xb
 2634 00f6 0B       		.uleb128 0xb
 2635 00f7 3A       		.uleb128 0x3a
 2636 00f8 0B       		.uleb128 0xb
 2637 00f9 3B       		.uleb128 0x3b
 2638 00fa 0B       		.uleb128 0xb
 2639 00fb 01       		.uleb128 0x1
 2640 00fc 13       		.uleb128 0x13
 2641 00fd 00       		.byte	0
 2642 00fe 00       		.byte	0
 2643 00ff 16       		.uleb128 0x16
 2644 0100 17       		.uleb128 0x17
 2645 0101 01       		.byte	0x1
 2646 0102 0B       		.uleb128 0xb
 2647 0103 0B       		.uleb128 0xb
 2648 0104 3A       		.uleb128 0x3a
 2649 0105 0B       		.uleb128 0xb
 2650 0106 3B       		.uleb128 0x3b
 2651 0107 0B       		.uleb128 0xb
 2652 0108 01       		.uleb128 0x1
 2653 0109 13       		.uleb128 0x13
 2654 010a 00       		.byte	0
 2655 010b 00       		.byte	0
 2656 010c 17       		.uleb128 0x17
 2657 010d 0D       		.uleb128 0xd
 2658 010e 00       		.byte	0
 2659 010f 03       		.uleb128 0x3
 2660 0110 0E       		.uleb128 0xe
 2661 0111 3A       		.uleb128 0x3a
 2662 0112 0B       		.uleb128 0xb
 2663 0113 3B       		.uleb128 0x3b
 2664 0114 0B       		.uleb128 0xb
 2665 0115 49       		.uleb128 0x49
 2666 0116 13       		.uleb128 0x13
 2667 0117 00       		.byte	0
 2668 0118 00       		.byte	0
 2669 0119 18       		.uleb128 0x18
 2670 011a 0D       		.uleb128 0xd
 2671 011b 00       		.byte	0
 2672 011c 03       		.uleb128 0x3
 2673 011d 0E       		.uleb128 0xe
 2674 011e 3A       		.uleb128 0x3a
 2675 011f 0B       		.uleb128 0xb
 2676 0120 3B       		.uleb128 0x3b
 2677 0121 05       		.uleb128 0x5
 2678 0122 49       		.uleb128 0x49
 2679 0123 13       		.uleb128 0x13
ARM GAS  /tmp/ccJGNaHf.s 			page 48


 2680 0124 00       		.byte	0
 2681 0125 00       		.byte	0
 2682 0126 19       		.uleb128 0x19
 2683 0127 26       		.uleb128 0x26
 2684 0128 00       		.byte	0
 2685 0129 49       		.uleb128 0x49
 2686 012a 13       		.uleb128 0x13
 2687 012b 00       		.byte	0
 2688 012c 00       		.byte	0
 2689 012d 1A       		.uleb128 0x1a
 2690 012e 2E       		.uleb128 0x2e
 2691 012f 01       		.byte	0x1
 2692 0130 3F       		.uleb128 0x3f
 2693 0131 19       		.uleb128 0x19
 2694 0132 03       		.uleb128 0x3
 2695 0133 0E       		.uleb128 0xe
 2696 0134 3A       		.uleb128 0x3a
 2697 0135 0B       		.uleb128 0xb
 2698 0136 3B       		.uleb128 0x3b
 2699 0137 0B       		.uleb128 0xb
 2700 0138 27       		.uleb128 0x27
 2701 0139 19       		.uleb128 0x19
 2702 013a 11       		.uleb128 0x11
 2703 013b 01       		.uleb128 0x1
 2704 013c 12       		.uleb128 0x12
 2705 013d 06       		.uleb128 0x6
 2706 013e 40       		.uleb128 0x40
 2707 013f 18       		.uleb128 0x18
 2708 0140 9642     		.uleb128 0x2116
 2709 0142 19       		.uleb128 0x19
 2710 0143 01       		.uleb128 0x1
 2711 0144 13       		.uleb128 0x13
 2712 0145 00       		.byte	0
 2713 0146 00       		.byte	0
 2714 0147 1B       		.uleb128 0x1b
 2715 0148 34       		.uleb128 0x34
 2716 0149 00       		.byte	0
 2717 014a 03       		.uleb128 0x3
 2718 014b 08       		.uleb128 0x8
 2719 014c 3A       		.uleb128 0x3a
 2720 014d 0B       		.uleb128 0xb
 2721 014e 3B       		.uleb128 0x3b
 2722 014f 0B       		.uleb128 0xb
 2723 0150 49       		.uleb128 0x49
 2724 0151 13       		.uleb128 0x13
 2725 0152 02       		.uleb128 0x2
 2726 0153 17       		.uleb128 0x17
 2727 0154 00       		.byte	0
 2728 0155 00       		.byte	0
 2729 0156 1C       		.uleb128 0x1c
 2730 0157 898201   		.uleb128 0x4109
 2731 015a 00       		.byte	0
 2732 015b 11       		.uleb128 0x11
 2733 015c 01       		.uleb128 0x1
 2734 015d 31       		.uleb128 0x31
 2735 015e 13       		.uleb128 0x13
 2736 015f 00       		.byte	0
ARM GAS  /tmp/ccJGNaHf.s 			page 49


 2737 0160 00       		.byte	0
 2738 0161 1D       		.uleb128 0x1d
 2739 0162 898201   		.uleb128 0x4109
 2740 0165 00       		.byte	0
 2741 0166 11       		.uleb128 0x11
 2742 0167 01       		.uleb128 0x1
 2743 0168 9542     		.uleb128 0x2115
 2744 016a 19       		.uleb128 0x19
 2745 016b 31       		.uleb128 0x31
 2746 016c 13       		.uleb128 0x13
 2747 016d 00       		.byte	0
 2748 016e 00       		.byte	0
 2749 016f 1E       		.uleb128 0x1e
 2750 0170 2E       		.uleb128 0x2e
 2751 0171 01       		.byte	0x1
 2752 0172 3F       		.uleb128 0x3f
 2753 0173 19       		.uleb128 0x19
 2754 0174 03       		.uleb128 0x3
 2755 0175 0E       		.uleb128 0xe
 2756 0176 3A       		.uleb128 0x3a
 2757 0177 0B       		.uleb128 0xb
 2758 0178 3B       		.uleb128 0x3b
 2759 0179 0B       		.uleb128 0xb
 2760 017a 27       		.uleb128 0x27
 2761 017b 19       		.uleb128 0x19
 2762 017c 11       		.uleb128 0x11
 2763 017d 01       		.uleb128 0x1
 2764 017e 12       		.uleb128 0x12
 2765 017f 06       		.uleb128 0x6
 2766 0180 40       		.uleb128 0x40
 2767 0181 18       		.uleb128 0x18
 2768 0182 9742     		.uleb128 0x2117
 2769 0184 19       		.uleb128 0x19
 2770 0185 01       		.uleb128 0x1
 2771 0186 13       		.uleb128 0x13
 2772 0187 00       		.byte	0
 2773 0188 00       		.byte	0
 2774 0189 1F       		.uleb128 0x1f
 2775 018a 898201   		.uleb128 0x4109
 2776 018d 01       		.byte	0x1
 2777 018e 11       		.uleb128 0x11
 2778 018f 01       		.uleb128 0x1
 2779 0190 31       		.uleb128 0x31
 2780 0191 13       		.uleb128 0x13
 2781 0192 01       		.uleb128 0x1
 2782 0193 13       		.uleb128 0x13
 2783 0194 00       		.byte	0
 2784 0195 00       		.byte	0
 2785 0196 20       		.uleb128 0x20
 2786 0197 8A8201   		.uleb128 0x410a
 2787 019a 00       		.byte	0
 2788 019b 02       		.uleb128 0x2
 2789 019c 18       		.uleb128 0x18
 2790 019d 9142     		.uleb128 0x2111
 2791 019f 18       		.uleb128 0x18
 2792 01a0 00       		.byte	0
 2793 01a1 00       		.byte	0
ARM GAS  /tmp/ccJGNaHf.s 			page 50


 2794 01a2 21       		.uleb128 0x21
 2795 01a3 898201   		.uleb128 0x4109
 2796 01a6 01       		.byte	0x1
 2797 01a7 11       		.uleb128 0x11
 2798 01a8 01       		.uleb128 0x1
 2799 01a9 9542     		.uleb128 0x2115
 2800 01ab 19       		.uleb128 0x19
 2801 01ac 31       		.uleb128 0x31
 2802 01ad 13       		.uleb128 0x13
 2803 01ae 00       		.byte	0
 2804 01af 00       		.byte	0
 2805 01b0 22       		.uleb128 0x22
 2806 01b1 34       		.uleb128 0x34
 2807 01b2 00       		.byte	0
 2808 01b3 03       		.uleb128 0x3
 2809 01b4 0E       		.uleb128 0xe
 2810 01b5 3A       		.uleb128 0x3a
 2811 01b6 0B       		.uleb128 0xb
 2812 01b7 3B       		.uleb128 0x3b
 2813 01b8 05       		.uleb128 0x5
 2814 01b9 49       		.uleb128 0x49
 2815 01ba 13       		.uleb128 0x13
 2816 01bb 3F       		.uleb128 0x3f
 2817 01bc 19       		.uleb128 0x19
 2818 01bd 3C       		.uleb128 0x3c
 2819 01be 19       		.uleb128 0x19
 2820 01bf 00       		.byte	0
 2821 01c0 00       		.byte	0
 2822 01c1 23       		.uleb128 0x23
 2823 01c2 34       		.uleb128 0x34
 2824 01c3 00       		.byte	0
 2825 01c4 03       		.uleb128 0x3
 2826 01c5 08       		.uleb128 0x8
 2827 01c6 3A       		.uleb128 0x3a
 2828 01c7 0B       		.uleb128 0xb
 2829 01c8 3B       		.uleb128 0x3b
 2830 01c9 05       		.uleb128 0x5
 2831 01ca 49       		.uleb128 0x49
 2832 01cb 13       		.uleb128 0x13
 2833 01cc 3F       		.uleb128 0x3f
 2834 01cd 19       		.uleb128 0x19
 2835 01ce 3C       		.uleb128 0x3c
 2836 01cf 19       		.uleb128 0x19
 2837 01d0 00       		.byte	0
 2838 01d1 00       		.byte	0
 2839 01d2 24       		.uleb128 0x24
 2840 01d3 01       		.uleb128 0x1
 2841 01d4 01       		.byte	0x1
 2842 01d5 49       		.uleb128 0x49
 2843 01d6 13       		.uleb128 0x13
 2844 01d7 01       		.uleb128 0x1
 2845 01d8 13       		.uleb128 0x13
 2846 01d9 00       		.byte	0
 2847 01da 00       		.byte	0
 2848 01db 25       		.uleb128 0x25
 2849 01dc 21       		.uleb128 0x21
 2850 01dd 00       		.byte	0
ARM GAS  /tmp/ccJGNaHf.s 			page 51


 2851 01de 49       		.uleb128 0x49
 2852 01df 13       		.uleb128 0x13
 2853 01e0 2F       		.uleb128 0x2f
 2854 01e1 0B       		.uleb128 0xb
 2855 01e2 00       		.byte	0
 2856 01e3 00       		.byte	0
 2857 01e4 26       		.uleb128 0x26
 2858 01e5 2E       		.uleb128 0x2e
 2859 01e6 00       		.byte	0
 2860 01e7 3F       		.uleb128 0x3f
 2861 01e8 19       		.uleb128 0x19
 2862 01e9 3C       		.uleb128 0x3c
 2863 01ea 19       		.uleb128 0x19
 2864 01eb 6E       		.uleb128 0x6e
 2865 01ec 0E       		.uleb128 0xe
 2866 01ed 03       		.uleb128 0x3
 2867 01ee 0E       		.uleb128 0xe
 2868 01ef 3A       		.uleb128 0x3a
 2869 01f0 0B       		.uleb128 0xb
 2870 01f1 3B       		.uleb128 0x3b
 2871 01f2 0B       		.uleb128 0xb
 2872 01f3 00       		.byte	0
 2873 01f4 00       		.byte	0
 2874 01f5 27       		.uleb128 0x27
 2875 01f6 2E       		.uleb128 0x2e
 2876 01f7 00       		.byte	0
 2877 01f8 3F       		.uleb128 0x3f
 2878 01f9 19       		.uleb128 0x19
 2879 01fa 3C       		.uleb128 0x3c
 2880 01fb 19       		.uleb128 0x19
 2881 01fc 6E       		.uleb128 0x6e
 2882 01fd 0E       		.uleb128 0xe
 2883 01fe 03       		.uleb128 0x3
 2884 01ff 0E       		.uleb128 0xe
 2885 0200 3A       		.uleb128 0x3a
 2886 0201 0B       		.uleb128 0xb
 2887 0202 3B       		.uleb128 0x3b
 2888 0203 05       		.uleb128 0x5
 2889 0204 00       		.byte	0
 2890 0205 00       		.byte	0
 2891 0206 00       		.byte	0
 2892              		.section	.debug_loc,"",%progbits
 2893              	.Ldebug_loc0:
 2894              	.LLST0:
 2895 0000 0A000000 		.4byte	.LVL1
 2896 0004 12000000 		.4byte	.LVL2
 2897 0008 0100     		.2byte	0x1
 2898 000a 51       		.byte	0x51
 2899 000b 12000000 		.4byte	.LVL2
 2900 000f 1A000000 		.4byte	.LVL3
 2901 0013 0100     		.2byte	0x1
 2902 0015 53       		.byte	0x53
 2903 0016 1A000000 		.4byte	.LVL3
 2904 001a 1F000000 		.4byte	.LVL4-1
 2905 001e 0500     		.2byte	0x5
 2906 0020 0C       		.byte	0xc
 2907 0021 143C0140 		.4byte	0x40013c14
ARM GAS  /tmp/ccJGNaHf.s 			page 52


 2908 0025 00000000 		.4byte	0
 2909 0029 00000000 		.4byte	0
 2910              	.LLST1:
 2911 002d 0A000000 		.4byte	.LVL7
 2912 0031 12000000 		.4byte	.LVL8
 2913 0035 0100     		.2byte	0x1
 2914 0037 51       		.byte	0x51
 2915 0038 12000000 		.4byte	.LVL8
 2916 003c 1A000000 		.4byte	.LVL9
 2917 0040 0100     		.2byte	0x1
 2918 0042 53       		.byte	0x53
 2919 0043 1A000000 		.4byte	.LVL9
 2920 0047 1F000000 		.4byte	.LVL10-1
 2921 004b 0500     		.2byte	0x5
 2922 004d 0C       		.byte	0xc
 2923 004e 143C0140 		.4byte	0x40013c14
 2924 0052 00000000 		.4byte	0
 2925 0056 00000000 		.4byte	0
 2926              	.LLST2:
 2927 005a 0A000000 		.4byte	.LVL13
 2928 005e 12000000 		.4byte	.LVL14
 2929 0062 0100     		.2byte	0x1
 2930 0064 51       		.byte	0x51
 2931 0065 12000000 		.4byte	.LVL14
 2932 0069 1A000000 		.4byte	.LVL15
 2933 006d 0100     		.2byte	0x1
 2934 006f 53       		.byte	0x53
 2935 0070 1A000000 		.4byte	.LVL15
 2936 0074 1F000000 		.4byte	.LVL16-1
 2937 0078 0500     		.2byte	0x5
 2938 007a 0C       		.byte	0xc
 2939 007b 143C0140 		.4byte	0x40013c14
 2940 007f 00000000 		.4byte	0
 2941 0083 00000000 		.4byte	0
 2942              	.LLST3:
 2943 0087 0A000000 		.4byte	.LVL19
 2944 008b 12000000 		.4byte	.LVL20
 2945 008f 0100     		.2byte	0x1
 2946 0091 51       		.byte	0x51
 2947 0092 12000000 		.4byte	.LVL20
 2948 0096 1A000000 		.4byte	.LVL21
 2949 009a 0100     		.2byte	0x1
 2950 009c 53       		.byte	0x53
 2951 009d 1A000000 		.4byte	.LVL21
 2952 00a1 1F000000 		.4byte	.LVL22-1
 2953 00a5 0500     		.2byte	0x5
 2954 00a7 0C       		.byte	0xc
 2955 00a8 143C0140 		.4byte	0x40013c14
 2956 00ac 00000000 		.4byte	0
 2957 00b0 00000000 		.4byte	0
 2958              	.LLST4:
 2959 00b4 0A000000 		.4byte	.LVL25
 2960 00b8 12000000 		.4byte	.LVL26
 2961 00bc 0100     		.2byte	0x1
 2962 00be 51       		.byte	0x51
 2963 00bf 12000000 		.4byte	.LVL26
 2964 00c3 1A000000 		.4byte	.LVL27
ARM GAS  /tmp/ccJGNaHf.s 			page 53


 2965 00c7 0100     		.2byte	0x1
 2966 00c9 53       		.byte	0x53
 2967 00ca 1A000000 		.4byte	.LVL27
 2968 00ce 1F000000 		.4byte	.LVL28-1
 2969 00d2 0500     		.2byte	0x5
 2970 00d4 0C       		.byte	0xc
 2971 00d5 143C0140 		.4byte	0x40013c14
 2972 00d9 00000000 		.4byte	0
 2973 00dd 00000000 		.4byte	0
 2974              	.LLST5:
 2975 00e1 0A000000 		.4byte	.LVL31
 2976 00e5 0E000000 		.4byte	.LVL32
 2977 00e9 0100     		.2byte	0x1
 2978 00eb 54       		.byte	0x54
 2979 00ec 12000000 		.4byte	.LVL33
 2980 00f0 1A000000 		.4byte	.LVL34
 2981 00f4 0100     		.2byte	0x1
 2982 00f6 52       		.byte	0x52
 2983 00f7 1A000000 		.4byte	.LVL34
 2984 00fb 21000000 		.4byte	.LVL35-1
 2985 00ff 0500     		.2byte	0x5
 2986 0101 0C       		.byte	0xc
 2987 0102 143C0140 		.4byte	0x40013c14
 2988 0106 21000000 		.4byte	.LVL35-1
 2989 010a 5E000000 		.4byte	.LVL40
 2990 010e 0700     		.2byte	0x7
 2991 0110 74       		.byte	0x74
 2992 0111 00       		.sleb128 0
 2993 0112 0A       		.byte	0xa
 2994 0113 E003     		.2byte	0x3e0
 2995 0115 1A       		.byte	0x1a
 2996 0116 9F       		.byte	0x9f
 2997 0117 00000000 		.4byte	0
 2998 011b 00000000 		.4byte	0
 2999              	.LLST6:
 3000 011f 0A000000 		.4byte	.LVL43
 3001 0123 0E000000 		.4byte	.LVL44
 3002 0127 0100     		.2byte	0x1
 3003 0129 54       		.byte	0x54
 3004 012a 12000000 		.4byte	.LVL45
 3005 012e 16000000 		.4byte	.LVL46
 3006 0132 0100     		.2byte	0x1
 3007 0134 52       		.byte	0x52
 3008 0135 16000000 		.4byte	.LVL46
 3009 0139 1C000000 		.4byte	.LVL47
 3010 013d 0200     		.2byte	0x2
 3011 013f 73       		.byte	0x73
 3012 0140 14       		.sleb128 20
 3013 0141 1C000000 		.4byte	.LVL47
 3014 0145 21000000 		.4byte	.LVL48-1
 3015 0149 0500     		.2byte	0x5
 3016 014b 0C       		.byte	0xc
 3017 014c 143C0140 		.4byte	0x40013c14
 3018 0150 21000000 		.4byte	.LVL48-1
 3019 0154 6C000000 		.4byte	.LVL54
 3020 0158 0700     		.2byte	0x7
 3021 015a 74       		.byte	0x74
ARM GAS  /tmp/ccJGNaHf.s 			page 54


 3022 015b 00       		.sleb128 0
 3023 015c 0A       		.byte	0xa
 3024 015d 00FC     		.2byte	0xfc00
 3025 015f 1A       		.byte	0x1a
 3026 0160 9F       		.byte	0x9f
 3027 0161 00000000 		.4byte	0
 3028 0165 00000000 		.4byte	0
 3029              		.section	.debug_aranges,"",%progbits
 3030 0000 5C000000 		.4byte	0x5c
 3031 0004 0200     		.2byte	0x2
 3032 0006 00000000 		.4byte	.Ldebug_info0
 3033 000a 04       		.byte	0x4
 3034 000b 00       		.byte	0
 3035 000c 0000     		.2byte	0
 3036 000e 0000     		.2byte	0
 3037 0010 00000000 		.4byte	.LFB323
 3038 0014 30000000 		.4byte	.LFE323-.LFB323
 3039 0018 00000000 		.4byte	.LFB324
 3040 001c 30000000 		.4byte	.LFE324-.LFB324
 3041 0020 00000000 		.4byte	.LFB325
 3042 0024 30000000 		.4byte	.LFE325-.LFB325
 3043 0028 00000000 		.4byte	.LFB326
 3044 002c 30000000 		.4byte	.LFE326-.LFB326
 3045 0030 00000000 		.4byte	.LFB327
 3046 0034 30000000 		.4byte	.LFE327-.LFB327
 3047 0038 00000000 		.4byte	.LFB328
 3048 003c 6C000000 		.4byte	.LFE328-.LFB328
 3049 0040 00000000 		.4byte	.LFB329
 3050 0044 78000000 		.4byte	.LFE329-.LFB329
 3051 0048 00000000 		.4byte	.LFB330
 3052 004c 3E000000 		.4byte	.LFE330-.LFB330
 3053 0050 00000000 		.4byte	.LFB331
 3054 0054 30000000 		.4byte	.LFE331-.LFB331
 3055 0058 00000000 		.4byte	0
 3056 005c 00000000 		.4byte	0
 3057              		.section	.debug_ranges,"",%progbits
 3058              	.Ldebug_ranges0:
 3059 0000 00000000 		.4byte	.LFB323
 3060 0004 30000000 		.4byte	.LFE323
 3061 0008 00000000 		.4byte	.LFB324
 3062 000c 30000000 		.4byte	.LFE324
 3063 0010 00000000 		.4byte	.LFB325
 3064 0014 30000000 		.4byte	.LFE325
 3065 0018 00000000 		.4byte	.LFB326
 3066 001c 30000000 		.4byte	.LFE326
 3067 0020 00000000 		.4byte	.LFB327
 3068 0024 30000000 		.4byte	.LFE327
 3069 0028 00000000 		.4byte	.LFB328
 3070 002c 6C000000 		.4byte	.LFE328
 3071 0030 00000000 		.4byte	.LFB329
 3072 0034 78000000 		.4byte	.LFE329
 3073 0038 00000000 		.4byte	.LFB330
 3074 003c 3E000000 		.4byte	.LFE330
 3075 0040 00000000 		.4byte	.LFB331
 3076 0044 30000000 		.4byte	.LFE331
 3077 0048 00000000 		.4byte	0
 3078 004c 00000000 		.4byte	0
ARM GAS  /tmp/ccJGNaHf.s 			page 55


 3079              		.section	.debug_line,"",%progbits
 3080              	.Ldebug_line0:
 3081 0000 94040000 		.section	.debug_str,"MS",%progbits,1
 3081      0200F102 
 3081      00000201 
 3081      FB0E0D00 
 3081      01010101 
 3082              	.LASF86:
 3083 0000 5254435F 		.ascii	"RTC_WKUP_IRQn\000"
 3083      574B5550 
 3083      5F495251 
 3083      6E00
 3084              	.LASF91:
 3085 000e 45585449 		.ascii	"EXTI2_IRQn\000"
 3085      325F4952 
 3085      516E00
 3086              	.LASF100:
 3087 0019 444D4131 		.ascii	"DMA1_Stream6_IRQn\000"
 3087      5F537472 
 3087      65616D36 
 3087      5F495251 
 3087      6E00
 3088              	.LASF127:
 3089 002b 54494D38 		.ascii	"TIM8_UP_TIM13_IRQn\000"
 3089      5F55505F 
 3089      54494D31 
 3089      335F4952 
 3089      516E00
 3090              	.LASF171:
 3091 003e 73697A65 		.ascii	"sizetype\000"
 3091      74797065 
 3091      00
 3092              	.LASF197:
 3093 0047 77747365 		.ascii	"wtsemp\000"
 3093      6D7000
 3094              	.LASF73:
 3095 004e 73797374 		.ascii	"systime_t\000"
 3095      696D655F 
 3095      7400
 3096              	.LASF202:
 3097 0058 6F776E65 		.ascii	"owner\000"
 3097      7200
 3098              	.LASF23:
 3099 005e 74707269 		.ascii	"tprio_t\000"
 3099      6F5F7400 
 3100              	.LASF15:
 3101 0066 696E7433 		.ascii	"int32_t\000"
 3101      325F7400 
 3102              	.LASF211:
 3103 006e 56656374 		.ascii	"Vector64\000"
 3103      6F723634 
 3103      00
 3104              	.LASF56:
 3105 0077 76746675 		.ascii	"vtfunc_t\000"
 3105      6E635F74 
 3105      00
 3106              	.LASF62:
ARM GAS  /tmp/ccJGNaHf.s 			page 56


 3107 0080 63685F76 		.ascii	"ch_virtual_timers_list\000"
 3107      69727475 
 3107      616C5F74 
 3107      696D6572 
 3107      735F6C69 
 3108              	.LASF140:
 3109 0097 444D4132 		.ascii	"DMA2_Stream1_IRQn\000"
 3109      5F537472 
 3109      65616D31 
 3109      5F495251 
 3109      6E00
 3110              	.LASF134:
 3111 00a9 53504933 		.ascii	"SPI3_IRQn\000"
 3111      5F495251 
 3111      6E00
 3112              	.LASF87:
 3113 00b3 464C4153 		.ascii	"FLASH_IRQn\000"
 3113      485F4952 
 3113      516E00
 3114              	.LASF161:
 3115 00be 44434D49 		.ascii	"DCMI_IRQn\000"
 3115      5F495251 
 3115      6E00
 3116              	.LASF35:
 3117 00c8 73746174 		.ascii	"state\000"
 3117      6500
 3118              	.LASF44:
 3119 00ce 73746174 		.ascii	"stats\000"
 3119      7300
 3120              	.LASF111:
 3121 00d4 54494D32 		.ascii	"TIM2_IRQn\000"
 3121      5F495251 
 3121      6E00
 3122              	.LASF224:
 3123 00de 2E2E2F2E 		.ascii	"../../modules/ChibiOS/os/hal/ports/STM32/STM32F4xx/"
 3123      2E2F6D6F 
 3123      64756C65 
 3123      732F4368 
 3123      6962694F 
 3124 0111 73746D33 		.ascii	"stm32_isr.c\000"
 3124      325F6973 
 3124      722E6300 
 3125              	.LASF173:
 3126 011d 46545352 		.ascii	"FTSR\000"
 3126      00
 3127              	.LASF30:
 3128 0122 7072696F 		.ascii	"prio\000"
 3128      00
 3129              	.LASF147:
 3130 0127 43414E32 		.ascii	"CAN2_RX0_IRQn\000"
 3130      5F525830 
 3130      5F495251 
 3130      6E00
 3131              	.LASF154:
 3132 0135 55534152 		.ascii	"USART6_IRQn\000"
 3132      54365F49 
 3132      52516E00 
ARM GAS  /tmp/ccJGNaHf.s 			page 57


 3133              	.LASF193:
 3134 0141 65786974 		.ascii	"exitcode\000"
 3134      636F6465 
 3134      00
 3135              	.LASF7:
 3136 014a 5F5F7569 		.ascii	"__uint8_t\000"
 3136      6E74385F 
 3136      7400
 3137              	.LASF159:
 3138 0154 4F54475F 		.ascii	"OTG_HS_WKUP_IRQn\000"
 3138      48535F57 
 3138      4B55505F 
 3138      4952516E 
 3138      00
 3139              	.LASF119:
 3140 0165 53504932 		.ascii	"SPI2_IRQn\000"
 3140      5F495251 
 3140      6E00
 3141              	.LASF126:
 3142 016f 54494D38 		.ascii	"TIM8_BRK_TIM12_IRQn\000"
 3142      5F42524B 
 3142      5F54494D 
 3142      31325F49 
 3142      52516E00 
 3143              	.LASF9:
 3144 0183 6C6F6E67 		.ascii	"long int\000"
 3144      20696E74 
 3144      00
 3145              	.LASF219:
 3146 018c 5F737461 		.ascii	"_stats_increase_irq\000"
 3146      74735F69 
 3146      6E637265 
 3146      6173655F 
 3146      69727100 
 3147              	.LASF151:
 3148 01a0 444D4132 		.ascii	"DMA2_Stream5_IRQn\000"
 3148      5F537472 
 3148      65616D35 
 3148      5F495251 
 3148      6E00
 3149              	.LASF21:
 3150 01b2 74737461 		.ascii	"tstate_t\000"
 3150      74655F74 
 3150      00
 3151              	.LASF19:
 3152 01bb 72747469 		.ascii	"rttime_t\000"
 3152      6D655F74 
 3152      00
 3153              	.LASF50:
 3154 01c4 74687265 		.ascii	"threads_queue_t\000"
 3154      6164735F 
 3154      71756575 
 3154      655F7400 
 3155              	.LASF109:
 3156 01d4 54494D31 		.ascii	"TIM1_TRG_COM_TIM11_IRQn\000"
 3156      5F545247 
 3156      5F434F4D 
ARM GAS  /tmp/ccJGNaHf.s 			page 58


 3156      5F54494D 
 3156      31315F49 
 3157              	.LASF172:
 3158 01ec 52545352 		.ascii	"RTSR\000"
 3158      00
 3159              	.LASF175:
 3160 01f1 45585449 		.ascii	"EXTI_TypeDef\000"
 3160      5F547970 
 3160      65446566 
 3160      00
 3161              	.LASF82:
 3162 01fe 53797354 		.ascii	"SysTick_IRQn\000"
 3162      69636B5F 
 3162      4952516E 
 3162      00
 3163              	.LASF122:
 3164 020b 55534152 		.ascii	"USART3_IRQn\000"
 3164      54335F49 
 3164      52516E00 
 3165              	.LASF185:
 3166 0217 63756D75 		.ascii	"cumulative\000"
 3166      6C617469 
 3166      766500
 3167              	.LASF3:
 3168 0222 7369676E 		.ascii	"signed char\000"
 3168      65642063 
 3168      68617200 
 3169              	.LASF199:
 3170 022e 65776D61 		.ascii	"ewmask\000"
 3170      736B00
 3171              	.LASF14:
 3172 0235 75696E74 		.ascii	"uint8_t\000"
 3172      385F7400 
 3173              	.LASF25:
 3174 023d 6576656E 		.ascii	"eventmask_t\000"
 3174      746D6173 
 3174      6B5F7400 
 3175              	.LASF195:
 3176 0249 77747472 		.ascii	"wttrp\000"
 3176      7000
 3177              	.LASF96:
 3178 024f 444D4131 		.ascii	"DMA1_Stream2_IRQn\000"
 3178      5F537472 
 3178      65616D32 
 3178      5F495251 
 3178      6E00
 3179              	.LASF4:
 3180 0261 756E7369 		.ascii	"unsigned char\000"
 3180      676E6564 
 3180      20636861 
 3180      7200
 3181              	.LASF143:
 3182 026f 444D4132 		.ascii	"DMA2_Stream4_IRQn\000"
 3182      5F537472 
 3182      65616D34 
 3182      5F495251 
 3182      6E00
ARM GAS  /tmp/ccJGNaHf.s 			page 59


 3183              	.LASF63:
 3184 0281 6C617374 		.ascii	"lasttime\000"
 3184      74696D65 
 3184      00
 3185              	.LASF168:
 3186 028a 53504936 		.ascii	"SPI6_IRQn\000"
 3186      5F495251 
 3186      6E00
 3187              	.LASF66:
 3188 0294 70616E69 		.ascii	"panic_msg\000"
 3188      635F6D73 
 3188      6700
 3189              	.LASF115:
 3190 029e 49324331 		.ascii	"I2C1_ER_IRQn\000"
 3190      5F45525F 
 3190      4952516E 
 3190      00
 3191              	.LASF64:
 3192 02ab 73797374 		.ascii	"system_debug_t\000"
 3192      656D5F64 
 3192      65627567 
 3192      5F7400
 3193              	.LASF149:
 3194 02ba 43414E32 		.ascii	"CAN2_SCE_IRQn\000"
 3194      5F534345 
 3194      5F495251 
 3194      6E00
 3195              	.LASF205:
 3196 02c8 5F426F6F 		.ascii	"_Bool\000"
 3196      6C00
 3197              	.LASF216:
 3198 02ce 69727144 		.ascii	"irqDeinit\000"
 3198      65696E69 
 3198      7400
 3199              	.LASF133:
 3200 02d8 54494D35 		.ascii	"TIM5_IRQn\000"
 3200      5F495251 
 3200      6E00
 3201              	.LASF78:
 3202 02e2 55736167 		.ascii	"UsageFault_IRQn\000"
 3202      65466175 
 3202      6C745F49 
 3202      52516E00 
 3203              	.LASF203:
 3204 02f2 63686172 		.ascii	"char\000"
 3204      00
 3205              	.LASF194:
 3206 02f7 77746F62 		.ascii	"wtobjp\000"
 3206      6A7000
 3207              	.LASF103:
 3208 02fe 43414E31 		.ascii	"CAN1_RX0_IRQn\000"
 3208      5F525830 
 3208      5F495251 
 3208      6E00
 3209              	.LASF188:
 3210 030c 6E5F6374 		.ascii	"n_ctxswc\000"
 3210      78737763 
ARM GAS  /tmp/ccJGNaHf.s 			page 60


 3210      00
 3211              	.LASF167:
 3212 0315 53504935 		.ascii	"SPI5_IRQn\000"
 3212      5F495251 
 3212      6E00
 3213              	.LASF207:
 3214 031f 70616C65 		.ascii	"palevent_t\000"
 3214      76656E74 
 3214      5F7400
 3215              	.LASF36:
 3216 032a 666C6167 		.ascii	"flags\000"
 3216      7300
 3217              	.LASF177:
 3218 0330 73746B61 		.ascii	"stkalign_t\000"
 3218      6C69676E 
 3218      5F7400
 3219              	.LASF169:
 3220 033b 53414931 		.ascii	"SAI1_IRQn\000"
 3220      5F495251 
 3220      6E00
 3221              	.LASF43:
 3222 0345 6D706F6F 		.ascii	"mpool\000"
 3222      6C00
 3223              	.LASF113:
 3224 034b 54494D34 		.ascii	"TIM4_IRQn\000"
 3224      5F495251 
 3224      6E00
 3225              	.LASF121:
 3226 0355 55534152 		.ascii	"USART2_IRQn\000"
 3226      54325F49 
 3226      52516E00 
 3227              	.LASF165:
 3228 0361 55415254 		.ascii	"UART8_IRQn\000"
 3228      385F4952 
 3228      516E00
 3229              	.LASF183:
 3230 036c 776F7273 		.ascii	"worst\000"
 3230      7400
 3231              	.LASF26:
 3232 0372 636E745F 		.ascii	"cnt_t\000"
 3232      7400
 3233              	.LASF114:
 3234 0378 49324331 		.ascii	"I2C1_EV_IRQn\000"
 3234      5F45565F 
 3234      4952516E 
 3234      00
 3235              	.LASF198:
 3236 0385 77746D74 		.ascii	"wtmtxp\000"
 3236      787000
 3237              	.LASF54:
 3238 038c 63685F72 		.ascii	"ch_ready_list\000"
 3238      65616479 
 3238      5F6C6973 
 3238      7400
 3239              	.LASF110:
 3240 039a 54494D31 		.ascii	"TIM1_CC_IRQn\000"
 3240      5F43435F 
ARM GAS  /tmp/ccJGNaHf.s 			page 61


 3240      4952516E 
 3240      00
 3241              	.LASF162:
 3242 03a7 48415348 		.ascii	"HASH_RNG_IRQn\000"
 3242      5F524E47 
 3242      5F495251 
 3242      6E00
 3243              	.LASF90:
 3244 03b5 45585449 		.ascii	"EXTI1_IRQn\000"
 3244      315F4952 
 3244      516E00
 3245              	.LASF102:
 3246 03c0 43414E31 		.ascii	"CAN1_TX_IRQn\000"
 3246      5F54585F 
 3246      4952516E 
 3246      00
 3247              	.LASF99:
 3248 03cd 444D4131 		.ascii	"DMA1_Stream5_IRQn\000"
 3248      5F537472 
 3248      65616D35 
 3248      5F495251 
 3248      6E00
 3249              	.LASF128:
 3250 03df 54494D38 		.ascii	"TIM8_TRG_COM_TIM14_IRQn\000"
 3250      5F545247 
 3250      5F434F4D 
 3250      5F54494D 
 3250      31345F49 
 3251              	.LASF153:
 3252 03f7 444D4132 		.ascii	"DMA2_Stream7_IRQn\000"
 3252      5F537472 
 3252      65616D37 
 3252      5F495251 
 3252      6E00
 3253              	.LASF150:
 3254 0409 4F54475F 		.ascii	"OTG_FS_IRQn\000"
 3254      46535F49 
 3254      52516E00 
 3255              	.LASF206:
 3256 0415 70616C63 		.ascii	"palcallback_t\000"
 3256      616C6C62 
 3256      61636B5F 
 3256      7400
 3257              	.LASF189:
 3258 0423 6D5F6372 		.ascii	"m_crit_thd\000"
 3258      69745F74 
 3258      686400
 3259              	.LASF75:
 3260 042e 4E6F6E4D 		.ascii	"NonMaskableInt_IRQn\000"
 3260      61736B61 
 3260      626C6549 
 3260      6E745F49 
 3260      52516E00 
 3261              	.LASF12:
 3262 0442 5F5F7569 		.ascii	"__uint64_t\000"
 3262      6E743634 
 3262      5F7400
ARM GAS  /tmp/ccJGNaHf.s 			page 62


 3263              	.LASF83:
 3264 044d 57574447 		.ascii	"WWDG_IRQn\000"
 3264      5F495251 
 3264      6E00
 3265              	.LASF11:
 3266 0457 6C6F6E67 		.ascii	"long unsigned int\000"
 3266      20756E73 
 3266      69676E65 
 3266      6420696E 
 3266      7400
 3267              	.LASF208:
 3268 0469 56656374 		.ascii	"Vector58\000"
 3268      6F723538 
 3268      00
 3269              	.LASF76:
 3270 0472 4D656D6F 		.ascii	"MemoryManagement_IRQn\000"
 3270      72794D61 
 3270      6E616765 
 3270      6D656E74 
 3270      5F495251 
 3271              	.LASF209:
 3272 0488 56656374 		.ascii	"Vector5C\000"
 3272      6F723543 
 3272      00
 3273              	.LASF200:
 3274 0491 63685F73 		.ascii	"ch_semaphore\000"
 3274      656D6170 
 3274      686F7265 
 3274      00
 3275              	.LASF85:
 3276 049e 54414D50 		.ascii	"TAMP_STAMP_IRQn\000"
 3276      5F535441 
 3276      4D505F49 
 3276      52516E00 
 3277              	.LASF47:
 3278 04ae 63685F74 		.ascii	"ch_thread\000"
 3278      68726561 
 3278      6400
 3279              	.LASF105:
 3280 04b8 43414E31 		.ascii	"CAN1_SCE_IRQn\000"
 3280      5F534345 
 3280      5F495251 
 3280      6E00
 3281              	.LASF61:
 3282 04c6 76697274 		.ascii	"virtual_timers_list_t\000"
 3282      75616C5F 
 3282      74696D65 
 3282      72735F6C 
 3282      6973745F 
 3283              	.LASF139:
 3284 04dc 444D4132 		.ascii	"DMA2_Stream0_IRQn\000"
 3284      5F537472 
 3284      65616D30 
 3284      5F495251 
 3284      6E00
 3285              	.LASF210:
 3286 04ee 56656374 		.ascii	"Vector60\000"
ARM GAS  /tmp/ccJGNaHf.s 			page 63


 3286      6F723630 
 3286      00
 3287              	.LASF57:
 3288 04f7 76697274 		.ascii	"virtual_timer_t\000"
 3288      75616C5F 
 3288      74696D65 
 3288      725F7400 
 3289              	.LASF53:
 3290 0507 72656164 		.ascii	"ready_list_t\000"
 3290      795F6C69 
 3290      73745F74 
 3290      00
 3291              	.LASF32:
 3292 0514 6F6C6465 		.ascii	"older\000"
 3292      7200
 3293              	.LASF212:
 3294 051a 56656374 		.ascii	"Vector68\000"
 3294      6F723638 
 3294      00
 3295              	.LASF42:
 3296 0523 7265616C 		.ascii	"realprio\000"
 3296      7072696F 
 3296      00
 3297              	.LASF27:
 3298 052c 75636E74 		.ascii	"ucnt_t\000"
 3298      5F7400
 3299              	.LASF117:
 3300 0533 49324332 		.ascii	"I2C2_ER_IRQn\000"
 3300      5F45525F 
 3300      4952516E 
 3300      00
 3301              	.LASF48:
 3302 0540 63685F74 		.ascii	"ch_threads_list\000"
 3302      68726561 
 3302      64735F6C 
 3302      69737400 
 3303              	.LASF187:
 3304 0550 6E5F6972 		.ascii	"n_irq\000"
 3304      7100
 3305              	.LASF77:
 3306 0556 42757346 		.ascii	"BusFault_IRQn\000"
 3306      61756C74 
 3306      5F495251 
 3306      6E00
 3307              	.LASF136:
 3308 0564 55415254 		.ascii	"UART5_IRQn\000"
 3308      355F4952 
 3308      516E00
 3309              	.LASF107:
 3310 056f 54494D31 		.ascii	"TIM1_BRK_TIM9_IRQn\000"
 3310      5F42524B 
 3310      5F54494D 
 3310      395F4952 
 3310      516E00
 3311              	.LASF10:
 3312 0582 5F5F7569 		.ascii	"__uint32_t\000"
 3312      6E743332 
ARM GAS  /tmp/ccJGNaHf.s 			page 64


 3312      5F7400
 3313              	.LASF41:
 3314 058d 6D74786C 		.ascii	"mtxlist\000"
 3314      69737400 
 3315              	.LASF138:
 3316 0595 54494D37 		.ascii	"TIM7_IRQn\000"
 3316      5F495251 
 3316      6E00
 3317              	.LASF1:
 3318 059f 6C6F6E67 		.ascii	"long long int\000"
 3318      206C6F6E 
 3318      6720696E 
 3318      7400
 3319              	.LASF145:
 3320 05ad 4554485F 		.ascii	"ETH_WKUP_IRQn\000"
 3320      574B5550 
 3320      5F495251 
 3320      6E00
 3321              	.LASF160:
 3322 05bb 4F54475F 		.ascii	"OTG_HS_IRQn\000"
 3322      48535F49 
 3322      52516E00 
 3323              	.LASF74:
 3324 05c7 73797369 		.ascii	"sysinterval_t\000"
 3324      6E746572 
 3324      76616C5F 
 3324      7400
 3325              	.LASF118:
 3326 05d5 53504931 		.ascii	"SPI1_IRQn\000"
 3326      5F495251 
 3326      6E00
 3327              	.LASF79:
 3328 05df 53564361 		.ascii	"SVCall_IRQn\000"
 3328      6C6C5F49 
 3328      52516E00 
 3329              	.LASF163:
 3330 05eb 4650555F 		.ascii	"FPU_IRQn\000"
 3330      4952516E 
 3330      00
 3331              	.LASF135:
 3332 05f4 55415254 		.ascii	"UART4_IRQn\000"
 3332      345F4952 
 3332      516E00
 3333              	.LASF125:
 3334 05ff 4F54475F 		.ascii	"OTG_FS_WKUP_IRQn\000"
 3334      46535F57 
 3334      4B55505F 
 3334      4952516E 
 3334      00
 3335              	.LASF186:
 3336 0610 74696D65 		.ascii	"time_measurement_t\000"
 3336      5F6D6561 
 3336      73757265 
 3336      6D656E74 
 3336      5F7400
 3337              	.LASF213:
 3338 0623 56656374 		.ascii	"Vector9C\000"
ARM GAS  /tmp/ccJGNaHf.s 			page 65


 3338      6F723943 
 3338      00
 3339              	.LASF190:
 3340 062c 6D5F6372 		.ascii	"m_crit_isr\000"
 3340      69745F69 
 3340      737200
 3341              	.LASF0:
 3342 0637 756E7369 		.ascii	"unsigned int\000"
 3342      676E6564 
 3342      20696E74 
 3342      00
 3343              	.LASF170:
 3344 0644 444D4132 		.ascii	"DMA2D_IRQn\000"
 3344      445F4952 
 3344      516E00
 3345              	.LASF18:
 3346 064f 7274636E 		.ascii	"rtcnt_t\000"
 3346      745F7400 
 3347              	.LASF116:
 3348 0657 49324332 		.ascii	"I2C2_EV_IRQn\000"
 3348      5F45565F 
 3348      4952516E 
 3348      00
 3349              	.LASF191:
 3350 0664 6B65726E 		.ascii	"kernel_stats_t\000"
 3350      656C5F73 
 3350      74617473 
 3350      5F7400
 3351              	.LASF220:
 3352 0673 5F706F72 		.ascii	"_port_irq_epilogue\000"
 3352      745F6972 
 3352      715F6570 
 3352      696C6F67 
 3352      756500
 3353              	.LASF55:
 3354 0686 63757272 		.ascii	"current\000"
 3354      656E7400 
 3355              	.LASF180:
 3356 068e 6F666673 		.ascii	"offset\000"
 3356      657400
 3357              	.LASF95:
 3358 0695 444D4131 		.ascii	"DMA1_Stream1_IRQn\000"
 3358      5F537472 
 3358      65616D31 
 3358      5F495251 
 3358      6E00
 3359              	.LASF142:
 3360 06a7 444D4132 		.ascii	"DMA2_Stream3_IRQn\000"
 3360      5F537472 
 3360      65616D33 
 3360      5F495251 
 3360      6E00
 3361              	.LASF146:
 3362 06b9 43414E32 		.ascii	"CAN2_TX_IRQn\000"
 3362      5F54585F 
 3362      4952516E 
 3362      00
ARM GAS  /tmp/ccJGNaHf.s 			page 66


 3363              	.LASF176:
 3364 06c6 72656761 		.ascii	"regarm_t\000"
 3364      726D5F74 
 3364      00
 3365              	.LASF225:
 3366 06cf 2F686F6D 		.ascii	"/home/user/csse4011/project/4011-surfbee/ardupilot/"
 3366      652F7573 
 3366      65722F63 
 3366      73736534 
 3366      3031312F 
 3367 0702 6275696C 		.ascii	"build/stm32l475\000"
 3367      642F7374 
 3367      6D33326C 
 3367      34373500 
 3368              	.LASF218:
 3369 0712 5F70616C 		.ascii	"_pal_events\000"
 3369      5F657665 
 3369      6E747300 
 3370              	.LASF28:
 3371 071e 74687265 		.ascii	"thread_t\000"
 3371      61645F74 
 3371      00
 3372              	.LASF2:
 3373 0727 6C6F6E67 		.ascii	"long double\000"
 3373      20646F75 
 3373      626C6500 
 3374              	.LASF222:
 3375 0733 6E766963 		.ascii	"nvicDisableVector\000"
 3375      44697361 
 3375      626C6556 
 3375      6563746F 
 3375      7200
 3376              	.LASF45:
 3377 0745 74687265 		.ascii	"thread_reference_t\000"
 3377      61645F72 
 3377      65666572 
 3377      656E6365 
 3377      5F7400
 3378              	.LASF196:
 3379 0758 73656E74 		.ascii	"sentmsg\000"
 3379      6D736700 
 3380              	.LASF179:
 3381 0760 706F7274 		.ascii	"port_intctx\000"
 3381      5F696E74 
 3381      63747800 
 3382              	.LASF223:
 3383 076c 474E5520 		.ascii	"GNU C11 5.4.1 20160919 -mcpu=cortex-m4 -mfloat-abi="
 3383      43313120 
 3383      352E342E 
 3383      31203230 
 3383      31363039 
 3384 079f 68617264 		.ascii	"hard -mfpu=fpv4-sp-d16 -mno-thumb-interwork -mthumb"
 3384      202D6D66 
 3384      70753D66 
 3384      7076342D 
 3384      73702D64 
 3385 07d2 202D6720 		.ascii	" -g -Os -fomit-frame-pointer -falign-functions=16 -"
ARM GAS  /tmp/ccJGNaHf.s 			page 67


 3385      2D4F7320 
 3385      2D666F6D 
 3385      69742D66 
 3385      72616D65 
 3386 0805 6666756E 		.ascii	"ffunction-sections -fdata-sections -fno-common -fsi"
 3386      6374696F 
 3386      6E2D7365 
 3386      6374696F 
 3386      6E73202D 
 3387 0838 6E676C65 		.ascii	"ngle-precision-constant\000"
 3387      2D707265 
 3387      63697369 
 3387      6F6E2D63 
 3387      6F6E7374 
 3388              	.LASF94:
 3389 0850 444D4131 		.ascii	"DMA1_Stream0_IRQn\000"
 3389      5F537472 
 3389      65616D30 
 3389      5F495251 
 3389      6E00
 3390              	.LASF174:
 3391 0862 53574945 		.ascii	"SWIER\000"
 3391      5200
 3392              	.LASF58:
 3393 0868 63685F76 		.ascii	"ch_virtual_timer\000"
 3393      69727475 
 3393      616C5F74 
 3393      696D6572 
 3393      00
 3394              	.LASF124:
 3395 0879 5254435F 		.ascii	"RTC_Alarm_IRQn\000"
 3395      416C6172 
 3395      6D5F4952 
 3395      516E00
 3396              	.LASF166:
 3397 0888 53504934 		.ascii	"SPI4_IRQn\000"
 3397      5F495251 
 3397      6E00
 3398              	.LASF131:
 3399 0892 464D435F 		.ascii	"FMC_IRQn\000"
 3399      4952516E 
 3399      00
 3400              	.LASF72:
 3401 089b 6B65726E 		.ascii	"kernel_stats\000"
 3401      656C5F73 
 3401      74617473 
 3401      00
 3402              	.LASF156:
 3403 08a8 49324333 		.ascii	"I2C3_ER_IRQn\000"
 3403      5F45525F 
 3403      4952516E 
 3403      00
 3404              	.LASF123:
 3405 08b5 45585449 		.ascii	"EXTI15_10_IRQn\000"
 3405      31355F31 
 3405      305F4952 
 3405      516E00
ARM GAS  /tmp/ccJGNaHf.s 			page 68


 3406              	.LASF13:
 3407 08c4 6C6F6E67 		.ascii	"long long unsigned int\000"
 3407      206C6F6E 
 3407      6720756E 
 3407      7369676E 
 3407      65642069 
 3408              	.LASF24:
 3409 08db 6D73675F 		.ascii	"msg_t\000"
 3409      7400
 3410              	.LASF51:
 3411 08e1 63685F74 		.ascii	"ch_threads_queue\000"
 3411      68726561 
 3411      64735F71 
 3411      75657565 
 3411      00
 3412              	.LASF112:
 3413 08f2 54494D33 		.ascii	"TIM3_IRQn\000"
 3413      5F495251 
 3413      6E00
 3414              	.LASF120:
 3415 08fc 55534152 		.ascii	"USART1_IRQn\000"
 3415      54315F49 
 3415      52516E00 
 3416              	.LASF164:
 3417 0908 55415254 		.ascii	"UART7_IRQn\000"
 3417      375F4952 
 3417      516E00
 3418              	.LASF59:
 3419 0913 64656C74 		.ascii	"delta\000"
 3419      6100
 3420              	.LASF37:
 3421 0919 72656673 		.ascii	"refs\000"
 3421      00
 3422              	.LASF29:
 3423 091e 71756575 		.ascii	"queue\000"
 3423      6500
 3424              	.LASF148:
 3425 0924 43414E32 		.ascii	"CAN2_RX1_IRQn\000"
 3425      5F525831 
 3425      5F495251 
 3425      6E00
 3426              	.LASF40:
 3427 0932 6570656E 		.ascii	"epending\000"
 3427      64696E67 
 3427      00
 3428              	.LASF101:
 3429 093b 4144435F 		.ascii	"ADC_IRQn\000"
 3429      4952516E 
 3429      00
 3430              	.LASF71:
 3431 0944 6D61696E 		.ascii	"mainthread\000"
 3431      74687265 
 3431      616400
 3432              	.LASF182:
 3433 094f 62657374 		.ascii	"best\000"
 3433      00
 3434              	.LASF34:
ARM GAS  /tmp/ccJGNaHf.s 			page 69


 3435 0954 77616261 		.ascii	"wabase\000"
 3435      736500
 3436              	.LASF84:
 3437 095b 5056445F 		.ascii	"PVD_IRQn\000"
 3437      4952516E 
 3437      00
 3438              	.LASF89:
 3439 0964 45585449 		.ascii	"EXTI0_IRQn\000"
 3439      305F4952 
 3439      516E00
 3440              	.LASF69:
 3441 096f 726C6973 		.ascii	"rlist\000"
 3441      7400
 3442              	.LASF20:
 3443 0975 746D6F64 		.ascii	"tmode_t\000"
 3443      655F7400 
 3444              	.LASF98:
 3445 097d 444D4131 		.ascii	"DMA1_Stream4_IRQn\000"
 3445      5F537472 
 3445      65616D34 
 3445      5F495251 
 3445      6E00
 3446              	.LASF152:
 3447 098f 444D4132 		.ascii	"DMA2_Stream6_IRQn\000"
 3447      5F537472 
 3447      65616D36 
 3447      5F495251 
 3447      6E00
 3448              	.LASF80:
 3449 09a1 44656275 		.ascii	"DebugMonitor_IRQn\000"
 3449      674D6F6E 
 3449      69746F72 
 3449      5F495251 
 3449      6E00
 3450              	.LASF155:
 3451 09b3 49324333 		.ascii	"I2C3_EV_IRQn\000"
 3451      5F45565F 
 3451      4952516E 
 3451      00
 3452              	.LASF181:
 3453 09c0 746D5F63 		.ascii	"tm_calibration_t\000"
 3453      616C6962 
 3453      72617469 
 3453      6F6E5F74 
 3453      00
 3454              	.LASF144:
 3455 09d1 4554485F 		.ascii	"ETH_IRQn\000"
 3455      4952516E 
 3455      00
 3456              	.LASF33:
 3457 09da 6E616D65 		.ascii	"name\000"
 3457      00
 3458              	.LASF5:
 3459 09df 73686F72 		.ascii	"short int\000"
 3459      7420696E 
 3459      7400
 3460              	.LASF17:
ARM GAS  /tmp/ccJGNaHf.s 			page 70


 3461 09e9 75696E74 		.ascii	"uint64_t\000"
 3461      36345F74 
 3461      00
 3462              	.LASF88:
 3463 09f2 5243435F 		.ascii	"RCC_IRQn\000"
 3463      4952516E 
 3463      00
 3464              	.LASF60:
 3465 09fb 66756E63 		.ascii	"func\000"
 3465      00
 3466              	.LASF201:
 3467 0a00 63685F6D 		.ascii	"ch_mutex\000"
 3467      75746578 
 3467      00
 3468              	.LASF39:
 3469 0a09 6D736771 		.ascii	"msgqueue\000"
 3469      75657565 
 3469      00
 3470              	.LASF97:
 3471 0a12 444D4131 		.ascii	"DMA1_Stream3_IRQn\000"
 3471      5F537472 
 3471      65616D33 
 3471      5F495251 
 3471      6E00
 3472              	.LASF65:
 3473 0a24 63685F73 		.ascii	"ch_system_debug\000"
 3473      79737465 
 3473      6D5F6465 
 3473      62756700 
 3474              	.LASF215:
 3475 0a34 69727149 		.ascii	"irqInit\000"
 3475      6E697400 
 3476              	.LASF108:
 3477 0a3c 54494D31 		.ascii	"TIM1_UP_TIM10_IRQn\000"
 3477      5F55505F 
 3477      54494D31 
 3477      305F4952 
 3477      516E00
 3478              	.LASF217:
 3479 0a4f 49544D5F 		.ascii	"ITM_RxBuffer\000"
 3479      52784275 
 3479      66666572 
 3479      00
 3480              	.LASF70:
 3481 0a5c 76746C69 		.ascii	"vtlist\000"
 3481      737400
 3482              	.LASF38:
 3483 0a63 77616974 		.ascii	"waiting\000"
 3483      696E6700 
 3484              	.LASF204:
 3485 0a6b 6D757465 		.ascii	"mutex_t\000"
 3485      785F7400 
 3486              	.LASF22:
 3487 0a73 74726566 		.ascii	"trefs_t\000"
 3487      735F7400 
 3488              	.LASF157:
 3489 0a7b 4F54475F 		.ascii	"OTG_HS_EP1_OUT_IRQn\000"
ARM GAS  /tmp/ccJGNaHf.s 			page 71


 3489      48535F45 
 3489      50315F4F 
 3489      55545F49 
 3489      52516E00 
 3490              	.LASF178:
 3491 0a8f 706F7274 		.ascii	"port_context\000"
 3491      5F636F6E 
 3491      74657874 
 3491      00
 3492              	.LASF46:
 3493 0a9c 74687265 		.ascii	"threads_list_t\000"
 3493      6164735F 
 3493      6C697374 
 3493      5F7400
 3494              	.LASF68:
 3495 0aab 63685F73 		.ascii	"ch_system\000"
 3495      79737465 
 3495      6D00
 3496              	.LASF31:
 3497 0ab5 6E657765 		.ascii	"newer\000"
 3497      7200
 3498              	.LASF221:
 3499 0abb 6E766963 		.ascii	"nvicEnableVector\000"
 3499      456E6162 
 3499      6C655665 
 3499      63746F72 
 3499      00
 3500              	.LASF16:
 3501 0acc 75696E74 		.ascii	"uint32_t\000"
 3501      33325F74 
 3501      00
 3502              	.LASF104:
 3503 0ad5 43414E31 		.ascii	"CAN1_RX1_IRQn\000"
 3503      5F525831 
 3503      5F495251 
 3503      6E00
 3504              	.LASF106:
 3505 0ae3 45585449 		.ascii	"EXTI9_5_IRQn\000"
 3505      395F355F 
 3505      4952516E 
 3505      00
 3506              	.LASF192:
 3507 0af0 7264796D 		.ascii	"rdymsg\000"
 3507      736700
 3508              	.LASF93:
 3509 0af7 45585449 		.ascii	"EXTI4_IRQn\000"
 3509      345F4952 
 3509      516E00
 3510              	.LASF6:
 3511 0b02 73686F72 		.ascii	"short unsigned int\000"
 3511      7420756E 
 3511      7369676E 
 3511      65642069 
 3511      6E7400
 3512              	.LASF129:
 3513 0b15 54494D38 		.ascii	"TIM8_CC_IRQn\000"
 3513      5F43435F 
ARM GAS  /tmp/ccJGNaHf.s 			page 72


 3513      4952516E 
 3513      00
 3514              	.LASF132:
 3515 0b22 5344494F 		.ascii	"SDIO_IRQn\000"
 3515      5F495251 
 3515      6E00
 3516              	.LASF67:
 3517 0b2c 63685F73 		.ascii	"ch_system_t\000"
 3517      79737465 
 3517      6D5F7400 
 3518              	.LASF214:
 3519 0b38 56656374 		.ascii	"VectorE0\000"
 3519      6F724530 
 3519      00
 3520              	.LASF92:
 3521 0b41 45585449 		.ascii	"EXTI3_IRQn\000"
 3521      335F4952 
 3521      516E00
 3522              	.LASF81:
 3523 0b4c 50656E64 		.ascii	"PendSV_IRQn\000"
 3523      53565F49 
 3523      52516E00 
 3524              	.LASF158:
 3525 0b58 4F54475F 		.ascii	"OTG_HS_EP1_IN_IRQn\000"
 3525      48535F45 
 3525      50315F49 
 3525      4E5F4952 
 3525      516E00
 3526              	.LASF130:
 3527 0b6b 444D4131 		.ascii	"DMA1_Stream7_IRQn\000"
 3527      5F537472 
 3527      65616D37 
 3527      5F495251 
 3527      6E00
 3528              	.LASF8:
 3529 0b7d 5F5F696E 		.ascii	"__int32_t\000"
 3529      7433325F 
 3529      7400
 3530              	.LASF49:
 3531 0b87 6E657874 		.ascii	"next\000"
 3531      00
 3532              	.LASF52:
 3533 0b8c 70726576 		.ascii	"prev\000"
 3533      00
 3534              	.LASF137:
 3535 0b91 54494D36 		.ascii	"TIM6_DAC_IRQn\000"
 3535      5F444143 
 3535      5F495251 
 3535      6E00
 3536              	.LASF141:
 3537 0b9f 444D4132 		.ascii	"DMA2_Stream2_IRQn\000"
 3537      5F537472 
 3537      65616D32 
 3537      5F495251 
 3537      6E00
 3538              	.LASF184:
 3539 0bb1 6C617374 		.ascii	"last\000"
ARM GAS  /tmp/ccJGNaHf.s 			page 73


 3539      00
 3540              		.ident	"GCC: (15:5.4.1+svn241155-1) 5.4.1 20160919"
ARM GAS  /tmp/ccJGNaHf.s 			page 74


DEFINED SYMBOLS
                            *ABS*:0000000000000000 stm32_isr.c
     /tmp/ccJGNaHf.s:22     .text.Vector58:0000000000000000 $t
     /tmp/ccJGNaHf.s:27     .text.Vector58:0000000000000000 Vector58
     /tmp/ccJGNaHf.s:75     .text.Vector58:0000000000000028 $d
     /tmp/ccJGNaHf.s:81     .text.Vector5C:0000000000000000 $t
     /tmp/ccJGNaHf.s:86     .text.Vector5C:0000000000000000 Vector5C
     /tmp/ccJGNaHf.s:133    .text.Vector5C:0000000000000028 $d
     /tmp/ccJGNaHf.s:139    .text.Vector60:0000000000000000 $t
     /tmp/ccJGNaHf.s:144    .text.Vector60:0000000000000000 Vector60
     /tmp/ccJGNaHf.s:191    .text.Vector60:0000000000000028 $d
     /tmp/ccJGNaHf.s:197    .text.Vector64:0000000000000000 $t
     /tmp/ccJGNaHf.s:202    .text.Vector64:0000000000000000 Vector64
     /tmp/ccJGNaHf.s:249    .text.Vector64:0000000000000028 $d
     /tmp/ccJGNaHf.s:255    .text.Vector68:0000000000000000 $t
     /tmp/ccJGNaHf.s:260    .text.Vector68:0000000000000000 Vector68
     /tmp/ccJGNaHf.s:307    .text.Vector68:0000000000000028 $d
     /tmp/ccJGNaHf.s:313    .text.Vector9C:0000000000000000 $t
     /tmp/ccJGNaHf.s:318    .text.Vector9C:0000000000000000 Vector9C
     /tmp/ccJGNaHf.s:416    .text.Vector9C:0000000000000064 $d
     /tmp/ccJGNaHf.s:422    .text.VectorE0:0000000000000000 $t
     /tmp/ccJGNaHf.s:427    .text.VectorE0:0000000000000000 VectorE0
     /tmp/ccJGNaHf.s:538    .text.VectorE0:0000000000000070 $d
     /tmp/ccJGNaHf.s:544    .text.irqInit:0000000000000000 $t
     /tmp/ccJGNaHf.s:549    .text.irqInit:0000000000000000 irqInit
     /tmp/ccJGNaHf.s:606    .text.irqDeinit:0000000000000000 $t
     /tmp/ccJGNaHf.s:611    .text.irqDeinit:0000000000000000 irqDeinit
                     .debug_frame:0000000000000010 $d

UNDEFINED SYMBOLS
_stats_increase_irq
_port_irq_epilogue
_pal_events
nvicEnableVector
nvicDisableVector
