ARM GAS  /tmp/ccPypXHb.s 			page 1


   1              		.syntax unified
   2              		.cpu cortex-m4
   3              		.eabi_attribute 27, 1
   4              		.eabi_attribute 28, 1
   5              		.fpu fpv4-sp-d16
   6              		.eabi_attribute 20, 1
   7              		.eabi_attribute 21, 1
   8              		.eabi_attribute 23, 3
   9              		.eabi_attribute 24, 1
  10              		.eabi_attribute 25, 1
  11              		.eabi_attribute 26, 1
  12              		.eabi_attribute 30, 4
  13              		.eabi_attribute 34, 1
  14              		.eabi_attribute 18, 4
  15              		.thumb
  16              		.syntax unified
  17              		.file	"stm32_util.c"
  18              		.text
  19              	.Ltext0:
  20              		.cfi_sections	.debug_frame
  21              		.section	.text.stm32_timer_set_input_filter,"ax",%progbits
  22              		.align	1
  23              		.global	stm32_timer_set_input_filter
  24              		.thumb
  25              		.thumb_func
  26              		.type	stm32_timer_set_input_filter, %function
  27              	stm32_timer_set_input_filter:
  28              	.LFB323:
  29              		.file 1 "../../libraries/AP_HAL_ChibiOS/hwdef/common/stm32_util.c"
  30              		.loc 1 29 0
  31              		.cfi_startproc
  32              		@ args = 0, pretend = 0, frame = 0
  33              		@ frame_needed = 0, uses_anonymous_args = 0
  34              		@ link register save eliminated.
  35              	.LVL0:
  36              		.loc 1 30 0
  37 0000 0329     		cmp	r1, #3
  38 0002 14D8     		bhi	.L1
  39 0004 DFE801F0 		tbb	[pc, r1]
  40              	.L4:
  41 0008 02       		.byte	(.L3-.L4)/2
  42 0009 06       		.byte	(.L5-.L4)/2
  43 000a 0B       		.byte	(.L6-.L4)/2
  44 000b 0F       		.byte	(.L7-.L4)/2
  45              		.p2align 1
  46              	.L3:
  47              		.loc 1 32 0
  48 000c 8369     		ldr	r3, [r0, #24]
  49 000e 43EA0212 		orr	r2, r3, r2, lsl #4
  50              	.LVL1:
  51 0012 02E0     		b	.L8
  52              	.LVL2:
  53              	.L5:
  54              		.loc 1 35 0
  55 0014 8369     		ldr	r3, [r0, #24]
  56 0016 43EA0232 		orr	r2, r3, r2, lsl #12
  57              	.LVL3:
ARM GAS  /tmp/ccPypXHb.s 			page 2


  58              	.L8:
  59 001a 8261     		str	r2, [r0, #24]
  60              		.loc 1 36 0
  61 001c 7047     		bx	lr
  62              	.LVL4:
  63              	.L6:
  64              		.loc 1 38 0
  65 001e C369     		ldr	r3, [r0, #28]
  66 0020 43EA0212 		orr	r2, r3, r2, lsl #4
  67              	.LVL5:
  68 0024 02E0     		b	.L9
  69              	.LVL6:
  70              	.L7:
  71              		.loc 1 41 0
  72 0026 C369     		ldr	r3, [r0, #28]
  73 0028 43EA0232 		orr	r2, r3, r2, lsl #12
  74              	.LVL7:
  75              	.L9:
  76 002c C261     		str	r2, [r0, #28]
  77              	.L1:
  78 002e 7047     		bx	lr
  79              		.cfi_endproc
  80              	.LFE323:
  81              		.size	stm32_timer_set_input_filter, .-stm32_timer_set_input_filter
  82              		.section	.text.stm32_timer_set_channel_input,"ax",%progbits
  83              		.align	1
  84              		.global	stm32_timer_set_channel_input
  85              		.thumb
  86              		.thumb_func
  87              		.type	stm32_timer_set_channel_input, %function
  88              	stm32_timer_set_channel_input:
  89              	.LFB324:
  90              		.loc 1 50 0
  91              		.cfi_startproc
  92              		@ args = 0, pretend = 0, frame = 0
  93              		@ frame_needed = 0, uses_anonymous_args = 0
  94              		@ link register save eliminated.
  95              	.LVL8:
  96              		.loc 1 51 0
  97 0000 0329     		cmp	r1, #3
  98 0002 41D8     		bhi	.L11
  99 0004 DFE801F0 		tbb	[pc, r1]
 100              	.L14:
 101 0008 02       		.byte	(.L13-.L14)/2
 102 0009 11       		.byte	(.L15-.L14)/2
 103 000a 21       		.byte	(.L16-.L14)/2
 104 000b 30       		.byte	(.L17-.L14)/2
 105              		.p2align 1
 106              	.L13:
 107              		.loc 1 53 0
 108 000c 036A     		ldr	r3, [r0, #32]
 109 000e 23F00103 		bic	r3, r3, #1
 110 0012 0362     		str	r3, [r0, #32]
 111              		.loc 1 54 0
 112 0014 8369     		ldr	r3, [r0, #24]
 113 0016 23F00303 		bic	r3, r3, #3
 114 001a 8361     		str	r3, [r0, #24]
ARM GAS  /tmp/ccPypXHb.s 			page 3


 115              		.loc 1 55 0
 116 001c 8369     		ldr	r3, [r0, #24]
 117 001e 1A43     		orrs	r2, r2, r3
 118              	.LVL9:
 119 0020 8261     		str	r2, [r0, #24]
 120              		.loc 1 56 0
 121 0022 036A     		ldr	r3, [r0, #32]
 122 0024 43F00103 		orr	r3, r3, #1
 123 0028 2DE0     		b	.L18
 124              	.LVL10:
 125              	.L15:
 126              		.loc 1 59 0
 127 002a 036A     		ldr	r3, [r0, #32]
 128 002c 23F01003 		bic	r3, r3, #16
 129 0030 0362     		str	r3, [r0, #32]
 130              		.loc 1 60 0
 131 0032 8369     		ldr	r3, [r0, #24]
 132 0034 23F44073 		bic	r3, r3, #768
 133 0038 8361     		str	r3, [r0, #24]
 134              		.loc 1 61 0
 135 003a 8369     		ldr	r3, [r0, #24]
 136 003c 43EA0222 		orr	r2, r3, r2, lsl #8
 137              	.LVL11:
 138 0040 8261     		str	r2, [r0, #24]
 139              		.loc 1 62 0
 140 0042 036A     		ldr	r3, [r0, #32]
 141 0044 43F01003 		orr	r3, r3, #16
 142 0048 1DE0     		b	.L18
 143              	.LVL12:
 144              	.L16:
 145              		.loc 1 65 0
 146 004a 036A     		ldr	r3, [r0, #32]
 147 004c 23F48073 		bic	r3, r3, #256
 148 0050 0362     		str	r3, [r0, #32]
 149              		.loc 1 66 0
 150 0052 C369     		ldr	r3, [r0, #28]
 151 0054 23F00303 		bic	r3, r3, #3
 152 0058 C361     		str	r3, [r0, #28]
 153              		.loc 1 67 0
 154 005a C369     		ldr	r3, [r0, #28]
 155 005c 1A43     		orrs	r2, r2, r3
 156              	.LVL13:
 157 005e C261     		str	r2, [r0, #28]
 158              		.loc 1 68 0
 159 0060 036A     		ldr	r3, [r0, #32]
 160 0062 43F48073 		orr	r3, r3, #256
 161 0066 0EE0     		b	.L18
 162              	.LVL14:
 163              	.L17:
 164              		.loc 1 71 0
 165 0068 036A     		ldr	r3, [r0, #32]
 166 006a 23F48053 		bic	r3, r3, #4096
 167 006e 0362     		str	r3, [r0, #32]
 168              		.loc 1 72 0
 169 0070 C369     		ldr	r3, [r0, #28]
 170 0072 23F44073 		bic	r3, r3, #768
 171 0076 C361     		str	r3, [r0, #28]
ARM GAS  /tmp/ccPypXHb.s 			page 4


 172              		.loc 1 73 0
 173 0078 C369     		ldr	r3, [r0, #28]
 174 007a 43EA0222 		orr	r2, r3, r2, lsl #8
 175              	.LVL15:
 176 007e C261     		str	r2, [r0, #28]
 177              		.loc 1 74 0
 178 0080 036A     		ldr	r3, [r0, #32]
 179 0082 43F48053 		orr	r3, r3, #4096
 180              	.L18:
 181 0086 0362     		str	r3, [r0, #32]
 182              	.L11:
 183 0088 7047     		bx	lr
 184              		.cfi_endproc
 185              	.LFE324:
 186              		.size	stm32_timer_set_channel_input, .-stm32_timer_set_channel_input
 187              		.section	.text.stm32_set_utc_usec,"ax",%progbits
 188              		.align	1
 189              		.global	stm32_set_utc_usec
 190              		.thumb
 191              		.thumb_func
 192              		.type	stm32_set_utc_usec, %function
 193              	stm32_set_utc_usec:
 194              	.LFB325:
 195              		.loc 1 102 0
 196              		.cfi_startproc
 197              		@ args = 0, pretend = 0, frame = 0
 198              		@ frame_needed = 0, uses_anonymous_args = 0
 199              	.LVL16:
 200 0000 38B5     		push	{r3, r4, r5, lr}
 201              		.cfi_def_cfa_offset 16
 202              		.cfi_offset 3, -16
 203              		.cfi_offset 4, -12
 204              		.cfi_offset 5, -8
 205              		.cfi_offset 14, -4
 206              		.loc 1 102 0
 207 0002 0446     		mov	r4, r0
 208 0004 0D46     		mov	r5, r1
 209              		.loc 1 103 0
 210 0006 FFF7FEFF 		bl	hrt_micros64
 211              	.LVL17:
 212              		.loc 1 104 0
 213 000a 8D42     		cmp	r5, r1
 214 000c 08BF     		it	eq
 215 000e 8442     		cmpeq	r4, r0
 216 0010 05D3     		bcc	.L19
 217              		.loc 1 105 0
 218 0012 241A     		subs	r4, r4, r0
 219 0014 024B     		ldr	r3, .L21
 220 0016 65EB0105 		sbc	r5, r5, r1
 221 001a C3E90045 		strd	r4, [r3]
 222              	.L19:
 223 001e 38BD     		pop	{r3, r4, r5, pc}
 224              	.L22:
 225              		.align	2
 226              	.L21:
 227 0020 00000000 		.word	.LANCHOR0
 228              		.cfi_endproc
ARM GAS  /tmp/ccPypXHb.s 			page 5


 229              	.LFE325:
 230              		.size	stm32_set_utc_usec, .-stm32_set_utc_usec
 231              		.section	.text.stm32_get_utc_usec,"ax",%progbits
 232              		.align	1
 233              		.global	stm32_get_utc_usec
 234              		.thumb
 235              		.thumb_func
 236              		.type	stm32_get_utc_usec, %function
 237              	stm32_get_utc_usec:
 238              	.LFB326:
 239              		.loc 1 113 0
 240              		.cfi_startproc
 241              		@ args = 0, pretend = 0, frame = 0
 242              		@ frame_needed = 0, uses_anonymous_args = 0
 243 0000 08B5     		push	{r3, lr}
 244              		.cfi_def_cfa_offset 8
 245              		.cfi_offset 3, -8
 246              		.cfi_offset 14, -4
 247              		.loc 1 114 0
 248 0002 FFF7FEFF 		bl	hrt_micros64
 249              	.LVL18:
 250 0006 034B     		ldr	r3, .L24
 251 0008 D3E90023 		ldrd	r2, [r3]
 252              		.loc 1 115 0
 253 000c 8018     		adds	r0, r0, r2
 254 000e 5941     		adcs	r1, r1, r3
 255 0010 08BD     		pop	{r3, pc}
 256              	.L25:
 257 0012 00BF     		.align	2
 258              	.L24:
 259 0014 00000000 		.word	.LANCHOR0
 260              		.cfi_endproc
 261              	.LFE326:
 262              		.size	stm32_get_utc_usec, .-stm32_get_utc_usec
 263              		.global	__aeabi_uldivmod
 264              		.section	.text.get_fattime,"ax",%progbits
 265              		.align	1
 266              		.global	get_fattime
 267              		.thumb
 268              		.thumb_func
 269              		.type	get_fattime, %function
 270              	get_fattime:
 271              	.LFB329:
 272              		.loc 1 189 0
 273              		.cfi_startproc
 274              		@ args = 0, pretend = 0, frame = 8
 275              		@ frame_needed = 0, uses_anonymous_args = 0
 276              		.loc 1 190 0
 277 0000 4C4B     		ldr	r3, .L46
 278              		.loc 1 189 0
 279 0002 2DE9F743 		push	{r0, r1, r2, r4, r5, r6, r7, r8, r9, lr}
 280              		.cfi_def_cfa_offset 40
 281              		.cfi_offset 4, -28
 282              		.cfi_offset 5, -24
 283              		.cfi_offset 6, -20
 284              		.cfi_offset 7, -16
 285              		.cfi_offset 8, -12
ARM GAS  /tmp/ccPypXHb.s 			page 6


 286              		.cfi_offset 9, -8
 287              		.cfi_offset 14, -4
 288              		.loc 1 190 0
 289 0006 D3E90023 		ldrd	r2, [r3]
 290 000a 1343     		orrs	r3, r2, r3
 291 000c 00F08D80 		beq	.L36
 292              		.loc 1 194 0
 293 0010 FFF7FEFF 		bl	stm32_get_utc_usec
 294              	.LVL19:
 295              	.LBB14:
 296              	.LBB15:
 297              		.loc 1 146 0
 298 0014 484A     		ldr	r2, .L46+4
 299              		.loc 1 156 0
 300 0016 DFF83081 		ldr	r8, .L46+20
 301              		.loc 1 146 0
 302 001a 0023     		movs	r3, #0
 303              	.LBE15:
 304              	.LBE14:
 305              		.loc 1 194 0
 306 001c 0446     		mov	r4, r0
 307 001e 0D46     		mov	r5, r1
 308              	.LVL20:
 309              	.LBB25:
 310              	.LBB24:
 311              		.loc 1 146 0
 312 0020 FFF7FEFF 		bl	__aeabi_uldivmod
 313              	.LVL21:
 314 0024 454A     		ldr	r2, .L46+8
 315 0026 0023     		movs	r3, #0
 316 0028 FFF7FEFF 		bl	__aeabi_uldivmod
 317              	.LVL22:
 318              		.loc 1 147 0
 319 002c 1423     		movs	r3, #20
 320              		.loc 1 146 0
 321 002e 1746     		mov	r7, r2
 322              	.LVL23:
 323              		.loc 1 147 0
 324 0030 2046     		mov	r0, r4
 325 0032 434A     		ldr	r2, .L46+12
 326              	.LVL24:
 327 0034 2946     		mov	r1, r5
 328 0036 FFF7FEFF 		bl	__aeabi_uldivmod
 329              	.LVL25:
 330              		.loc 1 151 0
 331 003a 3C22     		movs	r2, #60
 332              		.loc 1 156 0
 333 003c 4FF00009 		mov	r9, #0
 334              		.loc 1 151 0
 335 0040 B7FBF2F3 		udiv	r3, r7, r2
 336 0044 02FB1373 		mls	r3, r2, r3, r7
 337 0048 DCB2     		uxtb	r4, r3
 338              	.LVL26:
 339              		.loc 1 156 0
 340 004a 8945     		cmp	r9, r1
 341              		.loc 1 152 0
 342 004c 4FF46163 		mov	r3, #3600
ARM GAS  /tmp/ccPypXHb.s 			page 7


 343              		.loc 1 149 0
 344 0050 4FF00006 		mov	r6, #0
 345              		.loc 1 152 0
 346 0054 B7FBF3F5 		udiv	r5, r7, r3
 347              		.loc 1 156 0
 348 0058 08BF     		it	eq
 349 005a 8045     		cmpeq	r8, r0
 350              		.loc 1 152 0
 351 005c 03FB1573 		mls	r3, r3, r5, r7
 352 0060 B3FBF2F2 		udiv	r2, r3, r2
 353              		.loc 1 154 0
 354 0064 4FF04603 		mov	r3, #70
 355              		.loc 1 149 0
 356 0068 0096     		str	r6, [sp]
 357              		.loc 1 154 0
 358 006a 8DF80030 		strb	r3, [sp]
 359              		.loc 1 156 0
 360 006e 48D3     		bcc	.L28
 361              		.loc 1 147 0
 362 0070 1946     		mov	r1, r3
 363              	.LBB16:
 364              		.loc 1 162 0
 365 0072 40F26D19 		movw	r9, #365
 366              	.LBB17:
 367              	.LBB18:
 368              		.loc 1 133 0
 369 0076 4FF0640C 		mov	ip, #100
 370 007a 4FF4C878 		mov	r8, #400
 371              	.LVL27:
 372              	.L31:
 373              		.loc 1 132 0
 374 007e 01F26C73 		addw	r3, r1, #1900
 375              	.LVL28:
 376              		.loc 1 133 0
 377 0082 9F07     		lsls	r7, r3, #30
 378 0084 10D1     		bne	.L37
 379 0086 B3FBFCF7 		udiv	r7, r3, ip
 380 008a 0CFB1737 		mls	r7, ip, r7, r3
 381 008e 7FB9     		cbnz	r7, .L38
 382 0090 B3FBF8F7 		udiv	r7, r3, r8
 383 0094 08FB1733 		mls	r3, r8, r7, r3
 384              	.LVL29:
 385 0098 002B     		cmp	r3, #0
 386 009a 15BF     		itete	ne
 387 009c 0023     		movne	r3, #0
 388 009e 0123     		moveq	r3, #1
 389 00a0 4F46     		movne	r7, r9
 390 00a2 4FF4B777 		moveq	r7, #366
 391 00a6 06E0     		b	.L29
 392              	.LVL30:
 393              	.L37:
 394 00a8 0023     		movs	r3, #0
 395              	.LVL31:
 396              	.LBE18:
 397              	.LBE17:
 398              		.loc 1 162 0
 399 00aa 40F26D17 		movw	r7, #365
ARM GAS  /tmp/ccPypXHb.s 			page 8


 400 00ae 02E0     		b	.L29
 401              	.LVL32:
 402              	.L38:
 403              	.LBB20:
 404              	.LBB19:
 405              		.loc 1 133 0
 406 00b0 0123     		movs	r3, #1
 407              	.LVL33:
 408              	.LBE19:
 409              	.LBE20:
 410              		.loc 1 162 0
 411 00b2 4FF4B777 		mov	r7, #366
 412              	.L29:
 413              	.LVL34:
 414 00b6 01F1010E 		add	lr, r1, #1
 415              		.loc 1 163 0
 416 00ba B842     		cmp	r0, r7
 417 00bc 5FFA8EFE 		uxtb	lr, lr
 418 00c0 03D3     		bcc	.L30
 419              		.loc 1 167 0
 420 00c2 C01B     		subs	r0, r0, r7
 421              	.LVL35:
 422 00c4 0126     		movs	r6, #1
 423 00c6 7146     		mov	r1, lr
 424              	.LVL36:
 425 00c8 D9E7     		b	.L31
 426              	.LVL37:
 427              	.L30:
 428 00ca 0EB1     		cbz	r6, .L32
 429 00cc 8DF80010 		strb	r1, [sp]
 430              	.L32:
 431              	.LBE16:
 432              	.LBB21:
 433              		.loc 1 172 0
 434 00d0 1C4E     		ldr	r6, .L46+16
 435 00d2 9DF80110 		ldrb	r1, [sp, #1]	@ zero_extendqisi2
 436              	.LVL38:
 437 00d6 4FF00C0E 		mov	lr, #12
 438              	.LBE21:
 439              	.LBB22:
 440              		.loc 1 162 0
 441 00da 0027     		movs	r7, #0
 442              	.LVL39:
 443              	.LBE22:
 444              	.LBB23:
 445              		.loc 1 172 0
 446 00dc 0EFB0363 		mla	r3, lr, r3, r6
 447              	.L34:
 448 00e0 13F801E0 		ldrb	lr, [r3, r1]	@ zero_extendqisi2
 449              	.LVL40:
 450 00e4 4E1C     		adds	r6, r1, #1
 451              		.loc 1 173 0
 452 00e6 8645     		cmp	lr, r0
 453 00e8 F6B2     		uxtb	r6, r6
 454 00ea 04D8     		bhi	.L33
 455              		.loc 1 176 0
 456 00ec CEEB0000 		rsb	r0, lr, r0
ARM GAS  /tmp/ccPypXHb.s 			page 9


 457              	.LVL41:
 458 00f0 0127     		movs	r7, #1
 459 00f2 3146     		mov	r1, r6
 460 00f4 F4E7     		b	.L34
 461              	.L33:
 462 00f6 0FB1     		cbz	r7, .L35
 463 00f8 8DF80110 		strb	r1, [sp, #1]
 464              	.L35:
 465              	.LBE23:
 466              		.loc 1 179 0
 467 00fc 411C     		adds	r1, r0, #1
 468 00fe 8DF80210 		strb	r1, [sp, #2]
 469              	.LVL42:
 470              	.L28:
 471 0102 9DF80110 		ldrb	r1, [sp, #1]	@ zero_extendqisi2
 472 0106 4B1C     		adds	r3, r1, #1
 473 0108 9DF80010 		ldrb	r1, [sp]	@ zero_extendqisi2
 474 010c 5039     		subs	r1, r1, #80
 475 010e 4906     		lsls	r1, r1, #25
 476 0110 41EA4351 		orr	r1, r1, r3, lsl #21
 477 0114 9DF80230 		ldrb	r3, [sp, #2]	@ zero_extendqisi2
 478 0118 41EA0341 		orr	r1, r1, r3, lsl #16
 479 011c 41EA5403 		orr	r3, r1, r4, lsr #1
 480 0120 43EAC523 		orr	r3, r3, r5, lsl #11
 481              	.LBE24:
 482              	.LBE25:
 483              		.loc 1 207 0
 484 0124 43EA4210 		orr	r0, r3, r2, lsl #5
 485              	.LVL43:
 486              		.loc 1 209 0
 487 0128 01E0     		b	.L27
 488              	.L36:
 489              		.loc 1 192 0
 490 012a 4FF40410 		mov	r0, #2162688
 491              	.L27:
 492              		.loc 1 210 0
 493 012e 03B0     		add	sp, sp, #12
 494              		.cfi_def_cfa_offset 28
 495              		@ sp needed
 496 0130 BDE8F083 		pop	{r4, r5, r6, r7, r8, r9, pc}
 497              	.L47:
 498              		.align	2
 499              	.L46:
 500 0134 00000000 		.word	.LANCHOR0
 501 0138 40420F00 		.word	1000000
 502 013c 80510100 		.word	86400
 503 0140 0060D71D 		.word	500654080
 504 0144 00000000 		.word	.LANCHOR1
 505 0148 90230B00 		.word	730000
 506              		.cfi_endproc
 507              	.LFE329:
 508              		.size	get_fattime, .-get_fattime
 509              		.section	.text.get_rtc_backup,"ax",%progbits
 510              		.align	1
 511              		.global	get_rtc_backup
 512              		.thumb
 513              		.thumb_func
ARM GAS  /tmp/ccPypXHb.s 			page 10


 514              		.type	get_rtc_backup, %function
 515              	get_rtc_backup:
 516              	.LFB330:
 517              		.loc 1 216 0
 518              		.cfi_startproc
 519              		@ args = 0, pretend = 0, frame = 0
 520              		@ frame_needed = 0, uses_anonymous_args = 0
 521              	.LVL44:
 522 0000 10B5     		push	{r4, lr}
 523              		.cfi_def_cfa_offset 8
 524              		.cfi_offset 4, -8
 525              		.cfi_offset 14, -4
 526 0002 0244     		add	r2, r2, r0
 527              	.LVL45:
 528 0004 D2B2     		uxtb	r2, r2
 529              	.LVL46:
 530              	.L49:
 531              		.loc 1 217 0
 532 0006 9042     		cmp	r0, r2
 533 0008 07D0     		beq	.L51
 534              		.loc 1 218 0
 535 000a 441C     		adds	r4, r0, #1
 536              	.LVL47:
 537 000c 034B     		ldr	r3, .L52
 538 000e 8000     		lsls	r0, r0, #2
 539 0010 1B58     		ldr	r3, [r3, r0]
 540 0012 41F8043B 		str	r3, [r1], #4
 541              	.LVL48:
 542 0016 E0B2     		uxtb	r0, r4
 543 0018 F5E7     		b	.L49
 544              	.LVL49:
 545              	.L51:
 546              		.loc 1 220 0
 547 001a 10BD     		pop	{r4, pc}
 548              	.L53:
 549              		.align	2
 550              	.L52:
 551 001c 50280040 		.word	1073752144
 552              		.cfi_endproc
 553              	.LFE330:
 554              		.size	get_rtc_backup, .-get_rtc_backup
 555              		.section	.text.set_rtc_backup,"ax",%progbits
 556              		.align	1
 557              		.global	set_rtc_backup
 558              		.thumb
 559              		.thumb_func
 560              		.type	set_rtc_backup, %function
 561              	set_rtc_backup:
 562              	.LFB331:
 563              		.loc 1 224 0
 564              		.cfi_startproc
 565              		@ args = 0, pretend = 0, frame = 0
 566              		@ frame_needed = 0, uses_anonymous_args = 0
 567              	.LVL50:
 568              		.loc 1 225 0
 569 0000 0F4B     		ldr	r3, .L59
 570              		.loc 1 224 0
ARM GAS  /tmp/ccPypXHb.s 			page 11


 571 0002 10B5     		push	{r4, lr}
 572              		.cfi_def_cfa_offset 8
 573              		.cfi_offset 4, -8
 574              		.cfi_offset 14, -4
 575              		.loc 1 225 0
 576 0004 1C6F     		ldr	r4, [r3, #112]
 577 0006 2404     		lsls	r4, r4, #16
 578 0008 07D4     		bmi	.L55
 579              		.loc 1 226 0
 580 000a 1C6F     		ldr	r4, [r3, #112]
 581 000c 44F40074 		orr	r4, r4, #512
 582 0010 1C67     		str	r4, [r3, #112]
 583              		.loc 1 227 0
 584 0012 1C6F     		ldr	r4, [r3, #112]
 585 0014 44F40044 		orr	r4, r4, #32768
 586 0018 1C67     		str	r4, [r3, #112]
 587              	.L55:
 588              		.loc 1 230 0
 589 001a 0A4C     		ldr	r4, .L59+4
 590 001c 2368     		ldr	r3, [r4]
 591 001e 0244     		add	r2, r2, r0
 592              	.LVL51:
 593 0020 43F48073 		orr	r3, r3, #256
 594 0024 2360     		str	r3, [r4]
 595 0026 D2B2     		uxtb	r2, r2
 596              	.LVL52:
 597              	.L56:
 598              		.loc 1 234 0
 599 0028 9042     		cmp	r0, r2
 600 002a 08D0     		beq	.L58
 601              		.loc 1 235 0
 602 002c 064B     		ldr	r3, .L59+8
 603 002e 441C     		adds	r4, r0, #1
 604              	.LVL53:
 605 0030 8000     		lsls	r0, r0, #2
 606 0032 0344     		add	r3, r3, r0
 607 0034 51F8040B 		ldr	r0, [r1], #4
 608              	.LVL54:
 609 0038 1860     		str	r0, [r3]
 610 003a E0B2     		uxtb	r0, r4
 611 003c F4E7     		b	.L56
 612              	.LVL55:
 613              	.L58:
 614              		.loc 1 237 0
 615 003e 10BD     		pop	{r4, pc}
 616              	.L60:
 617              		.align	2
 618              	.L59:
 619 0040 00380240 		.word	1073887232
 620 0044 00700040 		.word	1073770496
 621 0048 50280040 		.word	1073752144
 622              		.cfi_endproc
 623              	.LFE331:
 624              		.size	set_rtc_backup, .-set_rtc_backup
 625              		.section	.text.check_fast_reboot,"ax",%progbits
 626              		.align	1
 627              		.global	check_fast_reboot
ARM GAS  /tmp/ccPypXHb.s 			page 12


 628              		.thumb
 629              		.thumb_func
 630              		.type	check_fast_reboot, %function
 631              	check_fast_reboot:
 632              	.LFB332:
 633              		.loc 1 241 0
 634              		.cfi_startproc
 635              		@ args = 0, pretend = 0, frame = 8
 636              		@ frame_needed = 0, uses_anonymous_args = 0
 637 0000 07B5     		push	{r0, r1, r2, lr}
 638              		.cfi_def_cfa_offset 16
 639              		.cfi_offset 14, -4
 640              		.loc 1 243 0
 641 0002 0122     		movs	r2, #1
 642 0004 01A9     		add	r1, sp, #4
 643 0006 0020     		movs	r0, #0
 644 0008 FFF7FEFF 		bl	get_rtc_backup
 645              	.LVL56:
 646              		.loc 1 245 0
 647 000c 0198     		ldr	r0, [sp, #4]
 648 000e 03B0     		add	sp, sp, #12
 649              		.cfi_def_cfa_offset 4
 650              		@ sp needed
 651 0010 5DF804FB 		ldr	pc, [sp], #4
 652              		.cfi_endproc
 653              	.LFE332:
 654              		.size	check_fast_reboot, .-check_fast_reboot
 655              		.section	.text.set_fast_reboot,"ax",%progbits
 656              		.align	1
 657              		.global	set_fast_reboot
 658              		.thumb
 659              		.thumb_func
 660              		.type	set_fast_reboot, %function
 661              	set_fast_reboot:
 662              	.LFB333:
 663              		.loc 1 249 0
 664              		.cfi_startproc
 665              		@ args = 0, pretend = 0, frame = 8
 666              		@ frame_needed = 0, uses_anonymous_args = 0
 667              	.LVL57:
 668 0000 07B5     		push	{r0, r1, r2, lr}
 669              		.cfi_def_cfa_offset 16
 670              		.cfi_offset 14, -4
 671              		.loc 1 250 0
 672 0002 02A9     		add	r1, sp, #8
 673              		.loc 1 251 0
 674 0004 0122     		movs	r2, #1
 675              		.loc 1 250 0
 676 0006 41F8040D 		str	r0, [r1, #-4]!
 677              		.loc 1 251 0
 678 000a 0020     		movs	r0, #0
 679              	.LVL58:
 680 000c FFF7FEFF 		bl	set_rtc_backup
 681              	.LVL59:
 682              		.loc 1 252 0
 683 0010 03B0     		add	sp, sp, #12
 684              		.cfi_def_cfa_offset 4
ARM GAS  /tmp/ccPypXHb.s 			page 13


 685              		@ sp needed
 686 0012 5DF804FB 		ldr	pc, [sp], #4
 687              		.cfi_endproc
 688              	.LFE333:
 689              		.size	set_fast_reboot, .-set_fast_reboot
 690              		.section	.text.peripheral_power_enable,"ax",%progbits
 691              		.align	1
 692              		.global	peripheral_power_enable
 693              		.thumb
 694              		.thumb_func
 695              		.type	peripheral_power_enable, %function
 696              	peripheral_power_enable:
 697              	.LFB334:
 698              		.loc 1 274 0
 699              		.cfi_startproc
 700              		@ args = 0, pretend = 0, frame = 0
 701              		@ frame_needed = 0, uses_anonymous_args = 0
 702              	.LVL60:
 703 0000 10B5     		push	{r4, lr}
 704              		.cfi_def_cfa_offset 8
 705              		.cfi_offset 4, -8
 706              		.cfi_offset 14, -4
 707              		.loc 1 274 0
 708 0002 6424     		movs	r4, #100
 709              	.LVL61:
 710              	.L64:
 711              		.loc 1 282 0
 712 0004 4FF47A70 		mov	r0, #1000
 713 0008 013C     		subs	r4, r4, #1
 714              	.LVL62:
 715 000a FFF7FEFF 		bl	chThdSleep
 716              	.LVL63:
 717              		.loc 1 280 0
 718 000e 14F0FF04 		ands	r4, r4, #255
 719 0012 F7D1     		bne	.L64
 720              	.LVL64:
 721              	.LBB26:
 722              		.loc 1 285 0
 723 0014 084B     		ldr	r3, .L68
 724 0016 4FF08072 		mov	r2, #16777216
 725 001a 9A61     		str	r2, [r3, #24]
 726              	.LVL65:
 727              	.LBE26:
 728              	.LBB27:
 729              		.loc 1 292 0
 730 001c 03F58053 		add	r3, r3, #4096
 731 0020 0822     		movs	r2, #8
 732 0022 9A61     		str	r2, [r3, #24]
 733              	.LVL66:
 734 0024 1424     		movs	r4, #20
 735              	.LVL67:
 736              	.L65:
 737              	.LBE27:
 738              		.loc 1 304 0
 739 0026 4FF47A70 		mov	r0, #1000
 740 002a 013C     		subs	r4, r4, #1
 741              	.LVL68:
ARM GAS  /tmp/ccPypXHb.s 			page 14


 742 002c FFF7FEFF 		bl	chThdSleep
 743              	.LVL69:
 744              		.loc 1 302 0
 745 0030 14F0FF04 		ands	r4, r4, #255
 746 0034 F7D1     		bne	.L65
 747              		.loc 1 307 0
 748 0036 10BD     		pop	{r4, pc}
 749              	.L69:
 750              		.align	2
 751              	.L68:
 752 0038 00000240 		.word	1073872896
 753              		.cfi_endproc
 754              	.LFE334:
 755              		.size	peripheral_power_enable, .-peripheral_power_enable
 756              		.section	.text.palReadLineMode,"ax",%progbits
 757              		.align	1
 758              		.global	palReadLineMode
 759              		.thumb
 760              		.thumb_func
 761              		.type	palReadLineMode, %function
 762              	palReadLineMode:
 763              	.LFB335:
 764              		.loc 1 315 0
 765              		.cfi_startproc
 766              		@ args = 0, pretend = 0, frame = 0
 767              		@ frame_needed = 0, uses_anonymous_args = 0
 768              	.LVL70:
 769 0000 70B5     		push	{r4, r5, r6, lr}
 770              		.cfi_def_cfa_offset 16
 771              		.cfi_offset 4, -16
 772              		.cfi_offset 5, -12
 773              		.cfi_offset 6, -8
 774              		.cfi_offset 14, -4
 775              		.loc 1 316 0
 776 0002 20F00F04 		bic	r4, r0, #15
 777              	.LVL71:
 778              		.loc 1 317 0
 779 0006 00F00F01 		and	r1, r0, #15
 780              	.LVL72:
 781              		.loc 1 319 0
 782 000a 2368     		ldr	r3, [r4]
 783              		.loc 1 320 0
 784 000c 6268     		ldr	r2, [r4, #4]
 785              		.loc 1 319 0
 786 000e 0DB2     		sxth	r5, r1
 787 0010 6E00     		lsls	r6, r5, #1
 788              	.LVL73:
 789              		.loc 1 320 0
 790 0012 CA40     		lsrs	r2, r2, r1
 791 0014 9200     		lsls	r2, r2, #2
 792 0016 F340     		lsrs	r3, r3, r6
 793              	.LVL74:
 794 0018 03F00303 		and	r3, r3, #3
 795              	.LVL75:
 796 001c 02F00402 		and	r2, r2, #4
 797 0020 1A43     		orrs	r2, r2, r3
 798              	.LVL76:
ARM GAS  /tmp/ccPypXHb.s 			page 15


 799              		.loc 1 321 0
 800 0022 A368     		ldr	r3, [r4, #8]
 801              		.loc 1 322 0
 802 0024 E068     		ldr	r0, [r4, #12]
 803              	.LVL77:
 804              		.loc 1 321 0
 805 0026 F340     		lsrs	r3, r3, r6
 806 0028 DB00     		lsls	r3, r3, #3
 807              		.loc 1 322 0
 808 002a F040     		lsrs	r0, r0, r6
 809              		.loc 1 321 0
 810 002c 03F01803 		and	r3, r3, #24
 811              		.loc 1 322 0
 812 0030 4001     		lsls	r0, r0, #5
 813              		.loc 1 321 0
 814 0032 1343     		orrs	r3, r3, r2
 815              	.LVL78:
 816              		.loc 1 322 0
 817 0034 00F06000 		and	r0, r0, #96
 818              		.loc 1 323 0
 819 0038 0729     		cmp	r1, #7
 820              		.loc 1 322 0
 821 003a 40EA0300 		orr	r0, r0, r3
 822              	.LVL79:
 823              		.loc 1 323 0
 824 003e 08D8     		bhi	.L71
 825              		.loc 1 324 0
 826 0040 246A     		ldr	r4, [r4, #32]
 827              	.LVL80:
 828 0042 AA00     		lsls	r2, r5, #2
 829 0044 24FA02F2 		lsr	r2, r4, r2
 830 0048 D201     		lsls	r2, r2, #7
 831 004a 02F4F062 		and	r2, r2, #1920
 832 004e 1043     		orrs	r0, r0, r2
 833              	.LVL81:
 834 0050 70BD     		pop	{r4, r5, r6, pc}
 835              	.LVL82:
 836              	.L71:
 837              		.loc 1 326 0
 838 0052 626A     		ldr	r2, [r4, #36]
 839 0054 0839     		subs	r1, r1, #8
 840              	.LVL83:
 841 0056 8900     		lsls	r1, r1, #2
 842              	.LVL84:
 843 0058 22FA01F1 		lsr	r1, r2, r1
 844 005c C901     		lsls	r1, r1, #7
 845 005e 01F4F061 		and	r1, r1, #1920
 846 0062 0843     		orrs	r0, r0, r1
 847              	.LVL85:
 848              		.loc 1 329 0
 849 0064 70BD     		pop	{r4, r5, r6, pc}
 850              		.cfi_endproc
 851              	.LFE335:
 852              		.size	palReadLineMode, .-palReadLineMode
 853              		.section	.rodata.ndays,"a",%progbits
 854              		.set	.LANCHOR1,. + 0
 855              		.type	ndays, %object
ARM GAS  /tmp/ccPypXHb.s 			page 16


 856              		.size	ndays, 24
 857              	ndays:
 858 0000 1F       		.byte	31
 859 0001 1C       		.byte	28
 860 0002 1F       		.byte	31
 861 0003 1E       		.byte	30
 862 0004 1F       		.byte	31
 863 0005 1E       		.byte	30
 864 0006 1F       		.byte	31
 865 0007 1F       		.byte	31
 866 0008 1E       		.byte	30
 867 0009 1F       		.byte	31
 868 000a 1E       		.byte	30
 869 000b 1F       		.byte	31
 870 000c 1F       		.byte	31
 871 000d 1D       		.byte	29
 872 000e 1F       		.byte	31
 873 000f 1E       		.byte	30
 874 0010 1F       		.byte	31
 875 0011 1E       		.byte	30
 876 0012 1F       		.byte	31
 877 0013 1F       		.byte	31
 878 0014 1E       		.byte	30
 879 0015 1F       		.byte	31
 880 0016 1E       		.byte	30
 881 0017 1F       		.byte	31
 882              		.section	.bss.utc_time_offset,"aw",%nobits
 883              		.align	3
 884              		.set	.LANCHOR0,. + 0
 885              		.type	utc_time_offset, %object
 886              		.size	utc_time_offset, 8
 887              	utc_time_offset:
 888 0000 00000000 		.space	8
 888      00000000 
 889              		.text
 890              	.Letext0:
 891              		.file 2 "/usr/lib/gcc/arm-none-eabi/5.4.1/include/stddef.h"
 892              		.file 3 "/usr/include/newlib/machine/_default_types.h"
 893              		.file 4 "/usr/include/newlib/sys/_stdint.h"
 894              		.file 5 "../../modules/ChibiOS/os/common/ports/ARMCMx/compilers/GCC/chtypes.h"
 895              		.file 6 "../../modules/ChibiOS/os/rt/include/chsystypes.h"
 896              		.file 7 "../../modules/ChibiOS/os/rt/include/chschd.h"
 897              		.file 8 "../../modules/ChibiOS/os/rt/include/chtime.h"
 898              		.file 9 "../../modules/ChibiOS/os/common/ext/ST/STM32F4xx/stm32f427xx.h"
 899              		.file 10 "../../modules/ChibiOS/os/common/ports/ARMCMx/chcore.h"
 900              		.file 11 "../../modules/ChibiOS/os/common/ports/ARMCMx/chcore_v7m.h"
 901              		.file 12 "../../modules/ChibiOS/os/hal/ports/STM32/LLD/TIMv1/stm32_tim.h"
 902              		.file 13 "../../modules/ChibiOS/os/rt/include/chtm.h"
 903              		.file 14 "../../modules/ChibiOS/os/rt/include/chstats.h"
 904              		.file 15 "../../modules/ChibiOS/os/rt/include/chsem.h"
 905              		.file 16 "../../modules/ChibiOS/os/rt/include/chmtx.h"
 906              		.file 17 "../../modules/ChibiOS/os/hal/ports/STM32/LLD/GPIOv2/stm32_gpio.h"
 907              		.file 18 "../../modules/ChibiOS/os/hal/ports/STM32/LLD/GPIOv2/hal_pal_lld.h"
 908              		.file 19 "../../libraries/AP_HAL_ChibiOS/hwdef/common/hrt.h"
 909              		.file 20 "../../modules/ChibiOS/os/rt/include/chthreads.h"
 910              		.file 21 "../../libraries/AP_HAL_ChibiOS/hwdef/common/stm32_util.h"
 911              		.file 22 "../../modules/ChibiOS/os/common/ext/ARM/CMSIS/Core/Include/core_cm4.h"
ARM GAS  /tmp/ccPypXHb.s 			page 17

