ARM GAS  /tmp/ccvmLSYu.s 			page 1


   1              		.syntax unified
   2              		.cpu cortex-m4
   3              		.eabi_attribute 27, 1
   4              		.eabi_attribute 28, 1
   5              		.fpu fpv4-sp-d16
   6              		.eabi_attribute 20, 1
   7              		.eabi_attribute 21, 1
   8              		.eabi_attribute 23, 3
   9              		.eabi_attribute 24, 1
  10              		.eabi_attribute 25, 1
  11              		.eabi_attribute 26, 1
  12              		.eabi_attribute 30, 4
  13              		.eabi_attribute 34, 1
  14              		.eabi_attribute 18, 4
  15              		.thumb
  16              		.syntax unified
  17              		.file	"usbcfg.c"
  18              		.text
  19              	.Ltext0:
  20              		.cfi_sections	.debug_frame
  21              		.section	.text.get_descriptor,"ax",%progbits
  22              		.align	1
  23              		.thumb
  24              		.thumb_func
  25              		.type	get_descriptor, %function
  26              	get_descriptor:
  27              	.LFB327:
  28              		.file 1 "../../libraries/AP_HAL_ChibiOS/hwdef/common/usbcfg.c"
  29              		.loc 1 281 0
  30              		.cfi_startproc
  31              		@ args = 0, pretend = 0, frame = 0
  32              		@ frame_needed = 0, uses_anonymous_args = 0
  33              		@ link register save eliminated.
  34              	.LVL0:
  35              		.loc 1 285 0
  36 0000 0229     		cmp	r1, #2
  37 0002 06D0     		beq	.L3
  38 0004 0329     		cmp	r1, #3
  39 0006 06D0     		beq	.L4
  40 0008 0129     		cmp	r1, #1
  41              		.loc 1 295 0
  42 000a 0648     		ldr	r0, .L9
  43              	.LVL1:
  44 000c 18BF     		it	ne
  45 000e 0020     		movne	r0, #0
  46 0010 7047     		bx	lr
  47              	.LVL2:
  48              	.L3:
  49              		.loc 1 289 0
  50 0012 0548     		ldr	r0, .L9+4
  51              	.LVL3:
  52 0014 7047     		bx	lr
  53              	.LVL4:
  54              	.L4:
  55              		.loc 1 291 0
  56 0016 032A     		cmp	r2, #3
  57              		.loc 1 292 0
ARM GAS  /tmp/ccvmLSYu.s 			page 2


  58 0018 9ABF     		itte	ls
  59 001a 044B     		ldrls	r3, .L9+8
  60              	.LVL5:
  61 001c 03EBC200 		addls	r0, r3, r2, lsl #3
  62              	.LVL6:
  63              		.loc 1 295 0
  64 0020 0020     		movhi	r0, #0
  65              		.loc 1 296 0
  66 0022 7047     		bx	lr
  67              	.L10:
  68              		.align	2
  69              	.L9:
  70 0024 00000000 		.word	.LANCHOR0
  71 0028 00000000 		.word	.LANCHOR1
  72 002c 00000000 		.word	.LANCHOR2
  73              		.cfi_endproc
  74              	.LFE327:
  75              		.size	get_descriptor, .-get_descriptor
  76              		.section	.text.string_contains,"ax",%progbits
  77              		.align	1
  78              		.thumb
  79              		.thumb_func
  80              		.type	string_contains, %function
  81              	string_contains:
  82              	.LFB323:
  83              		.loc 1 188 0
  84              		.cfi_startproc
  85              		@ args = 0, pretend = 0, frame = 0
  86              		@ frame_needed = 0, uses_anonymous_args = 0
  87              	.LVL7:
  88 0000 70B5     		push	{r4, r5, r6, lr}
  89              		.cfi_def_cfa_offset 16
  90              		.cfi_offset 4, -16
  91              		.cfi_offset 5, -12
  92              		.cfi_offset 6, -8
  93              		.cfi_offset 14, -4
  94              		.loc 1 188 0
  95 0002 0446     		mov	r4, r0
  96              		.loc 1 189 0
  97 0004 0846     		mov	r0, r1
  98              	.LVL8:
  99              		.loc 1 188 0
 100 0006 0D46     		mov	r5, r1
 101              		.loc 1 189 0
 102 0008 FFF7FEFF 		bl	strlen
 103              	.LVL9:
 104              		.loc 1 191 0
 105 000c C6B2     		uxtb	r6, r0
 106              	.LVL10:
 107              	.L12:
 108 000e 2046     		mov	r0, r4
 109              	.LVL11:
 110 0010 0134     		adds	r4, r4, #1
 111              		.loc 1 190 0
 112 0012 0378     		ldrb	r3, [r0]	@ zero_extendqisi2
 113 0014 3BB1     		cbz	r3, .L16
 114              		.loc 1 191 0
ARM GAS  /tmp/ccvmLSYu.s 			page 3


 115 0016 3246     		mov	r2, r6
 116 0018 2946     		mov	r1, r5
 117 001a FFF7FEFF 		bl	strncmp
 118              	.LVL12:
 119 001e 0028     		cmp	r0, #0
 120 0020 F5D1     		bne	.L12
 121              		.loc 1 192 0
 122 0022 0120     		movs	r0, #1
 123              		.loc 1 197 0
 124 0024 70BD     		pop	{r4, r5, r6, pc}
 125              	.LVL13:
 126              	.L16:
 127              		.loc 1 196 0
 128 0026 1846     		mov	r0, r3
 129              	.LVL14:
 130 0028 70BD     		pop	{r4, r5, r6, pc}
 131              		.cfi_endproc
 132              	.LFE323:
 133              		.size	string_contains, .-string_contains
 134              		.section	.text.setup_usb_string,"ax",%progbits
 135              		.align	1
 136              		.thumb
 137              		.thumb_func
 138              		.type	setup_usb_string, %function
 139              	setup_usb_string:
 140              	.LFB325:
 141              		.loc 1 249 0
 142              		.cfi_startproc
 143              		@ args = 0, pretend = 0, frame = 104
 144              		@ frame_needed = 0, uses_anonymous_args = 0
 145              	.LVL15:
 146 0000 2DE9F04F 		push	{r4, r5, r6, r7, r8, r9, r10, fp, lr}
 147              		.cfi_def_cfa_offset 36
 148              		.cfi_offset 4, -36
 149              		.cfi_offset 5, -32
 150              		.cfi_offset 6, -28
 151              		.cfi_offset 7, -24
 152              		.cfi_offset 8, -20
 153              		.cfi_offset 9, -16
 154              		.cfi_offset 10, -12
 155              		.cfi_offset 11, -8
 156              		.cfi_offset 14, -4
 157 0004 8046     		mov	r8, r0
 158 0006 9BB0     		sub	sp, sp, #108
 159              		.cfi_def_cfa_offset 144
 160              	.LVL16:
 161              	.LBB32:
 162              	.LBB33:
 163              		.loc 1 206 0
 164 0008 0846     		mov	r0, r1
 165              	.LVL17:
 166              	.LBE33:
 167              	.LBE32:
 168              		.loc 1 249 0
 169 000a 0C46     		mov	r4, r1
 170 000c 1646     		mov	r6, r2
 171              	.LBB40:
ARM GAS  /tmp/ccvmLSYu.s 			page 4


 172              	.LBB39:
 173              		.loc 1 206 0
 174 000e FFF7FEFF 		bl	strlen
 175              	.LVL18:
 176              		.loc 1 207 0
 177 0012 3C49     		ldr	r1, .L39
 178              		.loc 1 206 0
 179 0014 C5B2     		uxtb	r5, r0
 180              	.LVL19:
 181              		.loc 1 207 0
 182 0016 2046     		mov	r0, r4
 183 0018 FFF7FEFF 		bl	string_contains
 184              	.LVL20:
 185 001c 08B1     		cbz	r0, .L18
 186              		.loc 1 208 0
 187 001e 0235     		adds	r5, r5, #2
 188              	.LVL21:
 189 0020 EDB2     		uxtb	r5, r5
 190              	.LVL22:
 191              	.L18:
 192              		.loc 1 210 0
 193 0022 3949     		ldr	r1, .L39+4
 194 0024 2046     		mov	r0, r4
 195 0026 FFF7FEFF 		bl	string_contains
 196              	.LVL23:
 197 002a 08B1     		cbz	r0, .L19
 198              		.loc 1 211 0
 199 002c 1035     		adds	r5, r5, #16
 200              	.LVL24:
 201 002e EDB2     		uxtb	r5, r5
 202              	.LVL25:
 203              	.L19:
 204              		.loc 1 213 0
 205 0030 632D     		cmp	r5, #99
 206 0032 01AF     		add	r7, sp, #4
 207              	.LVL26:
 208 0034 05DC     		bgt	.L20
 209 0036 3D46     		mov	r5, r7
 210              	.LVL27:
 211              	.LBB34:
 212              	.LBB35:
 213              		.loc 1 232 0
 214 0038 DFF8D8A0 		ldr	r10, .L39+16
 215              	.LBE35:
 216              		.loc 1 222 0
 217 003c DFF8D8B0 		ldr	fp, .L39+20
 218 0040 18E0     		b	.L21
 219              	.LVL28:
 220              	.L20:
 221              	.LBE34:
 222              		.loc 1 214 0
 223 0042 2146     		mov	r1, r4
 224 0044 3846     		mov	r0, r7
 225 0046 FFF7FEFF 		bl	strcpy
 226              	.LVL29:
 227 004a 3EE0     		b	.L22
 228              	.LVL30:
ARM GAS  /tmp/ccvmLSYu.s 			page 5


 229              	.L27:
 230              	.LBB37:
 231              		.loc 1 220 0
 232 004c B9F1250F 		cmp	r9, #37
 233 0050 34D1     		bne	.L23
 234              		.loc 1 221 0
 235 0052 0722     		movs	r2, #7
 236 0054 2B49     		ldr	r1, .L39
 237 0056 2046     		mov	r0, r4
 238 0058 FFF7FEFF 		bl	strncmp
 239              	.LVL31:
 240 005c 80B9     		cbnz	r0, .L24
 241              		.loc 1 222 0
 242 005e DBF80020 		ldr	r2, [fp]	@ unaligned
 243 0062 2A60     		str	r2, [r5]	@ unaligned
 244 0064 DBF80420 		ldr	r2, [fp, #4]	@ unaligned
 245 0068 6A60     		str	r2, [r5, #4]	@ unaligned
 246 006a 9BF80820 		ldrb	r2, [fp, #8]	@ zero_extendqisi2
 247 006e 2A72     		strb	r2, [r5, #8]
 248              		.loc 1 223 0
 249 0070 0734     		adds	r4, r4, #7
 250              	.LVL32:
 251              		.loc 1 224 0
 252 0072 0935     		adds	r5, r5, #9
 253              	.LVL33:
 254              	.L21:
 255              	.LBE37:
 256              		.loc 1 218 0
 257 0074 94F80090 		ldrb	r9, [r4]	@ zero_extendqisi2
 258 0078 B9F1000F 		cmp	r9, #0
 259 007c E6D1     		bne	.L27
 260 007e 22E0     		b	.L37
 261              	.LVL34:
 262              	.L24:
 263              	.LBB38:
 264              		.loc 1 227 0
 265 0080 0822     		movs	r2, #8
 266 0082 2149     		ldr	r1, .L39+4
 267 0084 2046     		mov	r0, r4
 268 0086 FFF7FEFF 		bl	strncmp
 269              	.LVL35:
 270 008a B8B9     		cbnz	r0, .L23
 271 008c 1F48     		ldr	r0, .L39+8
 272 008e AA1C     		adds	r2, r5, #2
 273              	.LVL36:
 274              	.L26:
 275              	.LBB36:
 276              		.loc 1 232 0
 277 0090 10F8011F 		ldrb	r1, [r0, #1]!	@ zero_extendqisi2
 278              	.LVL37:
 279              		.loc 1 231 0
 280 0094 1E4B     		ldr	r3, .L39+12
 281              		.loc 1 232 0
 282 0096 4FEA111E 		lsr	lr, r1, #4
 283              		.loc 1 233 0
 284 009a 01F00F01 		and	r1, r1, #15
 285              		.loc 1 232 0
ARM GAS  /tmp/ccvmLSYu.s 			page 6


 286 009e 1EF80AE0 		ldrb	lr, [lr, r10]	@ zero_extendqisi2
 287              		.loc 1 233 0
 288 00a2 11F80A10 		ldrb	r1, [r1, r10]	@ zero_extendqisi2
 289              		.loc 1 232 0
 290 00a6 02F802EC 		strb	lr, [r2, #-2]
 291              	.LVL38:
 292              		.loc 1 231 0
 293 00aa 9842     		cmp	r0, r3
 294              		.loc 1 233 0
 295 00ac 02F8011C 		strb	r1, [r2, #-1]
 296              	.LVL39:
 297 00b0 02F10202 		add	r2, r2, #2
 298              	.LVL40:
 299              		.loc 1 231 0
 300 00b4 ECD1     		bne	.L26
 301 00b6 1835     		adds	r5, r5, #24
 302              		.loc 1 235 0
 303 00b8 0834     		adds	r4, r4, #8
 304              	.LVL41:
 305 00ba DBE7     		b	.L21
 306              	.LVL42:
 307              	.L23:
 308              	.LBE36:
 309              		.loc 1 239 0
 310 00bc 85F80090 		strb	r9, [r5]
 311 00c0 0134     		adds	r4, r4, #1
 312              	.LVL43:
 313 00c2 0135     		adds	r5, r5, #1
 314              	.LVL44:
 315 00c4 D6E7     		b	.L21
 316              	.LVL45:
 317              	.L37:
 318              	.LBE38:
 319              		.loc 1 241 0
 320 00c6 85F80090 		strb	r9, [r5]
 321              	.LVL46:
 322              	.L22:
 323              	.LBE39:
 324              	.LBE40:
 325              		.loc 1 252 0
 326 00ca 3846     		mov	r0, r7
 327 00cc FFF7FEFF 		bl	strlen
 328              	.LVL47:
 329 00d0 C0B2     		uxtb	r0, r0
 330              	.LVL48:
 331              		.loc 1 253 0
 332 00d2 431C     		adds	r3, r0, #1
 333 00d4 5B00     		lsls	r3, r3, #1
 334              		.loc 1 254 0
 335 00d6 88E84800 		stmia	r8, {r3, r6}
 336              		.loc 1 255 0
 337 00da 3370     		strb	r3, [r6]
 338              		.loc 1 256 0
 339 00dc 0323     		movs	r3, #3
 340 00de 7370     		strb	r3, [r6, #1]
 341              	.LVL49:
 342              		.loc 1 258 0
ARM GAS  /tmp/ccvmLSYu.s 			page 7


 343 00e0 0023     		movs	r3, #0
 344 00e2 0236     		adds	r6, r6, #2
 345              	.LVL50:
 346              		.loc 1 260 0
 347 00e4 1946     		mov	r1, r3
 348              	.LVL51:
 349              	.L28:
 350              		.loc 1 258 0 discriminator 1
 351 00e6 DAB2     		uxtb	r2, r3
 352 00e8 9042     		cmp	r0, r2
 353 00ea 06F10206 		add	r6, r6, #2
 354 00ee 06D9     		bls	.L38
 355              		.loc 1 259 0 discriminator 3
 356 00f0 FA5C     		ldrb	r2, [r7, r3]	@ zero_extendqisi2
 357 00f2 06F8022C 		strb	r2, [r6, #-2]
 358              		.loc 1 260 0 discriminator 3
 359 00f6 06F8011C 		strb	r1, [r6, #-1]
 360              	.LVL52:
 361 00fa 0133     		adds	r3, r3, #1
 362              	.LVL53:
 363 00fc F3E7     		b	.L28
 364              	.LVL54:
 365              	.L38:
 366              		.loc 1 262 0
 367 00fe 1BB0     		add	sp, sp, #108
 368              		.cfi_def_cfa_offset 36
 369              		@ sp needed
 370 0100 BDE8F08F 		pop	{r4, r5, r6, r7, r8, r9, r10, fp, pc}
 371              	.LVL55:
 372              	.L40:
 373              		.align	2
 374              	.L39:
 375 0104 00000000 		.word	.LC0
 376 0108 08000000 		.word	.LC1
 377 010c 0F7AFF1F 		.word	536836623
 378 0110 1B7AFF1F 		.word	536836635
 379 0114 1B000000 		.word	.LC3
 380 0118 11000000 		.word	.LC2
 381              		.cfi_endproc
 382              	.LFE325:
 383              		.size	setup_usb_string, .-setup_usb_string
 384              		.section	.text.sof_handler,"ax",%progbits
 385              		.align	1
 386              		.thumb
 387              		.thumb_func
 388              		.type	sof_handler, %function
 389              	sof_handler:
 390              	.LFB329:
 391              		.loc 1 397 0
 392              		.cfi_startproc
 393              		@ args = 0, pretend = 0, frame = 0
 394              		@ frame_needed = 0, uses_anonymous_args = 0
 395              	.LVL56:
 396 0000 08B5     		push	{r3, lr}
 397              		.cfi_def_cfa_offset 8
 398              		.cfi_offset 3, -8
 399              		.cfi_offset 14, -4
ARM GAS  /tmp/ccvmLSYu.s 			page 8


 400              	.LBB57:
 401              	.LBB58:
 402              	.LBB59:
 403              	.LBB60:
 404              	.LBB61:
 405              	.LBB62:
 406              	.LBB63:
 407              		.file 2 "../../modules/ChibiOS/os/common/ext/ARM/CMSIS/Core/Include/cmsis_gcc.h"
 408              		.loc 2 493 0
 409 0002 2023     		movs	r3, #32
 410              		.syntax unified
 411              	@ 493 "../../modules/ChibiOS/os/common/ext/ARM/CMSIS/Core/Include/cmsis_gcc.h" 1
 412 0004 83F31188 		MSR basepri, r3
 413              	@ 0 "" 2
 414              	.LVL57:
 415              		.thumb
 416              		.syntax unified
 417              	.LBE63:
 418              	.LBE62:
 419              	.LBE61:
 420              	.LBE60:
 421              		.file 3 "../../modules/ChibiOS/os/rt/include/chsys.h"
 422              		.loc 3 396 0
 423 0008 FFF7FEFF 		bl	_stats_start_measure_crit_isr
 424              	.LVL58:
 425              	.LBE59:
 426              	.LBE58:
 427              	.LBE57:
 428              		.loc 1 402 0
 429 000c 0448     		ldr	r0, .L42
 430 000e FFF7FEFF 		bl	sduSOFHookI
 431              	.LVL59:
 432              	.LBB64:
 433              	.LBB65:
 434              	.LBB66:
 435              		.loc 3 416 0
 436 0012 FFF7FEFF 		bl	_stats_stop_measure_crit_isr
 437              	.LVL60:
 438              	.LBB67:
 439              	.LBB68:
 440              	.LBB69:
 441              	.LBB70:
 442              		.loc 2 493 0
 443 0016 0023     		movs	r3, #0
 444              		.syntax unified
 445              	@ 493 "../../modules/ChibiOS/os/common/ext/ARM/CMSIS/Core/Include/cmsis_gcc.h" 1
 446 0018 83F31188 		MSR basepri, r3
 447              	@ 0 "" 2
 448              	.LVL61:
 449              		.thumb
 450              		.syntax unified
 451 001c 08BD     		pop	{r3, pc}
 452              	.L43:
 453 001e 00BF     		.align	2
 454              	.L42:
 455 0020 00000000 		.word	.LANCHOR3
 456              	.LBE70:
ARM GAS  /tmp/ccvmLSYu.s 			page 9


 457              	.LBE69:
 458              	.LBE68:
 459              	.LBE67:
 460              	.LBE66:
 461              	.LBE65:
 462              	.LBE64:
 463              		.cfi_endproc
 464              	.LFE329:
 465              		.size	sof_handler, .-sof_handler
 466              		.section	.text.usb_event,"ax",%progbits
 467              		.align	1
 468              		.thumb
 469              		.thumb_func
 470              		.type	usb_event, %function
 471              	usb_event:
 472              	.LFB328:
 473              		.loc 1 348 0
 474              		.cfi_startproc
 475              		@ args = 0, pretend = 0, frame = 0
 476              		@ frame_needed = 0, uses_anonymous_args = 0
 477              	.LVL62:
 478 0000 10B5     		push	{r4, lr}
 479              		.cfi_def_cfa_offset 8
 480              		.cfi_offset 4, -8
 481              		.cfi_offset 14, -4
 482              		.loc 1 348 0
 483 0002 0446     		mov	r4, r0
 484              		.loc 1 351 0
 485 0004 0529     		cmp	r1, #5
 486 0006 2DD8     		bhi	.L44
 487 0008 DFE801F0 		tbb	[pc, r1]
 488              	.L47:
 489 000c 16       		.byte	(.L46-.L47)/2
 490 000d 2C       		.byte	(.L44-.L47)/2
 491 000e 03       		.byte	(.L48-.L47)/2
 492 000f 16       		.byte	(.L46-.L47)/2
 493 0010 16       		.byte	(.L46-.L47)/2
 494 0011 1F       		.byte	(.L49-.L47)/2
 495              		.p2align 1
 496              	.L48:
 497              	.LVL63:
 498              	.LBB109:
 499              	.LBB110:
 500              	.LBB111:
 501              	.LBB112:
 502              	.LBB113:
 503              	.LBB114:
 504              	.LBB115:
 505              	.LBB116:
 506              		.loc 2 493 0
 507 0012 2023     		movs	r3, #32
 508              		.syntax unified
 509              	@ 493 "../../modules/ChibiOS/os/common/ext/ARM/CMSIS/Core/Include/cmsis_gcc.h" 1
 510 0014 83F31188 		MSR basepri, r3
 511              	@ 0 "" 2
 512              	.LVL64:
 513              		.thumb
ARM GAS  /tmp/ccvmLSYu.s 			page 10


 514              		.syntax unified
 515              	.LBE116:
 516              	.LBE115:
 517              	.LBE114:
 518              	.LBE113:
 519              		.loc 3 396 0
 520 0018 FFF7FEFF 		bl	_stats_start_measure_crit_isr
 521              	.LVL65:
 522              	.LBE112:
 523              	.LBE111:
 524              		.loc 1 360 0
 525 001c 2046     		mov	r0, r4
 526 001e 124A     		ldr	r2, .L51
 527 0020 0121     		movs	r1, #1
 528 0022 FFF7FEFF 		bl	usbInitEndpointI
 529              	.LVL66:
 530              		.loc 1 361 0
 531 0026 2046     		mov	r0, r4
 532 0028 104A     		ldr	r2, .L51+4
 533 002a 0221     		movs	r1, #2
 534 002c FFF7FEFF 		bl	usbInitEndpointI
 535              	.LVL67:
 536              		.loc 1 364 0
 537 0030 0F48     		ldr	r0, .L51+8
 538 0032 FFF7FEFF 		bl	sduConfigureHookI
 539              	.LVL68:
 540 0036 10E0     		b	.L50
 541              	.LVL69:
 542              	.L46:
 543              	.LBE110:
 544              	.LBE109:
 545              	.LBB117:
 546              	.LBB118:
 547              	.LBB119:
 548              	.LBB120:
 549              	.LBB121:
 550              	.LBB122:
 551              		.loc 2 493 0
 552 0038 2023     		movs	r3, #32
 553              		.syntax unified
 554              	@ 493 "../../modules/ChibiOS/os/common/ext/ARM/CMSIS/Core/Include/cmsis_gcc.h" 1
 555 003a 83F31188 		MSR basepri, r3
 556              	@ 0 "" 2
 557              	.LVL70:
 558              		.thumb
 559              		.syntax unified
 560              	.LBE122:
 561              	.LBE121:
 562              	.LBE120:
 563              	.LBE119:
 564              		.loc 3 396 0
 565 003e FFF7FEFF 		bl	_stats_start_measure_crit_isr
 566              	.LVL71:
 567              	.LBE118:
 568              	.LBE117:
 569              		.loc 1 376 0
 570 0042 0B48     		ldr	r0, .L51+8
ARM GAS  /tmp/ccvmLSYu.s 			page 11


 571 0044 FFF7FEFF 		bl	sduSuspendHookI
 572              	.LVL72:
 573 0048 07E0     		b	.L50
 574              	.LVL73:
 575              	.L49:
 576              	.LBB123:
 577              	.LBB124:
 578              	.LBB125:
 579              	.LBB126:
 580              	.LBB127:
 581              	.LBB128:
 582              		.loc 2 493 0
 583 004a 2023     		movs	r3, #32
 584              		.syntax unified
 585              	@ 493 "../../modules/ChibiOS/os/common/ext/ARM/CMSIS/Core/Include/cmsis_gcc.h" 1
 586 004c 83F31188 		MSR basepri, r3
 587              	@ 0 "" 2
 588              	.LVL74:
 589              		.thumb
 590              		.syntax unified
 591              	.LBE128:
 592              	.LBE127:
 593              	.LBE126:
 594              	.LBE125:
 595              		.loc 3 396 0
 596 0050 FFF7FEFF 		bl	_stats_start_measure_crit_isr
 597              	.LVL75:
 598              	.LBE124:
 599              	.LBE123:
 600              		.loc 1 384 0
 601 0054 0648     		ldr	r0, .L51+8
 602 0056 FFF7FEFF 		bl	sduWakeupHookI
 603              	.LVL76:
 604              	.L50:
 605              	.LBB129:
 606              	.LBB130:
 607              		.loc 3 416 0
 608 005a FFF7FEFF 		bl	_stats_stop_measure_crit_isr
 609              	.LVL77:
 610              	.LBB131:
 611              	.LBB132:
 612              	.LBB133:
 613              	.LBB134:
 614              		.loc 2 493 0
 615 005e 0023     		movs	r3, #0
 616              		.syntax unified
 617              	@ 493 "../../modules/ChibiOS/os/common/ext/ARM/CMSIS/Core/Include/cmsis_gcc.h" 1
 618 0060 83F31188 		MSR basepri, r3
 619              	@ 0 "" 2
 620              	.LVL78:
 621              		.thumb
 622              		.syntax unified
 623              	.L44:
 624 0064 10BD     		pop	{r4, pc}
 625              	.LVL79:
 626              	.L52:
 627 0066 00BF     		.align	2
ARM GAS  /tmp/ccvmLSYu.s 			page 12


 628              	.L51:
 629 0068 00000000 		.word	.LANCHOR4
 630 006c 00000000 		.word	.LANCHOR5
 631 0070 00000000 		.word	.LANCHOR3
 632              	.LBE134:
 633              	.LBE133:
 634              	.LBE132:
 635              	.LBE131:
 636              	.LBE130:
 637              	.LBE129:
 638              		.cfi_endproc
 639              	.LFE328:
 640              		.size	usb_event, .-usb_event
 641              		.section	.text.setup_usb_strings,"ax",%progbits
 642              		.align	1
 643              		.global	setup_usb_strings
 644              		.thumb
 645              		.thumb_func
 646              		.type	setup_usb_strings, %function
 647              	setup_usb_strings:
 648              	.LFB326:
 649              		.loc 1 268 0
 650              		.cfi_startproc
 651              		@ args = 0, pretend = 0, frame = 0
 652              		@ frame_needed = 0, uses_anonymous_args = 0
 653 0000 38B5     		push	{r3, r4, r5, lr}
 654              		.cfi_def_cfa_offset 16
 655              		.cfi_offset 3, -16
 656              		.cfi_offset 4, -12
 657              		.cfi_offset 5, -8
 658              		.cfi_offset 14, -4
 659              		.loc 1 269 0
 660 0002 0C4D     		ldr	r5, .L54
 661 0004 0C4C     		ldr	r4, .L54+4
 662 0006 0D49     		ldr	r1, .L54+8
 663 0008 2A46     		mov	r2, r5
 664 000a 04F10800 		add	r0, r4, #8
 665 000e FFF7FEFF 		bl	setup_usb_string
 666              	.LVL80:
 667              		.loc 1 270 0
 668 0012 05F1CA02 		add	r2, r5, #202
 669 0016 04F11000 		add	r0, r4, #16
 670 001a 0949     		ldr	r1, .L54+12
 671 001c FFF7FEFF 		bl	setup_usb_string
 672              	.LVL81:
 673              		.loc 1 271 0
 674 0020 05F5CA72 		add	r2, r5, #404
 675 0024 04F11800 		add	r0, r4, #24
 676 0028 0649     		ldr	r1, .L54+16
 677              		.loc 1 272 0
 678 002a BDE83840 		pop	{r3, r4, r5, lr}
 679              		.cfi_restore 14
 680              		.cfi_restore 5
 681              		.cfi_restore 4
 682              		.cfi_restore 3
 683              		.cfi_def_cfa_offset 0
 684              		.loc 1 271 0
ARM GAS  /tmp/ccvmLSYu.s 			page 13


 685 002e FFF7FEBF 		b	setup_usb_string
 686              	.LVL82:
 687              	.L55:
 688 0032 00BF     		.align	2
 689              	.L54:
 690 0034 00000000 		.word	.LANCHOR6
 691 0038 00000000 		.word	.LANCHOR2
 692 003c 2C000000 		.word	.LC4
 693 0040 00000000 		.word	.LC0
 694 0044 08000000 		.word	.LC1
 695              		.cfi_endproc
 696              	.LFE326:
 697              		.size	setup_usb_strings, .-setup_usb_strings
 698              		.global	serusbcfg
 699              		.global	usbcfg
 700              		.global	SDU1
 701              		.section	.rodata.ep1config,"a",%progbits
 702              		.align	2
 703              		.set	.LANCHOR4,. + 0
 704              		.type	ep1config, %object
 705              		.size	ep1config, 36
 706              	ep1config:
 707 0000 02000000 		.word	2
 708 0004 00000000 		.word	0
 709 0008 00000000 		.word	sduDataTransmitted
 710 000c 00000000 		.word	sduDataReceived
 711 0010 4000     		.short	64
 712 0012 4000     		.short	64
 713 0014 00000000 		.word	ep1instate
 714 0018 00000000 		.word	ep1outstate
 715 001c 0200     		.short	2
 716 001e 0000     		.space	2
 717 0020 00000000 		.word	0
 718              		.section	.bss.ep2instate,"aw",%nobits
 719              		.align	2
 720              		.type	ep2instate, %object
 721              		.size	ep2instate, 16
 722              	ep2instate:
 723 0000 00000000 		.space	16
 723      00000000 
 723      00000000 
 723      00000000 
 724              		.section	.bss.SDU1,"aw",%nobits
 725              		.align	2
 726              		.set	.LANCHOR3,. + 0
 727              		.type	SDU1, %object
 728              		.size	SDU1, 1168
 729              	SDU1:
 730 0000 00000000 		.space	1168
 730      00000000 
 730      00000000 
 730      00000000 
 730      00000000 
 731              		.section	.bss.ep1instate,"aw",%nobits
 732              		.align	2
 733              		.type	ep1instate, %object
 734              		.size	ep1instate, 16
ARM GAS  /tmp/ccvmLSYu.s 			page 14


 735              	ep1instate:
 736 0000 00000000 		.space	16
 736      00000000 
 736      00000000 
 736      00000000 
 737              		.section	.data.vcom_strings,"aw",%progbits
 738              		.align	2
 739              		.set	.LANCHOR2,. + 0
 740              		.type	vcom_strings, %object
 741              		.size	vcom_strings, 32
 742              	vcom_strings:
 743 0000 04000000 		.word	4
 744 0004 00000000 		.word	vcom_string0
 745 0008 00000000 		.word	0
 746 000c 00000000 		.word	0
 747 0010 00000000 		.word	0
 748 0014 00000000 		.word	0
 749 0018 00000000 		.word	0
 750 001c 00000000 		.word	0
 751              		.section	.rodata.vcom_configuration_descriptor,"a",%progbits
 752              		.align	2
 753              		.set	.LANCHOR1,. + 0
 754              		.type	vcom_configuration_descriptor, %object
 755              		.size	vcom_configuration_descriptor, 8
 756              	vcom_configuration_descriptor:
 757 0000 43000000 		.word	67
 758 0004 00000000 		.word	vcom_configuration_descriptor_data
 759              		.section	.rodata.ep2config,"a",%progbits
 760              		.align	2
 761              		.set	.LANCHOR5,. + 0
 762              		.type	ep2config, %object
 763              		.size	ep2config, 36
 764              	ep2config:
 765 0000 03000000 		.word	3
 766 0004 00000000 		.word	0
 767 0008 00000000 		.word	sduInterruptTransmitted
 768 000c 00000000 		.word	0
 769 0010 1000     		.short	16
 770 0012 0000     		.short	0
 771 0014 00000000 		.word	ep2instate
 772 0018 00000000 		.word	0
 773 001c 0100     		.short	1
 774 001e 0000     		.space	2
 775 0020 00000000 		.word	0
 776              		.section	.rodata.str1.1,"aMS",%progbits,1
 777              	.LC0:
 778 0000 25424F41 		.ascii	"%BOARD%\000"
 778      52442500 
 779              	.LC1:
 780 0008 25534552 		.ascii	"%SERIAL%\000"
 780      49414C25 
 780      00
 781              	.LC2:
 782 0011 73746D33 		.ascii	"stm32l475\000"
 782      326C3437 
 782      3500
 783              	.LC3:
ARM GAS  /tmp/ccvmLSYu.s 			page 15


 784 001b 30313233 		.ascii	"0123456789ABCDEF\000"
 784      34353637 
 784      38394142 
 784      43444546 
 784      00
 785              	.LC4:
 786 002c 41726475 		.ascii	"ArduPilot\000"
 786      50696C6F 
 786      7400
 787              		.section	.rodata.usbcfg,"a",%progbits
 788              		.align	2
 789              		.type	usbcfg, %object
 790              		.size	usbcfg, 16
 791              	usbcfg:
 792 0000 00000000 		.word	usb_event
 793 0004 00000000 		.word	get_descriptor
 794 0008 00000000 		.word	sduRequestsHook
 795 000c 00000000 		.word	sof_handler
 796              		.section	.rodata.vcom_configuration_descriptor_data,"a",%progbits
 797              		.type	vcom_configuration_descriptor_data, %object
 798              		.size	vcom_configuration_descriptor_data, 67
 799              	vcom_configuration_descriptor_data:
 800 0000 09       		.byte	9
 801 0001 02       		.byte	2
 802 0002 43       		.byte	67
 803 0003 00       		.byte	0
 804 0004 02       		.byte	2
 805 0005 01       		.byte	1
 806 0006 00       		.byte	0
 807 0007 C0       		.byte	-64
 808 0008 32       		.byte	50
 809 0009 09       		.byte	9
 810 000a 04       		.byte	4
 811 000b 00       		.byte	0
 812 000c 00       		.byte	0
 813 000d 01       		.byte	1
 814 000e 02       		.byte	2
 815 000f 02       		.byte	2
 816 0010 01       		.byte	1
 817 0011 00       		.byte	0
 818 0012 05       		.byte	5
 819 0013 24       		.byte	36
 820 0014 00       		.byte	0
 821 0015 10       		.byte	16
 822 0016 01       		.byte	1
 823 0017 05       		.byte	5
 824 0018 24       		.byte	36
 825 0019 01       		.byte	1
 826 001a 00       		.byte	0
 827 001b 01       		.byte	1
 828 001c 04       		.byte	4
 829 001d 24       		.byte	36
 830 001e 02       		.byte	2
 831 001f 02       		.byte	2
 832 0020 05       		.byte	5
 833 0021 24       		.byte	36
 834 0022 06       		.byte	6
ARM GAS  /tmp/ccvmLSYu.s 			page 16


 835 0023 00       		.byte	0
 836 0024 01       		.byte	1
 837 0025 07       		.byte	7
 838 0026 05       		.byte	5
 839 0027 82       		.byte	-126
 840 0028 03       		.byte	3
 841 0029 08       		.byte	8
 842 002a 00       		.byte	0
 843 002b FF       		.byte	-1
 844 002c 09       		.byte	9
 845 002d 04       		.byte	4
 846 002e 01       		.byte	1
 847 002f 00       		.byte	0
 848 0030 02       		.byte	2
 849 0031 0A       		.byte	10
 850 0032 00       		.byte	0
 851 0033 00       		.byte	0
 852 0034 00       		.byte	0
 853 0035 07       		.byte	7
 854 0036 05       		.byte	5
 855 0037 01       		.byte	1
 856 0038 02       		.byte	2
 857 0039 40       		.byte	64
 858 003a 00       		.byte	0
 859 003b 00       		.byte	0
 860 003c 07       		.byte	7
 861 003d 05       		.byte	5
 862 003e 81       		.byte	-127
 863 003f 02       		.byte	2
 864 0040 40       		.byte	64
 865 0041 00       		.byte	0
 866 0042 00       		.byte	0
 867              		.section	.rodata.vcom_device_descriptor_data,"a",%progbits
 868              		.type	vcom_device_descriptor_data, %object
 869              		.size	vcom_device_descriptor_data, 18
 870              	vcom_device_descriptor_data:
 871 0000 12       		.byte	18
 872 0001 01       		.byte	1
 873 0002 10       		.byte	16
 874 0003 01       		.byte	1
 875 0004 02       		.byte	2
 876 0005 00       		.byte	0
 877 0006 00       		.byte	0
 878 0007 40       		.byte	64
 879 0008 83       		.byte	-125
 880 0009 04       		.byte	4
 881 000a 40       		.byte	64
 882 000b 57       		.byte	87
 883 000c 00       		.byte	0
 884 000d 02       		.byte	2
 885 000e 01       		.byte	1
 886 000f 02       		.byte	2
 887 0010 03       		.byte	3
 888 0011 01       		.byte	1
 889              		.section	.bss.ep1outstate,"aw",%nobits
 890              		.align	2
 891              		.type	ep1outstate, %object
ARM GAS  /tmp/ccvmLSYu.s 			page 17


 892              		.size	ep1outstate, 16
 893              	ep1outstate:
 894 0000 00000000 		.space	16
 894      00000000 
 894      00000000 
 894      00000000 
 895              		.section	.rodata.vcom_string0,"a",%progbits
 896              		.type	vcom_string0, %object
 897              		.size	vcom_string0, 4
 898              	vcom_string0:
 899 0000 04       		.byte	4
 900 0001 03       		.byte	3
 901 0002 09       		.byte	9
 902 0003 04       		.byte	4
 903              		.section	.bss.vcom_buffers,"aw",%nobits
 904              		.set	.LANCHOR6,. + 0
 905              		.type	vcom_buffers, %object
 906              		.size	vcom_buffers, 606
 907              	vcom_buffers:
 908 0000 00000000 		.space	606
 908      00000000 
 908      00000000 
 908      00000000 
 908      00000000 
 909              		.section	.rodata.serusbcfg,"a",%progbits
 910              		.align	2
 911              		.type	serusbcfg, %object
 912              		.size	serusbcfg, 8
 913              	serusbcfg:
 914 0000 00000000 		.word	USBD1
 915 0004 01       		.byte	1
 916 0005 01       		.byte	1
 917 0006 02       		.byte	2
 918 0007 00       		.space	1
 919              		.section	.rodata.vcom_device_descriptor,"a",%progbits
 920              		.align	2
 921              		.set	.LANCHOR0,. + 0
 922              		.type	vcom_device_descriptor, %object
 923              		.size	vcom_device_descriptor, 8
 924              	vcom_device_descriptor:
 925 0000 12000000 		.word	18
 926 0004 00000000 		.word	vcom_device_descriptor_data
 927              		.text
 928              	.Letext0:
 929              		.file 4 "/usr/lib/gcc/arm-none-eabi/5.4.1/include/stddef.h"
 930              		.file 5 "/usr/include/newlib/machine/_default_types.h"
 931              		.file 6 "/usr/include/newlib/sys/_stdint.h"
 932              		.file 7 "../../modules/ChibiOS/os/common/ports/ARMCMx/compilers/GCC/chtypes.h"
 933              		.file 8 "../../modules/ChibiOS/os/rt/include/chsystypes.h"
 934              		.file 9 "../../modules/ChibiOS/os/rt/include/chschd.h"
 935              		.file 10 "../../modules/ChibiOS/os/rt/include/chtime.h"
 936              		.file 11 "../../modules/ChibiOS/os/common/ports/ARMCMx/chcore.h"
 937              		.file 12 "../../modules/ChibiOS/os/common/ports/ARMCMx/chcore_v7m.h"
 938              		.file 13 "../../modules/ChibiOS/os/rt/include/chtm.h"
 939              		.file 14 "../../modules/ChibiOS/os/rt/include/chstats.h"
 940              		.file 15 "../../modules/ChibiOS/os/rt/include/chsem.h"
 941              		.file 16 "../../modules/ChibiOS/os/rt/include/chmtx.h"
ARM GAS  /tmp/ccvmLSYu.s 			page 18


 942              		.file 17 "../../modules/ChibiOS/os/rt/include/chevents.h"
 943              		.file 18 "../../modules/ChibiOS/os/hal/include/hal_buffers.h"
 944              		.file 19 "../../modules/ChibiOS/os/hal/include/hal_usb.h"
 945              		.file 20 "../../modules/ChibiOS/os/hal/ports/STM32/LLD/OTGv1/hal_usb_lld.h"
 946              		.file 21 "../../modules/ChibiOS/os/hal/ports/STM32/LLD/OTGv1/stm32_otg.h"
 947              		.file 22 "../../modules/ChibiOS/os/hal/include/hal_serial_usb.h"
 948              		.file 23 "../../modules/ChibiOS/os/hal/osal/rt/osal.h"
 949              		.file 24 "../../modules/ChibiOS/os/common/ext/ARM/CMSIS/Core/Include/core_cm4.h"
 950              		.file 25 "/usr/include/newlib/string.h"