ARM GAS  /tmp/ccDYD2az.s 			page 1


   1              		.syntax unified
   2              		.cpu cortex-m4
   3              		.eabi_attribute 27, 1
   4              		.eabi_attribute 28, 1
   5              		.fpu fpv4-sp-d16
   6              		.eabi_attribute 20, 1
   7              		.eabi_attribute 21, 1
   8              		.eabi_attribute 23, 3
   9              		.eabi_attribute 24, 1
  10              		.eabi_attribute 25, 1
  11              		.eabi_attribute 26, 1
  12              		.eabi_attribute 30, 4
  13              		.eabi_attribute 34, 1
  14              		.eabi_attribute 18, 4
  15              		.thumb
  16              		.syntax unified
  17              		.file	"watchdog.c"
  18              		.text
  19              	.Ltext0:
  20              		.cfi_sections	.debug_frame
  21              		.section	.text.stm32_watchdog_init,"ax",%progbits
  22              		.align	1
  23              		.global	stm32_watchdog_init
  24              		.thumb
  25              		.thumb_func
  26              		.type	stm32_watchdog_init, %function
  27              	stm32_watchdog_init:
  28              	.LFB323:
  29              		.file 1 "../../libraries/AP_HAL_ChibiOS/hwdef/common/watchdog.c"
  30              		.loc 1 62 0
  31              		.cfi_startproc
  32              		@ args = 0, pretend = 0, frame = 0
  33              		@ frame_needed = 0, uses_anonymous_args = 0
  34              		@ link register save eliminated.
  35              		.loc 1 64 0
  36 0000 074B     		ldr	r3, .L2
  37 0002 45F25552 		movw	r2, #21845
  38 0006 1A60     		str	r2, [r3]
  39              		.loc 1 65 0
  40 0008 0222     		movs	r2, #2
  41 000a 5A60     		str	r2, [r3, #4]
  42              		.loc 1 66 0
  43 000c 40F6FF72 		movw	r2, #4095
  44 0010 9A60     		str	r2, [r3, #8]
  45              		.loc 1 67 0
  46 0012 4CF6CC42 		movw	r2, #52428
  47 0016 1A60     		str	r2, [r3]
  48              		.loc 1 68 0
  49 0018 024B     		ldr	r3, .L2+4
  50 001a 0122     		movs	r2, #1
  51 001c 1A70     		strb	r2, [r3]
  52 001e 7047     		bx	lr
  53              	.L3:
  54              		.align	2
  55              	.L2:
  56 0020 00300040 		.word	1073754112
  57 0024 00000000 		.word	.LANCHOR0
ARM GAS  /tmp/ccDYD2az.s 			page 2


  58              		.cfi_endproc
  59              	.LFE323:
  60              		.size	stm32_watchdog_init, .-stm32_watchdog_init
  61              		.section	.text.stm32_watchdog_pat,"ax",%progbits
  62              		.align	1
  63              		.global	stm32_watchdog_pat
  64              		.thumb
  65              		.thumb_func
  66              		.type	stm32_watchdog_pat, %function
  67              	stm32_watchdog_pat:
  68              	.LFB324:
  69              		.loc 1 76 0
  70              		.cfi_startproc
  71              		@ args = 0, pretend = 0, frame = 0
  72              		@ frame_needed = 0, uses_anonymous_args = 0
  73              		@ link register save eliminated.
  74              		.loc 1 77 0
  75 0000 034B     		ldr	r3, .L10
  76 0002 1B78     		ldrb	r3, [r3]	@ zero_extendqisi2
  77 0004 1BB1     		cbz	r3, .L4
  78              		.loc 1 78 0
  79 0006 034B     		ldr	r3, .L10+4
  80 0008 4AF6AA22 		movw	r2, #43690
  81 000c 1A60     		str	r2, [r3]
  82              	.L4:
  83 000e 7047     		bx	lr
  84              	.L11:
  85              		.align	2
  86              	.L10:
  87 0010 00000000 		.word	.LANCHOR0
  88 0014 00300040 		.word	1073754112
  89              		.cfi_endproc
  90              	.LFE324:
  91              		.size	stm32_watchdog_pat, .-stm32_watchdog_pat
  92              		.section	.text.stm32_watchdog_save_reason,"ax",%progbits
  93              		.align	1
  94              		.global	stm32_watchdog_save_reason
  95              		.thumb
  96              		.thumb_func
  97              		.type	stm32_watchdog_save_reason, %function
  98              	stm32_watchdog_save_reason:
  99              	.LFB325:
 100              		.loc 1 86 0
 101              		.cfi_startproc
 102              		@ args = 0, pretend = 0, frame = 0
 103              		@ frame_needed = 0, uses_anonymous_args = 0
 104              		@ link register save eliminated.
 105              		.loc 1 87 0
 106 0000 034B     		ldr	r3, .L17
 107 0002 1B68     		ldr	r3, [r3]
 108 0004 9B00     		lsls	r3, r3, #2
 109              		.loc 1 88 0
 110 0006 42BF     		ittt	mi
 111 0008 024B     		ldrmi	r3, .L17+4
 112 000a 0122     		movmi	r2, #1
 113 000c 1A70     		strbmi	r2, [r3]
 114 000e 7047     		bx	lr
ARM GAS  /tmp/ccDYD2az.s 			page 3


 115              	.L18:
 116              		.align	2
 117              	.L17:
 118 0010 74380240 		.word	1073887348
 119 0014 00000000 		.word	.LANCHOR1
 120              		.cfi_endproc
 121              	.LFE325:
 122              		.size	stm32_watchdog_save_reason, .-stm32_watchdog_save_reason
 123              		.section	.text.stm32_watchdog_clear_reason,"ax",%progbits
 124              		.align	1
 125              		.global	stm32_watchdog_clear_reason
 126              		.thumb
 127              		.thumb_func
 128              		.type	stm32_watchdog_clear_reason, %function
 129              	stm32_watchdog_clear_reason:
 130              	.LFB326:
 131              		.loc 1 96 0
 132              		.cfi_startproc
 133              		@ args = 0, pretend = 0, frame = 0
 134              		@ frame_needed = 0, uses_anonymous_args = 0
 135              		@ link register save eliminated.
 136              		.loc 1 97 0
 137 0000 024B     		ldr	r3, .L20
 138 0002 4FF08072 		mov	r2, #16777216
 139 0006 1A60     		str	r2, [r3]
 140 0008 7047     		bx	lr
 141              	.L21:
 142 000a 00BF     		.align	2
 143              	.L20:
 144 000c 74380240 		.word	1073887348
 145              		.cfi_endproc
 146              	.LFE326:
 147              		.size	stm32_watchdog_clear_reason, .-stm32_watchdog_clear_reason
 148              		.section	.text.stm32_was_watchdog_reset,"ax",%progbits
 149              		.align	1
 150              		.global	stm32_was_watchdog_reset
 151              		.thumb
 152              		.thumb_func
 153              		.type	stm32_was_watchdog_reset, %function
 154              	stm32_was_watchdog_reset:
 155              	.LFB327:
 156              		.loc 1 104 0
 157              		.cfi_startproc
 158              		@ args = 0, pretend = 0, frame = 0
 159              		@ frame_needed = 0, uses_anonymous_args = 0
 160              		@ link register save eliminated.
 161              		.loc 1 106 0
 162 0000 014B     		ldr	r3, .L23
 163 0002 1878     		ldrb	r0, [r3]	@ zero_extendqisi2
 164 0004 7047     		bx	lr
 165              	.L24:
 166 0006 00BF     		.align	2
 167              	.L23:
 168 0008 00000000 		.word	.LANCHOR1
 169              		.cfi_endproc
 170              	.LFE327:
 171              		.size	stm32_was_watchdog_reset, .-stm32_was_watchdog_reset
ARM GAS  /tmp/ccDYD2az.s 			page 4


 172              		.section	.text.stm32_watchdog_save,"ax",%progbits
 173              		.align	1
 174              		.global	stm32_watchdog_save
 175              		.thumb
 176              		.thumb_func
 177              		.type	stm32_watchdog_save, %function
 178              	stm32_watchdog_save:
 179              	.LFB328:
 180              		.loc 1 112 0
 181              		.cfi_startproc
 182              		@ args = 0, pretend = 0, frame = 0
 183              		@ frame_needed = 0, uses_anonymous_args = 0
 184              		@ link register save eliminated.
 185              	.LVL0:
 186              		.loc 1 113 0
 187 0000 CAB2     		uxtb	r2, r1
 188 0002 0146     		mov	r1, r0
 189              	.LVL1:
 190 0004 0120     		movs	r0, #1
 191              	.LVL2:
 192 0006 FFF7FEBF 		b	set_rtc_backup
 193              	.LVL3:
 194              		.cfi_endproc
 195              	.LFE328:
 196              		.size	stm32_watchdog_save, .-stm32_watchdog_save
 197              		.section	.text.stm32_watchdog_load,"ax",%progbits
 198              		.align	1
 199              		.global	stm32_watchdog_load
 200              		.thumb
 201              		.thumb_func
 202              		.type	stm32_watchdog_load, %function
 203              	stm32_watchdog_load:
 204              	.LFB329:
 205              		.loc 1 120 0
 206              		.cfi_startproc
 207              		@ args = 0, pretend = 0, frame = 0
 208              		@ frame_needed = 0, uses_anonymous_args = 0
 209              		@ link register save eliminated.
 210              	.LVL4:
 211              		.loc 1 121 0
 212 0000 CAB2     		uxtb	r2, r1
 213 0002 0146     		mov	r1, r0
 214              	.LVL5:
 215 0004 0120     		movs	r0, #1
 216              	.LVL6:
 217 0006 FFF7FEBF 		b	get_rtc_backup
 218              	.LVL7:
 219              		.cfi_endproc
 220              	.LFE329:
 221              		.size	stm32_watchdog_load, .-stm32_watchdog_load
 222              		.section	.bss.was_watchdog_reset,"aw",%nobits
 223              		.set	.LANCHOR1,. + 0
 224              		.type	was_watchdog_reset, %object
 225              		.size	was_watchdog_reset, 1
 226              	was_watchdog_reset:
 227 0000 00       		.space	1
 228              		.section	.bss.watchdog_enabled,"aw",%nobits
ARM GAS  /tmp/ccDYD2az.s 			page 5


 229              		.set	.LANCHOR0,. + 0
 230              		.type	watchdog_enabled, %object
 231              		.size	watchdog_enabled, 1
 232              	watchdog_enabled:
 233 0000 00       		.space	1
 234              		.text
 235              	.Letext0:
 236              		.file 2 "/usr/lib/gcc/arm-none-eabi/5.4.1/include/stddef.h"
 237              		.file 3 "/usr/include/newlib/machine/_default_types.h"
 238              		.file 4 "/usr/include/newlib/sys/_stdint.h"
 239              		.file 5 "../../modules/ChibiOS/os/common/ports/ARMCMx/compilers/GCC/chtypes.h"
 240              		.file 6 "../../modules/ChibiOS/os/rt/include/chsystypes.h"
 241              		.file 7 "../../modules/ChibiOS/os/rt/include/chschd.h"
 242              		.file 8 "../../modules/ChibiOS/os/rt/include/chtime.h"
 243              		.file 9 "../../modules/ChibiOS/os/common/ports/ARMCMx/chcore.h"
 244              		.file 10 "../../modules/ChibiOS/os/common/ports/ARMCMx/chcore_v7m.h"
 245              		.file 11 "../../modules/ChibiOS/os/rt/include/chtm.h"
 246              		.file 12 "../../modules/ChibiOS/os/rt/include/chstats.h"
 247              		.file 13 "../../modules/ChibiOS/os/rt/include/chsem.h"
 248              		.file 14 "../../modules/ChibiOS/os/rt/include/chmtx.h"
 249              		.file 15 "../../libraries/AP_HAL_ChibiOS/hwdef/common/stm32_util.h"
 250              		.file 16 "../../modules/ChibiOS/os/common/ext/ARM/CMSIS/Core/Include/core_cm4.h"